 MQ2Main

 Timestamp is 4d3d7c7d (Mon Jan 24 08:19:57 2011)

 Preferred load address is 03000000

 Start         Length     Name                   Class
 0001:00000000 0008010fH .text                   CODE
 0001:00080110 0000011eH .text$x                 CODE
 0001:00080230 0000043fH .text$yc                CODE
 0001:00080670 000003cfH .text$yd                CODE
 0002:00000000 000001d8H .idata$5                DATA
 0002:000001d8 00000004H .CRT$XCA                DATA
 0002:000001dc 00000030H .CRT$XCU                DATA
 0002:0000020c 00000004H .CRT$XCZ                DATA
 0002:00000210 00000004H .CRT$XIA                DATA
 0002:00000214 00000018H .CRT$XIC                DATA
 0002:0000022c 00000004H .CRT$XIZ                DATA
 0002:00000230 00000004H .CRT$XPA                DATA
 0002:00000234 00000004H .CRT$XPX                DATA
 0002:00000238 00000004H .CRT$XPXA               DATA
 0002:0000023c 00000004H .CRT$XPZ                DATA
 0002:00000240 00000004H .CRT$XTA                DATA
 0002:00000244 00000004H .CRT$XTZ                DATA
 0002:00000250 0001abc0H .rdata                  DATA
 0002:0001ae10 00000066H .rdata$debug            DATA
 0002:0001ae78 0000113cH .rdata$r                DATA
 0002:0001bfc0 00000050H .rdata$sxdata           DATA
 0002:0001c010 00000004H .rtc$IAA                DATA
 0002:0001c014 00000004H .rtc$IZZ                DATA
 0002:0001c018 00000004H .rtc$TAA                DATA
 0002:0001c01c 00000004H .rtc$TZZ                DATA
 0002:0001c020 00001034H .xdata$x                DATA
 0002:0001d054 00000050H .idata$2                DATA
 0002:0001d0a4 00000014H .idata$3                DATA
 0002:0001d0b8 000001d8H .idata$4                DATA
 0002:0001d290 0000088aH .idata$6                DATA
 0002:0001db20 00008bafH .edata                  DATA
 0003:00000000 0000b1d0H .data                   DATA
 0003:0000b1e0 000152ccH .bss                    DATA

  Address         Publics by Value              Rva+Base       Lib:Object

 0000:00000000       __except_list              00000000     <absolute>
 0000:00000014       ___safe_se_handler_count   00000014     <absolute>
 0000:00000000       ___ImageBase               03000000     <linker-defined>
 0001:00000000       ??0CSidlScreenWnd@EQClasses@@QAE@XZ 03001000 f i EQClasses.obj
 0001:00000010       ??0CXRect@EQClasses@@QAE@HHHH@Z 03001010 f i EQClasses.obj
 0001:00000030       ??0CXRect@EQClasses@@QAE@XZ 03001030 f i EQClasses.obj
 0001:00000040       ??0KeyCombo@EQClasses@@QAE@E_N00@Z 03001040 f i EQClasses.obj
 0001:00000060       ??0KeyCombo@EQClasses@@QAE@XZ 03001060 f i EQClasses.obj
 0001:00000070       ?Clear@KeyCombo@EQClasses@@QAEXXZ 03001070 f i EQClasses.obj
 0001:00000080       ?UsesAlt@KeyCombo@EQClasses@@QBE_NXZ 03001080 f i EQClasses.obj
 0001:00000090       ?UsesCtrl@KeyCombo@EQClasses@@QBE_NXZ 03001090 f i EQClasses.obj
 0001:000000a0       ?UsesShift@KeyCombo@EQClasses@@QBE_NXZ 030010a0 f i EQClasses.obj
 0001:000000b0       ??8KeyCombo@EQClasses@@QAEHABV01@@Z 030010b0 f i EQClasses.obj
 0001:000000d0       ?GetKey@KeyCombo@EQClasses@@QBEIXZ 030010d0 f i EQClasses.obj
 0001:000000e0       ??_I@YGXPAXIHP6EX0@Z@Z     030010e0 f i EQClasses.obj
 0001:00000120       ?GetItemLinkHash@EQ_Item@EQClasses@@QAEPADPADH@Z 03001120 f   EQClasses.obj
 0001:00000130       ?CanDrop@EQ_Item@EQClasses@@QAEHH@Z 03001130 f   EQClasses.obj
 0001:00000140       ?Max_Endurance@EQ_Character1@EQClasses@@QAEHH@Z 03001140 f   EQClasses.obj
 0001:00000150       ?Max_Mana@EQ_Character1@EQClasses@@QAEHH@Z 03001150 f   EQClasses.obj
 0001:00000160       ?Max_HP@EQ_Character1@EQClasses@@QAEHHH@Z 03001160 f   EQClasses.obj
 0001:00000170       ?DoCombatAbility@EQ_Character@EQClasses@@QAEXH@Z 03001170 f   EQClasses.obj
 0001:00000180       ??_VCChatWindow@EQClasses@@SAXPAX@Z 03001180 f   EQClasses.obj
 0001:00000190       ?IsValid@CXWnd@EQClasses@@QBE_NXZ 03001190 f   EQClasses.obj
 0001:000001a0       ?WndNotification@CXWnd@EQClasses@@QAEHPAV12@IPAX@Z 030011a0 f   EQClasses.obj
 0001:000001b0       ?OnResize@CXWnd@EQClasses@@QAEHHH@Z 030011b0 f   EQClasses.obj
 0001:000001c0       ?Show@CXWnd@EQClasses@@QAEH_N0@Z 030011c0 f   EQClasses.obj
 0001:000001d0       ?SetVScrollPos@CXWnd@EQClasses@@QAEHH@Z 030011d0 f   EQClasses.obj
 0001:000001e0       ?SetWindowTextA@CXWnd@EQClasses@@QAEXAAVCXStr@2@@Z 030011e0 f   EQClasses.obj
 0001:000001f0       ?HandleLButtonDown@CXWnd@EQClasses@@QAEHPAVCXPoint@2@I@Z 030011f0 f   EQClasses.obj
 0001:00000200       ?HandleLButtonUp@CXWnd@EQClasses@@QAEHPAVCXPoint@2@I@Z 03001200 f   EQClasses.obj
 0001:00000210       ?HandleLButtonHeld@CXWnd@EQClasses@@QAEHPAVCXPoint@2@I@Z 03001210 f   EQClasses.obj
 0001:00000220       ?HandleLButtonUpAfterHeld@CXWnd@EQClasses@@QAEHPAVCXPoint@2@I@Z 03001220 f   EQClasses.obj
 0001:00000230       ?HandleRButtonDown@CXWnd@EQClasses@@QAEHPAVCXPoint@2@I@Z 03001230 f   EQClasses.obj
 0001:00000240       ?HandleRButtonUp@CXWnd@EQClasses@@QAEHPAVCXPoint@2@I@Z 03001240 f   EQClasses.obj
 0001:00000250       ?HandleRButtonHeld@CXWnd@EQClasses@@QAEHPAVCXPoint@2@I@Z 03001250 f   EQClasses.obj
 0001:00000260       ?HandleRButtonUpAfterHeld@CXWnd@EQClasses@@QAEHPAVCXPoint@2@I@Z 03001260 f   EQClasses.obj
 0001:00000270       ?OnMinimizeBox@CXWnd@EQClasses@@QAEHXZ 03001270 f   EQClasses.obj
 0001:00000280       ?SetFont@CXWnd@EQClasses@@QAEHPAX@Z 03001280 f   EQClasses.obj
 0001:00000290       ?DeleteAll@CListWnd@EQClasses@@QAEXXZ 03001290 f   EQClasses.obj
 0001:000002a0       ??0CXStr@EQClasses@@QAE@ABV01@@Z 030012a0 f   EQClasses.obj
 0001:000002b0       ??1CXStr@EQClasses@@QAE@XZ 030012b0 f   EQClasses.obj
 0001:000002c0       ?SetMaxChars@CEditBaseWnd@EQClasses@@QAEXH@Z 030012c0 f   EQClasses.obj
 0001:000002d0       ?GetNumBankSlots@CBankWnd@EQClasses@@QBEHXZ 030012d0 f   EQClasses.obj
 0001:000002e0       ?CenterPoint@CXRect@EQClasses@@QBE?AVCXPoint@2@XZ 030012e0 f   EQClasses.obj
 0001:000002f0       ?HandleBazaarMsg@CBazaarSearchWnd@EQClasses@@QAEXPADH@Z 030012f0 f   EQClasses.obj
 0001:00000300       ?GetWindowTextA@CXWnd@EQClasses@@QBE?AVCXStr@2@XZ 03001300 f   EQClasses.obj
 0001:00000310       ??0CXStr@EQClasses@@QAE@XZ 03001310 f   EQClasses.obj
 0001:00000320       ?GetRGBAFromIndex@CChatManager@EQClasses@@QAEKH@Z 03001320 f   EQClasses.obj
 0001:00000330       ?InitContextMenu@CChatManager@EQClasses@@QAEHPAVCChatWindow@2@@Z 03001330 f   EQClasses.obj
 0001:00000340       ?GetSTMLText@CStmlWnd@EQClasses@@QBEPAVCXStr@2@AAPAV32@@Z 03001340 f   EQClasses.obj
 0001:00000350       ?WndNotification@CChatWindow@EQClasses@@QAEHPAVCXWnd@2@IPAX@Z 03001350 f   EQClasses.obj
 0001:00000360       ?HandleCombine@CContainerWnd@EQClasses@@QAEXXZ 03001360 f   EQClasses.obj
 0001:00000370       ?DoHotButton@CHotButtonWnd@EQClasses@@QAEXHH@Z 03001370 f   EQClasses.obj
 0001:00000380       ?SliderComplete@CInvSlot@EQClasses@@QAEXH@Z 03001380 f   EQClasses.obj
 0001:00000390       ?HandleRButtonUp@CInvSlot@EQClasses@@QAEXPAVCXPoint@2@@Z 03001390 f   EQClasses.obj
 0001:000003a0       ?MoveItem@CInvSlotMgr@EQClasses@@QAEHHHHH@Z 030013a0 f   EQClasses.obj
 0001:000003b0       ?FindInvSlot@CInvSlotMgr@EQClasses@@QAEPAVCInvSlot@2@H@Z 030013b0 f   EQClasses.obj
 0001:000003c0       ?SetItem@CItemDisplayWnd@EQClasses@@QAEXPAVEQ_Item@2@_N@Z 030013c0 f   EQClasses.obj
 0001:000003d0       ?SetSpell@CItemDisplayWnd@EQClasses@@QAEXH_NH@Z 030013d0 f   EQClasses.obj
 0001:000003e0       ?Clear@MapViewMap@EQClasses@@QAEXXZ 030013e0 f   EQClasses.obj
 0001:000003f0       ?SaveEx@MapViewMap@EQClasses@@QAEXPADH@Z 030013f0 f   EQClasses.obj
 0001:00000400       ?SelectBuySellSlot@CMerchantWnd@EQClasses@@QAEXHPAVCTextureAnimation@2@@Z 03001400 f   EQClasses.obj
 0001:00000410       ?DisplayBuyOrSellPrice@CMerchantWnd@EQClasses@@QAEX_NPAVEQ_Item@2@@Z 03001410 f   EQClasses.obj
 0001:00000420       ?RequestBuyItem@CMerchantWnd@EQClasses@@QAEXH@Z 03001420 f   EQClasses.obj
 0001:00000430       ?RequestSellItem@CMerchantWnd@EQClasses@@QAEXH@Z 03001430 f   EQClasses.obj
 0001:00000440       ?MemorizeSet@CSpellBookWnd@EQClasses@@QAEXPAHH@Z 03001440 f   EQClasses.obj
 0001:00000450       ?FindMemberByName@CGuild@EQClasses@@QAEPAVGuildMember@2@PAD@Z 03001450 f   EQClasses.obj
 0001:00000460       ?ReloadUI@CDisplay@EQClasses@@QAEX_N@Z 03001460 f   EQClasses.obj
 0001:00000470       ?CleanGameUI@CDisplay@EQClasses@@QAEXXZ 03001470 f   EQClasses.obj
 0001:00000480       ?GetWorldFilePath@CDisplay@EQClasses@@QAE?B_NPADPBD@Z 03001480 f   EQClasses.obj
 0001:00000490       ?GetUserDefinedColor@CDisplay@EQClasses@@SAKH@Z 03001490 f   EQClasses.obj
 0001:000004a0       ?WriteTextHD2@CDisplay@EQClasses@@SAHPBDHHH@Z 030014a0 f   EQClasses.obj
 0001:000004b0       ?GetClickedActor@CDisplay@EQClasses@@QAEPAUT3D_tagACTORINSTANCE@2@KKKPAX0@Z 030014b0 f   EQClasses.obj
 0001:000004c0       ?GetAltAbility@AltAdvManager@EQClasses@@QAEPAU_ALTABILITY@EQData@@H@Z 030014c0 f   EQClasses.obj
 0001:000004d0       ?IsAbilityReady@AltAdvManager@EQClasses@@QAE_NPAVEQ_PC@2@PAU_ALTABILITY@EQData@@PAH@Z 030014d0 f   EQClasses.obj
 0001:000004e0       ?GetCalculatedTimer@AltAdvManager@EQClasses@@QAEKPAVEQ_PC@2@PAU_ALTABILITY@EQData@@@Z 030014e0 f   EQClasses.obj
 0001:000004f0       ?Cur_HP@EQ_Character1@EQClasses@@QAEHHE@Z 030014f0 f   EQClasses.obj
 0001:00000500       ?UseSkill@EQ_Character1@EQClasses@@QAEXEPAVEQPlayer@2@@Z 03001500 f   EQClasses.obj
 0001:00000510       ?GetFocusCastingTimeModifier@EQ_Character1@EQClasses@@QAE?BHPBVEQ_Spell@2@PAPAVEQ_Equipment@2@@Z 03001510 f   EQClasses.obj
 0001:00000520       ?GetFocusRangeModifier@EQ_Character1@EQClasses@@QAE?BHPBVEQ_Spell@2@PAPAVEQ_Equipment@2@@Z 03001520 f   EQClasses.obj
 0001:00000530       ?CastSpell@EQ_Character1@EQClasses@@QAEEEHPAPAVEQ_Item@2@HHHHHH_NH@Z 03001530 f   EQClasses.obj
 0001:00000540       ?GetAACastingTimeModifier@EQ_Character1@EQClasses@@QAE?BHPBVEQ_Spell@2@@Z 03001540 f   EQClasses.obj
 0001:00000550       ?GetConLevel@EQ_Character@EQClasses@@QAEKPAVEQPlayer@2@@Z 03001550 f   EQClasses.obj
 0001:00000560       ?IsStackable@EQ_Item@EQClasses@@QAE_NXZ 03001560 f   EQClasses.obj
 0001:00000570       ?SetProgressBar@EQ_LoadingS@EQClasses@@QAEXHPBD@Z 03001570 f   EQClasses.obj
 0001:00000580       ?GetItemTimerValue@EQ_PC@EQClasses@@QAEKPAVEQ_Item@2@@Z 03001580 f   EQClasses.obj
 0001:00000590       ?GetAltAbilityIndex@EQ_PC@EQClasses@@QAEHH@Z 03001590 f   EQClasses.obj
 0001:000005a0       ?GetCombatAbility@EQ_PC@EQClasses@@QAEHH@Z 030015a0 f   EQClasses.obj
 0001:000005b0       ?GetCombatAbilityTimer@EQ_PC@EQClasses@@QAEKH@Z 030015b0 f   EQClasses.obj
 0001:000005c0       ?HasLoreItem@EQ_PC@EQClasses@@QAEKPAVEQ_Item@2@@Z 030015c0 f   EQClasses.obj
 0001:000005d0       ?DestroyHeldItemOrMoney@EQ_PC@EQClasses@@QAEXXZ 030015d0 f   EQClasses.obj
 0001:000005e0       ??0EQItemList@EQClasses@@QAE@XZ 030015e0 f   EQClasses.obj
 0001:000005f0       ??1EQItemList@EQClasses@@QAE@XZ 030015f0 f   EQClasses.obj
 0001:00000600       ??0EQPlayer@EQClasses@@QAE@PAV01@EIEPAD@Z 03001600 f   EQClasses.obj
 0001:00000610       ??1EQPlayer@EQClasses@@QAE@XZ 03001610 f   EQClasses.obj
 0001:00000620       ?DoAttack@EQPlayer@EQClasses@@QAEHEEPAV12@@Z 03001620 f   EQClasses.obj
 0001:00000630       ?SetNameSpriteState@EQPlayer@EQClasses@@QAEH_N@Z 03001630 f   EQClasses.obj
 0001:00000640       ?ChangeBoneStringSprite@EQPlayer@EQClasses@@QAEPAUS3D_STRINGSPRITE@2@PAUT3D_DAG@2@PAD@Z 03001640 f   EQClasses.obj
 0001:00000650       ?SetNameSpriteTint@EQPlayer@EQClasses@@QAE_NXZ 03001650 f   EQClasses.obj
 0001:00000660       ?IsBodyType@EQPlayer@EQClasses@@QAE_NIHH@Z 03001660 f   EQClasses.obj
 0001:00000670       ?GetSpawnByID@EQPlayerManager@EQClasses@@QAEPAVEQPlayer@2@H@Z 03001670 f   EQClasses.obj
 0001:00000680       ?GetSpawnByName@EQPlayerManager@EQClasses@@QAEPAVEQPlayer@2@PAD@Z 03001680 f   EQClasses.obj
 0001:00000690       ?GetClassDesc@CEverQuest@EQClasses@@QAEPADH@Z 03001690 f   EQClasses.obj
 0001:000006a0       ?GetClassThreeLetterCode@CEverQuest@EQClasses@@QAEPADH@Z 030016a0 f   EQClasses.obj
 0001:000006b0       ?GetBodyTypeDesc@CEverQuest@EQClasses@@QAEPADH@Z 030016b0 f   EQClasses.obj
 0001:000006c0       ?GetLangDesc@CEverQuest@EQClasses@@QAEPADH@Z 030016c0 f   EQClasses.obj
 0001:000006d0       ?GetRaceDesc@CEverQuest@EQClasses@@QAEPADH@Z 030016d0 f   EQClasses.obj
 0001:000006e0       ?GetDeityDesc@CEverQuest@EQClasses@@QAEPADH@Z 030016e0 f   EQClasses.obj
 0001:000006f0       ?DropHeldItemOnGround@CEverQuest@EQClasses@@QAEXH@Z 030016f0 f   EQClasses.obj
 0001:00000700       ?LMouseUp@CEverQuest@EQClasses@@QAEXHH@Z 03001700 f   EQClasses.obj
 0001:00000710       ?LeftClickedOnPlayer@CEverQuest@EQClasses@@QAEXPAVEQPlayer@2@@Z 03001710 f   EQClasses.obj
 0001:00000720       ?RightClickedOnPlayer@CEverQuest@EQClasses@@QAEXPAVEQPlayer@2@@Z 03001720 f   EQClasses.obj
 0001:00000730       ?dsp_chat@CEverQuest@EQClasses@@QAEXPBDH_N@Z 03001730 f   EQClasses.obj
 0001:00000740       ?DoTellWindow@CEverQuest@EQClasses@@QAEXPAD00PAXH_N@Z 03001740 f   EQClasses.obj
 0001:00000750       ?Emote@CEverQuest@EQClasses@@QAEXXZ 03001750 f   EQClasses.obj
 0001:00000760       ?EnterZone@CEverQuest@EQClasses@@QAEXPAUHWND__@@@Z 03001760 f   EQClasses.obj
 0001:00000770       ?doLoot@CEverQuest@EQClasses@@QAEXXZ 03001770 f   EQClasses.obj
 0001:00000780       ?InterpretCmd@CEverQuest@EQClasses@@QAEXPAVEQPlayer@2@PAD@Z 03001780 f   EQClasses.obj
 0001:00000790       ?RMouseUp@CEverQuest@EQClasses@@QAEXHH@Z 03001790 f   EQClasses.obj
 0001:000007a0       ?ClickedPlayer@CEverQuest@EQClasses@@QAEPAVEQPlayer@2@HH@Z 030017a0 f   EQClasses.obj
 0001:000007b0       ?SetGameState@CEverQuest@EQClasses@@QAEXH@Z 030017b0 f   EQClasses.obj
 0001:000007c0       ?AttachKeyToEqCommand@KeypressHandler@EQClasses@@QAE_NABVKeyCombo@2@I@Z 030017c0 f   EQClasses.obj
 0001:000007d0       ?AttachAltKeyToEqCommand@KeypressHandler@EQClasses@@QAE_NABVKeyCombo@2@I@Z 030017d0 f   EQClasses.obj
 0001:000007e0       ?HandleKeyDown@KeypressHandler@EQClasses@@QAE_NABVKeyCombo@2@@Z 030017e0 f   EQClasses.obj
 0001:000007f0       ?HandleKeyUp@KeypressHandler@EQClasses@@QAE_NABVKeyCombo@2@@Z 030017f0 f   EQClasses.obj
 0001:00000800       ?SaveKeymapping@KeypressHandler@EQClasses@@QAEXIABVKeyCombo@2@H@Z 03001800 f   EQClasses.obj
 0001:00000810       ?ClearCommandStateArray@KeypressHandler@EQClasses@@QAEXXZ 03001810 f   EQClasses.obj
 0001:00000820       ?getString@StringTable@EQClasses@@QAEPADKPA_N@Z 03001820 f   EQClasses.obj
 0001:00000830       ??1CSidlScreenWnd@EQClasses@@QAE@XZ 03001830 f   EQClasses.obj
 0001:00000840       ?WndNotification@CSidlScreenWnd@EQClasses@@QAEHPAVCXWnd@2@IPAX@Z 03001840 f   EQClasses.obj
 0001:00000850       ??0CSidlScreenWnd@EQClasses@@QAE@PAVCXWnd@1@PAVCXStr@1@HHPAD@Z 03001850 f   EQClasses.obj
 0001:00000860       ??0CSidlScreenWnd@EQClasses@@QAE@PAVCXWnd@1@VCXStr@1@@Z 03001860 f   EQClasses.obj
 0001:00000880       ?Init@CSidlScreenWnd@EQClasses@@QAEXHPAVCXStr@2@HHH@Z 03001880 f   EQClasses.obj
 0001:00000890       ?LoadSidlScreen@CSidlScreenWnd@EQClasses@@QAEXXZ 03001890 f   EQClasses.obj
 0001:000008a0       ?CalculateVSBRange@CSidlScreenWnd@EQClasses@@QAEXXZ 030018a0 f   EQClasses.obj
 0001:000008b0       ?CalculateHSBRange@CSidlScreenWnd@EQClasses@@QAEXXZ 030018b0 f   EQClasses.obj
 0001:000008c0       ?DrawSidlPiece@CSidlScreenWnd@EQClasses@@QBEHPAVCScreenPieceTemplate@2@VCXRect@2@1@Z 030018c0 f   EQClasses.obj
 0001:000008d0       ?GetSidlPiece@CSidlScreenWnd@EQClasses@@QBEPAVCScreenPieceTemplate@2@PAVCXStr@2@@Z 030018d0 f   EQClasses.obj
 0001:000008e0       ?CreateChildrenFromSidl@CSidlScreenWnd@EQClasses@@QAEXXZ 030018e0 f   EQClasses.obj
 0001:000008f0       ?EnableIniStorage@CSidlScreenWnd@EQClasses@@QAEXHPAD@Z 030018f0 f   EQClasses.obj
 0001:00000900       ?ConvertToRes@CSidlScreenWnd@EQClasses@@QAEHHHHH@Z 03001900 f   EQClasses.obj
 0001:00000910       ?GetChildItem@CSidlScreenWnd@EQClasses@@QAEPAVCXWnd@2@ABVCXStr@2@@Z 03001910 f   EQClasses.obj
 0001:00000920       ?LoadIniListWnd@CSidlScreenWnd@EQClasses@@QAEXPAVCListWnd@2@PAD@Z 03001920 f   EQClasses.obj
 0001:00000930       ?SetFocus@CXWnd@EQClasses@@QAEPAV12@XZ 03001930 f   EQClasses.obj
 0001:00000940       ?ClrFocus@CXWnd@EQClasses@@QAEXXZ 03001940 f   EQClasses.obj
 0001:00000950       ?Refade@CXWnd@EQClasses@@QAEXXZ 03001950 f   EQClasses.obj
 0001:00000960       ?Move@CXWnd@EQClasses@@QAEHVCXPoint@2@@Z 03001960 f   EQClasses.obj
 0001:00000970       ?Move@CXWnd@EQClasses@@QAEHVCXRect@2@@Z 03001970 f   EQClasses.obj
 0001:00000980       ?ProcessTransition@CXWnd@EQClasses@@QAEHXZ 03001980 f   EQClasses.obj
 0001:00000990       ?BringToTop@CXWnd@EQClasses@@QAEX_N@Z 03001990 f   EQClasses.obj
 0001:000009a0       ?StartFade@CXWnd@EQClasses@@QAEXEI@Z 030019a0 f   EQClasses.obj
 0001:000009b0       ?IsReallyVisible@CXWnd@EQClasses@@QBE_NXZ 030019b0 f   EQClasses.obj
 0001:000009c0       ?GetChildWndAt@CXWnd@EQClasses@@QBEPAV12@VCXPoint@2@@Z 030019c0 f   EQClasses.obj
 0001:000009d0       ?DoAllDrawing@CXWnd@EQClasses@@QBEHXZ 030019d0 f   EQClasses.obj
 0001:000009e0       ?DrawChildren@CXWnd@EQClasses@@QBEHXZ 030019e0 f   EQClasses.obj
 0001:000009f0       ?DrawColoredRect@CXWnd@EQClasses@@SAHVCXRect@2@K0@Z 030019f0 f   EQClasses.obj
 0001:00000a00       ?GetTooltipRect@CXWnd@EQClasses@@SA?AVCXRect@2@VCXSize@2@@Z 03001a00 f   EQClasses.obj
 0001:00000a10       ?DrawTooltipAtPoint@CXWnd@EQClasses@@QBEXVCXPoint@2@@Z 03001a10 f   EQClasses.obj
 0001:00000a20       ?Center@CXWnd@EQClasses@@QAEXXZ 03001a20 f   EQClasses.obj
 0001:00000a30       ?Right@CXWnd@EQClasses@@QAEXXZ 03001a30 f   EQClasses.obj
 0001:00000a40       ?GetClientClipRect@CXWnd@EQClasses@@QBE?AVCXRect@2@XZ 03001a40 f   EQClasses.obj
 0001:00000a50       ?GetScreenClipRect@CXWnd@EQClasses@@QBE?AVCXRect@2@XZ 03001a50 f   EQClasses.obj
 0001:00000a60       ?IsActive@CXWnd@EQClasses@@QBE_NXZ 03001a60 f   EQClasses.obj
 0001:00000a70       ?IsDescendantOf@CXWnd@EQClasses@@QBE_NPBV12@@Z 03001a70 f   EQClasses.obj
 0001:00000a80       ?GetBorderFrame@CXWnd@EQClasses@@QBEPBVCTAFrameDraw@2@XZ 03001a80 f   EQClasses.obj
 0001:00000a90       ?GetScreenRect@CXWnd@EQClasses@@QBE?AVCXRect@2@XZ 03001a90 f   EQClasses.obj
 0001:00000aa0       ?Resize@CXWnd@EQClasses@@QAEHHH@Z 03001aa0 f   EQClasses.obj
 0001:00000ab0       ?GetChildItem@CXWnd@EQClasses@@QAEPAV12@ABVCXStr@2@@Z 03001ab0 f   EQClasses.obj
 0001:00000ac0       ?SetMouseOver@CXWnd@EQClasses@@QAEX_N@Z 03001ac0 f   EQClasses.obj
 0001:00000ad0       ?SetKeyTooltip@CXWnd@EQClasses@@QAEXHH@Z 03001ad0 f   EQClasses.obj
 0001:00000ae0       ?DrawTooltip@CXWnd@EQClasses@@QBEHPBV12@@Z 03001ae0 f   EQClasses.obj
 0001:00000af0       ??0CXStr@EQClasses@@QAE@PBD@Z 03001af0 f   EQClasses.obj
 0001:00000b00       ??4CXStr@EQClasses@@QAEAAV01@PBD@Z 03001b00 f   EQClasses.obj
 0001:00000b10       ??YCXStr@EQClasses@@QAEXPBD@Z 03001b10 f   EQClasses.obj
 0001:00000b20       ?GetCurSel@CListWnd@EQClasses@@QBEHXZ 03001b20 f   EQClasses.obj
 0001:00000b30       ?GetItemData@CListWnd@EQClasses@@QBEIH@Z 03001b30 f   EQClasses.obj
 0001:00000b40       ?GetItemText@CListWnd@EQClasses@@QBEPAVCXStr@2@PAV32@HH@Z 03001b40 f   EQClasses.obj
 0001:00000b50       ?GetItemIcon@CListWnd@EQClasses@@QBEPBVCTextureAnimation@2@HH@Z 03001b50 f   EQClasses.obj
 0001:00000b60       ?GetColumnWidth@CListWnd@EQClasses@@QBEHH@Z 03001b60 f   EQClasses.obj
 0001:00000b70       ?SetColumnWidth@CListWnd@EQClasses@@QAEXHH@Z 03001b70 f   EQClasses.obj
 0001:00000b80       ?ShiftColumnSeparator@CListWnd@EQClasses@@QAEXHH@Z 03001b80 f   EQClasses.obj
 0001:00000b90       ?GetColumnMinWidth@CListWnd@EQClasses@@QBEHH@Z 03001b90 f   EQClasses.obj
 0001:00000ba0       ?SetColumnJustification@CListWnd@EQClasses@@QAEXHH@Z 03001ba0 f   EQClasses.obj
 0001:00000bb0       ?AddLine@CListWnd@EQClasses@@QAEHPBVSListWndLine@2@@Z 03001bb0 f   EQClasses.obj
 0001:00000bc0       ?AddString@CListWnd@EQClasses@@QAEHPAVCXStr@2@KIPBVCTextureAnimation@2@PBD@Z 03001bc0 f   EQClasses.obj
 0001:00000bd0       ?RemoveLine@CListWnd@EQClasses@@QAEXH@Z 03001bd0 f   EQClasses.obj
 0001:00000be0       ?SetCurSel@CListWnd@EQClasses@@QAEXH@Z 03001be0 f   EQClasses.obj
 0001:00000bf0       ?ToggleSel@CListWnd@EQClasses@@QAEXH@Z 03001bf0 f   EQClasses.obj
 0001:00000c00       ?ExtendSel@CListWnd@EQClasses@@QAEXH@Z 03001c00 f   EQClasses.obj
 0001:00000c10       ?ClearAllSel@CListWnd@EQClasses@@QAEXXZ 03001c10 f   EQClasses.obj
 0001:00000c20       ?SetItemData@CListWnd@EQClasses@@QAEXHI@Z 03001c20 f   EQClasses.obj
 0001:00000c30       ?SetItemText@CListWnd@EQClasses@@QAEXHHPAVCXStr@2@@Z 03001c30 f   EQClasses.obj
 0001:00000c40       ?SetItemColor@CListWnd@EQClasses@@QAEXHHK@Z 03001c40 f   EQClasses.obj
 0001:00000c50       ?AddColumn@CListWnd@EQClasses@@QAEHVCXStr@2@HII@Z 03001c50 f   EQClasses.obj
 0001:00000c60       ?AddColumn@CListWnd@EQClasses@@QAEHVCXStr@2@PAVCTextureAnimation@2@HII11@Z 03001c60 f   EQClasses.obj
 0001:00000c70       ?GetItemHeight@CListWnd@EQClasses@@QBEHH@Z 03001c70 f   EQClasses.obj
 0001:00000c80       ?CalculateVSBRange@CListWnd@EQClasses@@QAEXXZ 03001c80 f   EQClasses.obj
 0001:00000c90       ?CalculateFirstVisibleLine@CListWnd@EQClasses@@QAEXXZ 03001c90 f   EQClasses.obj
 0001:00000ca0       ?EnsureVisible@CListWnd@EQClasses@@QAEXH@Z 03001ca0 f   EQClasses.obj
 0001:00000cb0       ?GetItemRect@CListWnd@EQClasses@@QBE?AVCXRect@2@HH@Z 03001cb0 f   EQClasses.obj
 0001:00000cc0       ?GetItemAtPoint@CListWnd@EQClasses@@QBEHVCXPoint@2@@Z 03001cc0 f   EQClasses.obj
 0001:00000cd0       ?GetItemAtPoint@CListWnd@EQClasses@@QBEXVCXPoint@2@PAH1@Z 03001cd0 f   EQClasses.obj
 0001:00000ce0       ?CloseAndUpdateEditWindow@CListWnd@EQClasses@@QAEXXZ 03001ce0 f   EQClasses.obj
 0001:00000cf0       ?SetColors@CListWnd@EQClasses@@QAEXKKK@Z 03001cf0 f   EQClasses.obj
 0001:00000d00       ?GetSeparatorRect@CListWnd@EQClasses@@QBE?AVCXRect@2@H@Z 03001d00 f   EQClasses.obj
 0001:00000d10       ?GetHeaderRect@CListWnd@EQClasses@@QBE?AVCXRect@2@H@Z 03001d10 f   EQClasses.obj
 0001:00000d20       ?MakeStmlColorTag@CStmlWnd@EQClasses@@SA?AVCXStr@2@K@Z 03001d20 f   EQClasses.obj
 0001:00000d30       ?MakeWndNotificationTag@CStmlWnd@EQClasses@@SA?AVCXStr@2@IAAV32@0@Z 03001d30 f   EQClasses.obj
 0001:00000d40       ?GetNextTagPiece@CStmlWnd@EQClasses@@QAEGAAVCXStr@2@PAV32@PAHP6A_NG@Z_N@Z 03001d40 f   EQClasses.obj
 0001:00000d50       ?FastForwardToEndOfTag@CStmlWnd@EQClasses@@QAEGAAVCXStr@2@PAV32@PAHD@Z 03001d50 f   EQClasses.obj
 0001:00000d60       ?InitializeWindowVariables@CStmlWnd@EQClasses@@QAEXXZ 03001d60 f   EQClasses.obj
 0001:00000d70       ?GetThisChar@CStmlWnd@EQClasses@@QAEGHAAVCXStr@2@@Z 03001d70 f   EQClasses.obj
 0001:00000d80       ?GetVisiableText@CStmlWnd@EQClasses@@QBE?AVCXStr@2@AAV32@VCXRect@2@@Z 03001d80 f   EQClasses.obj
 0001:00000d90       ?ForceParseNow@CStmlWnd@EQClasses@@QAEXXZ 03001d90 f   EQClasses.obj
 0001:00000da0       ?CalculateVSBRange@CStmlWnd@EQClasses@@QAEXH@Z 03001da0 f   EQClasses.obj
 0001:00000db0       ?StripFirstSTMLLines@CStmlWnd@EQClasses@@QAEXH@Z 03001db0 f   EQClasses.obj
 0001:00000dc0       ?CanBreakAtCharacter@CStmlWnd@EQClasses@@SA_NG@Z 03001dc0 f   EQClasses.obj
 0001:00000dd0       ?UpdateHistoryString@CStmlWnd@EQClasses@@QAEXHAAVCXStr@2@@Z 03001dd0 f   EQClasses.obj
 0001:00000de0       ?SetSTMLText@CStmlWnd@EQClasses@@QAEXAAVCXStr@2@_NPAVSLinkInfo@2@@Z 03001de0 f   EQClasses.obj
 0001:00000df0       ?GetCurrentPage@CTabWnd@EQClasses@@QBEPAVCPageWnd@2@XZ 03001df0 f   EQClasses.obj
 0001:00000e00       ?GetTabRect@CTabWnd@EQClasses@@QBE?AVCXRect@2@H@Z 03001e00 f   EQClasses.obj
 0001:00000e10       ?GetTabInnerRect@CTabWnd@EQClasses@@QBE?AVCXRect@2@H@Z 03001e10 f   EQClasses.obj
 0001:00000e20       ?GetPageClientRect@CTabWnd@EQClasses@@QBE?AVCXRect@2@XZ 03001e20 f   EQClasses.obj
 0001:00000e30       ?GetPageInnerRect@CTabWnd@EQClasses@@QBE?AVCXRect@2@XZ 03001e30 f   EQClasses.obj
 0001:00000e40       ?SetPage@CTabWnd@EQClasses@@QAEXH_N@Z 03001e40 f   EQClasses.obj
 0001:00000e50       ?InsertPage@CTabWnd@EQClasses@@QAEXPAVCPageWnd@2@H@Z 03001e50 f   EQClasses.obj
 0001:00000e60       ?SetPageRect@CTabWnd@EQClasses@@QAEXVCXRect@2@@Z 03001e60 f   EQClasses.obj
 0001:00000e70       ?UpdatePage@CTabWnd@EQClasses@@QAEXXZ 03001e70 f   EQClasses.obj
 0001:00000e80       ?IndexInBounds@CTabWnd@EQClasses@@QBE_NH@Z 03001e80 f   EQClasses.obj
 0001:00000e90       ?GetPageFromTabIndex@CTabWnd@EQClasses@@QBEPAVCPageWnd@2@H@Z 03001e90 f   EQClasses.obj
 0001:00000ea0       ?DrawTab@CTabWnd@EQClasses@@QBEHH@Z 03001ea0 f   EQClasses.obj
 0001:00000eb0       ?DrawCurrentPage@CTabWnd@EQClasses@@QBEHXZ 03001eb0 f   EQClasses.obj
 0001:00000ec0       ?XMLRead@CXMLSOMDocumentBase@EQClasses@@QAE_NPAVCXStr@2@00@Z 03001ec0 f   EQClasses.obj
 0001:00000ed0       ?SetCheck@CButtonWnd@EQClasses@@QAEX_N@Z 03001ed0 f   EQClasses.obj
 0001:00000ee0       ?GetListRect@CComboWnd@EQClasses@@QBE?AVCXRect@2@XZ 03001ee0 f   EQClasses.obj
 0001:00000ef0       ?SetColors@CComboWnd@EQClasses@@QAEXKKK@Z 03001ef0 f   EQClasses.obj
 0001:00000f00       ?InsertChoice@CComboWnd@EQClasses@@QAEXPAVCXStr@2@K@Z 03001f00 f   EQClasses.obj
 0001:00000f10       ?SetChoice@CComboWnd@EQClasses@@QAEXH@Z 03001f10 f   EQClasses.obj
 0001:00000f20       ?GetCurChoice@CComboWnd@EQClasses@@QBEHXZ 03001f20 f   EQClasses.obj
 0001:00000f30       ?DeleteAll@CComboWnd@EQClasses@@QAEXXZ 03001f30 f   EQClasses.obj
 0001:00000f40       ?GetTextRect@CComboWnd@EQClasses@@QBE?AVCXRect@2@XZ 03001f40 f   EQClasses.obj
 0001:00000f50       ?DrawWindows@CXWndManager@EQClasses@@QBEHXZ 03001f50 f   EQClasses.obj
 0001:00000f60       ?DrawCursor@CXWndManager@EQClasses@@QBEHXZ 03001f60 f   EQClasses.obj
 0001:00000f70       ?RemoveWnd@CXWndManager@EQClasses@@QAEHPAVCXWnd@2@@Z 03001f70 f   EQClasses.obj
 0001:00000f80       ?GetKeyboardFlags@CXWndManager@EQClasses@@QBEIXZ 03001f80 f   EQClasses.obj
 0001:00000f90       ?HandleKeyboardMsg@CXWndManager@EQClasses@@QAEHI_N@Z 03001f90 f   EQClasses.obj
 0001:00000fa0       ?GetLineForPrintableChar@CEditWnd@EQClasses@@QBEHH@Z 03001fa0 f   EQClasses.obj
 0001:00000fb0       ?SelectableCharFromPoint@CEditWnd@EQClasses@@QBEHVCXPoint@2@@Z 03001fb0 f   EQClasses.obj
 0001:00000fc0       ?GetCharIndexPt@CEditWnd@EQClasses@@QBE?AVCXPoint@2@H@Z 03001fc0 f   EQClasses.obj
 0001:00000fd0       ?GetSelStartPt@CEditWnd@EQClasses@@QBE?AVCXPoint@2@XZ 03001fd0 f   EQClasses.obj
 0001:00000fe0       ?SetEditable@CEditWnd@EQClasses@@QAEX_N@Z 03001fe0 f   EQClasses.obj
 0001:00000ff0       ?GetSTMLSafeText@CEditWnd@EQClasses@@QAE?AVCXStr@2@XZ 03001ff0 f   EQClasses.obj
 0001:00001000       ?DrawWrappedText@CTextureFont@EQClasses@@QBEHPAVCXStr@2@HHHPAVCXRect@2@KGH@Z 03002000 f   EQClasses.obj
 0001:00001010       ?FindScreenPieceTemplate@CSidlManager@EQClasses@@QBEPAVCScreenPieceTemplate@2@PAVCXStr@2@@Z 03002010 f   EQClasses.obj
 0001:00001020       ?SetValue@CSliderWnd@EQClasses@@QAEXH@Z 03002020 f   EQClasses.obj
 0001:00001030       ?SetNumTicks@CSliderWnd@EQClasses@@QAEXH@Z 03002030 f   EQClasses.obj
 0001:00001040       ?GetValue@CSliderWnd@EQClasses@@QBEHXZ 03002040 f   EQClasses.obj
 0001:00001050       ?SetSel@CEditBaseWnd@EQClasses@@QAEXHH@Z 03002050 f   EQClasses.obj
 0001:00001060       ?GetXMLData@CXMLDataManager@EQClasses@@QAEPAVCXMLData@2@HH@Z 03002060 f   EQClasses.obj
 0001:00001070       ?CalcFillRect@CGaugeWnd@EQClasses@@QBE?AVCXRect@2@PAV32@H@Z 03002070 f   EQClasses.obj
 0001:00001080       ?CalcLinesFillRect@CGaugeWnd@EQClasses@@QBE?AVCXRect@2@PAV32@H@Z 03002080 f   EQClasses.obj
 0001:00001090       ?DisplayText@CTextOverlay@EQClasses@@QAEXPADHHHHHH@Z 03002090 f   EQClasses.obj
 0001:000010a0       ?GetString@CDBStr@EQClasses@@QAEPADHHPAH@Z 030020a0 f   EQClasses.obj
 0001:000010b0       ?GetActiveFavorCost@EQMisc@EQClasses@@QAEHXZ 030020b0 f   EQClasses.obj
 0001:000010c0       ?GetSkillCap@CSkillMgr@EQClasses@@QAEKPAVEQ_Character@2@HHH@Z 030020c0 f   EQClasses.obj
 0001:000010d0       ?GetNumberOfFriends@CChatService@EQClasses@@QAEHXZ 030020d0 f   EQClasses.obj
 0001:000010e0       ?GetFriendName@CChatService@EQClasses@@QAEPADH@Z 030020e0 f   EQClasses.obj
 0001:000010f0       ?GetAltCurrency@OtherCharData@EQClasses@@QAEKKK@Z 030020f0 f   EQClasses.obj
 0001:00001100       ?bogus@@YAXXZ              03002100 f   EQClasses.obj
 0001:00001110       ?GetXMLData@CXWnd@EQClasses@@QAEPAVCXMLData@2@XZ 03002110 f   EQClasses.obj
 0001:00001140       ?GetXMLData@CSidlScreenWnd@EQClasses@@QAEPAVCXMLData@2@XZ 03002140 f   EQClasses.obj
 0001:00001170       ?RecurseAndFindName@@YAPAVCXWnd@EQClasses@@PAV12@PAD@Z 03002170 f   EQClasses.obj
 0001:00001250       ?GetChildItem@CXWnd@EQClasses@@QAEPAV12@PAD@Z 03002250 f   EQClasses.obj
 0001:00001270       ?GetChildItem@CSidlScreenWnd@EQClasses@@QAEPAVCXWnd@2@PAD@Z 03002270 f   EQClasses.obj
 0001:00001290       ?FindScreenPieceTemplate@CSidlManager@EQClasses@@QAEPAVCScreenPieceTemplate@2@PAD@Z 03002290 f   EQClasses.obj
 0001:000012c0       ?InsertChoice@CComboWnd@EQClasses@@QAEXPAD@Z 030022c0 f   EQClasses.obj
 0001:000012f0       ?AddString@CListWnd@EQClasses@@QAEHPADKIPBVCTextureAnimation@2@PBD@Z 030022f0 f   EQClasses.obj
 0001:00001330       ?AppendSTML@CStmlWnd@EQClasses@@QAEAAVCXSize@2@PAV32@VCXStr@2@@Z 03002330 f   EQClasses.obj
 0001:00001340       ??0CChatWindow@EQClasses@@QAE@PAVCXWnd@1@@Z 03002340 f   EQClasses.obj
 0001:00001350       ??0CMapViewWnd@EQClasses@@QAE@PAVCXWnd@1@@Z 03002350 f   EQClasses.obj
 0001:00001360       ?GetType@CXWnd@EQClasses@@QAE?AW4UIType@EQUIStructs@@XZ 03002360 f   EQClasses.obj
 0001:00001380       ?GetType@CSidlScreenWnd@EQClasses@@QAE?AW4UIType@EQUIStructs@@XZ 03002380 f   EQClasses.obj
 0001:000013a0       ?proc@@YGJHIJ@Z            030023a0 f   MQ2Auth.obj
 0001:000013c0       _koNhhENsglATvLhvmDaBjGYazHx 030023c0 f   MQ2Auth.obj
 0001:000013e0       _BATLWjYjGyMujXkkQzgFuZeApHb 030023e0 f   MQ2Auth.obj
 0001:00001400       _smTdds_dzsjvglAaWEwOHFZBxdU 03002400 f   MQ2Auth.obj
 0001:00001420       _dGNCpDkAVKvHNFhQQGWYyCfFrdh 03002420 f   MQ2Auth.obj
 0001:00001440       _zHETMwCGEKGCARzAADdTFymPgRw 03002440 f   MQ2Auth.obj
 0001:00001460       _iauEIgrNecuWgxCVCVzzeRfDiRa 03002460 f   MQ2Auth.obj
 0001:00001480       _cdMVwYDMrDMFkjdVmhdkY_IzEuK 03002480 f   MQ2Auth.obj
 0001:000014a0       _MKWWANQnlkAdZDapsOngRcRJCuA 030024a0 f   MQ2Auth.obj
 0001:000014c0       _tnmfgsoqmimuq_tVsrP_nuEdK_u 030024c0 f   MQ2Auth.obj
 0001:000014e0       _IUwgkMBSMQwTKtqpoYtrMbNnI_Q 030024e0 f   MQ2Auth.obj
 0001:00001500       _JIXVHCOMgZBF_FxVxMokNETztQd 03002500 f   MQ2Auth.obj
 0001:00001520       _sogWLranaGLdOZQpZsygGHbJrQU 03002520 f   MQ2Auth.obj
 0001:00001540       _FMxlyaJtDiZDNyHGoKXHTKnRpzC 03002540 f   MQ2Auth.obj
 0001:00001560       _qYnuuWwkxBPzJeEvRqsLdreVnzo 03002560 f   MQ2Auth.obj
 0001:00001580       _GOupDcGBPcjPcAlquRlaAVAoBpM 03002580 f   MQ2Auth.obj
 0001:000015a0       _p_oqrbDcZLYngoTLATfXdCtcPpC 030025a0 f   MQ2Auth.obj
 0001:000015c0       _pXfpGxHTMSHw_CSFTnuEFAbqZhr 030025c0 f   MQ2Auth.obj
 0001:000015e0       _GLpOCyCpmkxIWqkuXpEOgTTQihF 030025e0 f   MQ2Auth.obj
 0001:00001600       _mBeQHvQANqBAaCbfEdKKgIoyVcy 03002600 f   MQ2Auth.obj
 0001:00001620       _BNolTAFbrIpECqJAAvobFFhIacM 03002620 f   MQ2Auth.obj
 0001:00001640       _u_QEsUDcTGfgQefQzRqdZNigGFF 03002640 f   MQ2Auth.obj
 0001:00001660       _LtKxwkGzJnrNoyiFDiQnQupksFa 03002660 f   MQ2Auth.obj
 0001:00001680       _DzsDsUdlfx_xHjOLlWADUMZjTnG 03002680 f   MQ2Auth.obj
 0001:000016a0       _mTyUwJasGAOlvQvfJCGFotStcnY 030026a0 f   MQ2Auth.obj
 0001:000016c0       _GoihDErsLleTRLDvIDwBOGCadHT 030026c0 f   MQ2Auth.obj
 0001:000016e0       _XAoLrjCjkyquFXGklzCFZZJAUHx 030026e0 f   MQ2Auth.obj
 0001:00001700       _KDgUaImTgyIaZNxFnUEiELHqtOB 03002700 f   MQ2Auth.obj
 0001:00001720       _arqsXnhpHvymVBQurAOsfIyQDOP 03002720 f   MQ2Auth.obj
 0001:00001740       _fYoAnxLfdIoECzBqASMQQplKwVw 03002740 f   MQ2Auth.obj
 0001:00001760       _ujiBbwIHIqccaniLwylhZseyKVS 03002760 f   MQ2Auth.obj
 0001:00001780       _FrHegHgomIgQphCFizePeKBMzYa 03002780 f   MQ2Auth.obj
 0001:000017a0       _qfRDcmbLsasbRWVuHfJDlcslJYJ 030027a0 f   MQ2Auth.obj
 0001:000017c0       _eSuxNlOGjVagBGLAfOUxGnyPMbm 030027c0 f   MQ2Auth.obj
 0001:000017e0       _OlkiJADNKSkAhmsVhKpdfkrDObR 030027e0 f   MQ2Auth.obj
 0001:00001800       _nIBVlCsMCZXFvFTVbMTkrEozPQz 03002800 f   MQ2Auth.obj
 0001:00001820       _XoLWprFnwGgdjZlpDscgkHxJNQp 03002820 f   MQ2Auth.obj
 0001:00001840       ?Lock@CAutoLock@MQ2Internal@@QAEXXZ 03002840 f i MQ2Benchmarks.obj
 0001:00001860       ?Unlock@CAutoLock@MQ2Internal@@QAEXXZ 03002860 f i MQ2Benchmarks.obj
 0001:00001880       ??0CAutoLock@MQ2Internal@@QAE@PAU_RTL_CRITICAL_SECTION@@@Z 03002880 f i MQ2Benchmarks.obj
 0001:000018b0       ??1CAutoLock@MQ2Internal@@QAE@XZ 030028b0 f i MQ2Benchmarks.obj
 0001:000018d0       ??1?$CIndex@PAU_MQBENCH@MQ2Internal@@@MQ2Internal@@QAE@XZ 030028d0 f i MQ2Benchmarks.obj
 0001:00001910       ?Cleanup@?$CIndex@PAU_MQBENCH@MQ2Internal@@@MQ2Internal@@QAEXXZ 03002910 f i MQ2Benchmarks.obj
 0001:00001950       ??A?$CIndex@PAU_MQBENCH@MQ2Internal@@@MQ2Internal@@QAEAAPAU_MQBENCH@1@K@Z 03002950 f i MQ2Benchmarks.obj
 0001:00001960       ?Resize@?$CIndex@PAU_MQBENCH@MQ2Internal@@@MQ2Internal@@QAEXK@Z 03002960 f i MQ2Benchmarks.obj
 0001:00001a10       _RemoveMQ2Benchmark        03002a10 f   MQ2Benchmarks.obj
 0001:00001a50       _EnterMQ2Benchmark         03002a50 f   MQ2Benchmarks.obj
 0001:00001a80       _ExitMQ2Benchmark          03002a80 f   MQ2Benchmarks.obj
 0001:00001b00       _GetMQ2Benchmark           03002b00 f   MQ2Benchmarks.obj
 0001:00001b40       ?SpewMQ2BenchmarksToChat@@YAXPAU_SPAWNINFO@EQData@@PAD@Z 03002b40 f   MQ2Benchmarks.obj
 0001:00001cc0       ?SpewMQ2Benchmarks@@YAXXZ  03002cc0 f   MQ2Benchmarks.obj
 0001:00001d90       ??_G?$CIndex@PAU_MQBENCH@MQ2Internal@@@MQ2Internal@@QAEPAXI@Z 03002d90 f i MQ2Benchmarks.obj
 0001:00001de0       ??0?$CIndex@PAU_MQBENCH@MQ2Internal@@@MQ2Internal@@QAE@K@Z 03002de0 f i MQ2Benchmarks.obj
 0001:00001e10       ?GetUnused@?$CIndex@PAU_MQBENCH@MQ2Internal@@@MQ2Internal@@QAEKXZ 03002e10 f i MQ2Benchmarks.obj
 0001:00001e60       _AddMQ2Benchmark           03002e60 f   MQ2Benchmarks.obj
 0001:00001ed0       _InitializeMQ2Benchmarks   03002ed0 f   MQ2Benchmarks.obj
 0001:00001f40       _ShutdownMQ2Benchmarks     03002f40 f   MQ2Benchmarks.obj
 0001:00001fd0       ?strstr@@YAPADPADPBD@Z     03002fd0 f i MQ2ChatHook.obj
 0001:00001fe0       ??0bad_alloc@std@@QAE@PBD@Z 03002fe0 f i MQ2ChatHook.obj
 0001:00002000       ??1bad_alloc@std@@UAE@XZ   03003000 f i MQ2ChatHook.obj
 0001:00002010       ??_Ebad_alloc@std@@UAEPAXI@Z 03003010 f i MQ2ChatHook.obj
 0001:00002010       ??_Gbad_alloc@std@@UAEPAXI@Z 03003010 f i MQ2ChatHook.obj
 0001:00002040       ??2@YAPAXIPAX@Z            03003040 f i MQ2ChatHook.obj
 0001:00002050       ?assign@?$char_traits@D@std@@SAXAADABD@Z 03003050 f i MQ2ChatHook.obj
 0001:00002060       ?length@?$char_traits@D@std@@SAIPBD@Z 03003060 f i MQ2ChatHook.obj
 0001:00002080       ?_Copy_s@?$char_traits@D@std@@SAPADPADIPBDI@Z 03003080 f i MQ2ChatHook.obj
 0001:000020b0       ?_Move_s@?$char_traits@D@std@@SAPADPADIPBDI@Z 030030b0 f i MQ2ChatHook.obj
 0001:000020e0       ??0_Aux_cont@std@@QAE@QBV_Container_base_aux@1@@Z 030030e0 f i MQ2ChatHook.obj
 0001:000020f0       ?_Getcont@_Aux_cont@std@@QBEPBV_Container_base_aux@2@XZ 030030f0 f i MQ2ChatHook.obj
 0001:00002100       ??0_Container_base_aux@std@@QAE@XZ 03003100 f i MQ2ChatHook.obj
 0001:00002110       ??1_Container_base_aux@std@@QAE@XZ 03003110 f i MQ2ChatHook.obj
 0001:00002120       ??0_Iterator_base_aux@std@@QAE@XZ 03003120 f i MQ2ChatHook.obj
 0001:00002130       ?_Set_container@_Iterator_base_aux@std@@QAEXQBV_Container_base_aux@2@@Z 03003130 f i MQ2ChatHook.obj
 0001:00002140       ?_Getmycont@_Iterator_base_aux@std@@QBEPBV_Container_base_aux@2@XZ 03003140 f i MQ2ChatHook.obj
 0001:00002150       ?_Same_container@_Iterator_base_aux@std@@QBE_NABV12@@Z 03003150 f i MQ2ChatHook.obj
 0001:00002170       ?_Has_container@_Iterator_base_aux@std@@QBE_NXZ 03003170 f i MQ2ChatHook.obj
 0001:00002180       ??1BlechNode@@QAE@XZ       03003180 f i MQ2ChatHook.obj
 0001:00002230       ??_GBlechNode@@QAEPAXI@Z   03003230 f i MQ2ChatHook.obj
 0001:00002250       ?Initialize@Blech@@AAEXXZ  03003250 f i MQ2ChatHook.obj
 0001:000022a0       ?Trampoline@CChatHook@@QAEXPADKK@Z 030032a0 f   MQ2ChatHook.obj
 0001:000022c0       ?TellWnd_Trampoline@CChatHook@@QAEXPAD00PAXH_N@Z 030032c0 f   MQ2ChatHook.obj
 0001:000022e0       _dsp_chat_no_events        030032e0 f   MQ2ChatHook.obj
 0001:00002300       ?MQ2DataVariableLookup@@YGIPAD0@Z 03003300 f   MQ2ChatHook.obj
 0001:00002360       ?size@?$basic_string@DU?$char_traits@D@std@@V?$allocator@D@2@@std@@QBEIXZ 03003360 f i MQ2ChatHook.obj
 0001:00002370       ?_Myptr@?$basic_string@DU?$char_traits@D@std@@V?$allocator@D@2@@std@@IBEPBDXZ 03003370 f i MQ2ChatHook.obj
 0001:00002380       ??0?$allocator@D@std@@QAE@XZ 03003380 f i MQ2ChatHook.obj
 0001:00002390       ??0?$allocator@U?$pair@$$CBIPAU_BLECHEVENT@@@std@@@std@@QAE@XZ 03003390 f i MQ2ChatHook.obj
 0001:000023a0       ??8const_iterator@?$_Tree@V?$_Tmap_traits@IPAU_BLECHEVENT@@U?$less@I@std@@V?$allocator@U?$pair@$$CBIPAU_BLECHEVENT@@@std@@@3@$0A@@std@@@std@@QBE_NABV012@@Z 030033a0 f i MQ2ChatHook.obj
 0001:000023d0       ?_Mynode@const_iterator@?$_Tree@V?$_Tmap_traits@IPAU_BLECHEVENT@@U?$less@I@std@@V?$allocator@U?$pair@$$CBIPAU_BLECHEVENT@@@std@@@3@$0A@@std@@@std@@QBEPAU_Node@?$_Tree_nod@V?$_Tmap_traits@IPAU_BLECHEVENT@@U?$less@I@std@@V?$allocator@U?$pair@$$CBIPAU_BLECHEVENT@@@std@@@3@$0A@@std@@@3@XZ 030033d0 f i MQ2ChatHook.obj
 0001:000023e0       ?_Myptr@?$basic_string@DU?$char_traits@D@std@@V?$allocator@D@2@@std@@IAEPADXZ 030033e0 f i MQ2ChatHook.obj
 0001:000023f0       ??0?$allocator@D@std@@QAE@ABV01@@Z 030033f0 f i MQ2ChatHook.obj
 0001:00002400       ?deallocate@?$allocator@D@std@@QAEXPADI@Z 03003400 f i MQ2ChatHook.obj
 0001:00002410       ?_Isnil@?$_Tree@V?$_Tmap_traits@IPAU_BLECHEVENT@@U?$less@I@std@@V?$allocator@U?$pair@$$CBIPAU_BLECHEVENT@@@std@@@3@$0A@@std@@@std@@KAAADPAU_Node@?$_Tree_nod@V?$_Tmap_traits@IPAU_BLECHEVENT@@U?$less@I@std@@V?$allocator@U?$pair@$$CBIPAU_BLECHEVENT@@@std@@@3@$0A@@std@@@2@@Z 03003410 f i MQ2ChatHook.obj
 0001:00002420       ?_Left@?$_Tree@V?$_Tmap_traits@IPAU_BLECHEVENT@@U?$less@I@std@@V?$allocator@U?$pair@$$CBIPAU_BLECHEVENT@@@std@@@3@$0A@@std@@@std@@KAAAPAU_Node@?$_Tree_nod@V?$_Tmap_traits@IPAU_BLECHEVENT@@U?$less@I@std@@V?$allocator@U?$pair@$$CBIPAU_BLECHEVENT@@@std@@@3@$0A@@std@@@2@PAU342@@Z 03003420 f i MQ2ChatHook.obj
 0001:00002430       ?_Parent@?$_Tree@V?$_Tmap_traits@IPAU_BLECHEVENT@@U?$less@I@std@@V?$allocator@U?$pair@$$CBIPAU_BLECHEVENT@@@std@@@3@$0A@@std@@@std@@KAAAPAU_Node@?$_Tree_nod@V?$_Tmap_traits@IPAU_BLECHEVENT@@U?$less@I@std@@V?$allocator@U?$pair@$$CBIPAU_BLECHEVENT@@@std@@@3@$0A@@std@@@2@PAU342@@Z 03003430 f i MQ2ChatHook.obj
 0001:00002440       ?_Right@?$_Tree@V?$_Tmap_traits@IPAU_BLECHEVENT@@U?$less@I@std@@V?$allocator@U?$pair@$$CBIPAU_BLECHEVENT@@@std@@@3@$0A@@std@@@std@@KAAAPAU_Node@?$_Tree_nod@V?$_Tmap_traits@IPAU_BLECHEVENT@@U?$less@I@std@@V?$allocator@U?$pair@$$CBIPAU_BLECHEVENT@@@std@@@3@$0A@@std@@@2@PAU342@@Z 03003440 f i MQ2ChatHook.obj
 0001:00002450       ?_Myval@?$_Tree@V?$_Tmap_traits@IPAU_BLECHEVENT@@U?$less@I@std@@V?$allocator@U?$pair@$$CBIPAU_BLECHEVENT@@@std@@@3@$0A@@std@@@std@@KAAAU?$pair@$$CBIPAU_BLECHEVENT@@@2@PAU_Node@?$_Tree_nod@V?$_Tmap_traits@IPAU_BLECHEVENT@@U?$less@I@std@@V?$allocator@U?$pair@$$CBIPAU_BLECHEVENT@@@std@@@3@$0A@@std@@@2@@Z 03003450 f i MQ2ChatHook.obj
 0001:00002460       ??0?$allocator@U?$pair@$$CBIPAU_BLECHEVENT@@@std@@@std@@QAE@ABV01@@Z 03003460 f i MQ2ChatHook.obj
 0001:00002470       ?deallocate@?$allocator@V_Aux_cont@std@@@std@@QAEXPAV_Aux_cont@2@I@Z 03003470 f i MQ2ChatHook.obj
 0001:00002480       ?deallocate@?$allocator@U_Node@?$_Tree_nod@V?$_Tmap_traits@IPAU_BLECHEVENT@@U?$less@I@std@@V?$allocator@U?$pair@$$CBIPAU_BLECHEVENT@@@std@@@3@$0A@@std@@@std@@@std@@QAEXPAU_Node@?$_Tree_nod@V?$_Tmap_traits@IPAU_BLECHEVENT@@U?$less@I@std@@V?$allocator@U?$pair@$$CBIPAU_BLECHEVENT@@@std@@@3@$0A@@std@@@2@I@Z 03003480 f i MQ2ChatHook.obj
 0001:00002490       ??Dconst_iterator@?$_Tree@V?$_Tmap_traits@IPAU_BLECHEVENT@@U?$less@I@std@@V?$allocator@U?$pair@$$CBIPAU_BLECHEVENT@@@std@@@3@$0A@@std@@@std@@QBEABU?$pair@$$CBIPAU_BLECHEVENT@@@2@XZ 03003490 f i MQ2ChatHook.obj
 0001:000024c0       ??0?$_Iterator_with_base@Ubidirectional_iterator_tag@std@@U?$pair@$$CBIPAU_BLECHEVENT@@@2@HPBU32@ABU32@V_Iterator_base_aux@2@@std@@QAE@XZ 030034c0 f i MQ2ChatHook.obj
 0001:000024d0       ?_Inside@?$basic_string@DU?$char_traits@D@std@@V?$allocator@D@2@@std@@IAE_NPBD@Z 030034d0 f i MQ2ChatHook.obj
 0001:00002510       ?_Color@?$_Tree@V?$_Tmap_traits@IPAU_BLECHEVENT@@U?$less@I@std@@V?$allocator@U?$pair@$$CBIPAU_BLECHEVENT@@@std@@@3@$0A@@std@@@std@@KAAADPAU_Node@?$_Tree_nod@V?$_Tmap_traits@IPAU_BLECHEVENT@@U?$less@I@std@@V?$allocator@U?$pair@$$CBIPAU_BLECHEVENT@@@std@@@3@$0A@@std@@@2@@Z 03003510 f i MQ2ChatHook.obj
 0001:00002520       ?_Max@?$_Tree@V?$_Tmap_traits@IPAU_BLECHEVENT@@U?$less@I@std@@V?$allocator@U?$pair@$$CBIPAU_BLECHEVENT@@@std@@@3@$0A@@std@@@std@@KAPAU_Node@?$_Tree_nod@V?$_Tmap_traits@IPAU_BLECHEVENT@@U?$less@I@std@@V?$allocator@U?$pair@$$CBIPAU_BLECHEVENT@@@std@@@3@$0A@@std@@@2@PAU342@@Z 03003520 f i MQ2ChatHook.obj
 0001:00002540       ?_Min@?$_Tree@V?$_Tmap_traits@IPAU_BLECHEVENT@@U?$less@I@std@@V?$allocator@U?$pair@$$CBIPAU_BLECHEVENT@@@std@@@3@$0A@@std@@@std@@KAPAU_Node@?$_Tree_nod@V?$_Tmap_traits@IPAU_BLECHEVENT@@U?$less@I@std@@V?$allocator@U?$pair@$$CBIPAU_BLECHEVENT@@@std@@@3@$0A@@std@@@2@PAU342@@Z 03003540 f i MQ2ChatHook.obj
 0001:00002560       ?_Inc@const_iterator@?$_Tree@V?$_Tmap_traits@IPAU_BLECHEVENT@@U?$less@I@std@@V?$allocator@U?$pair@$$CBIPAU_BLECHEVENT@@@std@@@3@$0A@@std@@@std@@QAEXXZ 03003560 f i MQ2ChatHook.obj
 0001:000025d0       ?max_size@?$allocator@D@std@@QBEIXZ 030035d0 f i MQ2ChatHook.obj
 0001:000025e0       ??$swap@D@std@@YAXAAD0@Z   030035e0 f i MQ2ChatHook.obj
 0001:00002600       ??$_Destroy@U_Node@?$_Tree_nod@V?$_Tmap_traits@IPAU_BLECHEVENT@@U?$less@I@std@@V?$allocator@U?$pair@$$CBIPAU_BLECHEVENT@@@std@@@3@$0A@@std@@@std@@@std@@YAXPAU_Node@?$_Tree_nod@V?$_Tmap_traits@IPAU_BLECHEVENT@@U?$less@I@std@@V?$allocator@U?$pair@$$CBIPAU_BLECHEVENT@@@std@@@3@$0A@@std@@@0@@Z 03003600 f i MQ2ChatHook.obj
 0001:00002610       ??$_Destroy@PAU_Node@?$_Tree_nod@V?$_Tmap_traits@IPAU_BLECHEVENT@@U?$less@I@std@@V?$allocator@U?$pair@$$CBIPAU_BLECHEVENT@@@std@@@3@$0A@@std@@@std@@@std@@YAXPAPAU_Node@?$_Tree_nod@V?$_Tmap_traits@IPAU_BLECHEVENT@@U?$less@I@std@@V?$allocator@U?$pair@$$CBIPAU_BLECHEVENT@@@std@@@3@$0A@@std@@@0@@Z 03003610 f i MQ2ChatHook.obj
 0001:00002620       ??$?0U?$pair@$$CBIPAU_BLECHEVENT@@@std@@@?$allocator@PAU_Node@?$_Tree_nod@V?$_Tmap_traits@IPAU_BLECHEVENT@@U?$less@I@std@@V?$allocator@U?$pair@$$CBIPAU_BLECHEVENT@@@std@@@3@$0A@@std@@@std@@@std@@QAE@ABV?$allocator@U?$pair@$$CBIPAU_BLECHEVENT@@@std@@@1@@Z 03003620 f i MQ2ChatHook.obj
 0001:00002630       ??$_Allocate@D@std@@YAPADIPAD@Z 03003630 f i MQ2ChatHook.obj
 0001:00002690       ??$?0U?$pair@$$CBIPAU_BLECHEVENT@@@std@@@?$allocator@U_Node@?$_Tree_nod@V?$_Tmap_traits@IPAU_BLECHEVENT@@U?$less@I@std@@V?$allocator@U?$pair@$$CBIPAU_BLECHEVENT@@@std@@@3@$0A@@std@@@std@@@std@@QAE@ABV?$allocator@U?$pair@$$CBIPAU_BLECHEVENT@@@std@@@1@@Z 03003690 f i MQ2ChatHook.obj
 0001:000026a0       ??$_Allocate@U_Node@?$_Tree_nod@V?$_Tmap_traits@IPAU_BLECHEVENT@@U?$less@I@std@@V?$allocator@U?$pair@$$CBIPAU_BLECHEVENT@@@std@@@3@$0A@@std@@@std@@@std@@YAPAU_Node@?$_Tree_nod@V?$_Tmap_traits@IPAU_BLECHEVENT@@U?$less@I@std@@V?$allocator@U?$pair@$$CBIPAU_BLECHEVENT@@@std@@@3@$0A@@std@@@0@IPAU120@@Z 030036a0 f i MQ2ChatHook.obj
 0001:00002700       ??$_Construct@PAU_Node@?$_Tree_nod@V?$_Tmap_traits@IPAU_BLECHEVENT@@U?$less@I@std@@V?$allocator@U?$pair@$$CBIPAU_BLECHEVENT@@@std@@@3@$0A@@std@@@std@@PAU123@@std@@YAXPAPAU_Node@?$_Tree_nod@V?$_Tmap_traits@IPAU_BLECHEVENT@@U?$less@I@std@@V?$allocator@U?$pair@$$CBIPAU_BLECHEVENT@@@std@@@3@$0A@@std@@@0@ABQAU120@@Z 03003700 f i MQ2ChatHook.obj
 0001:00002720       ??$?0U?$pair@$$CBIPAU_BLECHEVENT@@@std@@@?$allocator@V_Aux_cont@std@@@std@@QAE@ABV?$allocator@U?$pair@$$CBIPAU_BLECHEVENT@@@std@@@1@@Z 03003720 f i MQ2ChatHook.obj
 0001:00002730       ??$_Allocate@V_Aux_cont@std@@@std@@YAPAV_Aux_cont@0@IPAV10@@Z 03003730 f i MQ2ChatHook.obj
 0001:00002790       ??0bad_alloc@std@@QAE@ABV01@@Z 03003790 f i MQ2ChatHook.obj
 0001:000027b0       ??$_Char_traits_cat@U?$char_traits@D@std@@@std@@YA?AU_Secure_char_traits_tag@0@XZ 030037b0 f i MQ2ChatHook.obj
 0001:000027c0       ??$copy_s@U?$char_traits@D@std@@@_Traits_helper@std@@YAPADPADIPBDIU_Secure_char_traits_tag@1@@Z 030037c0 f i MQ2ChatHook.obj
 0001:000027f0       ??$move_s@U?$char_traits@D@std@@@_Traits_helper@std@@YAPADPADIPBDIU_Secure_char_traits_tag@1@@Z 030037f0 f i MQ2ChatHook.obj
 0001:00002820       ?Detour@CChatHook@@QAEXPADKK@Z 03003820 f i MQ2ChatHook.obj
 0001:000028f0       ?TellWnd_Detour@CChatHook@@QAEXPAD00PAXH_N@Z 030038f0 f i MQ2ChatHook.obj
 0001:000029a0       ??9const_iterator@?$_Tree@V?$_Tmap_traits@IPAU_BLECHEVENT@@U?$less@I@std@@V?$allocator@U?$pair@$$CBIPAU_BLECHEVENT@@@std@@@3@$0A@@std@@@std@@QBE_NABV012@@Z 030039a0 f i MQ2ChatHook.obj
 0001:000029d0       ??0?$_String_val@DV?$allocator@D@std@@@std@@IAE@V?$allocator@D@1@@Z 030039d0 f i MQ2ChatHook.obj
 0001:000029e0       ??0?$_String_val@DV?$allocator@D@std@@@std@@QAE@ABV01@@Z 030039e0 f i MQ2ChatHook.obj
 0001:000029f0       ?_Lmost@?$_Tree@V?$_Tmap_traits@IPAU_BLECHEVENT@@U?$less@I@std@@V?$allocator@U?$pair@$$CBIPAU_BLECHEVENT@@@std@@@3@$0A@@std@@@std@@IBEAAPAU_Node@?$_Tree_nod@V?$_Tmap_traits@IPAU_BLECHEVENT@@U?$less@I@std@@V?$allocator@U?$pair@$$CBIPAU_BLECHEVENT@@@std@@@3@$0A@@std@@@2@XZ 030039f0 f i MQ2ChatHook.obj
 0001:00002a00       ?_Rmost@?$_Tree@V?$_Tmap_traits@IPAU_BLECHEVENT@@U?$less@I@std@@V?$allocator@U?$pair@$$CBIPAU_BLECHEVENT@@@std@@@3@$0A@@std@@@std@@IBEAAPAU_Node@?$_Tree_nod@V?$_Tmap_traits@IPAU_BLECHEVENT@@U?$less@I@std@@V?$allocator@U?$pair@$$CBIPAU_BLECHEVENT@@@std@@@3@$0A@@std@@@2@XZ 03003a00 f i MQ2ChatHook.obj
 0001:00002a10       ?_Root@?$_Tree@V?$_Tmap_traits@IPAU_BLECHEVENT@@U?$less@I@std@@V?$allocator@U?$pair@$$CBIPAU_BLECHEVENT@@@std@@@3@$0A@@std@@@std@@IBEAAPAU_Node@?$_Tree_nod@V?$_Tmap_traits@IPAU_BLECHEVENT@@U?$less@I@std@@V?$allocator@U?$pair@$$CBIPAU_BLECHEVENT@@@std@@@3@$0A@@std@@@2@XZ 03003a10 f i MQ2ChatHook.obj
 0001:00002a20       ??1?$_Container_base_aux_alloc_real@V?$allocator@U?$pair@$$CBIPAU_BLECHEVENT@@@std@@@std@@@std@@IAE@XZ 03003a20 f i MQ2ChatHook.obj
 0001:00002a30       ??Diterator@?$_Tree@V?$_Tmap_traits@IPAU_BLECHEVENT@@U?$less@I@std@@V?$allocator@U?$pair@$$CBIPAU_BLECHEVENT@@@std@@@3@$0A@@std@@@std@@QBEAAU?$pair@$$CBIPAU_BLECHEVENT@@@2@XZ 03003a30 f i MQ2ChatHook.obj
 0001:00002a60       ?_Eos@?$basic_string@DU?$char_traits@D@std@@V?$allocator@D@2@@std@@IAEXI@Z 03003a60 f i MQ2ChatHook.obj
 0001:00002a80       ?destroy@?$allocator@U_Node@?$_Tree_nod@V?$_Tmap_traits@IPAU_BLECHEVENT@@U?$less@I@std@@V?$allocator@U?$pair@$$CBIPAU_BLECHEVENT@@@std@@@3@$0A@@std@@@std@@@std@@QAEXPAU_Node@?$_Tree_nod@V?$_Tmap_traits@IPAU_BLECHEVENT@@U?$less@I@std@@V?$allocator@U?$pair@$$CBIPAU_BLECHEVENT@@@std@@@3@$0A@@std@@@2@@Z 03003a80 f i MQ2ChatHook.obj
 0001:00002a90       ?destroy@?$allocator@PAU_Node@?$_Tree_nod@V?$_Tmap_traits@IPAU_BLECHEVENT@@U?$less@I@std@@V?$allocator@U?$pair@$$CBIPAU_BLECHEVENT@@@std@@@3@$0A@@std@@@std@@@std@@QAEXPAPAU_Node@?$_Tree_nod@V?$_Tmap_traits@IPAU_BLECHEVENT@@U?$less@I@std@@V?$allocator@U?$pair@$$CBIPAU_BLECHEVENT@@@std@@@3@$0A@@std@@@2@@Z 03003a90 f i MQ2ChatHook.obj
 0001:00002aa0       ??Econst_iterator@?$_Tree@V?$_Tmap_traits@IPAU_BLECHEVENT@@U?$less@I@std@@V?$allocator@U?$pair@$$CBIPAU_BLECHEVENT@@@std@@@3@$0A@@std@@@std@@QAEAAV012@XZ 03003aa0 f i MQ2ChatHook.obj
 0001:00002ab0       ??Econst_iterator@?$_Tree@V?$_Tmap_traits@IPAU_BLECHEVENT@@U?$less@I@std@@V?$allocator@U?$pair@$$CBIPAU_BLECHEVENT@@@std@@@3@$0A@@std@@@std@@QAE?AV012@H@Z 03003ab0 f i MQ2ChatHook.obj
 0001:00002ad0       ??0?$_Bidit@U?$pair@$$CBIPAU_BLECHEVENT@@@std@@HPBU12@ABU12@@std@@QAE@XZ 03003ad0 f i MQ2ChatHook.obj
 0001:00002ae0       ?max_size@?$basic_string@DU?$char_traits@D@std@@V?$allocator@D@2@@std@@QBEIXZ 03003ae0 f i MQ2ChatHook.obj
 0001:00002af0       ?_Lrotate@?$_Tree@V?$_Tmap_traits@IPAU_BLECHEVENT@@U?$less@I@std@@V?$allocator@U?$pair@$$CBIPAU_BLECHEVENT@@@std@@@3@$0A@@std@@@std@@IAEXPAU_Node@?$_Tree_nod@V?$_Tmap_traits@IPAU_BLECHEVENT@@U?$less@I@std@@V?$allocator@U?$pair@$$CBIPAU_BLECHEVENT@@@std@@@3@$0A@@std@@@2@@Z 03003af0 f i MQ2ChatHook.obj
 0001:00002b40       ?_Rrotate@?$_Tree@V?$_Tmap_traits@IPAU_BLECHEVENT@@U?$less@I@std@@V?$allocator@U?$pair@$$CBIPAU_BLECHEVENT@@@std@@@3@$0A@@std@@@std@@IAEXPAU_Node@?$_Tree_nod@V?$_Tmap_traits@IPAU_BLECHEVENT@@U?$less@I@std@@V?$allocator@U?$pair@$$CBIPAU_BLECHEVENT@@@std@@@3@$0A@@std@@@2@@Z 03003b40 f i MQ2ChatHook.obj
 0001:00002ba0       ?allocate@?$allocator@D@std@@QAEPADI@Z 03003ba0 f i MQ2ChatHook.obj
 0001:00002bc0       ?allocate@?$allocator@U_Node@?$_Tree_nod@V?$_Tmap_traits@IPAU_BLECHEVENT@@U?$less@I@std@@V?$allocator@U?$pair@$$CBIPAU_BLECHEVENT@@@std@@@3@$0A@@std@@@std@@@std@@QAEPAU_Node@?$_Tree_nod@V?$_Tmap_traits@IPAU_BLECHEVENT@@U?$less@I@std@@V?$allocator@U?$pair@$$CBIPAU_BLECHEVENT@@@std@@@3@$0A@@std@@@2@I@Z 03003bc0 f i MQ2ChatHook.obj
 0001:00002be0       ?construct@?$allocator@PAU_Node@?$_Tree_nod@V?$_Tmap_traits@IPAU_BLECHEVENT@@U?$less@I@std@@V?$allocator@U?$pair@$$CBIPAU_BLECHEVENT@@@std@@@3@$0A@@std@@@std@@@std@@QAEXPAPAU_Node@?$_Tree_nod@V?$_Tmap_traits@IPAU_BLECHEVENT@@U?$less@I@std@@V?$allocator@U?$pair@$$CBIPAU_BLECHEVENT@@@std@@@3@$0A@@std@@@2@ABQAU342@@Z 03003be0 f i MQ2ChatHook.obj
 0001:00002c00       ?allocate@?$allocator@V_Aux_cont@std@@@std@@QAEPAV_Aux_cont@2@I@Z 03003c00 f i MQ2ChatHook.obj
 0001:00002c20       ??$copy_s@U?$char_traits@D@std@@@_Traits_helper@std@@YAPADPADIPBDI@Z 03003c20 f i MQ2ChatHook.obj
 0001:00002c50       ??$move_s@U?$char_traits@D@std@@@_Traits_helper@std@@YAPADPADIPBDI@Z 03003c50 f i MQ2ChatHook.obj
 0001:00002c80       ??Citerator@?$_Tree@V?$_Tmap_traits@IPAU_BLECHEVENT@@U?$less@I@std@@V?$allocator@U?$pair@$$CBIPAU_BLECHEVENT@@@std@@@3@$0A@@std@@@std@@QBEPAU?$pair@$$CBIPAU_BLECHEVENT@@@2@XZ 03003c80 f i MQ2ChatHook.obj
 0001:00002cb0       ??1?$_Tmap_traits@IPAU_BLECHEVENT@@U?$less@I@std@@V?$allocator@U?$pair@$$CBIPAU_BLECHEVENT@@@std@@@3@$0A@@std@@QAE@XZ 03003cb0 f i MQ2ChatHook.obj
 0001:00002cc0       ?_Tidy@?$basic_string@DU?$char_traits@D@std@@V?$allocator@D@2@@std@@IAEX_NI@Z 03003cc0 f i MQ2ChatHook.obj
 0001:00002d10       ?_Erase@?$_Tree@V?$_Tmap_traits@IPAU_BLECHEVENT@@U?$less@I@std@@V?$allocator@U?$pair@$$CBIPAU_BLECHEVENT@@@std@@@3@$0A@@std@@@std@@IAEXPAU_Node@?$_Tree_nod@V?$_Tmap_traits@IPAU_BLECHEVENT@@U?$less@I@std@@V?$allocator@U?$pair@$$CBIPAU_BLECHEVENT@@@std@@@3@$0A@@std@@@2@@Z 03003d10 f i MQ2ChatHook.obj
 0001:00002d50       ??Eiterator@?$_Tree@V?$_Tmap_traits@IPAU_BLECHEVENT@@U?$less@I@std@@V?$allocator@U?$pair@$$CBIPAU_BLECHEVENT@@@std@@@3@$0A@@std@@@std@@QAEAAV012@XZ 03003d50 f i MQ2ChatHook.obj
 0001:00002d60       ?erase@?$basic_string@DU?$char_traits@D@std@@V?$allocator@D@2@@std@@QAEAAV12@II@Z 03003d60 f i MQ2ChatHook.obj
 0001:00002df0       ??0const_iterator@?$_Tree@V?$_Tmap_traits@IPAU_BLECHEVENT@@U?$less@I@std@@V?$allocator@U?$pair@$$CBIPAU_BLECHEVENT@@@std@@@3@$0A@@std@@@std@@QAE@PAU_Node@?$_Tree_nod@V?$_Tmap_traits@IPAU_BLECHEVENT@@U?$less@I@std@@V?$allocator@U?$pair@$$CBIPAU_BLECHEVENT@@@std@@@3@$0A@@std@@@2@PBV12@@Z 03003df0 f i MQ2ChatHook.obj
 0001:00002e20       ?_Copy@?$basic_string@DU?$char_traits@D@std@@V?$allocator@D@2@@std@@IAEXII@Z 03003e20 f i MQ2ChatHook.obj
 0001:00002f70       ?_Buynode@?$_Tree@V?$_Tmap_traits@IPAU_BLECHEVENT@@U?$less@I@std@@V?$allocator@U?$pair@$$CBIPAU_BLECHEVENT@@@std@@@3@$0A@@std@@@std@@IAEPAU_Node@?$_Tree_nod@V?$_Tmap_traits@IPAU_BLECHEVENT@@U?$less@I@std@@V?$allocator@U?$pair@$$CBIPAU_BLECHEVENT@@@std@@@3@$0A@@std@@@2@XZ 03003f70 f i MQ2ChatHook.obj
 0001:00003010       ??0?$_Container_base_aux_alloc_real@V?$allocator@U?$pair@$$CBIPAU_BLECHEVENT@@@std@@@std@@@std@@IAE@V?$allocator@U?$pair@$$CBIPAU_BLECHEVENT@@@std@@@1@@Z 03004010 f i MQ2ChatHook.obj
 0001:00003040       ??1?$basic_string@DU?$char_traits@D@std@@V?$allocator@D@2@@std@@QAE@XZ 03004040 f i MQ2ChatHook.obj
 0001:00003070       ?clear@?$_Tree@V?$_Tmap_traits@IPAU_BLECHEVENT@@U?$less@I@std@@V?$allocator@U?$pair@$$CBIPAU_BLECHEVENT@@@std@@@3@$0A@@std@@@std@@QAEXXZ 03004070 f i MQ2ChatHook.obj
 0001:000030a0       ??Eiterator@?$_Tree@V?$_Tmap_traits@IPAU_BLECHEVENT@@U?$less@I@std@@V?$allocator@U?$pair@$$CBIPAU_BLECHEVENT@@@std@@@3@$0A@@std@@@std@@QAE?AV012@H@Z 030040a0 f i MQ2ChatHook.obj
 0001:000030c0       ??1?$_Tree_nod@V?$_Tmap_traits@IPAU_BLECHEVENT@@U?$less@I@std@@V?$allocator@U?$pair@$$CBIPAU_BLECHEVENT@@@std@@@3@$0A@@std@@@std@@QAE@XZ 030040c0 f i MQ2ChatHook.obj
 0001:000030d0       ??0iterator@?$_Tree@V?$_Tmap_traits@IPAU_BLECHEVENT@@U?$less@I@std@@V?$allocator@U?$pair@$$CBIPAU_BLECHEVENT@@@std@@@3@$0A@@std@@@std@@QAE@PAU_Node@?$_Tree_nod@V?$_Tmap_traits@IPAU_BLECHEVENT@@U?$less@I@std@@V?$allocator@U?$pair@$$CBIPAU_BLECHEVENT@@@std@@@3@$0A@@std@@@2@PBV12@@Z 030040d0 f i MQ2ChatHook.obj
 0001:00003100       ?_Grow@?$basic_string@DU?$char_traits@D@std@@V?$allocator@D@2@@std@@IAE_NI_N@Z 03004100 f i MQ2ChatHook.obj
 0001:000031c0       ?_Make_iter@?$_Tree@V?$_Tmap_traits@IPAU_BLECHEVENT@@U?$less@I@std@@V?$allocator@U?$pair@$$CBIPAU_BLECHEVENT@@@std@@@3@$0A@@std@@@std@@QBE?AViterator@12@Vconst_iterator@12@@Z 030041c0 f i MQ2ChatHook.obj
 0001:000031f0       ?_Init@?$_Tree@V?$_Tmap_traits@IPAU_BLECHEVENT@@U?$less@I@std@@V?$allocator@U?$pair@$$CBIPAU_BLECHEVENT@@@std@@@3@$0A@@std@@@std@@IAEXXZ 030041f0 f i MQ2ChatHook.obj
 0001:00003220       ??0?$_Tmap_traits@IPAU_BLECHEVENT@@U?$less@I@std@@V?$allocator@U?$pair@$$CBIPAU_BLECHEVENT@@@std@@@3@$0A@@std@@QAE@U?$less@I@1@V?$allocator@U?$pair@$$CBIPAU_BLECHEVENT@@@std@@@1@@Z 03004220 f i MQ2ChatHook.obj
 0001:00003250       ??1logic_error@std@@UAE@XZ 03004250 f i MQ2ChatHook.obj
 0001:00003290       ?c_str@?$basic_string@DU?$char_traits@D@std@@V?$allocator@D@2@@std@@QBEPBDXZ 03004290 f i MQ2ChatHook.obj
 0001:000032a0       ?what@logic_error@std@@UBEPBDXZ 030042a0 f i MQ2ChatHook.obj
 0001:000032b0       ??_Glogic_error@std@@UAEPAXI@Z 030042b0 f i MQ2ChatHook.obj
 0001:000032b0       ??_Elogic_error@std@@UAEPAXI@Z 030042b0 f i MQ2ChatHook.obj
 0001:00003300       ?begin@?$_Tree@V?$_Tmap_traits@IPAU_BLECHEVENT@@U?$less@I@std@@V?$allocator@U?$pair@$$CBIPAU_BLECHEVENT@@@std@@@3@$0A@@std@@@std@@QAE?AViterator@12@XZ 03004300 f i MQ2ChatHook.obj
 0001:00003320       ?end@?$_Tree@V?$_Tmap_traits@IPAU_BLECHEVENT@@U?$less@I@std@@V?$allocator@U?$pair@$$CBIPAU_BLECHEVENT@@@std@@@3@$0A@@std@@@std@@QAE?AViterator@12@XZ 03004320 f i MQ2ChatHook.obj
 0001:00003340       ??1?$_Tree_ptr@V?$_Tmap_traits@IPAU_BLECHEVENT@@U?$less@I@std@@V?$allocator@U?$pair@$$CBIPAU_BLECHEVENT@@@std@@@3@$0A@@std@@@std@@QAE@XZ 03004340 f i MQ2ChatHook.obj
 0001:00003350       ?assign@?$basic_string@DU?$char_traits@D@std@@V?$allocator@D@2@@std@@QAEAAV12@ABV12@II@Z 03004350 f i MQ2ChatHook.obj
 0001:00003430       ?assign@?$basic_string@DU?$char_traits@D@std@@V?$allocator@D@2@@std@@QAEAAV12@PBDI@Z 03004430 f i MQ2ChatHook.obj
 0001:00003510       ??0?$_Tree_nod@V?$_Tmap_traits@IPAU_BLECHEVENT@@U?$less@I@std@@V?$allocator@U?$pair@$$CBIPAU_BLECHEVENT@@@std@@@3@$0A@@std@@@std@@IAE@ABU?$less@I@1@V?$allocator@U?$pair@$$CBIPAU_BLECHEVENT@@@std@@@1@@Z 03004510 f i MQ2ChatHook.obj
 0001:00003540       ?Cleanup@Blech@@AAEXXZ     03004540 f i MQ2ChatHook.obj
 0001:00003640       ??0?$basic_string@DU?$char_traits@D@std@@V?$allocator@D@2@@std@@QAE@ABV01@@Z 03004640 f i MQ2ChatHook.obj
 0001:00003670       ??1?$_Tree_val@V?$_Tmap_traits@IPAU_BLECHEVENT@@U?$less@I@std@@V?$allocator@U?$pair@$$CBIPAU_BLECHEVENT@@@std@@@3@$0A@@std@@@std@@QAE@XZ 03004670 f i MQ2ChatHook.obj
 0001:00003680       ?assign@?$basic_string@DU?$char_traits@D@std@@V?$allocator@D@2@@std@@QAEAAV12@PBD@Z 03004680 f i MQ2ChatHook.obj
 0001:000036b0       ??0?$_Tree_ptr@V?$_Tmap_traits@IPAU_BLECHEVENT@@U?$less@I@std@@V?$allocator@U?$pair@$$CBIPAU_BLECHEVENT@@@std@@@3@$0A@@std@@@std@@IAE@ABU?$less@I@1@V?$allocator@U?$pair@$$CBIPAU_BLECHEVENT@@@std@@@1@@Z 030046b0 f i MQ2ChatHook.obj
 0001:000036e0       ??0logic_error@std@@QAE@ABV?$basic_string@DU?$char_traits@D@std@@V?$allocator@D@2@@1@@Z 030046e0 f i MQ2ChatHook.obj
 0001:00003720       ??0out_of_range@std@@QAE@ABV?$basic_string@DU?$char_traits@D@std@@V?$allocator@D@2@@1@@Z 03004720 f i MQ2ChatHook.obj
 0001:00003760       ??1out_of_range@std@@UAE@XZ 03004760 f i MQ2ChatHook.obj
 0001:000037a0       ??_Eout_of_range@std@@UAEPAXI@Z 030047a0 f i MQ2ChatHook.obj
 0001:000037a0       ??_Gout_of_range@std@@UAEPAXI@Z 030047a0 f i MQ2ChatHook.obj
 0001:000037f0       ??0?$basic_string@DU?$char_traits@D@std@@V?$allocator@D@2@@std@@QAE@PBD@Z 030047f0 f i MQ2ChatHook.obj
 0001:00003830       ?erase@?$_Tree@V?$_Tmap_traits@IPAU_BLECHEVENT@@U?$less@I@std@@V?$allocator@U?$pair@$$CBIPAU_BLECHEVENT@@@std@@@3@$0A@@std@@@std@@QAE?AViterator@12@Vconst_iterator@12@@Z 03004830 f i MQ2ChatHook.obj
 0001:00003af0       ??0logic_error@std@@QAE@ABV01@@Z 03004af0 f i MQ2ChatHook.obj
 0001:00003b30       ??0?$_Tree_val@V?$_Tmap_traits@IPAU_BLECHEVENT@@U?$less@I@std@@V?$allocator@U?$pair@$$CBIPAU_BLECHEVENT@@@std@@@3@$0A@@std@@@std@@IAE@ABU?$less@I@1@V?$allocator@U?$pair@$$CBIPAU_BLECHEVENT@@@std@@@1@@Z 03004b30 f i MQ2ChatHook.obj
 0001:00003b60       ??0out_of_range@std@@QAE@ABV01@@Z 03004b60 f i MQ2ChatHook.obj
 0001:00003ba0       ??0?$_Tree@V?$_Tmap_traits@IPAU_BLECHEVENT@@U?$less@I@std@@V?$allocator@U?$pair@$$CBIPAU_BLECHEVENT@@@std@@@3@$0A@@std@@@std@@QAE@ABU?$less@I@1@ABV?$allocator@U?$pair@$$CBIPAU_BLECHEVENT@@@std@@@1@@Z 03004ba0 f i MQ2ChatHook.obj
 0001:00003bf0       ?erase@?$_Tree@V?$_Tmap_traits@IPAU_BLECHEVENT@@U?$less@I@std@@V?$allocator@U?$pair@$$CBIPAU_BLECHEVENT@@@std@@@3@$0A@@std@@@std@@QAE?AViterator@12@Vconst_iterator@12@0@Z 03004bf0 f i MQ2ChatHook.obj
 0001:00003cd0       ?_Tidy@?$_Tree@V?$_Tmap_traits@IPAU_BLECHEVENT@@U?$less@I@std@@V?$allocator@U?$pair@$$CBIPAU_BLECHEVENT@@@std@@@3@$0A@@std@@@std@@IAEXXZ 03004cd0 f i MQ2ChatHook.obj
 0001:00003d10       ??1?$_Tree@V?$_Tmap_traits@IPAU_BLECHEVENT@@U?$less@I@std@@V?$allocator@U?$pair@$$CBIPAU_BLECHEVENT@@@std@@@3@$0A@@std@@@std@@QAE@XZ 03004d10 f i MQ2ChatHook.obj
 0001:00003d50       ??1?$map@IPAU_BLECHEVENT@@U?$less@I@std@@V?$allocator@U?$pair@$$CBIPAU_BLECHEVENT@@@std@@@3@@std@@QAE@XZ 03004d50 f i MQ2ChatHook.obj
 0001:00003d90       ??0?$map@IPAU_BLECHEVENT@@U?$less@I@std@@V?$allocator@U?$pair@$$CBIPAU_BLECHEVENT@@@std@@@3@@std@@QAE@XZ 03004d90 f i MQ2ChatHook.obj
 0001:00003de0       ??0Blech@@QAE@DDP6GIPAD0@Z@Z 03004de0 f i MQ2ChatHook.obj
 0001:00003e90       ??1Blech@@QAE@XZ           03004e90 f i MQ2ChatHook.obj
 0001:00003ee0       _InitializeChatHook        03004ee0 f   MQ2ChatHook.obj
 0001:00003f80       ??_GBlech@@QAEPAXI@Z       03004f80 f i MQ2ChatHook.obj
 0001:00003fa0       _ShutdownChatHook          03004fa0 f   MQ2ChatHook.obj
 0001:00003ff0       _DrawHUDText               03004ff0 f   MQ2CleanUI.obj
 0001:00004090       ?SetProgressBar_Trampoline@EQ_LoadingSHook@@QAEXHPBD@Z 03005090 f   MQ2CleanUI.obj
 0001:000040b0       ?DrawHUD_Trampoline@@YAKKKKK@Z 030050b0 f   MQ2CleanUI.obj
 0001:000040d0       ?CleanUI_Trampoline@CDisplayHook@@QAEXXZ 030050d0 f   MQ2CleanUI.obj
 0001:000040f0       ?ReloadUI_Trampoline@CDisplayHook@@QAEXH@Z 030050f0 f   MQ2CleanUI.obj
 0001:00004110       _ShutdownDisplayHook       03005110 f   MQ2CleanUI.obj
 0001:00004150       ?CleanUI_Detour@CDisplayHook@@QAEXXZ 03005150 f i MQ2CleanUI.obj
 0001:00004180       ?ReloadUI_Detour@CDisplayHook@@QAEXH@Z 03005180 f i MQ2CleanUI.obj
 0001:000041b0       ?DrawHUD_Detour@@YAKKKKK@Z 030051b0 f   MQ2CleanUI.obj
 0001:00004240       _DrawHUD                   03005240 f   MQ2CleanUI.obj
 0001:000042f0       ?SetProgressBar_Detour@EQ_LoadingSHook@@QAEXHPBD@Z 030052f0 f i MQ2CleanUI.obj
 0001:00004310       _InitializeDisplayHook     03005310 f   MQ2CleanUI.obj
 0001:00004390       _HideDoCommand             03005390 f   MQ2CommandAPI.obj
 0001:000047f0       ?Trampoline@CCommandHook@@QAEXPAU_SPAWNINFO@EQData@@PAD@Z 030057f0 f   MQ2CommandAPI.obj
 0001:00004810       _AddCommand                03005810 f   MQ2CommandAPI.obj
 0001:000048c0       _RemoveCommand             030058c0 f   MQ2CommandAPI.obj
 0001:00004950       _AddAlias                  03005950 f   MQ2CommandAPI.obj
 0001:00004af0       _RemoveAlias               03005af0 f   MQ2CommandAPI.obj
 0001:00004b60       _AddSubstitute             03005b60 f   MQ2CommandAPI.obj
 0001:00004d00       _RemoveSubstitute          03005d00 f   MQ2CommandAPI.obj
 0001:00004d70       _ShutdownMQ2Commands       03005d70 f   MQ2CommandAPI.obj
 0001:00004e50       _DoTimedCommands           03005e50 f   MQ2CommandAPI.obj
 0001:00004eb0       _TimedCommand              03005eb0 f   MQ2CommandAPI.obj
 0001:00004f40       ?replace@?$basic_string@DU?$char_traits@D@std@@V?$allocator@D@2@@std@@QAEAAV12@IIABV12@II@Z 03005f40 f i MQ2CommandAPI.obj
 0001:000052f0       ?replace@?$basic_string@DU?$char_traits@D@std@@V?$allocator@D@2@@std@@QAEAAV12@IIPBDI@Z 030062f0 f i MQ2CommandAPI.obj
 0001:000054d0       ??4?$basic_string@DU?$char_traits@D@std@@V?$allocator@D@2@@std@@QAEAAV01@PBD@Z 030064d0 f i MQ2CommandAPI.obj
 0001:00005500       ?replace@?$basic_string@DU?$char_traits@D@std@@V?$allocator@D@2@@std@@QAEAAV12@IIPBD@Z 03006500 f i MQ2CommandAPI.obj
 0001:00005530       ?Detour@CCommandHook@@QAEXPAU_SPAWNINFO@EQData@@PAD@Z 03006530 f i MQ2CommandAPI.obj
 0001:00005a80       _InitializeMQ2Commands     03006a80 f   MQ2CommandAPI.obj
 0001:00006cd0       ?strchr@@YAPADPADH@Z       03007cd0 f i MQ2Commands.obj
 0001:00006ce0       _atan2f                    03007ce0 f i MQ2Commands.obj
 0001:00006d00       _sqrtf                     03007d00 f i MQ2Commands.obj
 0001:00006d20       ?atan2@@YAMMM@Z            03007d20 f i MQ2Commands.obj
 0001:00006d40       ?compare@?$char_traits@D@std@@SAHPBD0I@Z 03007d40 f i MQ2Commands.obj
 0001:00006f30       _Unload                    03007f30 f   MQ2Commands.obj
 0001:00006f80       _ListMacros                03007f80 f   MQ2Commands.obj
 0001:00007220       _Items                     03008220 f   MQ2Commands.obj
 0001:000074a0       _ItemTarget                030084a0 f   MQ2Commands.obj
 0001:000077b0       _Doors                     030087b0 f   MQ2Commands.obj
 0001:00007a00       _DoorTarget                03008a00 f   MQ2Commands.obj
 0001:00007e50       _CharInfo                  03008e50 f   MQ2Commands.obj
 0001:00007f20       _UpdateItemInfo            03008f20 f   MQ2Commands.obj
 0001:000083b0       _MemSpell                  030093b0 f   MQ2Commands.obj
 0001:000085a0       _BuyItem                   030095a0 f   MQ2Commands.obj
 0001:00008650       _SellItem                  03009650 f   MQ2Commands.obj
 0001:00008700       _Help                      03009700 f   MQ2Commands.obj
 0001:00008890       ?CmdCmd@@YAXPAU_SPAWNINFO@EQData@@PAD@Z 03009890 f   MQ2Commands.obj
 0001:000088a0       _PluginCmdSort             030098a0 f   MQ2Commands.obj
 0001:000088f0       _MacroBeep                 030098f0 f   MQ2Commands.obj
 0001:00008970       _SWhoFilter                03009970 f   MQ2Commands.obj
 0001:00008e40       _Filter                    03009e40 f   MQ2Commands.obj
 0001:00009e00       _DebugSpewFile             0300ae00 f   MQ2Commands.obj
 0001:00009ed0       _Identify                  0300aed0 f   MQ2Commands.obj
 0001:0000abc0       _Location                  0300bbc0 f   MQ2Commands.obj
 0001:0000ac80       _Alert                     0300bc80 f   MQ2Commands.obj
 0001:0000b130       _SuperWhoTarget            0300c130 f   MQ2Commands.obj
 0001:0000b1c0       _SuperWho                  0300c1c0 f   MQ2Commands.obj
 0001:0000b480       _SetError                  0300c480 f   MQ2Commands.obj
 0001:0000b4d0       _MQMsgBox                  0300c4d0 f   MQ2Commands.obj
 0001:0000b550       _MacroLog                  0300c550 f   MQ2Commands.obj
 0001:0000b750       _Face                      0300c750 f   MQ2Commands.obj
 0001:0000bee0       _Look                      0300cee0 f   MQ2Commands.obj
 0001:0000bf90       _Where                     0300cf90 f   MQ2Commands.obj
 0001:0000c210       _DoAbility                 0300d210 f   MQ2Commands.obj
 0001:0000c5c0       _LoadSpells                0300d5c0 f   MQ2Commands.obj
 0001:0000c8c0       _Cast                      0300d8c0 f   MQ2Commands.obj
 0001:0000cc30       _Target                    0300dc30 f   MQ2Commands.obj
 0001:0000cf60       _Skills                    0300df60 f   MQ2Commands.obj
 0001:0000d170       _MacroPause                0300e170 f   MQ2Commands.obj
 0001:0000d3d0       _SetAutoRun                0300e3d0 f   MQ2Commands.obj
 0001:0000d460       _Alias                     0300e460 f   MQ2Commands.obj
 0001:0000d6b0       _Substitute                0300e6b0 f   MQ2Commands.obj
 0001:0000d900       _IniOutput                 0300e900 f   MQ2Commands.obj
 0001:0000db60       _BankList                  0300eb60 f   MQ2Commands.obj
 0001:0000dcf0       _WindowState               0300ecf0 f   MQ2Commands.obj
 0001:0000deb0       _KeepKeys                  0300eeb0 f   MQ2Commands.obj
 0001:0000e010       _DisplayLoginName          0300f010 f   MQ2Commands.obj
 0001:0000e050       _PluginCommand             0300f050 f   MQ2Commands.obj
 0001:0000e2b0       _EQDestroyHeldItemOrMoney  0300f2b0 f   MQ2Commands.obj
 0001:0000e2c0       _Exec                      0300f2c0 f   MQ2Commands.obj
 0001:0000e480       _DoMappable                0300f480 f   MQ2Commands.obj
 0001:0000e680       _PopupText                 0300f680 f   MQ2Commands.obj
 0001:0000e6b0       _MultilineCommand          0300f6b0 f   MQ2Commands.obj
 0001:0000e7b0       _do_ranged                 0300f7b0 f   MQ2Commands.obj
 0001:0000e810       _LoadCfgCommand            0300f810 f   MQ2Commands.obj
 0001:0000e850       _DumpBindsCommand          0300f850 f   MQ2Commands.obj
 0001:0000e8a0       _SquelchCommand            0300f8a0 f   MQ2Commands.obj
 0001:0000e8e0       _DoCommandCmd              0300f8e0 f   MQ2Commands.obj
 0001:0000e910       _DoAltCmd                  0300f910 f   MQ2Commands.obj
 0001:0000e960       _DoShiftCmd                0300f960 f   MQ2Commands.obj
 0001:0000e9c0       _DoCtrlCmd                 0300f9c0 f   MQ2Commands.obj
 0001:0000ea10       _NoModKeyCmd               0300fa10 f   MQ2Commands.obj
 0001:0000ea60       _DoSocial                  0300fa60 f   MQ2Commands.obj
 0001:0000ecd0       _DoTimedCmd                0300fcd0 f   MQ2Commands.obj
 0001:0000ed60       _ClearErrorsCmd            0300fd60 f   MQ2Commands.obj
 0001:0000ed80       _CombineCmd                0300fd80 f   MQ2Commands.obj
 0001:0000ede0       _DropCmd                   0300fde0 f   MQ2Commands.obj
 0001:0000ee20       _HudCmd                    0300fe20 f   MQ2Commands.obj
 0001:0000ef10       _CaptionCmd                0300ff10 f   MQ2Commands.obj
 0001:0000f250       _NoParseCmd                03010250 f   MQ2Commands.obj
 0001:0000f290       _Echo                      03010290 f   MQ2Commands.obj
 0001:0000f330       _LootAll                   03010330 f   MQ2Commands.obj
 0001:0000f350       ??0?$CIndex@PAU_MQ2TypeMember@MQ2Internal@@@MQ2Internal@@QAE@XZ 03010350 f i MQ2Commands.obj
 0001:0000f370       ??1?$CIndex@PAU_MQ2TypeMember@MQ2Internal@@@MQ2Internal@@QAE@XZ 03010370 f i MQ2Commands.obj
 0001:0000f3b0       ?Cleanup@?$CIndex@PAU_MQ2TypeMember@MQ2Internal@@@MQ2Internal@@QAEXXZ 030103b0 f i MQ2Commands.obj
 0001:0000f3f0       ??A?$CIndex@PAU_MQ2TypeMember@MQ2Internal@@@MQ2Internal@@QAEAAPAU_MQ2TypeMember@1@K@Z 030103f0 f i MQ2Commands.obj
 0001:0000f400       ?Resize@?$CIndex@PAU_MQ2TypeMember@MQ2Internal@@@MQ2Internal@@QAEXK@Z 03010400 f i MQ2Commands.obj
 0001:0000f4b0       ??0?$allocator@U?$pair@$$CBV?$basic_string@DU?$char_traits@D@std@@V?$allocator@D@2@@std@@K@std@@@std@@QAE@XZ 030104b0 f i MQ2Commands.obj
 0001:0000f4c0       ??8const_iterator@?$_Tree@V?$_Tmap_traits@V?$basic_string@DU?$char_traits@D@std@@V?$allocator@D@2@@std@@KU?$less@V?$basic_string@DU?$char_traits@D@std@@V?$allocator@D@2@@std@@@2@V?$allocator@U?$pair@$$CBV?$basic_string@DU?$char_traits@D@std@@V?$allocator@D@2@@std@@K@std@@@2@$0A@@std@@@std@@QBE_NABV012@@Z 030104c0 f i MQ2Commands.obj
 0001:0000f4f0       ?_Mynode@const_iterator@?$_Tree@V?$_Tmap_traits@V?$basic_string@DU?$char_traits@D@std@@V?$allocator@D@2@@std@@KU?$less@V?$basic_string@DU?$char_traits@D@std@@V?$allocator@D@2@@std@@@2@V?$allocator@U?$pair@$$CBV?$basic_string@DU?$char_traits@D@std@@V?$allocator@D@2@@std@@K@std@@@2@$0A@@std@@@std@@QBEPAU_Node@?$_Tree_nod@V?$_Tmap_traits@V?$basic_string@DU?$char_traits@D@std@@V?$allocator@D@2@@std@@KU?$less@V?$basic_string@DU?$char_traits@D@std@@V?$allocator@D@2@@std@@@2@V?$allocator@U?$pair@$$CBV?$basic_string@DU?$char_traits@D@std@@V?$allocator@D@2@@std@@K@std@@@2@$0A@@std@@@3@XZ 030104f0 f i MQ2Commands.obj
 0001:0000f500       ?_Isnil@?$_Tree@V?$_Tmap_traits@V?$basic_string@DU?$char_traits@D@std@@V?$allocator@D@2@@std@@KU?$less@V?$basic_string@DU?$char_traits@D@std@@V?$allocator@D@2@@std@@@2@V?$allocator@U?$pair@$$CBV?$basic_string@DU?$char_traits@D@std@@V?$allocator@D@2@@std@@K@std@@@2@$0A@@std@@@std@@KAAADPAU_Node@?$_Tree_nod@V?$_Tmap_traits@V?$basic_string@DU?$char_traits@D@std@@V?$allocator@D@2@@std@@KU?$less@V?$basic_string@DU?$char_traits@D@std@@V?$allocator@D@2@@std@@@2@V?$allocator@U?$pair@$$CBV?$basic_string@DU?$char_traits@D@std@@V?$allocator@D@2@@std@@K@std@@@2@$0A@@std@@@2@@Z 03010500 f i MQ2Commands.obj
 0001:0000f510       ?_Left@?$_Tree@V?$_Tmap_traits@V?$basic_string@DU?$char_traits@D@std@@V?$allocator@D@2@@std@@KU?$less@V?$basic_string@DU?$char_traits@D@std@@V?$allocator@D@2@@std@@@2@V?$allocator@U?$pair@$$CBV?$basic_string@DU?$char_traits@D@std@@V?$allocator@D@2@@std@@K@std@@@2@$0A@@std@@@std@@KAAAPAU_Node@?$_Tree_nod@V?$_Tmap_traits@V?$basic_string@DU?$char_traits@D@std@@V?$allocator@D@2@@std@@KU?$less@V?$basic_string@DU?$char_traits@D@std@@V?$allocator@D@2@@std@@@2@V?$allocator@U?$pair@$$CBV?$basic_string@DU?$char_traits@D@std@@V?$allocator@D@2@@std@@K@std@@@2@$0A@@std@@@2@PAU342@@Z 03010510 f i MQ2Commands.obj
 0001:0000f520       ?_Parent@?$_Tree@V?$_Tmap_traits@V?$basic_string@DU?$char_traits@D@std@@V?$allocator@D@2@@std@@KU?$less@V?$basic_string@DU?$char_traits@D@std@@V?$allocator@D@2@@std@@@2@V?$allocator@U?$pair@$$CBV?$basic_string@DU?$char_traits@D@std@@V?$allocator@D@2@@std@@K@std@@@2@$0A@@std@@@std@@KAAAPAU_Node@?$_Tree_nod@V?$_Tmap_traits@V?$basic_string@DU?$char_traits@D@std@@V?$allocator@D@2@@std@@KU?$less@V?$basic_string@DU?$char_traits@D@std@@V?$allocator@D@2@@std@@@2@V?$allocator@U?$pair@$$CBV?$basic_string@DU?$char_traits@D@std@@V?$allocator@D@2@@std@@K@std@@@2@$0A@@std@@@2@PAU342@@Z 03010520 f i MQ2Commands.obj
 0001:0000f530       ?_Right@?$_Tree@V?$_Tmap_traits@V?$basic_string@DU?$char_traits@D@std@@V?$allocator@D@2@@std@@KU?$less@V?$basic_string@DU?$char_traits@D@std@@V?$allocator@D@2@@std@@@2@V?$allocator@U?$pair@$$CBV?$basic_string@DU?$char_traits@D@std@@V?$allocator@D@2@@std@@K@std@@@2@$0A@@std@@@std@@KAAAPAU_Node@?$_Tree_nod@V?$_Tmap_traits@V?$basic_string@DU?$char_traits@D@std@@V?$allocator@D@2@@std@@KU?$less@V?$basic_string@DU?$char_traits@D@std@@V?$allocator@D@2@@std@@@2@V?$allocator@U?$pair@$$CBV?$basic_string@DU?$char_traits@D@std@@V?$allocator@D@2@@std@@K@std@@@2@$0A@@std@@@2@PAU342@@Z 03010530 f i MQ2Commands.obj
 0001:0000f540       ?_Myval@?$_Tree@V?$_Tmap_traits@V?$basic_string@DU?$char_traits@D@std@@V?$allocator@D@2@@std@@KU?$less@V?$basic_string@DU?$char_traits@D@std@@V?$allocator@D@2@@std@@@2@V?$allocator@U?$pair@$$CBV?$basic_string@DU?$char_traits@D@std@@V?$allocator@D@2@@std@@K@std@@@2@$0A@@std@@@std@@KAAAU?$pair@$$CBV?$basic_string@DU?$char_traits@D@std@@V?$allocator@D@2@@std@@K@2@PAU_Node@?$_Tree_nod@V?$_Tmap_traits@V?$basic_string@DU?$char_traits@D@std@@V?$allocator@D@2@@std@@KU?$less@V?$basic_string@DU?$char_traits@D@std@@V?$allocator@D@2@@std@@@2@V?$allocator@U?$pair@$$CBV?$basic_string@DU?$char_traits@D@std@@V?$allocator@D@2@@std@@K@std@@@2@$0A@@std@@@2@@Z 03010540 f i MQ2Commands.obj
 0001:0000f550       ?size@?$_Tree@V?$_Tmap_traits@V?$basic_string@DU?$char_traits@D@std@@V?$allocator@D@2@@std@@KU?$less@V?$basic_string@DU?$char_traits@D@std@@V?$allocator@D@2@@std@@@2@V?$allocator@U?$pair@$$CBV?$basic_string@DU?$char_traits@D@std@@V?$allocator@D@2@@std@@K@std@@@2@$0A@@std@@@std@@QBEIXZ 03010550 f i MQ2Commands.obj
 0001:0000f560       ?_Rmost@?$_Tree@V?$_Tmap_traits@V?$basic_string@DU?$char_traits@D@std@@V?$allocator@D@2@@std@@KU?$less@V?$basic_string@DU?$char_traits@D@std@@V?$allocator@D@2@@std@@@2@V?$allocator@U?$pair@$$CBV?$basic_string@DU?$char_traits@D@std@@V?$allocator@D@2@@std@@K@std@@@2@$0A@@std@@@std@@IBEAAPAU_Node@?$_Tree_nod@V?$_Tmap_traits@V?$basic_string@DU?$char_traits@D@std@@V?$allocator@D@2@@std@@KU?$less@V?$basic_string@DU?$char_traits@D@std@@V?$allocator@D@2@@std@@@2@V?$allocator@U?$pair@$$CBV?$basic_string@DU?$char_traits@D@std@@V?$allocator@D@2@@std@@K@std@@@2@$0A@@std@@@2@XZ 03010560 f i MQ2Commands.obj
 0001:0000f570       ?_Kfn@?$_Tmap_traits@V?$basic_string@DU?$char_traits@D@std@@V?$allocator@D@2@@std@@KU?$less@V?$basic_string@DU?$char_traits@D@std@@V?$allocator@D@2@@std@@@2@V?$allocator@U?$pair@$$CBV?$basic_string@DU?$char_traits@D@std@@V?$allocator@D@2@@std@@K@std@@@2@$0A@@std@@SAABV?$basic_string@DU?$char_traits@D@std@@V?$allocator@D@2@@2@ABU?$pair@$$CBV?$basic_string@DU?$char_traits@D@std@@V?$allocator@D@2@@std@@K@2@@Z 03010570 f i MQ2Commands.obj
 0001:0000f580       ??0?$allocator@U?$pair@$$CBV?$basic_string@DU?$char_traits@D@std@@V?$allocator@D@2@@std@@K@std@@@std@@QAE@ABV01@@Z 03010580 f i MQ2Commands.obj
 0001:0000f590       ?deallocate@?$allocator@U_Node@?$_Tree_nod@V?$_Tmap_traits@V?$basic_string@DU?$char_traits@D@std@@V?$allocator@D@2@@std@@KU?$less@V?$basic_string@DU?$char_traits@D@std@@V?$allocator@D@2@@std@@@2@V?$allocator@U?$pair@$$CBV?$basic_string@DU?$char_traits@D@std@@V?$allocator@D@2@@std@@K@std@@@2@$0A@@std@@@std@@@std@@QAEXPAU_Node@?$_Tree_nod@V?$_Tmap_traits@V?$basic_string@DU?$char_traits@D@std@@V?$allocator@D@2@@std@@KU?$less@V?$basic_string@DU?$char_traits@D@std@@V?$allocator@D@2@@std@@@2@V?$allocator@U?$pair@$$CBV?$basic_string@DU?$char_traits@D@std@@V?$allocator@D@2@@std@@K@std@@@2@$0A@@std@@@2@I@Z 03010590 f i MQ2Commands.obj
 0001:0000f5a0       ??Dconst_iterator@?$_Tree@V?$_Tmap_traits@V?$basic_string@DU?$char_traits@D@std@@V?$allocator@D@2@@std@@KU?$less@V?$basic_string@DU?$char_traits@D@std@@V?$allocator@D@2@@std@@@2@V?$allocator@U?$pair@$$CBV?$basic_string@DU?$char_traits@D@std@@V?$allocator@D@2@@std@@K@std@@@2@$0A@@std@@@std@@QBEABU?$pair@$$CBV?$basic_string@DU?$char_traits@D@std@@V?$allocator@D@2@@std@@K@2@XZ 030105a0 f i MQ2Commands.obj
 0001:0000f5d0       ??0?$_Iterator_with_base@Ubidirectional_iterator_tag@std@@U?$pair@$$CBV?$basic_string@DU?$char_traits@D@std@@V?$allocator@D@2@@std@@K@2@HPBU32@ABU32@V_Iterator_base_aux@2@@std@@QAE@XZ 030105d0 f i MQ2Commands.obj
 0001:0000f5e0       ?_Color@?$_Tree@V?$_Tmap_traits@V?$basic_string@DU?$char_traits@D@std@@V?$allocator@D@2@@std@@KU?$less@V?$basic_string@DU?$char_traits@D@std@@V?$allocator@D@2@@std@@@2@V?$allocator@U?$pair@$$CBV?$basic_string@DU?$char_traits@D@std@@V?$allocator@D@2@@std@@K@std@@@2@$0A@@std@@@std@@KAAADPAU_Node@?$_Tree_nod@V?$_Tmap_traits@V?$basic_string@DU?$char_traits@D@std@@V?$allocator@D@2@@std@@KU?$less@V?$basic_string@DU?$char_traits@D@std@@V?$allocator@D@2@@std@@@2@V?$allocator@U?$pair@$$CBV?$basic_string@DU?$char_traits@D@std@@V?$allocator@D@2@@std@@K@std@@@2@$0A@@std@@@2@@Z 030105e0 f i MQ2Commands.obj
 0001:0000f5f0       ?_Lmost@?$_Tree@V?$_Tmap_traits@V?$basic_string@DU?$char_traits@D@std@@V?$allocator@D@2@@std@@KU?$less@V?$basic_string@DU?$char_traits@D@std@@V?$allocator@D@2@@std@@@2@V?$allocator@U?$pair@$$CBV?$basic_string@DU?$char_traits@D@std@@V?$allocator@D@2@@std@@K@std@@@2@$0A@@std@@@std@@IBEAAPAU_Node@?$_Tree_nod@V?$_Tmap_traits@V?$basic_string@DU?$char_traits@D@std@@V?$allocator@D@2@@std@@KU?$less@V?$basic_string@DU?$char_traits@D@std@@V?$allocator@D@2@@std@@@2@V?$allocator@U?$pair@$$CBV?$basic_string@DU?$char_traits@D@std@@V?$allocator@D@2@@std@@K@std@@@2@$0A@@std@@@2@XZ 030105f0 f i MQ2Commands.obj
 0001:0000f600       ?_Root@?$_Tree@V?$_Tmap_traits@V?$basic_string@DU?$char_traits@D@std@@V?$allocator@D@2@@std@@KU?$less@V?$basic_string@DU?$char_traits@D@std@@V?$allocator@D@2@@std@@@2@V?$allocator@U?$pair@$$CBV?$basic_string@DU?$char_traits@D@std@@V?$allocator@D@2@@std@@K@std@@@2@$0A@@std@@@std@@IBEAAPAU_Node@?$_Tree_nod@V?$_Tmap_traits@V?$basic_string@DU?$char_traits@D@std@@V?$allocator@D@2@@std@@KU?$less@V?$basic_string@DU?$char_traits@D@std@@V?$allocator@D@2@@std@@@2@V?$allocator@U?$pair@$$CBV?$basic_string@DU?$char_traits@D@std@@V?$allocator@D@2@@std@@K@std@@@2@$0A@@std@@@2@XZ 03010600 f i MQ2Commands.obj
 0001:0000f610       ?_Rrotate@?$_Tree@V?$_Tmap_traits@V?$basic_string@DU?$char_traits@D@std@@V?$allocator@D@2@@std@@KU?$less@V?$basic_string@DU?$char_traits@D@std@@V?$allocator@D@2@@std@@@2@V?$allocator@U?$pair@$$CBV?$basic_string@DU?$char_traits@D@std@@V?$allocator@D@2@@std@@K@std@@@2@$0A@@std@@@std@@IAEXPAU_Node@?$_Tree_nod@V?$_Tmap_traits@V?$basic_string@DU?$char_traits@D@std@@V?$allocator@D@2@@std@@KU?$less@V?$basic_string@DU?$char_traits@D@std@@V?$allocator@D@2@@std@@@2@V?$allocator@U?$pair@$$CBV?$basic_string@DU?$char_traits@D@std@@V?$allocator@D@2@@std@@K@std@@@2@$0A@@std@@@2@@Z 03010610 f i MQ2Commands.obj
 0001:0000f670       ??9const_iterator@?$_Tree@V?$_Tmap_traits@V?$basic_string@DU?$char_traits@D@std@@V?$allocator@D@2@@std@@KU?$less@V?$basic_string@DU?$char_traits@D@std@@V?$allocator@D@2@@std@@@2@V?$allocator@U?$pair@$$CBV?$basic_string@DU?$char_traits@D@std@@V?$allocator@D@2@@std@@K@std@@@2@$0A@@std@@@std@@QBE_NABV012@@Z 03010670 f i MQ2Commands.obj
 0001:0000f6a0       ??0?$pair@Viterator@?$_Tree@V?$_Tmap_traits@V?$basic_string@DU?$char_traits@D@std@@V?$allocator@D@2@@std@@KU?$less@V?$basic_string@DU?$char_traits@D@std@@V?$allocator@D@2@@std@@@2@V?$allocator@U?$pair@$$CBV?$basic_string@DU?$char_traits@D@std@@V?$allocator@D@2@@std@@K@std@@@2@$0A@@std@@@std@@_N@std@@QAE@ABViterator@?$_Tree@V?$_Tmap_traits@V?$basic_string@DU?$char_traits@D@std@@V?$allocator@D@2@@std@@KU?$less@V?$basic_string@DU?$char_traits@D@std@@V?$allocator@D@2@@std@@@2@V?$allocator@U?$pair@$$CBV?$basic_string@DU?$char_traits@D@std@@V?$allocator@D@2@@std@@K@std@@@2@$0A@@std@@@1@AB_N@Z 030106a0 f i MQ2Commands.obj
 0001:0000f6c0       ?_Max@?$_Tree@V?$_Tmap_traits@V?$basic_string@DU?$char_traits@D@std@@V?$allocator@D@2@@std@@KU?$less@V?$basic_string@DU?$char_traits@D@std@@V?$allocator@D@2@@std@@@2@V?$allocator@U?$pair@$$CBV?$basic_string@DU?$char_traits@D@std@@V?$allocator@D@2@@std@@K@std@@@2@$0A@@std@@@std@@KAPAU_Node@?$_Tree_nod@V?$_Tmap_traits@V?$basic_string@DU?$char_traits@D@std@@V?$allocator@D@2@@std@@KU?$less@V?$basic_string@DU?$char_traits@D@std@@V?$allocator@D@2@@std@@@2@V?$allocator@U?$pair@$$CBV?$basic_string@DU?$char_traits@D@std@@V?$allocator@D@2@@std@@K@std@@@2@$0A@@std@@@2@PAU342@@Z 030106c0 f i MQ2Commands.obj
 0001:0000f6e0       ?_Min@?$_Tree@V?$_Tmap_traits@V?$basic_string@DU?$char_traits@D@std@@V?$allocator@D@2@@std@@KU?$less@V?$basic_string@DU?$char_traits@D@std@@V?$allocator@D@2@@std@@@2@V?$allocator@U?$pair@$$CBV?$basic_string@DU?$char_traits@D@std@@V?$allocator@D@2@@std@@K@std@@@2@$0A@@std@@@std@@KAPAU_Node@?$_Tree_nod@V?$_Tmap_traits@V?$basic_string@DU?$char_traits@D@std@@V?$allocator@D@2@@std@@KU?$less@V?$basic_string@DU?$char_traits@D@std@@V?$allocator@D@2@@std@@@2@V?$allocator@U?$pair@$$CBV?$basic_string@DU?$char_traits@D@std@@V?$allocator@D@2@@std@@K@std@@@2@$0A@@std@@@2@PAU342@@Z 030106e0 f i MQ2Commands.obj
 0001:0000f700       ?max_size@?$allocator@U?$pair@$$CBV?$basic_string@DU?$char_traits@D@std@@V?$allocator@D@2@@std@@K@std@@@std@@QBEIXZ 03010700 f i MQ2Commands.obj
 0001:0000f710       ??$_Destroy@PAU_Node@?$_Tree_nod@V?$_Tmap_traits@V?$basic_string@DU?$char_traits@D@std@@V?$allocator@D@2@@std@@KU?$less@V?$basic_string@DU?$char_traits@D@std@@V?$allocator@D@2@@std@@@2@V?$allocator@U?$pair@$$CBV?$basic_string@DU?$char_traits@D@std@@V?$allocator@D@2@@std@@K@std@@@2@$0A@@std@@@std@@@std@@YAXPAPAU_Node@?$_Tree_nod@V?$_Tmap_traits@V?$basic_string@DU?$char_traits@D@std@@V?$allocator@D@2@@std@@KU?$less@V?$basic_string@DU?$char_traits@D@std@@V?$allocator@D@2@@std@@@2@V?$allocator@U?$pair@$$CBV?$basic_string@DU?$char_traits@D@std@@V?$allocator@D@2@@std@@K@std@@@2@$0A@@std@@@0@@Z 03010710 f i MQ2Commands.obj
 0001:0000f720       ??$?0U?$pair@$$CBV?$basic_string@DU?$char_traits@D@std@@V?$allocator@D@2@@std@@K@std@@@?$allocator@PAU_Node@?$_Tree_nod@V?$_Tmap_traits@V?$basic_string@DU?$char_traits@D@std@@V?$allocator@D@2@@std@@KU?$less@V?$basic_string@DU?$char_traits@D@std@@V?$allocator@D@2@@std@@@2@V?$allocator@U?$pair@$$CBV?$basic_string@DU?$char_traits@D@std@@V?$allocator@D@2@@std@@K@std@@@2@$0A@@std@@@std@@@std@@QAE@ABV?$allocator@U?$pair@$$CBV?$basic_string@DU?$char_traits@D@std@@V?$allocator@D@2@@std@@K@std@@@1@@Z 03010720 f i MQ2Commands.obj
 0001:0000f730       ??$?0U?$pair@$$CBV?$basic_string@DU?$char_traits@D@std@@V?$allocator@D@2@@std@@K@std@@@?$allocator@U_Node@?$_Tree_nod@V?$_Tmap_traits@V?$basic_string@DU?$char_traits@D@std@@V?$allocator@D@2@@std@@KU?$less@V?$basic_string@DU?$char_traits@D@std@@V?$allocator@D@2@@std@@@2@V?$allocator@U?$pair@$$CBV?$basic_string@DU?$char_traits@D@std@@V?$allocator@D@2@@std@@K@std@@@2@$0A@@std@@@std@@@std@@QAE@ABV?$allocator@U?$pair@$$CBV?$basic_string@DU?$char_traits@D@std@@V?$allocator@D@2@@std@@K@std@@@1@@Z 03010730 f i MQ2Commands.obj
 0001:0000f740       ??$_Allocate@U_Node@?$_Tree_nod@V?$_Tmap_traits@V?$basic_string@DU?$char_traits@D@std@@V?$allocator@D@2@@std@@KU?$less@V?$basic_string@DU?$char_traits@D@std@@V?$allocator@D@2@@std@@@2@V?$allocator@U?$pair@$$CBV?$basic_string@DU?$char_traits@D@std@@V?$allocator@D@2@@std@@K@std@@@2@$0A@@std@@@std@@@std@@YAPAU_Node@?$_Tree_nod@V?$_Tmap_traits@V?$basic_string@DU?$char_traits@D@std@@V?$allocator@D@2@@std@@KU?$less@V?$basic_string@DU?$char_traits@D@std@@V?$allocator@D@2@@std@@@2@V?$allocator@U?$pair@$$CBV?$basic_string@DU?$char_traits@D@std@@V?$allocator@D@2@@std@@K@std@@@2@$0A@@std@@@0@IPAU120@@Z 03010740 f i MQ2Commands.obj
 0001:0000f7a0       ??$_Construct@PAU_Node@?$_Tree_nod@V?$_Tmap_traits@V?$basic_string@DU?$char_traits@D@std@@V?$allocator@D@2@@std@@KU?$less@V?$basic_string@DU?$char_traits@D@std@@V?$allocator@D@2@@std@@@2@V?$allocator@U?$pair@$$CBV?$basic_string@DU?$char_traits@D@std@@V?$allocator@D@2@@std@@K@std@@@2@$0A@@std@@@std@@PAU123@@std@@YAXPAPAU_Node@?$_Tree_nod@V?$_Tmap_traits@V?$basic_string@DU?$char_traits@D@std@@V?$allocator@D@2@@std@@KU?$less@V?$basic_string@DU?$char_traits@D@std@@V?$allocator@D@2@@std@@@2@V?$allocator@U?$pair@$$CBV?$basic_string@DU?$char_traits@D@std@@V?$allocator@D@2@@std@@K@std@@@2@$0A@@std@@@0@ABQAU120@@Z 030107a0 f i MQ2Commands.obj
 0001:0000f7c0       ??$?0U?$pair@$$CBV?$basic_string@DU?$char_traits@D@std@@V?$allocator@D@2@@std@@K@std@@@?$allocator@V_Aux_cont@std@@@std@@QAE@ABV?$allocator@U?$pair@$$CBV?$basic_string@DU?$char_traits@D@std@@V?$allocator@D@2@@std@@K@std@@@1@@Z 030107c0 f i MQ2Commands.obj
 0001:0000f7d0       ?GetUnused@?$CIndex@PAU_MQ2TypeMember@MQ2Internal@@@MQ2Internal@@QAEKXZ 030107d0 f i MQ2Commands.obj
 0001:0000f820       ?compare@?$basic_string@DU?$char_traits@D@std@@V?$allocator@D@2@@std@@QBEHIIPBDI@Z 03010820 f i MQ2Commands.obj
 0001:0000f890       ?_Key@?$_Tree@V?$_Tmap_traits@V?$basic_string@DU?$char_traits@D@std@@V?$allocator@D@2@@std@@KU?$less@V?$basic_string@DU?$char_traits@D@std@@V?$allocator@D@2@@std@@@2@V?$allocator@U?$pair@$$CBV?$basic_string@DU?$char_traits@D@std@@V?$allocator@D@2@@std@@K@std@@@2@$0A@@std@@@std@@KAABV?$basic_string@DU?$char_traits@D@std@@V?$allocator@D@2@@2@PAU_Node@?$_Tree_nod@V?$_Tmap_traits@V?$basic_string@DU?$char_traits@D@std@@V?$allocator@D@2@@std@@KU?$less@V?$basic_string@DU?$char_traits@D@std@@V?$allocator@D@2@@std@@@2@V?$allocator@U?$pair@$$CBV?$basic_string@DU?$char_traits@D@std@@V?$allocator@D@2@@std@@K@std@@@2@$0A@@std@@@2@@Z 03010890 f i MQ2Commands.obj
 0001:0000f8a0       ??1?$_Container_base_aux_alloc_real@V?$allocator@U?$pair@$$CBV?$basic_string@DU?$char_traits@D@std@@V?$allocator@D@2@@std@@K@std@@@std@@@std@@IAE@XZ 030108a0 f i MQ2Commands.obj
 0001:0000f8b0       ??Diterator@?$_Tree@V?$_Tmap_traits@V?$basic_string@DU?$char_traits@D@std@@V?$allocator@D@2@@std@@KU?$less@V?$basic_string@DU?$char_traits@D@std@@V?$allocator@D@2@@std@@@2@V?$allocator@U?$pair@$$CBV?$basic_string@DU?$char_traits@D@std@@V?$allocator@D@2@@std@@K@std@@@2@$0A@@std@@@std@@QBEAAU?$pair@$$CBV?$basic_string@DU?$char_traits@D@std@@V?$allocator@D@2@@std@@K@2@XZ 030108b0 f i MQ2Commands.obj
 0001:0000f8e0       ?destroy@?$allocator@PAU_Node@?$_Tree_nod@V?$_Tmap_traits@V?$basic_string@DU?$char_traits@D@std@@V?$allocator@D@2@@std@@KU?$less@V?$basic_string@DU?$char_traits@D@std@@V?$allocator@D@2@@std@@@2@V?$allocator@U?$pair@$$CBV?$basic_string@DU?$char_traits@D@std@@V?$allocator@D@2@@std@@K@std@@@2@$0A@@std@@@std@@@std@@QAEXPAPAU_Node@?$_Tree_nod@V?$_Tmap_traits@V?$basic_string@DU?$char_traits@D@std@@V?$allocator@D@2@@std@@KU?$less@V?$basic_string@DU?$char_traits@D@std@@V?$allocator@D@2@@std@@@2@V?$allocator@U?$pair@$$CBV?$basic_string@DU?$char_traits@D@std@@V?$allocator@D@2@@std@@K@std@@@2@$0A@@std@@@2@@Z 030108e0 f i MQ2Commands.obj
 0001:0000f8f0       ??0?$_Bidit@U?$pair@$$CBV?$basic_string@DU?$char_traits@D@std@@V?$allocator@D@2@@std@@K@std@@HPBU12@ABU12@@std@@QAE@XZ 030108f0 f i MQ2Commands.obj
 0001:0000f900       ?max_size@?$_Tree@V?$_Tmap_traits@V?$basic_string@DU?$char_traits@D@std@@V?$allocator@D@2@@std@@KU?$less@V?$basic_string@DU?$char_traits@D@std@@V?$allocator@D@2@@std@@@2@V?$allocator@U?$pair@$$CBV?$basic_string@DU?$char_traits@D@std@@V?$allocator@D@2@@std@@K@std@@@2@$0A@@std@@@std@@QBEIXZ 03010900 f i MQ2Commands.obj
 0001:0000f910       ?_Lrotate@?$_Tree@V?$_Tmap_traits@V?$basic_string@DU?$char_traits@D@std@@V?$allocator@D@2@@std@@KU?$less@V?$basic_string@DU?$char_traits@D@std@@V?$allocator@D@2@@std@@@2@V?$allocator@U?$pair@$$CBV?$basic_string@DU?$char_traits@D@std@@V?$allocator@D@2@@std@@K@std@@@2@$0A@@std@@@std@@IAEXPAU_Node@?$_Tree_nod@V?$_Tmap_traits@V?$basic_string@DU?$char_traits@D@std@@V?$allocator@D@2@@std@@KU?$less@V?$basic_string@DU?$char_traits@D@std@@V?$allocator@D@2@@std@@@2@V?$allocator@U?$pair@$$CBV?$basic_string@DU?$char_traits@D@std@@V?$allocator@D@2@@std@@K@std@@@2@$0A@@std@@@2@@Z 03010910 f i MQ2Commands.obj
 0001:0000f960       ??0const_iterator@?$_Tree@V?$_Tmap_traits@V?$basic_string@DU?$char_traits@D@std@@V?$allocator@D@2@@std@@KU?$less@V?$basic_string@DU?$char_traits@D@std@@V?$allocator@D@2@@std@@@2@V?$allocator@U?$pair@$$CBV?$basic_string@DU?$char_traits@D@std@@V?$allocator@D@2@@std@@K@std@@@2@$0A@@std@@@std@@QAE@PAU_Node@?$_Tree_nod@V?$_Tmap_traits@V?$basic_string@DU?$char_traits@D@std@@V?$allocator@D@2@@std@@KU?$less@V?$basic_string@DU?$char_traits@D@std@@V?$allocator@D@2@@std@@@2@V?$allocator@U?$pair@$$CBV?$basic_string@DU?$char_traits@D@std@@V?$allocator@D@2@@std@@K@std@@@2@$0A@@std@@@2@PBV12@@Z 03010960 f i MQ2Commands.obj
 0001:0000f990       ?_Dec@const_iterator@?$_Tree@V?$_Tmap_traits@V?$basic_string@DU?$char_traits@D@std@@V?$allocator@D@2@@std@@KU?$less@V?$basic_string@DU?$char_traits@D@std@@V?$allocator@D@2@@std@@@2@V?$allocator@U?$pair@$$CBV?$basic_string@DU?$char_traits@D@std@@V?$allocator@D@2@@std@@K@std@@@2@$0A@@std@@@std@@QAEXXZ 03010990 f i MQ2Commands.obj
 0001:0000fa20       ?_Inc@const_iterator@?$_Tree@V?$_Tmap_traits@V?$basic_string@DU?$char_traits@D@std@@V?$allocator@D@2@@std@@KU?$less@V?$basic_string@DU?$char_traits@D@std@@V?$allocator@D@2@@std@@@2@V?$allocator@U?$pair@$$CBV?$basic_string@DU?$char_traits@D@std@@V?$allocator@D@2@@std@@K@std@@@2@$0A@@std@@@std@@QAEXXZ 03010a20 f i MQ2Commands.obj
 0001:0000fa90       ?allocate@?$allocator@U_Node@?$_Tree_nod@V?$_Tmap_traits@V?$basic_string@DU?$char_traits@D@std@@V?$allocator@D@2@@std@@KU?$less@V?$basic_string@DU?$char_traits@D@std@@V?$allocator@D@2@@std@@@2@V?$allocator@U?$pair@$$CBV?$basic_string@DU?$char_traits@D@std@@V?$allocator@D@2@@std@@K@std@@@2@$0A@@std@@@std@@@std@@QAEPAU_Node@?$_Tree_nod@V?$_Tmap_traits@V?$basic_string@DU?$char_traits@D@std@@V?$allocator@D@2@@std@@KU?$less@V?$basic_string@DU?$char_traits@D@std@@V?$allocator@D@2@@std@@@2@V?$allocator@U?$pair@$$CBV?$basic_string@DU?$char_traits@D@std@@V?$allocator@D@2@@std@@K@std@@@2@$0A@@std@@@2@I@Z 03010a90 f i MQ2Commands.obj
 0001:0000fab0       ?construct@?$allocator@PAU_Node@?$_Tree_nod@V?$_Tmap_traits@V?$basic_string@DU?$char_traits@D@std@@V?$allocator@D@2@@std@@KU?$less@V?$basic_string@DU?$char_traits@D@std@@V?$allocator@D@2@@std@@@2@V?$allocator@U?$pair@$$CBV?$basic_string@DU?$char_traits@D@std@@V?$allocator@D@2@@std@@K@std@@@2@$0A@@std@@@std@@@std@@QAEXPAPAU_Node@?$_Tree_nod@V?$_Tmap_traits@V?$basic_string@DU?$char_traits@D@std@@V?$allocator@D@2@@std@@KU?$less@V?$basic_string@DU?$char_traits@D@std@@V?$allocator@D@2@@std@@@2@V?$allocator@U?$pair@$$CBV?$basic_string@DU?$char_traits@D@std@@V?$allocator@D@2@@std@@K@std@@@2@$0A@@std@@@2@ABQAU342@@Z 03010ab0 f i MQ2Commands.obj
 0001:0000fad0       ?compare@?$basic_string@DU?$char_traits@D@std@@V?$allocator@D@2@@std@@QBEHABV12@@Z 03010ad0 f i MQ2Commands.obj
 0001:0000fb10       ??1?$_Tmap_traits@V?$basic_string@DU?$char_traits@D@std@@V?$allocator@D@2@@std@@KU?$less@V?$basic_string@DU?$char_traits@D@std@@V?$allocator@D@2@@std@@@2@V?$allocator@U?$pair@$$CBV?$basic_string@DU?$char_traits@D@std@@V?$allocator@D@2@@std@@K@std@@@2@$0A@@std@@QAE@XZ 03010b10 f i MQ2Commands.obj
 0001:0000fb20       ??0iterator@?$_Tree@V?$_Tmap_traits@V?$basic_string@DU?$char_traits@D@std@@V?$allocator@D@2@@std@@KU?$less@V?$basic_string@DU?$char_traits@D@std@@V?$allocator@D@2@@std@@@2@V?$allocator@U?$pair@$$CBV?$basic_string@DU?$char_traits@D@std@@V?$allocator@D@2@@std@@K@std@@@2@$0A@@std@@@std@@QAE@PAU_Node@?$_Tree_nod@V?$_Tmap_traits@V?$basic_string@DU?$char_traits@D@std@@V?$allocator@D@2@@std@@KU?$less@V?$basic_string@DU?$char_traits@D@std@@V?$allocator@D@2@@std@@@2@V?$allocator@U?$pair@$$CBV?$basic_string@DU?$char_traits@D@std@@V?$allocator@D@2@@std@@K@std@@@2@$0A@@std@@@2@PBV12@@Z 03010b20 f i MQ2Commands.obj
 0001:0000fb50       ??0const_iterator@?$_Tree@V?$_Tmap_traits@V?$basic_string@DU?$char_traits@D@std@@V?$allocator@D@2@@std@@KU?$less@V?$basic_string@DU?$char_traits@D@std@@V?$allocator@D@2@@std@@@2@V?$allocator@U?$pair@$$CBV?$basic_string@DU?$char_traits@D@std@@V?$allocator@D@2@@std@@K@std@@@2@$0A@@std@@@std@@QAE@XZ 03010b50 f i MQ2Commands.obj
 0001:0000fb60       ??Econst_iterator@?$_Tree@V?$_Tmap_traits@V?$basic_string@DU?$char_traits@D@std@@V?$allocator@D@2@@std@@KU?$less@V?$basic_string@DU?$char_traits@D@std@@V?$allocator@D@2@@std@@@2@V?$allocator@U?$pair@$$CBV?$basic_string@DU?$char_traits@D@std@@V?$allocator@D@2@@std@@K@std@@@2@$0A@@std@@@std@@QAEAAV012@XZ 03010b60 f i MQ2Commands.obj
 0001:0000fb70       ??Fconst_iterator@?$_Tree@V?$_Tmap_traits@V?$basic_string@DU?$char_traits@D@std@@V?$allocator@D@2@@std@@KU?$less@V?$basic_string@DU?$char_traits@D@std@@V?$allocator@D@2@@std@@@2@V?$allocator@U?$pair@$$CBV?$basic_string@DU?$char_traits@D@std@@V?$allocator@D@2@@std@@K@std@@@2@$0A@@std@@@std@@QAEAAV012@XZ 03010b70 f i MQ2Commands.obj
 0001:0000fb80       ?_Make_iter@?$_Tree@V?$_Tmap_traits@V?$basic_string@DU?$char_traits@D@std@@V?$allocator@D@2@@std@@KU?$less@V?$basic_string@DU?$char_traits@D@std@@V?$allocator@D@2@@std@@@2@V?$allocator@U?$pair@$$CBV?$basic_string@DU?$char_traits@D@std@@V?$allocator@D@2@@std@@K@std@@@2@$0A@@std@@@std@@QBE?AViterator@12@Vconst_iterator@12@@Z 03010b80 f i MQ2Commands.obj
 0001:0000fbb0       ?_Buynode@?$_Tree@V?$_Tmap_traits@V?$basic_string@DU?$char_traits@D@std@@V?$allocator@D@2@@std@@KU?$less@V?$basic_string@DU?$char_traits@D@std@@V?$allocator@D@2@@std@@@2@V?$allocator@U?$pair@$$CBV?$basic_string@DU?$char_traits@D@std@@V?$allocator@D@2@@std@@K@std@@@2@$0A@@std@@@std@@IAEPAU_Node@?$_Tree_nod@V?$_Tmap_traits@V?$basic_string@DU?$char_traits@D@std@@V?$allocator@D@2@@std@@KU?$less@V?$basic_string@DU?$char_traits@D@std@@V?$allocator@D@2@@std@@@2@V?$allocator@U?$pair@$$CBV?$basic_string@DU?$char_traits@D@std@@V?$allocator@D@2@@std@@K@std@@@2@$0A@@std@@@2@XZ 03010bb0 f i MQ2Commands.obj
 0001:0000fc50       ??Fiterator@?$_Tree@V?$_Tmap_traits@V?$basic_string@DU?$char_traits@D@std@@V?$allocator@D@2@@std@@KU?$less@V?$basic_string@DU?$char_traits@D@std@@V?$allocator@D@2@@std@@@2@V?$allocator@U?$pair@$$CBV?$basic_string@DU?$char_traits@D@std@@V?$allocator@D@2@@std@@K@std@@@2@$0A@@std@@@std@@QAEAAV012@XZ 03010c50 f i MQ2Commands.obj
 0001:0000fc60       ??Econst_iterator@?$_Tree@V?$_Tmap_traits@V?$basic_string@DU?$char_traits@D@std@@V?$allocator@D@2@@std@@KU?$less@V?$basic_string@DU?$char_traits@D@std@@V?$allocator@D@2@@std@@@2@V?$allocator@U?$pair@$$CBV?$basic_string@DU?$char_traits@D@std@@V?$allocator@D@2@@std@@K@std@@@2@$0A@@std@@@std@@QAE?AV012@H@Z 03010c60 f i MQ2Commands.obj
 0001:0000fc80       ??0?$_Container_base_aux_alloc_real@V?$allocator@U?$pair@$$CBV?$basic_string@DU?$char_traits@D@std@@V?$allocator@D@2@@std@@K@std@@@std@@@std@@IAE@V?$allocator@U?$pair@$$CBV?$basic_string@DU?$char_traits@D@std@@V?$allocator@D@2@@std@@K@std@@@1@@Z 03010c80 f i MQ2Commands.obj
 0001:0000fcb0       ??$?MDU?$char_traits@D@std@@V?$allocator@D@1@@std@@YA_NABV?$basic_string@DU?$char_traits@D@std@@V?$allocator@D@2@@0@0@Z 03010cb0 f i MQ2Commands.obj
 0001:0000fce0       ??1?$pair@$$CBV?$basic_string@DU?$char_traits@D@std@@V?$allocator@D@2@@std@@K@std@@QAE@XZ 03010ce0 f i MQ2Commands.obj
 0001:0000fd10       ??1?$_Tree_nod@V?$_Tmap_traits@V?$basic_string@DU?$char_traits@D@std@@V?$allocator@D@2@@std@@KU?$less@V?$basic_string@DU?$char_traits@D@std@@V?$allocator@D@2@@std@@@2@V?$allocator@U?$pair@$$CBV?$basic_string@DU?$char_traits@D@std@@V?$allocator@D@2@@std@@K@std@@@2@$0A@@std@@@std@@QAE@XZ 03010d10 f i MQ2Commands.obj
 0001:0000fd20       ?end@?$_Tree@V?$_Tmap_traits@V?$basic_string@DU?$char_traits@D@std@@V?$allocator@D@2@@std@@KU?$less@V?$basic_string@DU?$char_traits@D@std@@V?$allocator@D@2@@std@@@2@V?$allocator@U?$pair@$$CBV?$basic_string@DU?$char_traits@D@std@@V?$allocator@D@2@@std@@K@std@@@2@$0A@@std@@@std@@QAE?AViterator@12@XZ 03010d20 f i MQ2Commands.obj
 0001:0000fd40       ??R?$less@V?$basic_string@DU?$char_traits@D@std@@V?$allocator@D@2@@std@@@std@@QBE_NABV?$basic_string@DU?$char_traits@D@std@@V?$allocator@D@2@@1@0@Z 03010d40 f i MQ2Commands.obj
 0001:0000fd80       ?begin@?$_Tree@V?$_Tmap_traits@V?$basic_string@DU?$char_traits@D@std@@V?$allocator@D@2@@std@@KU?$less@V?$basic_string@DU?$char_traits@D@std@@V?$allocator@D@2@@std@@@2@V?$allocator@U?$pair@$$CBV?$basic_string@DU?$char_traits@D@std@@V?$allocator@D@2@@std@@K@std@@@2@$0A@@std@@@std@@QAE?AViterator@12@XZ 03010d80 f i MQ2Commands.obj
 0001:0000fda0       ?_Init@?$_Tree@V?$_Tmap_traits@V?$basic_string@DU?$char_traits@D@std@@V?$allocator@D@2@@std@@KU?$less@V?$basic_string@DU?$char_traits@D@std@@V?$allocator@D@2@@std@@@2@V?$allocator@U?$pair@$$CBV?$basic_string@DU?$char_traits@D@std@@V?$allocator@D@2@@std@@K@std@@@2@$0A@@std@@@std@@IAEXXZ 03010da0 f i MQ2Commands.obj
 0001:0000fdd0       ?_Lbound@?$_Tree@V?$_Tmap_traits@V?$basic_string@DU?$char_traits@D@std@@V?$allocator@D@2@@std@@KU?$less@V?$basic_string@DU?$char_traits@D@std@@V?$allocator@D@2@@std@@@2@V?$allocator@U?$pair@$$CBV?$basic_string@DU?$char_traits@D@std@@V?$allocator@D@2@@std@@K@std@@@2@$0A@@std@@@std@@IBEPAU_Node@?$_Tree_nod@V?$_Tmap_traits@V?$basic_string@DU?$char_traits@D@std@@V?$allocator@D@2@@std@@KU?$less@V?$basic_string@DU?$char_traits@D@std@@V?$allocator@D@2@@std@@@2@V?$allocator@U?$pair@$$CBV?$basic_string@DU?$char_traits@D@std@@V?$allocator@D@2@@std@@K@std@@@2@$0A@@std@@@2@ABV?$basic_string@DU?$char_traits@D@std@@V?$allocator@D@2@@2@@Z 03010dd0 f i MQ2Commands.obj
 0001:0000fe60       ??0?$_Tmap_traits@V?$basic_string@DU?$char_traits@D@std@@V?$allocator@D@2@@std@@KU?$less@V?$basic_string@DU?$char_traits@D@std@@V?$allocator@D@2@@std@@@2@V?$allocator@U?$pair@$$CBV?$basic_string@DU?$char_traits@D@std@@V?$allocator@D@2@@std@@K@std@@@2@$0A@@std@@QAE@U?$less@V?$basic_string@DU?$char_traits@D@std@@V?$allocator@D@2@@std@@@1@V?$allocator@U?$pair@$$CBV?$basic_string@DU?$char_traits@D@std@@V?$allocator@D@2@@std@@K@std@@@1@@Z 03010e60 f i MQ2Commands.obj
 0001:0000fe90       ??1_Node@?$_Tree_nod@V?$_Tmap_traits@V?$basic_string@DU?$char_traits@D@std@@V?$allocator@D@2@@std@@KU?$less@V?$basic_string@DU?$char_traits@D@std@@V?$allocator@D@2@@std@@@2@V?$allocator@U?$pair@$$CBV?$basic_string@DU?$char_traits@D@std@@V?$allocator@D@2@@std@@K@std@@@2@$0A@@std@@@std@@QAE@XZ 03010e90 f i MQ2Commands.obj
 0001:0000fec0       ??1?$_Tree_ptr@V?$_Tmap_traits@V?$basic_string@DU?$char_traits@D@std@@V?$allocator@D@2@@std@@KU?$less@V?$basic_string@DU?$char_traits@D@std@@V?$allocator@D@2@@std@@@2@V?$allocator@U?$pair@$$CBV?$basic_string@DU?$char_traits@D@std@@V?$allocator@D@2@@std@@K@std@@@2@$0A@@std@@@std@@QAE@XZ 03010ec0 f i MQ2Commands.obj
 0001:0000fed0       ?lower_bound@?$_Tree@V?$_Tmap_traits@V?$basic_string@DU?$char_traits@D@std@@V?$allocator@D@2@@std@@KU?$less@V?$basic_string@DU?$char_traits@D@std@@V?$allocator@D@2@@std@@@2@V?$allocator@U?$pair@$$CBV?$basic_string@DU?$char_traits@D@std@@V?$allocator@D@2@@std@@K@std@@@2@$0A@@std@@@std@@QAE?AViterator@12@ABV?$basic_string@DU?$char_traits@D@std@@V?$allocator@D@2@@2@@Z 03010ed0 f i MQ2Commands.obj
 0001:0000ff00       ??0?$_Tree_nod@V?$_Tmap_traits@V?$basic_string@DU?$char_traits@D@std@@V?$allocator@D@2@@std@@KU?$less@V?$basic_string@DU?$char_traits@D@std@@V?$allocator@D@2@@std@@@2@V?$allocator@U?$pair@$$CBV?$basic_string@DU?$char_traits@D@std@@V?$allocator@D@2@@std@@K@std@@@2@$0A@@std@@@std@@IAE@ABU?$less@V?$basic_string@DU?$char_traits@D@std@@V?$allocator@D@2@@std@@@1@V?$allocator@U?$pair@$$CBV?$basic_string@DU?$char_traits@D@std@@V?$allocator@D@2@@std@@K@std@@@1@@Z 03010f00 f i MQ2Commands.obj
 0001:0000ff30       ??_G_Node@?$_Tree_nod@V?$_Tmap_traits@V?$basic_string@DU?$char_traits@D@std@@V?$allocator@D@2@@std@@KU?$less@V?$basic_string@DU?$char_traits@D@std@@V?$allocator@D@2@@std@@@2@V?$allocator@U?$pair@$$CBV?$basic_string@DU?$char_traits@D@std@@V?$allocator@D@2@@std@@K@std@@@2@$0A@@std@@@std@@QAEPAXI@Z 03010f30 f i MQ2Commands.obj
 0001:0000ff70       ??1?$_Tree_val@V?$_Tmap_traits@V?$basic_string@DU?$char_traits@D@std@@V?$allocator@D@2@@std@@KU?$less@V?$basic_string@DU?$char_traits@D@std@@V?$allocator@D@2@@std@@@2@V?$allocator@U?$pair@$$CBV?$basic_string@DU?$char_traits@D@std@@V?$allocator@D@2@@std@@K@std@@@2@$0A@@std@@@std@@QAE@XZ 03010f70 f i MQ2Commands.obj
 0001:0000ff80       ??0?$pair@$$CBV?$basic_string@DU?$char_traits@D@std@@V?$allocator@D@2@@std@@K@std@@QAE@ABV?$basic_string@DU?$char_traits@D@std@@V?$allocator@D@2@@1@ABK@Z 03010f80 f i MQ2Commands.obj
 0001:0000ffb0       ??0?$_Tree_ptr@V?$_Tmap_traits@V?$basic_string@DU?$char_traits@D@std@@V?$allocator@D@2@@std@@KU?$less@V?$basic_string@DU?$char_traits@D@std@@V?$allocator@D@2@@std@@@2@V?$allocator@U?$pair@$$CBV?$basic_string@DU?$char_traits@D@std@@V?$allocator@D@2@@std@@K@std@@@2@$0A@@std@@@std@@IAE@ABU?$less@V?$basic_string@DU?$char_traits@D@std@@V?$allocator@D@2@@std@@@1@V?$allocator@U?$pair@$$CBV?$basic_string@DU?$char_traits@D@std@@V?$allocator@D@2@@std@@K@std@@@1@@Z 03010fb0 f i MQ2Commands.obj
 0001:0000ffe0       ??0?$pair@$$CBV?$basic_string@DU?$char_traits@D@std@@V?$allocator@D@2@@std@@K@std@@QAE@ABU01@@Z 03010fe0 f i MQ2Commands.obj
 0001:00010010       ??$_Destroy@U_Node@?$_Tree_nod@V?$_Tmap_traits@V?$basic_string@DU?$char_traits@D@std@@V?$allocator@D@2@@std@@KU?$less@V?$basic_string@DU?$char_traits@D@std@@V?$allocator@D@2@@std@@@2@V?$allocator@U?$pair@$$CBV?$basic_string@DU?$char_traits@D@std@@V?$allocator@D@2@@std@@K@std@@@2@$0A@@std@@@std@@@std@@YAXPAU_Node@?$_Tree_nod@V?$_Tmap_traits@V?$basic_string@DU?$char_traits@D@std@@V?$allocator@D@2@@std@@KU?$less@V?$basic_string@DU?$char_traits@D@std@@V?$allocator@D@2@@std@@@2@V?$allocator@U?$pair@$$CBV?$basic_string@DU?$char_traits@D@std@@V?$allocator@D@2@@std@@K@std@@@2@$0A@@std@@@0@@Z 03011010 f i MQ2Commands.obj
 0001:00010040       ??0length_error@std@@QAE@ABV?$basic_string@DU?$char_traits@D@std@@V?$allocator@D@2@@1@@Z 03011040 f i MQ2Commands.obj
 0001:00010080       ??1length_error@std@@UAE@XZ 03011080 f i MQ2Commands.obj
 0001:000100c0       ??_Elength_error@std@@UAEPAXI@Z 030110c0 f i MQ2Commands.obj
 0001:000100c0       ??_Glength_error@std@@UAEPAXI@Z 030110c0 f i MQ2Commands.obj
 0001:00010110       ??0?$_Tree_val@V?$_Tmap_traits@V?$basic_string@DU?$char_traits@D@std@@V?$allocator@D@2@@std@@KU?$less@V?$basic_string@DU?$char_traits@D@std@@V?$allocator@D@2@@std@@@2@V?$allocator@U?$pair@$$CBV?$basic_string@DU?$char_traits@D@std@@V?$allocator@D@2@@std@@K@std@@@2@$0A@@std@@@std@@IAE@ABU?$less@V?$basic_string@DU?$char_traits@D@std@@V?$allocator@D@2@@std@@@1@V?$allocator@U?$pair@$$CBV?$basic_string@DU?$char_traits@D@std@@V?$allocator@D@2@@std@@K@std@@@1@@Z 03011110 f i MQ2Commands.obj
 0001:00010140       ?destroy@?$allocator@U_Node@?$_Tree_nod@V?$_Tmap_traits@V?$basic_string@DU?$char_traits@D@std@@V?$allocator@D@2@@std@@KU?$less@V?$basic_string@DU?$char_traits@D@std@@V?$allocator@D@2@@std@@@2@V?$allocator@U?$pair@$$CBV?$basic_string@DU?$char_traits@D@std@@V?$allocator@D@2@@std@@K@std@@@2@$0A@@std@@@std@@@std@@QAEXPAU_Node@?$_Tree_nod@V?$_Tmap_traits@V?$basic_string@DU?$char_traits@D@std@@V?$allocator@D@2@@std@@KU?$less@V?$basic_string@DU?$char_traits@D@std@@V?$allocator@D@2@@std@@@2@V?$allocator@U?$pair@$$CBV?$basic_string@DU?$char_traits@D@std@@V?$allocator@D@2@@std@@K@std@@@2@$0A@@std@@@2@@Z 03011140 f i MQ2Commands.obj
 0001:00010170       ??0_Node@?$_Tree_nod@V?$_Tmap_traits@V?$basic_string@DU?$char_traits@D@std@@V?$allocator@D@2@@std@@KU?$less@V?$basic_string@DU?$char_traits@D@std@@V?$allocator@D@2@@std@@@2@V?$allocator@U?$pair@$$CBV?$basic_string@DU?$char_traits@D@std@@V?$allocator@D@2@@std@@K@std@@@2@$0A@@std@@@std@@QAE@PAU012@00ABU?$pair@$$CBV?$basic_string@DU?$char_traits@D@std@@V?$allocator@D@2@@std@@K@2@D@Z 03011170 f i MQ2Commands.obj
 0001:000101d0       ??0?$_Tree@V?$_Tmap_traits@V?$basic_string@DU?$char_traits@D@std@@V?$allocator@D@2@@std@@KU?$less@V?$basic_string@DU?$char_traits@D@std@@V?$allocator@D@2@@std@@@2@V?$allocator@U?$pair@$$CBV?$basic_string@DU?$char_traits@D@std@@V?$allocator@D@2@@std@@K@std@@@2@$0A@@std@@@std@@QAE@ABU?$less@V?$basic_string@DU?$char_traits@D@std@@V?$allocator@D@2@@std@@@1@ABV?$allocator@U?$pair@$$CBV?$basic_string@DU?$char_traits@D@std@@V?$allocator@D@2@@std@@K@std@@@1@@Z 030111d0 f i MQ2Commands.obj
 0001:00010220       ?erase@?$_Tree@V?$_Tmap_traits@V?$basic_string@DU?$char_traits@D@std@@V?$allocator@D@2@@std@@KU?$less@V?$basic_string@DU?$char_traits@D@std@@V?$allocator@D@2@@std@@@2@V?$allocator@U?$pair@$$CBV?$basic_string@DU?$char_traits@D@std@@V?$allocator@D@2@@std@@K@std@@@2@$0A@@std@@@std@@QAE?AViterator@12@Vconst_iterator@12@@Z 03011220 f i MQ2Commands.obj
 0001:00010500       ?_Buynode@?$_Tree@V?$_Tmap_traits@V?$basic_string@DU?$char_traits@D@std@@V?$allocator@D@2@@std@@KU?$less@V?$basic_string@DU?$char_traits@D@std@@V?$allocator@D@2@@std@@@2@V?$allocator@U?$pair@$$CBV?$basic_string@DU?$char_traits@D@std@@V?$allocator@D@2@@std@@K@std@@@2@$0A@@std@@@std@@IAEPAU_Node@?$_Tree_nod@V?$_Tmap_traits@V?$basic_string@DU?$char_traits@D@std@@V?$allocator@D@2@@std@@KU?$less@V?$basic_string@DU?$char_traits@D@std@@V?$allocator@D@2@@std@@@2@V?$allocator@U?$pair@$$CBV?$basic_string@DU?$char_traits@D@std@@V?$allocator@D@2@@std@@K@std@@@2@$0A@@std@@@2@PAU342@00ABU?$pair@$$CBV?$basic_string@DU?$char_traits@D@std@@V?$allocator@D@2@@std@@K@2@D@Z 03011500 f i MQ2Commands.obj
 0001:00010590       ?_Erase@?$_Tree@V?$_Tmap_traits@V?$basic_string@DU?$char_traits@D@std@@V?$allocator@D@2@@std@@KU?$less@V?$basic_string@DU?$char_traits@D@std@@V?$allocator@D@2@@std@@@2@V?$allocator@U?$pair@$$CBV?$basic_string@DU?$char_traits@D@std@@V?$allocator@D@2@@std@@K@std@@@2@$0A@@std@@@std@@IAEXPAU_Node@?$_Tree_nod@V?$_Tmap_traits@V?$basic_string@DU?$char_traits@D@std@@V?$allocator@D@2@@std@@KU?$less@V?$basic_string@DU?$char_traits@D@std@@V?$allocator@D@2@@std@@@2@V?$allocator@U?$pair@$$CBV?$basic_string@DU?$char_traits@D@std@@V?$allocator@D@2@@std@@K@std@@@2@$0A@@std@@@2@@Z 03011590 f i MQ2Commands.obj
 0001:000105f0       ?_Insert@?$_Tree@V?$_Tmap_traits@V?$basic_string@DU?$char_traits@D@std@@V?$allocator@D@2@@std@@KU?$less@V?$basic_string@DU?$char_traits@D@std@@V?$allocator@D@2@@std@@@2@V?$allocator@U?$pair@$$CBV?$basic_string@DU?$char_traits@D@std@@V?$allocator@D@2@@std@@K@std@@@2@$0A@@std@@@std@@IAE?AViterator@12@_NPAU_Node@?$_Tree_nod@V?$_Tmap_traits@V?$basic_string@DU?$char_traits@D@std@@V?$allocator@D@2@@std@@KU?$less@V?$basic_string@DU?$char_traits@D@std@@V?$allocator@D@2@@std@@@2@V?$allocator@U?$pair@$$CBV?$basic_string@DU?$char_traits@D@std@@V?$allocator@D@2@@std@@K@std@@@2@$0A@@std@@@2@ABU?$pair@$$CBV?$basic_string@DU?$char_traits@D@std@@V?$allocator@D@2@@std@@K@2@@Z 030115f0 f i MQ2Commands.obj
 0001:000107e0       ??0length_error@std@@QAE@ABV01@@Z 030117e0 f i MQ2Commands.obj
 0001:00010820       ?clear@?$_Tree@V?$_Tmap_traits@V?$basic_string@DU?$char_traits@D@std@@V?$allocator@D@2@@std@@KU?$less@V?$basic_string@DU?$char_traits@D@std@@V?$allocator@D@2@@std@@@2@V?$allocator@U?$pair@$$CBV?$basic_string@DU?$char_traits@D@std@@V?$allocator@D@2@@std@@K@std@@@2@$0A@@std@@@std@@QAEXXZ 03011820 f i MQ2Commands.obj
 0001:00010850       ?insert@?$_Tree@V?$_Tmap_traits@V?$basic_string@DU?$char_traits@D@std@@V?$allocator@D@2@@std@@KU?$less@V?$basic_string@DU?$char_traits@D@std@@V?$allocator@D@2@@std@@@2@V?$allocator@U?$pair@$$CBV?$basic_string@DU?$char_traits@D@std@@V?$allocator@D@2@@std@@K@std@@@2@$0A@@std@@@std@@QAE?AU?$pair@Viterator@?$_Tree@V?$_Tmap_traits@V?$basic_string@DU?$char_traits@D@std@@V?$allocator@D@2@@std@@KU?$less@V?$basic_string@DU?$char_traits@D@std@@V?$allocator@D@2@@std@@@2@V?$allocator@U?$pair@$$CBV?$basic_string@DU?$char_traits@D@std@@V?$allocator@D@2@@std@@K@std@@@2@$0A@@std@@@std@@_N@2@ABU?$pair@$$CBV?$basic_string@DU?$char_traits@D@std@@V?$allocator@D@2@@std@@K@2@@Z 03011850 f i MQ2Commands.obj
 0001:000109b0       ?erase@?$_Tree@V?$_Tmap_traits@V?$basic_string@DU?$char_traits@D@std@@V?$allocator@D@2@@std@@KU?$less@V?$basic_string@DU?$char_traits@D@std@@V?$allocator@D@2@@std@@@2@V?$allocator@U?$pair@$$CBV?$basic_string@DU?$char_traits@D@std@@V?$allocator@D@2@@std@@K@std@@@2@$0A@@std@@@std@@QAE?AViterator@12@Vconst_iterator@12@0@Z 030119b0 f i MQ2Commands.obj
 0001:00010a90       ?insert@?$_Tree@V?$_Tmap_traits@V?$basic_string@DU?$char_traits@D@std@@V?$allocator@D@2@@std@@KU?$less@V?$basic_string@DU?$char_traits@D@std@@V?$allocator@D@2@@std@@@2@V?$allocator@U?$pair@$$CBV?$basic_string@DU?$char_traits@D@std@@V?$allocator@D@2@@std@@K@std@@@2@$0A@@std@@@std@@QAE?AViterator@12@Vconst_iterator@12@ABU?$pair@$$CBV?$basic_string@DU?$char_traits@D@std@@V?$allocator@D@2@@std@@K@2@@Z 03011a90 f i MQ2Commands.obj
 0001:00010cc0       ?_Tidy@?$_Tree@V?$_Tmap_traits@V?$basic_string@DU?$char_traits@D@std@@V?$allocator@D@2@@std@@KU?$less@V?$basic_string@DU?$char_traits@D@std@@V?$allocator@D@2@@std@@@2@V?$allocator@U?$pair@$$CBV?$basic_string@DU?$char_traits@D@std@@V?$allocator@D@2@@std@@K@std@@@2@$0A@@std@@@std@@IAEXXZ 03011cc0 f i MQ2Commands.obj
 0001:00010d00       ??A?$map@V?$basic_string@DU?$char_traits@D@std@@V?$allocator@D@2@@std@@KU?$less@V?$basic_string@DU?$char_traits@D@std@@V?$allocator@D@2@@std@@@2@V?$allocator@U?$pair@$$CBV?$basic_string@DU?$char_traits@D@std@@V?$allocator@D@2@@std@@K@std@@@2@@std@@QAEAAKABV?$basic_string@DU?$char_traits@D@std@@V?$allocator@D@2@@1@@Z 03011d00 f i MQ2Commands.obj
 0001:00010df0       ??1?$_Tree@V?$_Tmap_traits@V?$basic_string@DU?$char_traits@D@std@@V?$allocator@D@2@@std@@KU?$less@V?$basic_string@DU?$char_traits@D@std@@V?$allocator@D@2@@std@@@2@V?$allocator@U?$pair@$$CBV?$basic_string@DU?$char_traits@D@std@@V?$allocator@D@2@@std@@K@std@@@2@$0A@@std@@@std@@QAE@XZ 03011df0 f i MQ2Commands.obj
 0001:00010e30       ?AddMember@MQ2Type@MQ2Internal@@IAEHKPAD@Z 03011e30 f i MQ2Commands.obj
 0001:00010f30       ??1?$map@V?$basic_string@DU?$char_traits@D@std@@V?$allocator@D@2@@std@@KU?$less@V?$basic_string@DU?$char_traits@D@std@@V?$allocator@D@2@@std@@@2@V?$allocator@U?$pair@$$CBV?$basic_string@DU?$char_traits@D@std@@V?$allocator@D@2@@std@@K@std@@@2@@std@@QAE@XZ 03011f30 f i MQ2Commands.obj
 0001:00010f70       ??0?$map@V?$basic_string@DU?$char_traits@D@std@@V?$allocator@D@2@@std@@KU?$less@V?$basic_string@DU?$char_traits@D@std@@V?$allocator@D@2@@std@@@2@V?$allocator@U?$pair@$$CBV?$basic_string@DU?$char_traits@D@std@@V?$allocator@D@2@@std@@K@std@@@2@@std@@QAE@XZ 03011f70 f i MQ2Commands.obj
 0001:00010fc0       ??0MQ2Type@MQ2Internal@@QAE@PAD@Z 03011fc0 f i MQ2Commands.obj
 0001:00011050       ?InitVariable@MQ2Type@MQ2Internal@@UAEXAAU_MQ2VarPtr@2@@Z 03012050 f i MQ2Commands.obj
 0001:00011060       ?FreeVariable@MQ2Type@MQ2Internal@@UAEXAAU_MQ2VarPtr@2@@Z 03012060 f i MQ2Commands.obj
 0001:00011070       ?ToString@MQ2Type@MQ2Internal@@UAE_NU_MQ2VarPtr@2@PAD@Z 03012070 f i MQ2Commands.obj
 0001:00011090       ??1MQ2Type@MQ2Internal@@QAE@XZ 03012090 f i MQ2Commands.obj
 0001:00011130       ??0MQ2TicksType@@QAE@XZ    03012130 f i MQ2Commands.obj
 0001:000111c0       ?ToString@MQ2TicksType@@UAE_NU_MQ2VarPtr@MQ2Internal@@PAD@Z 030121c0 f i MQ2Commands.obj
 0001:000111e0       ?FromData@MQ2TicksType@@UAE_NAAU_MQ2VarPtr@MQ2Internal@@AAU_MQ2TypeVar@3@@Z 030121e0 f i MQ2Commands.obj
 0001:00011200       ?FromString@MQ2TicksType@@UAE_NAAU_MQ2VarPtr@MQ2Internal@@PAD@Z 03012200 f i MQ2Commands.obj
 0001:00011220       ??1MQ2TicksType@@QAE@XZ    03012220 f i MQ2Commands.obj
 0001:00011230       _AltAbility                03012230 f   MQ2Commands.obj
 0001:00011ad0       _dataSpawn                 03012ad0 f   MQ2Data.obj
 0001:00011bb0       _dataSelect                03012bb0 f   MQ2Data.obj
 0001:00011cd0       _dataTarget                03012cd0 f   MQ2Data.obj
 0001:00011d00       _dataCharacter             03012d00 f   MQ2Data.obj
 0001:00011d30       _dataSpell                 03012d30 f   MQ2Data.obj
 0001:00011dd0       _dataSwitch                03012dd0 f   MQ2Data.obj
 0001:00011e00       _dataGroundItem            03012e00 f   MQ2Data.obj
 0001:00011e30       _dataMerchant              03012e30 f   MQ2Data.obj
 0001:00011e60       _dataCorpse                03012e60 f   MQ2Data.obj
 0001:00011e90       _dataWindow                03012e90 f   MQ2Data.obj
 0001:00011ec0       _dataMacro                 03012ec0 f   MQ2Data.obj
 0001:00011ef0       _dataMacroQuest            03012ef0 f   MQ2Data.obj
 0001:00011f10       _dataMath                  03012f10 f   MQ2Data.obj
 0001:00011f30       _dataZone                  03012f30 f   MQ2Data.obj
 0001:00011ff0       _dataInt                   03012ff0 f   MQ2Data.obj
 0001:00012020       _dataString                03013020 f   MQ2Data.obj
 0001:00012030       _dataFloat                 03013030 f   MQ2Data.obj
 0001:00012060       _dataHeading               03013060 f   MQ2Data.obj
 0001:00012180       _dataBool                  03013180 f   MQ2Data.obj
 0001:00012220       _dataGroup                 03013220 f   MQ2Data.obj
 0001:00012240       _dataIf                    03013240 f   MQ2Data.obj
 0001:00012320       _dataCursor                03013320 f   MQ2Data.obj
 0001:00012360       _dataLastSpawn             03013360 f   MQ2Data.obj
 0001:00012430       _dataNearestSpawn          03013430 f   MQ2Data.obj
 0001:00012560       _dataSpawnCount            03013560 f   MQ2Data.obj
 0001:000125f0       _dataTime                  030135f0 f   MQ2Data.obj
 0001:00012620       _dataGameTime              03013620 f   MQ2Data.obj
 0001:000126b0       _dataIni                   030136b0 f   MQ2Data.obj
 0001:00012960       _dataDefined               03013960 f   MQ2Data.obj
 0001:000129a0       _dataSelectedItem          030139a0 f   MQ2Data.obj
 0001:000129e0       _dataFindItemBank          030139e0 f   MQ2Data.obj
 0001:00012c40       _dataFindItem              03013c40 f   MQ2Data.obj
 0001:00012ed0       _dataFindItemCount         03013ed0 f   MQ2Data.obj
 0001:00013140       _dataFindItemBankCount     03014140 f   MQ2Data.obj
 0001:000133b0       _dataPlugin                030143b0 f   MQ2Data.obj
 0001:00013470       _dataSkill                 03014470 f   MQ2Data.obj
 0001:00013550       _dataAltAbility            03014550 f   MQ2Data.obj
 0001:00013640       _dataRaid                  03014640 f   MQ2Data.obj
 0001:00013660       _dataNamingSpawn           03014660 f   MQ2Data.obj
 0001:00013690       _dataLineOfSight           03014690 f   MQ2Data.obj
 0001:00013870       _dataDoorTarget            03014870 f   MQ2Data.obj
 0001:00013890       _dataItemTarget            03014890 f   MQ2Data.obj
 0001:000138b0       _dataDynamicZone           030148b0 f   MQ2Data.obj
 0001:000138d0       _dataFriends               030148d0 f   MQ2Data.obj
 0001:000138f0       _dataInvSlot               030148f0 f   MQ2Data.obj
 0001:00013a30       ?GetName@MQ2Type@MQ2Internal@@QAEPADXZ 03014a30 f i MQ2DataAPI.obj
 0001:00013a40       ?GetElement@CDataArray@MQ2Internal@@QAEHPADAAU_MQ2TypeVar@2@@Z 03014a40 f i MQ2DataAPI.obj
 0001:00013bc0       ??0?$CIndex@PAVMQ2Type@MQ2Internal@@@MQ2Internal@@QAE@XZ 03014bc0 f i MQ2DataAPI.obj
 0001:00013be0       ??1?$CIndex@PAVMQ2Type@MQ2Internal@@@MQ2Internal@@QAE@XZ 03014be0 f i MQ2DataAPI.obj
 0001:00013c20       ??A?$CIndex@PAVMQ2Type@MQ2Internal@@@MQ2Internal@@QAEAAPAVMQ2Type@1@K@Z 03014c20 f i MQ2DataAPI.obj
 0001:00013c30       ??0?$CIndex@PAU_MQ2DataItem@MQ2Internal@@@MQ2Internal@@QAE@XZ 03014c30 f i MQ2DataAPI.obj
 0001:00013c50       ??1?$CIndex@PAU_MQ2DataItem@MQ2Internal@@@MQ2Internal@@QAE@XZ 03014c50 f i MQ2DataAPI.obj
 0001:00013c90       ?Cleanup@?$CIndex@PAU_MQ2DataItem@MQ2Internal@@@MQ2Internal@@QAEXXZ 03014c90 f i MQ2DataAPI.obj
 0001:00013cd0       ??A?$CIndex@PAU_MQ2DataItem@MQ2Internal@@@MQ2Internal@@QAEAAPAU_MQ2DataItem@1@K@Z 03014cd0 f i MQ2DataAPI.obj
 0001:00013ce0       ?Resize@?$CIndex@PAVMQ2Type@MQ2Internal@@@MQ2Internal@@QAEXK@Z 03014ce0 f i MQ2DataAPI.obj
 0001:00013d90       ?Resize@?$CIndex@PAU_MQ2DataItem@MQ2Internal@@@MQ2Internal@@QAEXK@Z 03014d90 f i MQ2DataAPI.obj
 0001:00013e40       _ShutdownMQ2Data           03014e40 f   MQ2DataAPI.obj
 0001:00013e50       ?GetUnused@?$CIndex@PAVMQ2Type@MQ2Internal@@@MQ2Internal@@QAEKXZ 03014e50 f i MQ2DataAPI.obj
 0001:00013ea0       ?GetUnused@?$CIndex@PAU_MQ2DataItem@MQ2Internal@@@MQ2Internal@@QAEKXZ 03014ea0 f i MQ2DataAPI.obj
 0001:00013ef0       ?FindMember@MQ2Type@MQ2Internal@@QAEPAU_MQ2TypeMember@2@PAD@Z 03014ef0 f i MQ2DataAPI.obj
 0001:00013f80       ?InheritedMember@MQ2Type@MQ2Internal@@QAEHPAD@Z 03014f80 f i MQ2DataAPI.obj
 0001:00013fb0       _FindMQ2DataType           03014fb0 f   MQ2DataAPI.obj
 0001:00014040       _AddMQ2Type                03015040 f   MQ2DataAPI.obj
 0001:000140e0       _RemoveMQ2Type             030150e0 f   MQ2DataAPI.obj
 0001:000141d0       _FindMQ2Data               030151d0 f i MQ2DataAPI.obj
 0001:00014260       _AddMQ2Data                03015260 f   MQ2DataAPI.obj
 0001:00014320       _RemoveMQ2Data             03015320 f   MQ2DataAPI.obj
 0001:00014410       ?dataType@@YAHPADAAU_MQ2TypeVar@MQ2Internal@@@Z 03015410 f   MQ2DataAPI.obj
 0001:00014440       _InitializeMQ2Data         03015440 f   MQ2DataAPI.obj
 0001:00014710       _ParseMQ2DataPortion       03015710 f   MQ2DataAPI.obj
 0001:00014bd0       _ParseMacroData            03015bd0 f   MQ2DataAPI.obj
 0001:00014dd0       _fabsf                     03015dd0 f i MQ2DataTypes.obj
 0001:00014de0       ?fabs@@YAMM@Z              03015de0 f i MQ2DataTypes.obj
 0001:00014df0       ?SetInheritance@MQ2Type@MQ2Internal@@QAEXPAV12@@Z 03015df0 f i MQ2DataTypes.obj
 0001:00015460       ?ToString@MQ2AltAbilityType@@UAE_NU_MQ2VarPtr@MQ2Internal@@PAD@Z 03016460 f   MQ2DataTypes.obj
 0001:00015490       ?ToString@MQ2GroupType@@UAE_NU_MQ2VarPtr@MQ2Internal@@PAD@Z 03016490 f   MQ2DataTypes.obj
 0001:000154f0       ?ToString@MQ2GroupMemberType@@UAE_NU_MQ2VarPtr@MQ2Internal@@PAD@Z 030164f0 f   MQ2DataTypes.obj
 0001:000155f0       ?GetMemberName@MQ2Type@MQ2Internal@@QAEPADK@Z 030165f0 f i MQ2DataTypes.obj
 0001:00015630       ?GetMemberID@MQ2Type@MQ2Internal@@QAEHPADAAK@Z 03016630 f i MQ2DataTypes.obj
 0001:000156d0       ?GetMember@MQ2TypeType@@UAE_NU_MQ2VarPtr@MQ2Internal@@PAD1AAU_MQ2TypeVar@3@@Z 030166d0 f   MQ2DataTypes.obj
 0001:00015780       ?GetMember@MQ2PluginType@@UAE_NU_MQ2VarPtr@MQ2Internal@@PAD1AAU_MQ2TypeVar@3@@Z 03016780 f   MQ2DataTypes.obj
 0001:000157e0       ?GetMember@MQ2FloatType@@UAE_NU_MQ2VarPtr@MQ2Internal@@PAD1AAU_MQ2TypeVar@3@@Z 030167e0 f   MQ2DataTypes.obj
 0001:000158f0       ?GetMember@MQ2IntType@@UAE_NU_MQ2VarPtr@MQ2Internal@@PAD1AAU_MQ2TypeVar@3@@Z 030168f0 f   MQ2DataTypes.obj
 0001:00015990       ?GetMember@MQ2StringType@@UAE_NU_MQ2VarPtr@MQ2Internal@@PAD1AAU_MQ2TypeVar@3@@Z 03016990 f   MQ2DataTypes.obj
 0001:00016410       ?GetMember@MQ2ArrayType@@UAE_NU_MQ2VarPtr@MQ2Internal@@PAD1AAU_MQ2TypeVar@3@@Z 03017410 f   MQ2DataTypes.obj
 0001:000164b0       ?GetMember@MQ2MathType@@UAE_NU_MQ2VarPtr@MQ2Internal@@PAD1AAU_MQ2TypeVar@3@@Z 030174b0 f   MQ2DataTypes.obj
 0001:00016990       ?GetMember@MQ2MacroType@@UAE_NU_MQ2VarPtr@MQ2Internal@@PAD1AAU_MQ2TypeVar@3@@Z 03017990 f   MQ2DataTypes.obj
 0001:00016ab0       ?GetMember@MQ2TicksType@@UAE_NU_MQ2VarPtr@MQ2Internal@@PAD1AAU_MQ2TypeVar@3@@Z 03017ab0 f   MQ2DataTypes.obj
 0001:00016d00       ?GetMember@MQ2ArgbType@@UAE_NU_MQ2VarPtr@MQ2Internal@@PAD1AAU_MQ2TypeVar@3@@Z 03017d00 f   MQ2DataTypes.obj
 0001:00016de0       ?GetMember@MQ2SpawnType@@UAE_NU_MQ2VarPtr@MQ2Internal@@PAD1AAU_MQ2TypeVar@3@@Z 03017de0 f   MQ2DataTypes.obj
 0001:000187e0       ?GetMember@MQ2BuffType@@UAE_NU_MQ2VarPtr@MQ2Internal@@PAD1AAU_MQ2TypeVar@3@@Z 030197e0 f   MQ2DataTypes.obj
 0001:000189c0       ?GetMember@MQ2CharacterType@@UAE_NU_MQ2VarPtr@MQ2Internal@@PAD1AAU_MQ2TypeVar@3@@Z 030199c0 f   MQ2DataTypes.obj
 0001:0001c480       ?GetMember@MQ2SpellType@@UAE_NU_MQ2VarPtr@MQ2Internal@@PAD1AAU_MQ2TypeVar@3@@Z 0301d480 f   MQ2DataTypes.obj
 0001:0001cfd0       ?GetMember@MQ2ItemType@@UAE_NU_MQ2VarPtr@MQ2Internal@@PAD1AAU_MQ2TypeVar@3@@Z 0301dfd0 f   MQ2DataTypes.obj
 0001:0001ee10       ?GetMember@MQ2WindowType@@UAE_NU_MQ2VarPtr@MQ2Internal@@PAD1AAU_MQ2TypeVar@3@@Z 0301fe10 f   MQ2DataTypes.obj
 0001:0001f6b0       ?GetMember@MQ2CurrentZoneType@@UAE_NU_MQ2VarPtr@MQ2Internal@@PAD1AAU_MQ2TypeVar@3@@Z 030206b0 f   MQ2DataTypes.obj
 0001:0001f810       ?GetMember@MQ2ZoneType@@UAE_NU_MQ2VarPtr@MQ2Internal@@PAD1AAU_MQ2TypeVar@3@@Z 03020810 f   MQ2DataTypes.obj
 0001:0001f890       ?GetMember@MQ2BodyType@@UAE_NU_MQ2VarPtr@MQ2Internal@@PAD1AAU_MQ2TypeVar@3@@Z 03020890 f   MQ2DataTypes.obj
 0001:0001f910       ?GetMember@MQ2DeityType@@UAE_NU_MQ2VarPtr@MQ2Internal@@PAD1AAU_MQ2TypeVar@3@@Z 03020910 f   MQ2DataTypes.obj
 0001:0001f9a0       ?GetMember@MQ2ClassType@@UAE_NU_MQ2VarPtr@MQ2Internal@@PAD1AAU_MQ2TypeVar@3@@Z 030209a0 f   MQ2DataTypes.obj
 0001:0001fbc0       ?GetMember@MQ2RaceType@@UAE_NU_MQ2VarPtr@MQ2Internal@@PAD1AAU_MQ2TypeVar@3@@Z 03020bc0 f   MQ2DataTypes.obj
 0001:0001fc20       ?GetMember@MQ2SwitchType@@UAE_NU_MQ2VarPtr@MQ2Internal@@PAD1AAU_MQ2TypeVar@3@@Z 03020c20 f   MQ2DataTypes.obj
 0001:0001ff20       ?GetMember@MQ2GroundType@@UAE_NU_MQ2VarPtr@MQ2Internal@@PAD1AAU_MQ2TypeVar@3@@Z 03020f20 f   MQ2DataTypes.obj
 0001:00020150       ?GetMember@MQ2MacroQuestType@@UAE_NU_MQ2VarPtr@MQ2Internal@@PAD1AAU_MQ2TypeVar@3@@Z 03021150 f   MQ2DataTypes.obj
 0001:00020640       ?GetMember@MQ2TimeType@@UAE_NU_MQ2VarPtr@MQ2Internal@@PAD1AAU_MQ2TypeVar@3@@Z 03021640 f   MQ2DataTypes.obj
 0001:00020880       ?GetMember@MQ2HeadingType@@UAE_NU_MQ2VarPtr@MQ2Internal@@PAD1AAU_MQ2TypeVar@3@@Z 03021880 f   MQ2DataTypes.obj
 0001:000209d0       ?GetMember@MQ2CorpseType@@UAE_NU_MQ2VarPtr@MQ2Internal@@PAD1AAU_MQ2TypeVar@3@@Z 030219d0 f   MQ2DataTypes.obj
 0001:00020c20       ?GetMember@MQ2MerchantType@@UAE_NU_MQ2VarPtr@MQ2Internal@@PAD1AAU_MQ2TypeVar@3@@Z 03021c20 f   MQ2DataTypes.obj
 0001:00020f60       ?GetMember@MQ2InvSlotType@@UAE_NU_MQ2VarPtr@MQ2Internal@@PAD1AAU_MQ2TypeVar@3@@Z 03021f60 f   MQ2DataTypes.obj
 0001:00021430       ?GetMember@MQ2TimerType@@UAE_NU_MQ2VarPtr@MQ2Internal@@PAD1AAU_MQ2TypeVar@3@@Z 03022430 f   MQ2DataTypes.obj
 0001:00021490       ?GetMember@MQ2SkillType@@UAE_NU_MQ2VarPtr@MQ2Internal@@PAD1AAU_MQ2TypeVar@3@@Z 03022490 f   MQ2DataTypes.obj
 0001:00021680       ?GetMember@MQ2AltAbilityType@@UAE_NU_MQ2VarPtr@MQ2Internal@@PAD1AAU_MQ2TypeVar@3@@Z 03022680 f   MQ2DataTypes.obj
 0001:000218a0       ?GetMember@MQ2GroupType@@UAE_NU_MQ2VarPtr@MQ2Internal@@PAD1AAU_MQ2TypeVar@3@@Z 030228a0 f   MQ2DataTypes.obj
 0001:00021ce0       ?GetMember@MQ2GroupMemberType@@UAE_NU_MQ2VarPtr@MQ2Internal@@PAD1AAU_MQ2TypeVar@3@@Z 03022ce0 f   MQ2DataTypes.obj
 0001:00021f90       ?GetMember@MQ2RaidType@@UAE_NU_MQ2VarPtr@MQ2Internal@@PAD1AAU_MQ2TypeVar@3@@Z 03022f90 f   MQ2DataTypes.obj
 0001:00022310       ?GetMember@MQ2RaidMemberType@@UAE_NU_MQ2VarPtr@MQ2Internal@@PAD1AAU_MQ2TypeVar@3@@Z 03023310 f   MQ2DataTypes.obj
 0001:00022520       ?GetMember@MQ2EvolvingItemType@@UAE_NU_MQ2VarPtr@MQ2Internal@@PAD1AAU_MQ2TypeVar@3@@Z 03023520 f   MQ2DataTypes.obj
 0001:000225d0       ?GetMember@MQ2DynamicZoneType@@UAE_NU_MQ2VarPtr@MQ2Internal@@PAD1AAU_MQ2TypeVar@3@@Z 030235d0 f   MQ2DataTypes.obj
 0001:000227a0       ?GetMember@MQ2DZMemberType@@UAE_NU_MQ2VarPtr@MQ2Internal@@PAD1AAU_MQ2TypeVar@3@@Z 030237a0 f   MQ2DataTypes.obj
 0001:00022880       ?GetMember@MQ2FellowshipType@@UAE_NU_MQ2VarPtr@MQ2Internal@@PAD1AAU_MQ2TypeVar@3@@Z 03023880 f   MQ2DataTypes.obj
 0001:00022ab0       ?GetMember@MQ2FellowshipMemberType@@UAE_NU_MQ2VarPtr@MQ2Internal@@PAD1AAU_MQ2TypeVar@3@@Z 03023ab0 f   MQ2DataTypes.obj
 0001:00022bb0       ?GetMember@MQ2FriendsType@@UAE_NU_MQ2VarPtr@MQ2Internal@@PAD1AAU_MQ2TypeVar@3@@Z 03023bb0 f   MQ2DataTypes.obj
 0001:00022c90       ?GetMember@MQ2TargetType@@UAE_NU_MQ2VarPtr@MQ2Internal@@PAD1AAU_MQ2TypeVar@3@@Z 03023c90 f   MQ2DataTypes.obj
 0001:00023050       ??0MQ2BoolType@@QAE@XZ     03024050 f i MQ2DataTypes.obj
 0001:00023070       ?GetMember@MQ2BoolType@@UAE_NU_MQ2VarPtr@MQ2Internal@@PAD1AAU_MQ2TypeVar@3@@Z 03024070 f i MQ2DataTypes.obj
 0001:00023080       ?ToString@MQ2BoolType@@UAE_NU_MQ2VarPtr@MQ2Internal@@PAD@Z 03024080 f i MQ2DataTypes.obj
 0001:000230c0       ?FromData@MQ2BoolType@@UAE_NAAU_MQ2VarPtr@MQ2Internal@@AAU_MQ2TypeVar@3@@Z 030240c0 f i MQ2DataTypes.obj
 0001:000230e0       ?FromString@MQ2BoolType@@UAE_NAAU_MQ2VarPtr@MQ2Internal@@PAD@Z 030240e0 f i MQ2DataTypes.obj
 0001:00023130       ??1MQ2BoolType@@QAE@XZ     03024130 f i MQ2DataTypes.obj
 0001:00023140       ??0MQ2IntType@@QAE@XZ      03024140 f i MQ2DataTypes.obj
 0001:00023190       ?ToString@MQ2IntType@@UAE_NU_MQ2VarPtr@MQ2Internal@@PAD@Z 03024190 f i MQ2DataTypes.obj
 0001:000231b0       ?FromData@MQ2IntType@@UAE_NAAU_MQ2VarPtr@MQ2Internal@@AAU_MQ2TypeVar@3@@Z 030241b0 f i MQ2DataTypes.obj
 0001:000231d0       ?FromString@MQ2IntType@@UAE_NAAU_MQ2VarPtr@MQ2Internal@@PAD@Z 030241d0 f i MQ2DataTypes.obj
 0001:000231f0       ??1MQ2IntType@@QAE@XZ      030241f0 f i MQ2DataTypes.obj
 0001:00023200       ??0MQ2ArgbType@@QAE@XZ     03024200 f i MQ2DataTypes.obj
 0001:00023260       ?ToString@MQ2ArgbType@@UAE_NU_MQ2VarPtr@MQ2Internal@@PAD@Z 03024260 f i MQ2DataTypes.obj
 0001:00023280       ?FromData@MQ2ArgbType@@UAE_NAAU_MQ2VarPtr@MQ2Internal@@AAU_MQ2TypeVar@3@@Z 03024280 f i MQ2DataTypes.obj
 0001:000232a0       ?FromString@MQ2ArgbType@@UAE_NAAU_MQ2VarPtr@MQ2Internal@@PAD@Z 030242a0 f i MQ2DataTypes.obj
 0001:000232c0       ??1MQ2ArgbType@@QAE@XZ     030242c0 f i MQ2DataTypes.obj
 0001:000232d0       ??0MQ2ByteType@@QAE@XZ     030242d0 f i MQ2DataTypes.obj
 0001:000232f0       ?GetMember@MQ2ByteType@@UAE_NU_MQ2VarPtr@MQ2Internal@@PAD1AAU_MQ2TypeVar@3@@Z 030242f0 f i MQ2DataTypes.obj
 0001:00023300       ?ToString@MQ2ByteType@@UAE_NU_MQ2VarPtr@MQ2Internal@@PAD@Z 03024300 f i MQ2DataTypes.obj
 0001:00023320       ?FromData@MQ2ByteType@@UAE_NAAU_MQ2VarPtr@MQ2Internal@@AAU_MQ2TypeVar@3@@Z 03024320 f i MQ2DataTypes.obj
 0001:00023340       ?FromString@MQ2ByteType@@UAE_NAAU_MQ2VarPtr@MQ2Internal@@PAD@Z 03024340 f i MQ2DataTypes.obj
 0001:00023360       ??1MQ2ByteType@@QAE@XZ     03024360 f i MQ2DataTypes.obj
 0001:00023370       ??0MQ2StringType@@QAE@XZ   03024370 f i MQ2DataTypes.obj
 0001:00023480       ?ToString@MQ2StringType@@UAE_NU_MQ2VarPtr@MQ2Internal@@PAD@Z 03024480 f i MQ2DataTypes.obj
 0001:000234a0       ?InitVariable@MQ2StringType@@UAEXAAU_MQ2VarPtr@MQ2Internal@@@Z 030244a0 f i MQ2DataTypes.obj
 0001:000234d0       ?FreeVariable@MQ2StringType@@UAEXAAU_MQ2VarPtr@MQ2Internal@@@Z 030244d0 f i MQ2DataTypes.obj
 0001:000234e0       ?FromData@MQ2StringType@@UAE_NAAU_MQ2VarPtr@MQ2Internal@@AAU_MQ2TypeVar@3@@Z 030244e0 f i MQ2DataTypes.obj
 0001:00023510       ?FromString@MQ2StringType@@UAE_NAAU_MQ2VarPtr@MQ2Internal@@PAD@Z 03024510 f i MQ2DataTypes.obj
 0001:00023530       ??1MQ2StringType@@QAE@XZ   03024530 f i MQ2DataTypes.obj
 0001:00023540       ??0MQ2FloatType@@QAE@XZ    03024540 f i MQ2DataTypes.obj
 0001:000235a0       ?ToString@MQ2FloatType@@UAE_NU_MQ2VarPtr@MQ2Internal@@PAD@Z 030245a0 f i MQ2DataTypes.obj
 0001:000235d0       ?FromData@MQ2FloatType@@UAE_NAAU_MQ2VarPtr@MQ2Internal@@AAU_MQ2TypeVar@3@@Z 030245d0 f i MQ2DataTypes.obj
 0001:00023610       ?FromString@MQ2FloatType@@UAE_NAAU_MQ2VarPtr@MQ2Internal@@PAD@Z 03024610 f i MQ2DataTypes.obj
 0001:00023630       ??1MQ2FloatType@@QAE@XZ    03024630 f i MQ2DataTypes.obj
 0001:00023640       ??0MQ2SpawnType@@QAE@XZ    03024640 f i MQ2DataTypes.obj
 0001:00023b90       ?ToString@MQ2SpawnType@@UAE_NU_MQ2VarPtr@MQ2Internal@@PAD@Z 03024b90 f i MQ2DataTypes.obj
 0001:00023bc0       ?InitVariable@MQ2SpawnType@@UAEXAAU_MQ2VarPtr@MQ2Internal@@@Z 03024bc0 f i MQ2DataTypes.obj
 0001:00023bf0       ?FreeVariable@MQ2SpawnType@@UAEXAAU_MQ2VarPtr@MQ2Internal@@@Z 03024bf0 f i MQ2DataTypes.obj
 0001:00023c00       ?FromData@MQ2SpawnType@@UAE_NAAU_MQ2VarPtr@MQ2Internal@@AAU_MQ2TypeVar@3@@Z 03024c00 f i MQ2DataTypes.obj
 0001:00023c60       ?FromString@MQ2SpawnType@@UAE_NAAU_MQ2VarPtr@MQ2Internal@@PAD@Z 03024c60 f i MQ2DataTypes.obj
 0001:00023ca0       ??1MQ2SpawnType@@QAE@XZ    03024ca0 f i MQ2DataTypes.obj
 0001:00023cb0       ??0MQ2CharacterType@@QAE@XZ 03024cb0 f i MQ2DataTypes.obj
 0001:000246d0       ?ToString@MQ2CharacterType@@UAE_NU_MQ2VarPtr@MQ2Internal@@PAD@Z 030256d0 f i MQ2DataTypes.obj
 0001:00024700       ?InitVariable@MQ2CharacterType@@UAEXAAU_MQ2VarPtr@MQ2Internal@@@Z 03025700 f i MQ2DataTypes.obj
 0001:00024730       ?FreeVariable@MQ2CharacterType@@UAEXAAU_MQ2VarPtr@MQ2Internal@@@Z 03025730 f i MQ2DataTypes.obj
 0001:00024740       ?FromData@MQ2CharacterType@@UAE_NAAU_MQ2VarPtr@MQ2Internal@@AAU_MQ2TypeVar@3@@Z 03025740 f i MQ2DataTypes.obj
 0001:00024770       ?FromString@MQ2CharacterType@@UAE_NAAU_MQ2VarPtr@MQ2Internal@@PAD@Z 03025770 f i MQ2DataTypes.obj
 0001:00024780       ??1MQ2CharacterType@@QAE@XZ 03025780 f i MQ2DataTypes.obj
 0001:00024790       ??0MQ2SpellType@@QAE@XZ    03025790 f i MQ2DataTypes.obj
 0001:00024930       ?ToString@MQ2SpellType@@UAE_NU_MQ2VarPtr@MQ2Internal@@PAD@Z 03025930 f i MQ2DataTypes.obj
 0001:00024960       ?InitVariable@MQ2SpellType@@UAEXAAU_MQ2VarPtr@MQ2Internal@@@Z 03025960 f i MQ2DataTypes.obj
 0001:00024990       ?FreeVariable@MQ2SpellType@@UAEXAAU_MQ2VarPtr@MQ2Internal@@@Z 03025990 f i MQ2DataTypes.obj
 0001:000249a0       ?FromData@MQ2SpellType@@UAE_NAAU_MQ2VarPtr@MQ2Internal@@AAU_MQ2TypeVar@3@@Z 030259a0 f i MQ2DataTypes.obj
 0001:000249d0       ?FromString@MQ2SpellType@@UAE_NAAU_MQ2VarPtr@MQ2Internal@@PAD@Z 030259d0 f i MQ2DataTypes.obj
 0001:000249e0       ??1MQ2SpellType@@QAE@XZ    030259e0 f i MQ2DataTypes.obj
 0001:000249f0       ??0MQ2BuffType@@QAE@XZ     030259f0 f i MQ2DataTypes.obj
 0001:00024a70       ?ToString@MQ2BuffType@@UAE_NU_MQ2VarPtr@MQ2Internal@@PAD@Z 03025a70 f i MQ2DataTypes.obj
 0001:00024ac0       ?InitVariable@MQ2BuffType@@UAEXAAU_MQ2VarPtr@MQ2Internal@@@Z 03025ac0 f i MQ2DataTypes.obj
 0001:00024af0       ?FreeVariable@MQ2BuffType@@UAEXAAU_MQ2VarPtr@MQ2Internal@@@Z 03025af0 f i MQ2DataTypes.obj
 0001:00024b00       ?FromData@MQ2BuffType@@UAE_NAAU_MQ2VarPtr@MQ2Internal@@AAU_MQ2TypeVar@3@@Z 03025b00 f i MQ2DataTypes.obj
 0001:00024b50       ?FromString@MQ2BuffType@@UAE_NAAU_MQ2VarPtr@MQ2Internal@@PAD@Z 03025b50 f i MQ2DataTypes.obj
 0001:00024b60       ??1MQ2BuffType@@QAE@XZ     03025b60 f i MQ2DataTypes.obj
 0001:00024b70       ??0MQ2ItemType@@QAE@XZ     03025b70 f i MQ2DataTypes.obj
 0001:000252b0       ?ToString@MQ2ItemType@@UAE_NU_MQ2VarPtr@MQ2Internal@@PAD@Z 030262b0 f i MQ2DataTypes.obj
 0001:000252e0       ?InitVariable@MQ2ItemType@@UAEXAAU_MQ2VarPtr@MQ2Internal@@@Z 030262e0 f i MQ2DataTypes.obj
 0001:00025310       ?FreeVariable@MQ2ItemType@@UAEXAAU_MQ2VarPtr@MQ2Internal@@@Z 03026310 f i MQ2DataTypes.obj
 0001:00025320       ?FromData@MQ2ItemType@@UAE_NAAU_MQ2VarPtr@MQ2Internal@@AAU_MQ2TypeVar@3@@Z 03026320 f i MQ2DataTypes.obj
 0001:00025350       ?FromString@MQ2ItemType@@UAE_NAAU_MQ2VarPtr@MQ2Internal@@PAD@Z 03026350 f i MQ2DataTypes.obj
 0001:00025360       ??1MQ2ItemType@@QAE@XZ     03026360 f i MQ2DataTypes.obj
 0001:00025370       ??0MQ2SwitchType@@QAE@XZ   03026370 f i MQ2DataTypes.obj
 0001:00025450       ?ToString@MQ2SwitchType@@UAE_NU_MQ2VarPtr@MQ2Internal@@PAD@Z 03026450 f i MQ2DataTypes.obj
 0001:00025480       ?InitVariable@MQ2SwitchType@@UAEXAAU_MQ2VarPtr@MQ2Internal@@@Z 03026480 f i MQ2DataTypes.obj
 0001:000254b0       ?FreeVariable@MQ2SwitchType@@UAEXAAU_MQ2VarPtr@MQ2Internal@@@Z 030264b0 f i MQ2DataTypes.obj
 0001:000254c0       ?FromData@MQ2SwitchType@@UAE_NAAU_MQ2VarPtr@MQ2Internal@@AAU_MQ2TypeVar@3@@Z 030264c0 f i MQ2DataTypes.obj
 0001:000254f0       ?FromString@MQ2SwitchType@@UAE_NAAU_MQ2VarPtr@MQ2Internal@@PAD@Z 030264f0 f i MQ2DataTypes.obj
 0001:00025500       ??1MQ2SwitchType@@QAE@XZ   03026500 f i MQ2DataTypes.obj
 0001:00025510       ??0MQ2GroundType@@QAE@XZ   03026510 f i MQ2DataTypes.obj
 0001:000255b0       ?ToString@MQ2GroundType@@UAE_NU_MQ2VarPtr@MQ2Internal@@PAD@Z 030265b0 f i MQ2DataTypes.obj
 0001:000255e0       ?InitVariable@MQ2GroundType@@UAEXAAU_MQ2VarPtr@MQ2Internal@@@Z 030265e0 f i MQ2DataTypes.obj
 0001:00025600       ?FreeVariable@MQ2GroundType@@UAEXAAU_MQ2VarPtr@MQ2Internal@@@Z 03026600 f i MQ2DataTypes.obj
 0001:00025610       ?FromData@MQ2GroundType@@UAE_NAAU_MQ2VarPtr@MQ2Internal@@AAU_MQ2TypeVar@3@@Z 03026610 f i MQ2DataTypes.obj
 0001:00025640       ?FromString@MQ2GroundType@@UAE_NAAU_MQ2VarPtr@MQ2Internal@@PAD@Z 03026640 f i MQ2DataTypes.obj
 0001:00025650       ??1MQ2GroundType@@QAE@XZ   03026650 f i MQ2DataTypes.obj
 0001:00025660       ??0MQ2CorpseType@@QAE@XZ   03026660 f i MQ2DataTypes.obj
 0001:000256b0       ?ToString@MQ2CorpseType@@UAE_NU_MQ2VarPtr@MQ2Internal@@PAD@Z 030266b0 f i MQ2DataTypes.obj
 0001:00025700       ?FromData@MQ2CorpseType@@UAE_NAAU_MQ2VarPtr@MQ2Internal@@AAU_MQ2TypeVar@3@@Z 03026700 f i MQ2DataTypes.obj
 0001:00025710       ?FromString@MQ2CorpseType@@UAE_NAAU_MQ2VarPtr@MQ2Internal@@PAD@Z 03026710 f i MQ2DataTypes.obj
 0001:00025720       ??1MQ2CorpseType@@QAE@XZ   03026720 f i MQ2DataTypes.obj
 0001:00025730       ??0MQ2MerchantType@@QAE@XZ 03026730 f i MQ2DataTypes.obj
 0001:00025790       ?ToString@MQ2MerchantType@@UAE_NU_MQ2VarPtr@MQ2Internal@@PAD@Z 03026790 f i MQ2DataTypes.obj
 0001:000257e0       ?FromData@MQ2MerchantType@@UAE_NAAU_MQ2VarPtr@MQ2Internal@@AAU_MQ2TypeVar@3@@Z 030267e0 f i MQ2DataTypes.obj
 0001:000257f0       ?FromString@MQ2MerchantType@@UAE_NAAU_MQ2VarPtr@MQ2Internal@@PAD@Z 030267f0 f i MQ2DataTypes.obj
 0001:00025800       ??1MQ2MerchantType@@QAE@XZ 03026800 f i MQ2DataTypes.obj
 0001:00025810       ??0MQ2WindowType@@QAE@XZ   03026810 f i MQ2DataTypes.obj
 0001:000259f0       ?ToString@MQ2WindowType@@UAE_NU_MQ2VarPtr@MQ2Internal@@PAD@Z 030269f0 f i MQ2DataTypes.obj
 0001:00025a40       ?FromData@MQ2WindowType@@UAE_NAAU_MQ2VarPtr@MQ2Internal@@AAU_MQ2TypeVar@3@@Z 03026a40 f i MQ2DataTypes.obj
 0001:00025a70       ?FromString@MQ2WindowType@@UAE_NAAU_MQ2VarPtr@MQ2Internal@@PAD@Z 03026a70 f i MQ2DataTypes.obj
 0001:00025a90       ??1MQ2WindowType@@QAE@XZ   03026a90 f i MQ2DataTypes.obj
 0001:00025aa0       ??0MQ2MacroType@@QAE@XZ    03026aa0 f i MQ2DataTypes.obj
 0001:00025b10       ?ToString@MQ2MacroType@@UAE_NU_MQ2VarPtr@MQ2Internal@@PAD@Z 03026b10 f i MQ2DataTypes.obj
 0001:00025b40       ?FromData@MQ2MacroType@@UAE_NAAU_MQ2VarPtr@MQ2Internal@@AAU_MQ2TypeVar@3@@Z 03026b40 f i MQ2DataTypes.obj
 0001:00025b50       ?FromString@MQ2MacroType@@UAE_NAAU_MQ2VarPtr@MQ2Internal@@PAD@Z 03026b50 f i MQ2DataTypes.obj
 0001:00025b60       ??1MQ2MacroType@@QAE@XZ    03026b60 f i MQ2DataTypes.obj
 0001:00025b70       ??0MQ2ZoneType@@QAE@XZ     03026b70 f i MQ2DataTypes.obj
 0001:00025bc0       ?ToString@MQ2ZoneType@@UAE_NU_MQ2VarPtr@MQ2Internal@@PAD@Z 03026bc0 f i MQ2DataTypes.obj
 0001:00025be0       ?FromData@MQ2ZoneType@@UAE_NAAU_MQ2VarPtr@MQ2Internal@@AAU_MQ2TypeVar@3@@Z 03026be0 f i MQ2DataTypes.obj
 0001:00025c30       ?FromString@MQ2ZoneType@@UAE_NAAU_MQ2VarPtr@MQ2Internal@@PAD@Z 03026c30 f i MQ2DataTypes.obj
 0001:00025c40       ??1MQ2ZoneType@@QAE@XZ     03026c40 f i MQ2DataTypes.obj
 0001:00025c50       ??0MQ2CurrentZoneType@@QAE@XZ 03026c50 f i MQ2DataTypes.obj
 0001:00025d30       ?ToString@MQ2CurrentZoneType@@UAE_NU_MQ2VarPtr@MQ2Internal@@PAD@Z 03026d30 f i MQ2DataTypes.obj
 0001:00025d50       ?FromData@MQ2CurrentZoneType@@UAE_NAAU_MQ2VarPtr@MQ2Internal@@AAU_MQ2TypeVar@3@@Z 03026d50 f i MQ2DataTypes.obj
 0001:00025d80       ?FromString@MQ2CurrentZoneType@@UAE_NAAU_MQ2VarPtr@MQ2Internal@@PAD@Z 03026d80 f i MQ2DataTypes.obj
 0001:00025d90       ??1MQ2CurrentZoneType@@QAE@XZ 03026d90 f i MQ2DataTypes.obj
 0001:00025da0       ??0MQ2MacroQuestType@@QAE@XZ 03026da0 f i MQ2DataTypes.obj
 0001:00025ef0       ?ToString@MQ2MacroQuestType@@UAE_NU_MQ2VarPtr@MQ2Internal@@PAD@Z 03026ef0 f i MQ2DataTypes.obj
 0001:00025f00       ?FromData@MQ2MacroQuestType@@UAE_NAAU_MQ2VarPtr@MQ2Internal@@AAU_MQ2TypeVar@3@@Z 03026f00 f i MQ2DataTypes.obj
 0001:00025f10       ?FromString@MQ2MacroQuestType@@UAE_NAAU_MQ2VarPtr@MQ2Internal@@PAD@Z 03026f10 f i MQ2DataTypes.obj
 0001:00025f20       ??1MQ2MacroQuestType@@QAE@XZ 03026f20 f i MQ2DataTypes.obj
 0001:00025f30       ??0MQ2MathType@@QAE@XZ     03026f30 f i MQ2DataTypes.obj
 0001:00026010       ?ToString@MQ2MathType@@UAE_NU_MQ2VarPtr@MQ2Internal@@PAD@Z 03027010 f i MQ2DataTypes.obj
 0001:00026020       ?FromData@MQ2MathType@@UAE_NAAU_MQ2VarPtr@MQ2Internal@@AAU_MQ2TypeVar@3@@Z 03027020 f i MQ2DataTypes.obj
 0001:00026030       ?FromString@MQ2MathType@@UAE_NAAU_MQ2VarPtr@MQ2Internal@@PAD@Z 03027030 f i MQ2DataTypes.obj
 0001:00026040       ??1MQ2MathType@@QAE@XZ     03027040 f i MQ2DataTypes.obj
 0001:00026050       ??0MQ2RaceType@@QAE@XZ     03027050 f i MQ2DataTypes.obj
 0001:00026090       ?ToString@MQ2RaceType@@UAE_NU_MQ2VarPtr@MQ2Internal@@PAD@Z 03027090 f i MQ2DataTypes.obj
 0001:000260c0       ?FromData@MQ2RaceType@@UAE_NAAU_MQ2VarPtr@MQ2Internal@@AAU_MQ2TypeVar@3@@Z 030270c0 f i MQ2DataTypes.obj
 0001:000260e0       ?FromString@MQ2RaceType@@UAE_NAAU_MQ2VarPtr@MQ2Internal@@PAD@Z 030270e0 f i MQ2DataTypes.obj
 0001:00026100       ??1MQ2RaceType@@QAE@XZ     03027100 f i MQ2DataTypes.obj
 0001:00026110       ??0MQ2ClassType@@QAE@XZ    03027110 f i MQ2DataTypes.obj
 0001:000261d0       ?ToString@MQ2ClassType@@UAE_NU_MQ2VarPtr@MQ2Internal@@PAD@Z 030271d0 f i MQ2DataTypes.obj
 0001:000261f0       ?FromData@MQ2ClassType@@UAE_NAAU_MQ2VarPtr@MQ2Internal@@AAU_MQ2TypeVar@3@@Z 030271f0 f i MQ2DataTypes.obj
 0001:00026210       ?FromString@MQ2ClassType@@UAE_NAAU_MQ2VarPtr@MQ2Internal@@PAD@Z 03027210 f i MQ2DataTypes.obj
 0001:00026230       ??1MQ2ClassType@@QAE@XZ    03027230 f i MQ2DataTypes.obj
 0001:00026240       ??0MQ2BodyType@@QAE@XZ     03027240 f i MQ2DataTypes.obj
 0001:00026280       ?ToString@MQ2BodyType@@UAE_NU_MQ2VarPtr@MQ2Internal@@PAD@Z 03027280 f i MQ2DataTypes.obj
 0001:000262b0       ?FromData@MQ2BodyType@@UAE_NAAU_MQ2VarPtr@MQ2Internal@@AAU_MQ2TypeVar@3@@Z 030272b0 f i MQ2DataTypes.obj
 0001:000262d0       ?FromString@MQ2BodyType@@UAE_NAAU_MQ2VarPtr@MQ2Internal@@PAD@Z 030272d0 f i MQ2DataTypes.obj
 0001:000262f0       ??1MQ2BodyType@@QAE@XZ     030272f0 f i MQ2DataTypes.obj
 0001:00026300       ??0MQ2DeityType@@QAE@XZ    03027300 f i MQ2DataTypes.obj
 0001:00026350       ?ToString@MQ2DeityType@@UAE_NU_MQ2VarPtr@MQ2Internal@@PAD@Z 03027350 f i MQ2DataTypes.obj
 0001:00026380       ?FromData@MQ2DeityType@@UAE_NAAU_MQ2VarPtr@MQ2Internal@@AAU_MQ2TypeVar@3@@Z 03027380 f i MQ2DataTypes.obj
 0001:000263a0       ?FromString@MQ2DeityType@@UAE_NAAU_MQ2VarPtr@MQ2Internal@@PAD@Z 030273a0 f i MQ2DataTypes.obj
 0001:000263c0       ??1MQ2DeityType@@QAE@XZ    030273c0 f i MQ2DataTypes.obj
 0001:000263d0       ??0MQ2TimeType@@QAE@XZ     030273d0 f i MQ2DataTypes.obj
 0001:00026490       ?ToString@MQ2TimeType@@UAE_NU_MQ2VarPtr@MQ2Internal@@PAD@Z 03027490 f i MQ2DataTypes.obj
 0001:000264c0       ?InitVariable@MQ2TimeType@@UAEXAAU_MQ2VarPtr@MQ2Internal@@@Z 030274c0 f i MQ2DataTypes.obj
 0001:000264f0       ?FreeVariable@MQ2TimeType@@UAEXAAU_MQ2VarPtr@MQ2Internal@@@Z 030274f0 f i MQ2DataTypes.obj
 0001:00026500       ?FromData@MQ2TimeType@@UAE_NAAU_MQ2VarPtr@MQ2Internal@@AAU_MQ2TypeVar@3@@Z 03027500 f i MQ2DataTypes.obj
 0001:00026530       ?FromString@MQ2TimeType@@UAE_NAAU_MQ2VarPtr@MQ2Internal@@PAD@Z 03027530 f i MQ2DataTypes.obj
 0001:00026540       ??1MQ2TimeType@@QAE@XZ     03027540 f i MQ2DataTypes.obj
 0001:00026550       ??0MQ2TypeType@@QAE@XZ     03027550 f i MQ2DataTypes.obj
 0001:00026590       ?ToString@MQ2TypeType@@UAE_NU_MQ2VarPtr@MQ2Internal@@PAD@Z 03027590 f i MQ2DataTypes.obj
 0001:000265b0       ?FromData@MQ2TypeType@@UAE_NAAU_MQ2VarPtr@MQ2Internal@@AAU_MQ2TypeVar@3@@Z 030275b0 f i MQ2DataTypes.obj
 0001:000265d0       ?FromString@MQ2TypeType@@UAE_NAAU_MQ2VarPtr@MQ2Internal@@PAD@Z 030275d0 f i MQ2DataTypes.obj
 0001:000265f0       ??1MQ2TypeType@@QAE@XZ     030275f0 f i MQ2DataTypes.obj
 0001:00026600       ??0MQ2HeadingType@@QAE@XZ  03027600 f i MQ2DataTypes.obj
 0001:00026660       ?ToString@MQ2HeadingType@@UAE_NU_MQ2VarPtr@MQ2Internal@@PAD@Z 03027660 f i MQ2DataTypes.obj
 0001:000266b0       ?FromData@MQ2HeadingType@@UAE_NAAU_MQ2VarPtr@MQ2Internal@@AAU_MQ2TypeVar@3@@Z 030276b0 f i MQ2DataTypes.obj
 0001:000266f0       ?FromString@MQ2HeadingType@@UAE_NAAU_MQ2VarPtr@MQ2Internal@@PAD@Z 030276f0 f i MQ2DataTypes.obj
 0001:00026710       ??1MQ2HeadingType@@QAE@XZ  03027710 f i MQ2DataTypes.obj
 0001:00026720       ??0MQ2InvSlotType@@QAE@XZ  03027720 f i MQ2DataTypes.obj
 0001:00026780       ?ToString@MQ2InvSlotType@@UAE_NU_MQ2VarPtr@MQ2Internal@@PAD@Z 03027780 f i MQ2DataTypes.obj
 0001:000267a0       ?FromData@MQ2InvSlotType@@UAE_NAAU_MQ2VarPtr@MQ2Internal@@AAU_MQ2TypeVar@3@@Z 030277a0 f i MQ2DataTypes.obj
 0001:000267c0       ?FromString@MQ2InvSlotType@@UAE_NAAU_MQ2VarPtr@MQ2Internal@@PAD@Z 030277c0 f i MQ2DataTypes.obj
 0001:000268f0       ??0MQ2PluginType@@QAE@XZ   030278f0 f i MQ2DataTypes.obj
 0001:00026930       ?ToString@MQ2PluginType@@UAE_NU_MQ2VarPtr@MQ2Internal@@PAD@Z 03027930 f i MQ2DataTypes.obj
 0001:00026960       ?FromData@MQ2PluginType@@UAE_NAAU_MQ2VarPtr@MQ2Internal@@AAU_MQ2TypeVar@3@@Z 03027960 f i MQ2DataTypes.obj
 0001:00026990       ?FromString@MQ2PluginType@@UAE_NAAU_MQ2VarPtr@MQ2Internal@@PAD@Z 03027990 f i MQ2DataTypes.obj
 0001:000269a0       ??1MQ2PluginType@@QAE@XZ   030279a0 f i MQ2DataTypes.obj
 0001:000269b0       ??0MQ2SkillType@@QAE@XZ    030279b0 f i MQ2DataTypes.obj
 0001:00026a30       ?ToString@MQ2SkillType@@UAE_NU_MQ2VarPtr@MQ2Internal@@PAD@Z 03027a30 f i MQ2DataTypes.obj
 0001:00026a80       ?FromData@MQ2SkillType@@UAE_NAAU_MQ2VarPtr@MQ2Internal@@AAU_MQ2TypeVar@3@@Z 03027a80 f i MQ2DataTypes.obj
 0001:00026ab0       ?FromString@MQ2SkillType@@UAE_NAAU_MQ2VarPtr@MQ2Internal@@PAD@Z 03027ab0 f i MQ2DataTypes.obj
 0001:00026ac0       ??1MQ2SkillType@@QAE@XZ    03027ac0 f i MQ2DataTypes.obj
 0001:00026ad0       ??0MQ2AltAbilityType@@QAE@XZ 03027ad0 f i MQ2DataTypes.obj
 0001:00026bb0       ?FromData@MQ2AltAbilityType@@UAE_NAAU_MQ2VarPtr@MQ2Internal@@AAU_MQ2TypeVar@3@@Z 03027bb0 f i MQ2DataTypes.obj
 0001:00026be0       ?FromString@MQ2AltAbilityType@@UAE_NAAU_MQ2VarPtr@MQ2Internal@@PAD@Z 03027be0 f i MQ2DataTypes.obj
 0001:00026bf0       ??1MQ2AltAbilityType@@QAE@XZ 03027bf0 f i MQ2DataTypes.obj
 0001:00026c00       ??0MQ2TimerType@@QAE@XZ    03027c00 f i MQ2DataTypes.obj
 0001:00026c40       ?ToString@MQ2TimerType@@UAE_NU_MQ2VarPtr@MQ2Internal@@PAD@Z 03027c40 f i MQ2DataTypes.obj
 0001:00026c60       ?InitVariable@MQ2TimerType@@UAEXAAU_MQ2VarPtr@MQ2Internal@@@Z 03027c60 f i MQ2DataTypes.obj
 0001:00026cb0       ?FreeVariable@MQ2TimerType@@UAEXAAU_MQ2VarPtr@MQ2Internal@@@Z 03027cb0 f i MQ2DataTypes.obj
 0001:00026cf0       ?FromData@MQ2TimerType@@UAE_NAAU_MQ2VarPtr@MQ2Internal@@AAU_MQ2TypeVar@3@@Z 03027cf0 f i MQ2DataTypes.obj
 0001:00026d50       ?FromString@MQ2TimerType@@UAE_NAAU_MQ2VarPtr@MQ2Internal@@PAD@Z 03027d50 f i MQ2DataTypes.obj
 0001:00026e20       ??1MQ2TimerType@@QAE@XZ    03027e20 f i MQ2DataTypes.obj
 0001:00026e30       ??0MQ2ArrayType@@QAE@XZ    03027e30 f i MQ2DataTypes.obj
 0001:00026e70       ??1CDataArray@MQ2Internal@@QAE@XZ 03027e70 f i MQ2DataTypes.obj
 0001:00026ec0       ?ToString@MQ2ArrayType@@UAE_NU_MQ2VarPtr@MQ2Internal@@PAD@Z 03027ec0 f i MQ2DataTypes.obj
 0001:00026ed0       ?InitVariable@MQ2ArrayType@@UAEXAAU_MQ2VarPtr@MQ2Internal@@@Z 03027ed0 f i MQ2DataTypes.obj
 0001:00026ee0       ?FromData@MQ2ArrayType@@UAE_NAAU_MQ2VarPtr@MQ2Internal@@AAU_MQ2TypeVar@3@@Z 03027ee0 f i MQ2DataTypes.obj
 0001:00026ef0       ?FromString@MQ2ArrayType@@UAE_NAAU_MQ2VarPtr@MQ2Internal@@PAD@Z 03027ef0 f i MQ2DataTypes.obj
 0001:00026f00       ??_GCDataArray@MQ2Internal@@QAEPAXI@Z 03027f00 f i MQ2DataTypes.obj
 0001:00026f20       ?FreeVariable@MQ2ArrayType@@UAEXAAU_MQ2VarPtr@MQ2Internal@@@Z 03027f20 f i MQ2DataTypes.obj
 0001:00026f40       ??1MQ2ArrayType@@QAE@XZ    03027f40 f i MQ2DataTypes.obj
 0001:00026f50       ??0MQ2GroupType@@QAE@XZ    03027f50 f i MQ2DataTypes.obj
 0001:00026fd0       ?FromData@MQ2GroupType@@UAE_NAAU_MQ2VarPtr@MQ2Internal@@AAU_MQ2TypeVar@3@@Z 03027fd0 f i MQ2DataTypes.obj
 0001:00026fe0       ?FromString@MQ2GroupType@@UAE_NAAU_MQ2VarPtr@MQ2Internal@@PAD@Z 03027fe0 f i MQ2DataTypes.obj
 0001:00026ff0       ??1MQ2GroupType@@QAE@XZ    03027ff0 f i MQ2DataTypes.obj
 0001:00027000       ??0MQ2GroupMemberType@@QAE@XZ 03028000 f i MQ2DataTypes.obj
 0001:00027090       ?FromData@MQ2GroupMemberType@@UAE_NAAU_MQ2VarPtr@MQ2Internal@@AAU_MQ2TypeVar@3@@Z 03028090 f i MQ2DataTypes.obj
 0001:000270c0       ?FromString@MQ2GroupMemberType@@UAE_NAAU_MQ2VarPtr@MQ2Internal@@PAD@Z 030280c0 f i MQ2DataTypes.obj
 0001:000270d0       ??1MQ2GroupMemberType@@QAE@XZ 030280d0 f i MQ2DataTypes.obj
 0001:000270e0       ??0MQ2RaidType@@QAE@XZ     030280e0 f i MQ2DataTypes.obj
 0001:000271a0       ?ToString@MQ2RaidType@@UAE_NU_MQ2VarPtr@MQ2Internal@@PAD@Z 030281a0 f i MQ2DataTypes.obj
 0001:000271b0       ?FromData@MQ2RaidType@@UAE_NAAU_MQ2VarPtr@MQ2Internal@@AAU_MQ2TypeVar@3@@Z 030281b0 f i MQ2DataTypes.obj
 0001:000271c0       ?FromString@MQ2RaidType@@UAE_NAAU_MQ2VarPtr@MQ2Internal@@PAD@Z 030281c0 f i MQ2DataTypes.obj
 0001:000271d0       ??1MQ2RaidType@@QAE@XZ     030281d0 f i MQ2DataTypes.obj
 0001:000271e0       ??0MQ2RaidMemberType@@QAE@XZ 030281e0 f i MQ2DataTypes.obj
 0001:00027270       ?ToString@MQ2RaidMemberType@@UAE_NU_MQ2VarPtr@MQ2Internal@@PAD@Z 03028270 f i MQ2DataTypes.obj
 0001:000272c0       ?FromData@MQ2RaidMemberType@@UAE_NAAU_MQ2VarPtr@MQ2Internal@@AAU_MQ2TypeVar@3@@Z 030282c0 f i MQ2DataTypes.obj
 0001:000272f0       ?FromString@MQ2RaidMemberType@@UAE_NAAU_MQ2VarPtr@MQ2Internal@@PAD@Z 030282f0 f i MQ2DataTypes.obj
 0001:00027300       ??1MQ2RaidMemberType@@QAE@XZ 03028300 f i MQ2DataTypes.obj
 0001:00027310       ??0MQ2EvolvingItemType@@QAE@XZ 03028310 f i MQ2DataTypes.obj
 0001:00027360       ?ToString@MQ2EvolvingItemType@@UAE_NU_MQ2VarPtr@MQ2Internal@@PAD@Z 03028360 f i MQ2DataTypes.obj
 0001:000273b0       ?FromData@MQ2EvolvingItemType@@UAE_NAAU_MQ2VarPtr@MQ2Internal@@AAU_MQ2TypeVar@3@@Z 030283b0 f i MQ2DataTypes.obj
 0001:000273c0       ?FromString@MQ2EvolvingItemType@@UAE_NAAU_MQ2VarPtr@MQ2Internal@@PAD@Z 030283c0 f i MQ2DataTypes.obj
 0001:000273d0       ??1MQ2EvolvingItemType@@QAE@XZ 030283d0 f i MQ2DataTypes.obj
 0001:000273e0       ??0MQ2DynamicZoneType@@QAE@XZ 030283e0 f i MQ2DataTypes.obj
 0001:00027440       ?ToString@MQ2DynamicZoneType@@UAE_NU_MQ2VarPtr@MQ2Internal@@PAD@Z 03028440 f i MQ2DataTypes.obj
 0001:00027480       ?FromData@MQ2DynamicZoneType@@UAE_NAAU_MQ2VarPtr@MQ2Internal@@AAU_MQ2TypeVar@3@@Z 03028480 f i MQ2DataTypes.obj
 0001:00027490       ?FromString@MQ2DynamicZoneType@@UAE_NAAU_MQ2VarPtr@MQ2Internal@@PAD@Z 03028490 f i MQ2DataTypes.obj
 0001:000274a0       ??1MQ2DynamicZoneType@@QAE@XZ 030284a0 f i MQ2DataTypes.obj
 0001:000274b0       ??0MQ2DZMemberType@@QAE@XZ 030284b0 f i MQ2DataTypes.obj
 0001:000274f0       ?ToString@MQ2DZMemberType@@UAE_NU_MQ2VarPtr@MQ2Internal@@PAD@Z 030284f0 f i MQ2DataTypes.obj
 0001:00027510       ?FromData@MQ2DZMemberType@@UAE_NAAU_MQ2VarPtr@MQ2Internal@@AAU_MQ2TypeVar@3@@Z 03028510 f i MQ2DataTypes.obj
 0001:00027520       ?FromString@MQ2DZMemberType@@UAE_NAAU_MQ2VarPtr@MQ2Internal@@PAD@Z 03028520 f i MQ2DataTypes.obj
 0001:00027530       ??0MQ2FellowshipType@@QAE@XZ 03028530 f i MQ2DataTypes.obj
 0001:000275f0       ?ToString@MQ2FellowshipType@@UAE_NU_MQ2VarPtr@MQ2Internal@@PAD@Z 030285f0 f i MQ2DataTypes.obj
 0001:00027640       ?FromData@MQ2FellowshipType@@UAE_NAAU_MQ2VarPtr@MQ2Internal@@AAU_MQ2TypeVar@3@@Z 03028640 f i MQ2DataTypes.obj
 0001:00027650       ?FromString@MQ2FellowshipType@@UAE_NAAU_MQ2VarPtr@MQ2Internal@@PAD@Z 03028650 f i MQ2DataTypes.obj
 0001:00027660       ??0MQ2FellowshipMemberType@@QAE@XZ 03028660 f i MQ2DataTypes.obj
 0001:000276c0       ?ToString@MQ2FellowshipMemberType@@UAE_NU_MQ2VarPtr@MQ2Internal@@PAD@Z 030286c0 f i MQ2DataTypes.obj
 0001:000276e0       ?FromData@MQ2FellowshipMemberType@@UAE_NAAU_MQ2VarPtr@MQ2Internal@@AAU_MQ2TypeVar@3@@Z 030286e0 f i MQ2DataTypes.obj
 0001:000276f0       ?FromString@MQ2FellowshipMemberType@@UAE_NAAU_MQ2VarPtr@MQ2Internal@@PAD@Z 030286f0 f i MQ2DataTypes.obj
 0001:00027700       ??0MQ2FriendsType@@QAE@XZ  03028700 f i MQ2DataTypes.obj
 0001:00027730       ?ToString@MQ2FriendsType@@UAE_NU_MQ2VarPtr@MQ2Internal@@PAD@Z 03028730 f i MQ2DataTypes.obj
 0001:00027770       ?FromData@MQ2FriendsType@@UAE_NAAU_MQ2VarPtr@MQ2Internal@@AAU_MQ2TypeVar@3@@Z 03028770 f i MQ2DataTypes.obj
 0001:00027780       ?FromString@MQ2FriendsType@@UAE_NAAU_MQ2VarPtr@MQ2Internal@@PAD@Z 03028780 f i MQ2DataTypes.obj
 0001:00027790       ??1MQ2FriendsType@@QAE@XZ  03028790 f i MQ2DataTypes.obj
 0001:000277a0       ??0MQ2TargetType@@QAE@XZ   030287a0 f i MQ2DataTypes.obj
 0001:000277f0       ?ToString@MQ2TargetType@@UAE_NU_MQ2VarPtr@MQ2Internal@@PAD@Z 030287f0 f i MQ2DataTypes.obj
 0001:00027820       ?InitVariable@MQ2TargetType@@UAEXAAU_MQ2VarPtr@MQ2Internal@@@Z 03028820 f i MQ2DataTypes.obj
 0001:00027850       ?FreeVariable@MQ2TargetType@@UAEXAAU_MQ2VarPtr@MQ2Internal@@@Z 03028850 f i MQ2DataTypes.obj
 0001:00027860       ?FromData@MQ2TargetType@@UAE_NAAU_MQ2VarPtr@MQ2Internal@@AAU_MQ2TypeVar@3@@Z 03028860 f i MQ2DataTypes.obj
 0001:000278c0       ?FromString@MQ2TargetType@@UAE_NAAU_MQ2VarPtr@MQ2Internal@@PAD@Z 030288c0 f i MQ2DataTypes.obj
 0001:00027900       ??1MQ2TargetType@@QAE@XZ   03028900 f i MQ2DataTypes.obj
 0001:00027910       _InitializeMQ2DataTypes    03028910 f   MQ2DataTypes.obj
 0001:000281f0       ??_GMQ2SpawnType@@QAEPAXI@Z 030291f0 f i MQ2DataTypes.obj
 0001:00028220       ??_GMQ2FloatType@@QAEPAXI@Z 03029220 f i MQ2DataTypes.obj
 0001:00028250       ??_GMQ2IntType@@QAEPAXI@Z  03029250 f i MQ2DataTypes.obj
 0001:00028280       ??_GMQ2ByteType@@QAEPAXI@Z 03029280 f i MQ2DataTypes.obj
 0001:000282b0       ??_GMQ2StringType@@QAEPAXI@Z 030292b0 f i MQ2DataTypes.obj
 0001:000282e0       ??_GMQ2BuffType@@QAEPAXI@Z 030292e0 f i MQ2DataTypes.obj
 0001:00028310       ??_GMQ2SpellType@@QAEPAXI@Z 03029310 f i MQ2DataTypes.obj
 0001:00028340       ??_GMQ2TicksType@@QAEPAXI@Z 03029340 f i MQ2DataTypes.obj
 0001:00028370       ??_GMQ2CharacterType@@QAEPAXI@Z 03029370 f i MQ2DataTypes.obj
 0001:000283a0       ??_GMQ2ClassType@@QAEPAXI@Z 030293a0 f i MQ2DataTypes.obj
 0001:000283d0       ??_GMQ2RaceType@@QAEPAXI@Z 030293d0 f i MQ2DataTypes.obj
 0001:00028400       ??_GMQ2GroundType@@QAEPAXI@Z 03029400 f i MQ2DataTypes.obj
 0001:00028430       ??_GMQ2SwitchType@@QAEPAXI@Z 03029430 f i MQ2DataTypes.obj
 0001:00028460       ??_GMQ2MacroType@@QAEPAXI@Z 03029460 f i MQ2DataTypes.obj
 0001:00028490       ??_GMQ2MacroQuestType@@QAEPAXI@Z 03029490 f i MQ2DataTypes.obj
 0001:000284c0       ??_GMQ2MathType@@QAEPAXI@Z 030294c0 f i MQ2DataTypes.obj
 0001:000284f0       ??_GMQ2WindowType@@QAEPAXI@Z 030294f0 f i MQ2DataTypes.obj
 0001:00028520       ??_GMQ2MerchantType@@QAEPAXI@Z 03029520 f i MQ2DataTypes.obj
 0001:00028550       ??_GMQ2ZoneType@@QAEPAXI@Z 03029550 f i MQ2DataTypes.obj
 0001:00028580       ??_GMQ2ItemType@@QAEPAXI@Z 03029580 f i MQ2DataTypes.obj
 0001:000285b0       ??_GMQ2BoolType@@QAEPAXI@Z 030295b0 f i MQ2DataTypes.obj
 0001:000285e0       ??_GMQ2BodyType@@QAEPAXI@Z 030295e0 f i MQ2DataTypes.obj
 0001:00028610       ??_GMQ2DeityType@@QAEPAXI@Z 03029610 f i MQ2DataTypes.obj
 0001:00028640       ??_GMQ2ArgbType@@QAEPAXI@Z 03029640 f i MQ2DataTypes.obj
 0001:00028670       ??_GMQ2CorpseType@@QAEPAXI@Z 03029670 f i MQ2DataTypes.obj
 0001:000286a0       ??_GMQ2CurrentZoneType@@QAEPAXI@Z 030296a0 f i MQ2DataTypes.obj
 0001:000286d0       ??_GMQ2TypeType@@QAEPAXI@Z 030296d0 f i MQ2DataTypes.obj
 0001:00028700       ??_GMQ2TimeType@@QAEPAXI@Z 03029700 f i MQ2DataTypes.obj
 0001:00028730       ??_GMQ2HeadingType@@QAEPAXI@Z 03029730 f i MQ2DataTypes.obj
 0001:00028760       ??_GMQ2ArrayType@@QAEPAXI@Z 03029760 f i MQ2DataTypes.obj
 0001:00028790       ??_GMQ2TimerType@@QAEPAXI@Z 03029790 f i MQ2DataTypes.obj
 0001:000287c0       ??_GMQ2PluginType@@QAEPAXI@Z 030297c0 f i MQ2DataTypes.obj
 0001:000287f0       ??_GMQ2SkillType@@QAEPAXI@Z 030297f0 f i MQ2DataTypes.obj
 0001:00028820       ??_GMQ2AltAbilityType@@QAEPAXI@Z 03029820 f i MQ2DataTypes.obj
 0001:00028850       ??_GMQ2RaidType@@QAEPAXI@Z 03029850 f i MQ2DataTypes.obj
 0001:00028880       ??_GMQ2RaidMemberType@@QAEPAXI@Z 03029880 f i MQ2DataTypes.obj
 0001:000288b0       ??_GMQ2GroupType@@QAEPAXI@Z 030298b0 f i MQ2DataTypes.obj
 0001:000288e0       ??_GMQ2GroupMemberType@@QAEPAXI@Z 030298e0 f i MQ2DataTypes.obj
 0001:00028910       ??_GMQ2EvolvingItemType@@QAEPAXI@Z 03029910 f i MQ2DataTypes.obj
 0001:00028940       ??_GMQ2DynamicZoneType@@QAEPAXI@Z 03029940 f i MQ2DataTypes.obj
 0001:00028970       ??_GMQ2FriendsType@@QAEPAXI@Z 03029970 f i MQ2DataTypes.obj
 0001:000289a0       ??_GMQ2TargetType@@QAEPAXI@Z 030299a0 f i MQ2DataTypes.obj
 0001:000289d0       _ShutdownMQ2DataTypes      030299d0 f   MQ2DataTypes.obj
 0001:00028f40       ?stristr@Blech@@SAPBDPBD0@Z 03029f40 f i MQ2DataVars.obj
 0001:00029000       ?FreeExecution@Blech@@AAEXPAU_BLECHEXECUTE@@@Z 0302a000 f i MQ2DataVars.obj
 0001:00029050       ?ProcessExecutionList@Blech@@AAEIPAPAU_BLECHEXECUTE@@@Z 0302a050 f i MQ2DataVars.obj
 0001:000290c0       ?QueueEvent@Blech@@AAEXPAPAU_BLECHEXECUTE@@PAU_BLECHEVENT@@PAU_BLECHVALUE@@@Z 0302a0c0 f i MQ2DataVars.obj
 0001:00029150       ?QueueEvents@Blech@@AAEXPAPAU_BLECHEXECUTE@@PAVBlechNode@@PBDI@Z 0302a150 f i MQ2DataVars.obj
 0001:00029600       ?Chew@Blech@@AAEIPAVBlechNode@@PBD@Z 0302a600 f i MQ2DataVars.obj
 0001:000298f0       ??0CDataArray@MQ2Internal@@QAE@PAVMQ2Type@1@PAD1@Z 0302a8f0 f i MQ2DataVars.obj
 0001:00029a00       ?GetElement@CDataArray@MQ2Internal@@QAEHPAD@Z 0302aa00 f i MQ2DataVars.obj
 0001:00029b40       _FindVariableScope         0302ab40 f   MQ2DataVars.obj
 0001:00029bb0       ??0?$allocator@U?$pair@$$CBV?$basic_string@DU?$char_traits@D@std@@V?$allocator@D@2@@std@@PAU_DATAVAR@MQ2Internal@@@std@@@std@@QAE@XZ 0302abb0 f i MQ2DataVars.obj
 0001:00029bc0       ??8const_iterator@?$_Tree@V?$_Tmap_traits@V?$basic_string@DU?$char_traits@D@std@@V?$allocator@D@2@@std@@PAU_DATAVAR@MQ2Internal@@U?$less@V?$basic_string@DU?$char_traits@D@std@@V?$allocator@D@2@@std@@@2@V?$allocator@U?$pair@$$CBV?$basic_string@DU?$char_traits@D@std@@V?$allocator@D@2@@std@@PAU_DATAVAR@MQ2Internal@@@std@@@2@$0A@@std@@@std@@QBE_NABV012@@Z 0302abc0 f i MQ2DataVars.obj
 0001:00029bf0       ?_Mynode@const_iterator@?$_Tree@V?$_Tmap_traits@V?$basic_string@DU?$char_traits@D@std@@V?$allocator@D@2@@std@@PAU_DATAVAR@MQ2Internal@@U?$less@V?$basic_string@DU?$char_traits@D@std@@V?$allocator@D@2@@std@@@2@V?$allocator@U?$pair@$$CBV?$basic_string@DU?$char_traits@D@std@@V?$allocator@D@2@@std@@PAU_DATAVAR@MQ2Internal@@@std@@@2@$0A@@std@@@std@@QBEPAU_Node@?$_Tree_nod@V?$_Tmap_traits@V?$basic_string@DU?$char_traits@D@std@@V?$allocator@D@2@@std@@PAU_DATAVAR@MQ2Internal@@U?$less@V?$basic_string@DU?$char_traits@D@std@@V?$allocator@D@2@@std@@@2@V?$allocator@U?$pair@$$CBV?$basic_string@DU?$char_traits@D@std@@V?$allocator@D@2@@std@@PAU_DATAVAR@MQ2Internal@@@std@@@2@$0A@@std@@@3@XZ 0302abf0 f i MQ2DataVars.obj
 0001:00029c00       ?_Isnil@?$_Tree@V?$_Tmap_traits@V?$basic_string@DU?$char_traits@D@std@@V?$allocator@D@2@@std@@PAU_DATAVAR@MQ2Internal@@U?$less@V?$basic_string@DU?$char_traits@D@std@@V?$allocator@D@2@@std@@@2@V?$allocator@U?$pair@$$CBV?$basic_string@DU?$char_traits@D@std@@V?$allocator@D@2@@std@@PAU_DATAVAR@MQ2Internal@@@std@@@2@$0A@@std@@@std@@KAAADPAU_Node@?$_Tree_nod@V?$_Tmap_traits@V?$basic_string@DU?$char_traits@D@std@@V?$allocator@D@2@@std@@PAU_DATAVAR@MQ2Internal@@U?$less@V?$basic_string@DU?$char_traits@D@std@@V?$allocator@D@2@@std@@@2@V?$allocator@U?$pair@$$CBV?$basic_string@DU?$char_traits@D@std@@V?$allocator@D@2@@std@@PAU_DATAVAR@MQ2Internal@@@std@@@2@$0A@@std@@@2@@Z 0302ac00 f i MQ2DataVars.obj
 0001:00029c10       ?_Left@?$_Tree@V?$_Tmap_traits@V?$basic_string@DU?$char_traits@D@std@@V?$allocator@D@2@@std@@PAU_DATAVAR@MQ2Internal@@U?$less@V?$basic_string@DU?$char_traits@D@std@@V?$allocator@D@2@@std@@@2@V?$allocator@U?$pair@$$CBV?$basic_string@DU?$char_traits@D@std@@V?$allocator@D@2@@std@@PAU_DATAVAR@MQ2Internal@@@std@@@2@$0A@@std@@@std@@KAAAPAU_Node@?$_Tree_nod@V?$_Tmap_traits@V?$basic_string@DU?$char_traits@D@std@@V?$allocator@D@2@@std@@PAU_DATAVAR@MQ2Internal@@U?$less@V?$basic_string@DU?$char_traits@D@std@@V?$allocator@D@2@@std@@@2@V?$allocator@U?$pair@$$CBV?$basic_string@DU?$char_traits@D@std@@V?$allocator@D@2@@std@@PAU_DATAVAR@MQ2Internal@@@std@@@2@$0A@@std@@@2@PAU342@@Z 0302ac10 f i MQ2DataVars.obj
 0001:00029c20       ?_Parent@?$_Tree@V?$_Tmap_traits@V?$basic_string@DU?$char_traits@D@std@@V?$allocator@D@2@@std@@PAU_DATAVAR@MQ2Internal@@U?$less@V?$basic_string@DU?$char_traits@D@std@@V?$allocator@D@2@@std@@@2@V?$allocator@U?$pair@$$CBV?$basic_string@DU?$char_traits@D@std@@V?$allocator@D@2@@std@@PAU_DATAVAR@MQ2Internal@@@std@@@2@$0A@@std@@@std@@KAAAPAU_Node@?$_Tree_nod@V?$_Tmap_traits@V?$basic_string@DU?$char_traits@D@std@@V?$allocator@D@2@@std@@PAU_DATAVAR@MQ2Internal@@U?$less@V?$basic_string@DU?$char_traits@D@std@@V?$allocator@D@2@@std@@@2@V?$allocator@U?$pair@$$CBV?$basic_string@DU?$char_traits@D@std@@V?$allocator@D@2@@std@@PAU_DATAVAR@MQ2Internal@@@std@@@2@$0A@@std@@@2@PAU342@@Z 0302ac20 f i MQ2DataVars.obj
 0001:00029c30       ?_Right@?$_Tree@V?$_Tmap_traits@V?$basic_string@DU?$char_traits@D@std@@V?$allocator@D@2@@std@@PAU_DATAVAR@MQ2Internal@@U?$less@V?$basic_string@DU?$char_traits@D@std@@V?$allocator@D@2@@std@@@2@V?$allocator@U?$pair@$$CBV?$basic_string@DU?$char_traits@D@std@@V?$allocator@D@2@@std@@PAU_DATAVAR@MQ2Internal@@@std@@@2@$0A@@std@@@std@@KAAAPAU_Node@?$_Tree_nod@V?$_Tmap_traits@V?$basic_string@DU?$char_traits@D@std@@V?$allocator@D@2@@std@@PAU_DATAVAR@MQ2Internal@@U?$less@V?$basic_string@DU?$char_traits@D@std@@V?$allocator@D@2@@std@@@2@V?$allocator@U?$pair@$$CBV?$basic_string@DU?$char_traits@D@std@@V?$allocator@D@2@@std@@PAU_DATAVAR@MQ2Internal@@@std@@@2@$0A@@std@@@2@PAU342@@Z 0302ac30 f i MQ2DataVars.obj
 0001:00029c40       ?_Myval@?$_Tree@V?$_Tmap_traits@V?$basic_string@DU?$char_traits@D@std@@V?$allocator@D@2@@std@@PAU_DATAVAR@MQ2Internal@@U?$less@V?$basic_string@DU?$char_traits@D@std@@V?$allocator@D@2@@std@@@2@V?$allocator@U?$pair@$$CBV?$basic_string@DU?$char_traits@D@std@@V?$allocator@D@2@@std@@PAU_DATAVAR@MQ2Internal@@@std@@@2@$0A@@std@@@std@@KAAAU?$pair@$$CBV?$basic_string@DU?$char_traits@D@std@@V?$allocator@D@2@@std@@PAU_DATAVAR@MQ2Internal@@@2@PAU_Node@?$_Tree_nod@V?$_Tmap_traits@V?$basic_string@DU?$char_traits@D@std@@V?$allocator@D@2@@std@@PAU_DATAVAR@MQ2Internal@@U?$less@V?$basic_string@DU?$char_traits@D@std@@V?$allocator@D@2@@std@@@2@V?$allocator@U?$pair@$$CBV?$basic_string@DU?$char_traits@D@std@@V?$allocator@D@2@@std@@PAU_DATAVAR@MQ2Internal@@@std@@@2@$0A@@std@@@2@@Z 0302ac40 f i MQ2DataVars.obj
 0001:00029c50       ?size@?$_Tree@V?$_Tmap_traits@V?$basic_string@DU?$char_traits@D@std@@V?$allocator@D@2@@std@@PAU_DATAVAR@MQ2Internal@@U?$less@V?$basic_string@DU?$char_traits@D@std@@V?$allocator@D@2@@std@@@2@V?$allocator@U?$pair@$$CBV?$basic_string@DU?$char_traits@D@std@@V?$allocator@D@2@@std@@PAU_DATAVAR@MQ2Internal@@@std@@@2@$0A@@std@@@std@@QBEIXZ 0302ac50 f i MQ2DataVars.obj
 0001:00029c60       ?_Rmost@?$_Tree@V?$_Tmap_traits@V?$basic_string@DU?$char_traits@D@std@@V?$allocator@D@2@@std@@PAU_DATAVAR@MQ2Internal@@U?$less@V?$basic_string@DU?$char_traits@D@std@@V?$allocator@D@2@@std@@@2@V?$allocator@U?$pair@$$CBV?$basic_string@DU?$char_traits@D@std@@V?$allocator@D@2@@std@@PAU_DATAVAR@MQ2Internal@@@std@@@2@$0A@@std@@@std@@IBEAAPAU_Node@?$_Tree_nod@V?$_Tmap_traits@V?$basic_string@DU?$char_traits@D@std@@V?$allocator@D@2@@std@@PAU_DATAVAR@MQ2Internal@@U?$less@V?$basic_string@DU?$char_traits@D@std@@V?$allocator@D@2@@std@@@2@V?$allocator@U?$pair@$$CBV?$basic_string@DU?$char_traits@D@std@@V?$allocator@D@2@@std@@PAU_DATAVAR@MQ2Internal@@@std@@@2@$0A@@std@@@2@XZ 0302ac60 f i MQ2DataVars.obj
 0001:00029c70       ?_Kfn@?$_Tmap_traits@V?$basic_string@DU?$char_traits@D@std@@V?$allocator@D@2@@std@@PAU_DATAVAR@MQ2Internal@@U?$less@V?$basic_string@DU?$char_traits@D@std@@V?$allocator@D@2@@std@@@2@V?$allocator@U?$pair@$$CBV?$basic_string@DU?$char_traits@D@std@@V?$allocator@D@2@@std@@PAU_DATAVAR@MQ2Internal@@@std@@@2@$0A@@std@@SAABV?$basic_string@DU?$char_traits@D@std@@V?$allocator@D@2@@2@ABU?$pair@$$CBV?$basic_string@DU?$char_traits@D@std@@V?$allocator@D@2@@std@@PAU_DATAVAR@MQ2Internal@@@2@@Z 0302ac70 f i MQ2DataVars.obj
 0001:00029c80       ??0?$allocator@U?$pair@$$CBV?$basic_string@DU?$char_traits@D@std@@V?$allocator@D@2@@std@@PAU_DATAVAR@MQ2Internal@@@std@@@std@@QAE@ABV01@@Z 0302ac80 f i MQ2DataVars.obj
 0001:00029c90       ?deallocate@?$allocator@U_Node@?$_Tree_nod@V?$_Tmap_traits@V?$basic_string@DU?$char_traits@D@std@@V?$allocator@D@2@@std@@PAU_DATAVAR@MQ2Internal@@U?$less@V?$basic_string@DU?$char_traits@D@std@@V?$allocator@D@2@@std@@@2@V?$allocator@U?$pair@$$CBV?$basic_string@DU?$char_traits@D@std@@V?$allocator@D@2@@std@@PAU_DATAVAR@MQ2Internal@@@std@@@2@$0A@@std@@@std@@@std@@QAEXPAU_Node@?$_Tree_nod@V?$_Tmap_traits@V?$basic_string@DU?$char_traits@D@std@@V?$allocator@D@2@@std@@PAU_DATAVAR@MQ2Internal@@U?$less@V?$basic_string@DU?$char_traits@D@std@@V?$allocator@D@2@@std@@@2@V?$allocator@U?$pair@$$CBV?$basic_string@DU?$char_traits@D@std@@V?$allocator@D@2@@std@@PAU_DATAVAR@MQ2Internal@@@std@@@2@$0A@@std@@@2@I@Z 0302ac90 f i MQ2DataVars.obj
 0001:00029ca0       ??Dconst_iterator@?$_Tree@V?$_Tmap_traits@V?$basic_string@DU?$char_traits@D@std@@V?$allocator@D@2@@std@@PAU_DATAVAR@MQ2Internal@@U?$less@V?$basic_string@DU?$char_traits@D@std@@V?$allocator@D@2@@std@@@2@V?$allocator@U?$pair@$$CBV?$basic_string@DU?$char_traits@D@std@@V?$allocator@D@2@@std@@PAU_DATAVAR@MQ2Internal@@@std@@@2@$0A@@std@@@std@@QBEABU?$pair@$$CBV?$basic_string@DU?$char_traits@D@std@@V?$allocator@D@2@@std@@PAU_DATAVAR@MQ2Internal@@@2@XZ 0302aca0 f i MQ2DataVars.obj
 0001:00029cd0       ??0?$_Iterator_with_base@Ubidirectional_iterator_tag@std@@U?$pair@$$CBV?$basic_string@DU?$char_traits@D@std@@V?$allocator@D@2@@std@@PAU_DATAVAR@MQ2Internal@@@2@HPBU32@ABU32@V_Iterator_base_aux@2@@std@@QAE@XZ 0302acd0 f i MQ2DataVars.obj
 0001:00029ce0       ?_Color@?$_Tree@V?$_Tmap_traits@V?$basic_string@DU?$char_traits@D@std@@V?$allocator@D@2@@std@@PAU_DATAVAR@MQ2Internal@@U?$less@V?$basic_string@DU?$char_traits@D@std@@V?$allocator@D@2@@std@@@2@V?$allocator@U?$pair@$$CBV?$basic_string@DU?$char_traits@D@std@@V?$allocator@D@2@@std@@PAU_DATAVAR@MQ2Internal@@@std@@@2@$0A@@std@@@std@@KAAADPAU_Node@?$_Tree_nod@V?$_Tmap_traits@V?$basic_string@DU?$char_traits@D@std@@V?$allocator@D@2@@std@@PAU_DATAVAR@MQ2Internal@@U?$less@V?$basic_string@DU?$char_traits@D@std@@V?$allocator@D@2@@std@@@2@V?$allocator@U?$pair@$$CBV?$basic_string@DU?$char_traits@D@std@@V?$allocator@D@2@@std@@PAU_DATAVAR@MQ2Internal@@@std@@@2@$0A@@std@@@2@@Z 0302ace0 f i MQ2DataVars.obj
 0001:00029cf0       ?_Lmost@?$_Tree@V?$_Tmap_traits@V?$basic_string@DU?$char_traits@D@std@@V?$allocator@D@2@@std@@PAU_DATAVAR@MQ2Internal@@U?$less@V?$basic_string@DU?$char_traits@D@std@@V?$allocator@D@2@@std@@@2@V?$allocator@U?$pair@$$CBV?$basic_string@DU?$char_traits@D@std@@V?$allocator@D@2@@std@@PAU_DATAVAR@MQ2Internal@@@std@@@2@$0A@@std@@@std@@IBEAAPAU_Node@?$_Tree_nod@V?$_Tmap_traits@V?$basic_string@DU?$char_traits@D@std@@V?$allocator@D@2@@std@@PAU_DATAVAR@MQ2Internal@@U?$less@V?$basic_string@DU?$char_traits@D@std@@V?$allocator@D@2@@std@@@2@V?$allocator@U?$pair@$$CBV?$basic_string@DU?$char_traits@D@std@@V?$allocator@D@2@@std@@PAU_DATAVAR@MQ2Internal@@@std@@@2@$0A@@std@@@2@XZ 0302acf0 f i MQ2DataVars.obj
 0001:00029d00       ?_Root@?$_Tree@V?$_Tmap_traits@V?$basic_string@DU?$char_traits@D@std@@V?$allocator@D@2@@std@@PAU_DATAVAR@MQ2Internal@@U?$less@V?$basic_string@DU?$char_traits@D@std@@V?$allocator@D@2@@std@@@2@V?$allocator@U?$pair@$$CBV?$basic_string@DU?$char_traits@D@std@@V?$allocator@D@2@@std@@PAU_DATAVAR@MQ2Internal@@@std@@@2@$0A@@std@@@std@@IBEAAPAU_Node@?$_Tree_nod@V?$_Tmap_traits@V?$basic_string@DU?$char_traits@D@std@@V?$allocator@D@2@@std@@PAU_DATAVAR@MQ2Internal@@U?$less@V?$basic_string@DU?$char_traits@D@std@@V?$allocator@D@2@@std@@@2@V?$allocator@U?$pair@$$CBV?$basic_string@DU?$char_traits@D@std@@V?$allocator@D@2@@std@@PAU_DATAVAR@MQ2Internal@@@std@@@2@$0A@@std@@@2@XZ 0302ad00 f i MQ2DataVars.obj
 0001:00029d10       ?_Rrotate@?$_Tree@V?$_Tmap_traits@V?$basic_string@DU?$char_traits@D@std@@V?$allocator@D@2@@std@@PAU_DATAVAR@MQ2Internal@@U?$less@V?$basic_string@DU?$char_traits@D@std@@V?$allocator@D@2@@std@@@2@V?$allocator@U?$pair@$$CBV?$basic_string@DU?$char_traits@D@std@@V?$allocator@D@2@@std@@PAU_DATAVAR@MQ2Internal@@@std@@@2@$0A@@std@@@std@@IAEXPAU_Node@?$_Tree_nod@V?$_Tmap_traits@V?$basic_string@DU?$char_traits@D@std@@V?$allocator@D@2@@std@@PAU_DATAVAR@MQ2Internal@@U?$less@V?$basic_string@DU?$char_traits@D@std@@V?$allocator@D@2@@std@@@2@V?$allocator@U?$pair@$$CBV?$basic_string@DU?$char_traits@D@std@@V?$allocator@D@2@@std@@PAU_DATAVAR@MQ2Internal@@@std@@@2@$0A@@std@@@2@@Z 0302ad10 f i MQ2DataVars.obj
 0001:00029d70       ??9const_iterator@?$_Tree@V?$_Tmap_traits@V?$basic_string@DU?$char_traits@D@std@@V?$allocator@D@2@@std@@PAU_DATAVAR@MQ2Internal@@U?$less@V?$basic_string@DU?$char_traits@D@std@@V?$allocator@D@2@@std@@@2@V?$allocator@U?$pair@$$CBV?$basic_string@DU?$char_traits@D@std@@V?$allocator@D@2@@std@@PAU_DATAVAR@MQ2Internal@@@std@@@2@$0A@@std@@@std@@QBE_NABV012@@Z 0302ad70 f i MQ2DataVars.obj
 0001:00029da0       ??0?$pair@Viterator@?$_Tree@V?$_Tmap_traits@V?$basic_string@DU?$char_traits@D@std@@V?$allocator@D@2@@std@@PAU_DATAVAR@MQ2Internal@@U?$less@V?$basic_string@DU?$char_traits@D@std@@V?$allocator@D@2@@std@@@2@V?$allocator@U?$pair@$$CBV?$basic_string@DU?$char_traits@D@std@@V?$allocator@D@2@@std@@PAU_DATAVAR@MQ2Internal@@@std@@@2@$0A@@std@@@std@@_N@std@@QAE@ABViterator@?$_Tree@V?$_Tmap_traits@V?$basic_string@DU?$char_traits@D@std@@V?$allocator@D@2@@std@@PAU_DATAVAR@MQ2Internal@@U?$less@V?$basic_string@DU?$char_traits@D@std@@V?$allocator@D@2@@std@@@2@V?$allocator@U?$pair@$$CBV?$basic_string@DU?$char_traits@D@std@@V?$allocator@D@2@@std@@PAU_DATAVAR@MQ2Internal@@@std@@@2@$0A@@std@@@1@AB_N@Z 0302ada0 f i MQ2DataVars.obj
 0001:00029dc0       ?_Max@?$_Tree@V?$_Tmap_traits@V?$basic_string@DU?$char_traits@D@std@@V?$allocator@D@2@@std@@PAU_DATAVAR@MQ2Internal@@U?$less@V?$basic_string@DU?$char_traits@D@std@@V?$allocator@D@2@@std@@@2@V?$allocator@U?$pair@$$CBV?$basic_string@DU?$char_traits@D@std@@V?$allocator@D@2@@std@@PAU_DATAVAR@MQ2Internal@@@std@@@2@$0A@@std@@@std@@KAPAU_Node@?$_Tree_nod@V?$_Tmap_traits@V?$basic_string@DU?$char_traits@D@std@@V?$allocator@D@2@@std@@PAU_DATAVAR@MQ2Internal@@U?$less@V?$basic_string@DU?$char_traits@D@std@@V?$allocator@D@2@@std@@@2@V?$allocator@U?$pair@$$CBV?$basic_string@DU?$char_traits@D@std@@V?$allocator@D@2@@std@@PAU_DATAVAR@MQ2Internal@@@std@@@2@$0A@@std@@@2@PAU342@@Z 0302adc0 f i MQ2DataVars.obj
 0001:00029de0       ?_Min@?$_Tree@V?$_Tmap_traits@V?$basic_string@DU?$char_traits@D@std@@V?$allocator@D@2@@std@@PAU_DATAVAR@MQ2Internal@@U?$less@V?$basic_string@DU?$char_traits@D@std@@V?$allocator@D@2@@std@@@2@V?$allocator@U?$pair@$$CBV?$basic_string@DU?$char_traits@D@std@@V?$allocator@D@2@@std@@PAU_DATAVAR@MQ2Internal@@@std@@@2@$0A@@std@@@std@@KAPAU_Node@?$_Tree_nod@V?$_Tmap_traits@V?$basic_string@DU?$char_traits@D@std@@V?$allocator@D@2@@std@@PAU_DATAVAR@MQ2Internal@@U?$less@V?$basic_string@DU?$char_traits@D@std@@V?$allocator@D@2@@std@@@2@V?$allocator@U?$pair@$$CBV?$basic_string@DU?$char_traits@D@std@@V?$allocator@D@2@@std@@PAU_DATAVAR@MQ2Internal@@@std@@@2@$0A@@std@@@2@PAU342@@Z 0302ade0 f i MQ2DataVars.obj
 0001:00029e00       ?max_size@?$allocator@U?$pair@$$CBV?$basic_string@DU?$char_traits@D@std@@V?$allocator@D@2@@std@@PAU_DATAVAR@MQ2Internal@@@std@@@std@@QBEIXZ 0302ae00 f i MQ2DataVars.obj
 0001:00029e10       ??$_Destroy@PAU_Node@?$_Tree_nod@V?$_Tmap_traits@V?$basic_string@DU?$char_traits@D@std@@V?$allocator@D@2@@std@@PAU_DATAVAR@MQ2Internal@@U?$less@V?$basic_string@DU?$char_traits@D@std@@V?$allocator@D@2@@std@@@2@V?$allocator@U?$pair@$$CBV?$basic_string@DU?$char_traits@D@std@@V?$allocator@D@2@@std@@PAU_DATAVAR@MQ2Internal@@@std@@@2@$0A@@std@@@std@@@std@@YAXPAPAU_Node@?$_Tree_nod@V?$_Tmap_traits@V?$basic_string@DU?$char_traits@D@std@@V?$allocator@D@2@@std@@PAU_DATAVAR@MQ2Internal@@U?$less@V?$basic_string@DU?$char_traits@D@std@@V?$allocator@D@2@@std@@@2@V?$allocator@U?$pair@$$CBV?$basic_string@DU?$char_traits@D@std@@V?$allocator@D@2@@std@@PAU_DATAVAR@MQ2Internal@@@std@@@2@$0A@@std@@@0@@Z 0302ae10 f i MQ2DataVars.obj
 0001:00029e20       ??$?0U?$pair@$$CBV?$basic_string@DU?$char_traits@D@std@@V?$allocator@D@2@@std@@PAU_DATAVAR@MQ2Internal@@@std@@@?$allocator@PAU_Node@?$_Tree_nod@V?$_Tmap_traits@V?$basic_string@DU?$char_traits@D@std@@V?$allocator@D@2@@std@@PAU_DATAVAR@MQ2Internal@@U?$less@V?$basic_string@DU?$char_traits@D@std@@V?$allocator@D@2@@std@@@2@V?$allocator@U?$pair@$$CBV?$basic_string@DU?$char_traits@D@std@@V?$allocator@D@2@@std@@PAU_DATAVAR@MQ2Internal@@@std@@@2@$0A@@std@@@std@@@std@@QAE@ABV?$allocator@U?$pair@$$CBV?$basic_string@DU?$char_traits@D@std@@V?$allocator@D@2@@std@@PAU_DATAVAR@MQ2Internal@@@std@@@1@@Z 0302ae20 f i MQ2DataVars.obj
 0001:00029e30       ??$?0U?$pair@$$CBV?$basic_string@DU?$char_traits@D@std@@V?$allocator@D@2@@std@@PAU_DATAVAR@MQ2Internal@@@std@@@?$allocator@U_Node@?$_Tree_nod@V?$_Tmap_traits@V?$basic_string@DU?$char_traits@D@std@@V?$allocator@D@2@@std@@PAU_DATAVAR@MQ2Internal@@U?$less@V?$basic_string@DU?$char_traits@D@std@@V?$allocator@D@2@@std@@@2@V?$allocator@U?$pair@$$CBV?$basic_string@DU?$char_traits@D@std@@V?$allocator@D@2@@std@@PAU_DATAVAR@MQ2Internal@@@std@@@2@$0A@@std@@@std@@@std@@QAE@ABV?$allocator@U?$pair@$$CBV?$basic_string@DU?$char_traits@D@std@@V?$allocator@D@2@@std@@PAU_DATAVAR@MQ2Internal@@@std@@@1@@Z 0302ae30 f i MQ2DataVars.obj
 0001:00029e40       ??$_Allocate@U_Node@?$_Tree_nod@V?$_Tmap_traits@V?$basic_string@DU?$char_traits@D@std@@V?$allocator@D@2@@std@@PAU_DATAVAR@MQ2Internal@@U?$less@V?$basic_string@DU?$char_traits@D@std@@V?$allocator@D@2@@std@@@2@V?$allocator@U?$pair@$$CBV?$basic_string@DU?$char_traits@D@std@@V?$allocator@D@2@@std@@PAU_DATAVAR@MQ2Internal@@@std@@@2@$0A@@std@@@std@@@std@@YAPAU_Node@?$_Tree_nod@V?$_Tmap_traits@V?$basic_string@DU?$char_traits@D@std@@V?$allocator@D@2@@std@@PAU_DATAVAR@MQ2Internal@@U?$less@V?$basic_string@DU?$char_traits@D@std@@V?$allocator@D@2@@std@@@2@V?$allocator@U?$pair@$$CBV?$basic_string@DU?$char_traits@D@std@@V?$allocator@D@2@@std@@PAU_DATAVAR@MQ2Internal@@@std@@@2@$0A@@std@@@0@IPAU120@@Z 0302ae40 f i MQ2DataVars.obj
 0001:00029ea0       ??$_Construct@PAU_Node@?$_Tree_nod@V?$_Tmap_traits@V?$basic_string@DU?$char_traits@D@std@@V?$allocator@D@2@@std@@PAU_DATAVAR@MQ2Internal@@U?$less@V?$basic_string@DU?$char_traits@D@std@@V?$allocator@D@2@@std@@@2@V?$allocator@U?$pair@$$CBV?$basic_string@DU?$char_traits@D@std@@V?$allocator@D@2@@std@@PAU_DATAVAR@MQ2Internal@@@std@@@2@$0A@@std@@@std@@PAU123@@std@@YAXPAPAU_Node@?$_Tree_nod@V?$_Tmap_traits@V?$basic_string@DU?$char_traits@D@std@@V?$allocator@D@2@@std@@PAU_DATAVAR@MQ2Internal@@U?$less@V?$basic_string@DU?$char_traits@D@std@@V?$allocator@D@2@@std@@@2@V?$allocator@U?$pair@$$CBV?$basic_string@DU?$char_traits@D@std@@V?$allocator@D@2@@std@@PAU_DATAVAR@MQ2Internal@@@std@@@2@$0A@@std@@@0@ABQAU120@@Z 0302aea0 f i MQ2DataVars.obj
 0001:00029ec0       ??$?0U?$pair@$$CBV?$basic_string@DU?$char_traits@D@std@@V?$allocator@D@2@@std@@PAU_DATAVAR@MQ2Internal@@@std@@@?$allocator@V_Aux_cont@std@@@std@@QAE@ABV?$allocator@U?$pair@$$CBV?$basic_string@DU?$char_traits@D@std@@V?$allocator@D@2@@std@@PAU_DATAVAR@MQ2Internal@@@std@@@1@@Z 0302aec0 f i MQ2DataVars.obj
 0001:00029ed0       ?Feed@Blech@@QAEIPBD@Z     0302aed0 f i MQ2DataVars.obj
 0001:00029f20       ?_Key@?$_Tree@V?$_Tmap_traits@V?$basic_string@DU?$char_traits@D@std@@V?$allocator@D@2@@std@@PAU_DATAVAR@MQ2Internal@@U?$less@V?$basic_string@DU?$char_traits@D@std@@V?$allocator@D@2@@std@@@2@V?$allocator@U?$pair@$$CBV?$basic_string@DU?$char_traits@D@std@@V?$allocator@D@2@@std@@PAU_DATAVAR@MQ2Internal@@@std@@@2@$0A@@std@@@std@@KAABV?$basic_string@DU?$char_traits@D@std@@V?$allocator@D@2@@2@PAU_Node@?$_Tree_nod@V?$_Tmap_traits@V?$basic_string@DU?$char_traits@D@std@@V?$allocator@D@2@@std@@PAU_DATAVAR@MQ2Internal@@U?$less@V?$basic_string@DU?$char_traits@D@std@@V?$allocator@D@2@@std@@@2@V?$allocator@U?$pair@$$CBV?$basic_string@DU?$char_traits@D@std@@V?$allocator@D@2@@std@@PAU_DATAVAR@MQ2Internal@@@std@@@2@$0A@@std@@@2@@Z 0302af20 f i MQ2DataVars.obj
 0001:00029f30       ??1?$_Container_base_aux_alloc_real@V?$allocator@U?$pair@$$CBV?$basic_string@DU?$char_traits@D@std@@V?$allocator@D@2@@std@@PAU_DATAVAR@MQ2Internal@@@std@@@std@@@std@@IAE@XZ 0302af30 f i MQ2DataVars.obj
 0001:00029f40       ??Diterator@?$_Tree@V?$_Tmap_traits@V?$basic_string@DU?$char_traits@D@std@@V?$allocator@D@2@@std@@PAU_DATAVAR@MQ2Internal@@U?$less@V?$basic_string@DU?$char_traits@D@std@@V?$allocator@D@2@@std@@@2@V?$allocator@U?$pair@$$CBV?$basic_string@DU?$char_traits@D@std@@V?$allocator@D@2@@std@@PAU_DATAVAR@MQ2Internal@@@std@@@2@$0A@@std@@@std@@QBEAAU?$pair@$$CBV?$basic_string@DU?$char_traits@D@std@@V?$allocator@D@2@@std@@PAU_DATAVAR@MQ2Internal@@@2@XZ 0302af40 f i MQ2DataVars.obj
 0001:00029f70       ?destroy@?$allocator@PAU_Node@?$_Tree_nod@V?$_Tmap_traits@V?$basic_string@DU?$char_traits@D@std@@V?$allocator@D@2@@std@@PAU_DATAVAR@MQ2Internal@@U?$less@V?$basic_string@DU?$char_traits@D@std@@V?$allocator@D@2@@std@@@2@V?$allocator@U?$pair@$$CBV?$basic_string@DU?$char_traits@D@std@@V?$allocator@D@2@@std@@PAU_DATAVAR@MQ2Internal@@@std@@@2@$0A@@std@@@std@@@std@@QAEXPAPAU_Node@?$_Tree_nod@V?$_Tmap_traits@V?$basic_string@DU?$char_traits@D@std@@V?$allocator@D@2@@std@@PAU_DATAVAR@MQ2Internal@@U?$less@V?$basic_string@DU?$char_traits@D@std@@V?$allocator@D@2@@std@@@2@V?$allocator@U?$pair@$$CBV?$basic_string@DU?$char_traits@D@std@@V?$allocator@D@2@@std@@PAU_DATAVAR@MQ2Internal@@@std@@@2@$0A@@std@@@2@@Z 0302af70 f i MQ2DataVars.obj
 0001:00029f80       ??0?$_Bidit@U?$pair@$$CBV?$basic_string@DU?$char_traits@D@std@@V?$allocator@D@2@@std@@PAU_DATAVAR@MQ2Internal@@@std@@HPBU12@ABU12@@std@@QAE@XZ 0302af80 f i MQ2DataVars.obj
 0001:00029f90       ?max_size@?$_Tree@V?$_Tmap_traits@V?$basic_string@DU?$char_traits@D@std@@V?$allocator@D@2@@std@@PAU_DATAVAR@MQ2Internal@@U?$less@V?$basic_string@DU?$char_traits@D@std@@V?$allocator@D@2@@std@@@2@V?$allocator@U?$pair@$$CBV?$basic_string@DU?$char_traits@D@std@@V?$allocator@D@2@@std@@PAU_DATAVAR@MQ2Internal@@@std@@@2@$0A@@std@@@std@@QBEIXZ 0302af90 f i MQ2DataVars.obj
 0001:00029fa0       ?_Lrotate@?$_Tree@V?$_Tmap_traits@V?$basic_string@DU?$char_traits@D@std@@V?$allocator@D@2@@std@@PAU_DATAVAR@MQ2Internal@@U?$less@V?$basic_string@DU?$char_traits@D@std@@V?$allocator@D@2@@std@@@2@V?$allocator@U?$pair@$$CBV?$basic_string@DU?$char_traits@D@std@@V?$allocator@D@2@@std@@PAU_DATAVAR@MQ2Internal@@@std@@@2@$0A@@std@@@std@@IAEXPAU_Node@?$_Tree_nod@V?$_Tmap_traits@V?$basic_string@DU?$char_traits@D@std@@V?$allocator@D@2@@std@@PAU_DATAVAR@MQ2Internal@@U?$less@V?$basic_string@DU?$char_traits@D@std@@V?$allocator@D@2@@std@@@2@V?$allocator@U?$pair@$$CBV?$basic_string@DU?$char_traits@D@std@@V?$allocator@D@2@@std@@PAU_DATAVAR@MQ2Internal@@@std@@@2@$0A@@std@@@2@@Z 0302afa0 f i MQ2DataVars.obj
 0001:00029ff0       ??0const_iterator@?$_Tree@V?$_Tmap_traits@V?$basic_string@DU?$char_traits@D@std@@V?$allocator@D@2@@std@@PAU_DATAVAR@MQ2Internal@@U?$less@V?$basic_string@DU?$char_traits@D@std@@V?$allocator@D@2@@std@@@2@V?$allocator@U?$pair@$$CBV?$basic_string@DU?$char_traits@D@std@@V?$allocator@D@2@@std@@PAU_DATAVAR@MQ2Internal@@@std@@@2@$0A@@std@@@std@@QAE@PAU_Node@?$_Tree_nod@V?$_Tmap_traits@V?$basic_string@DU?$char_traits@D@std@@V?$allocator@D@2@@std@@PAU_DATAVAR@MQ2Internal@@U?$less@V?$basic_string@DU?$char_traits@D@std@@V?$allocator@D@2@@std@@@2@V?$allocator@U?$pair@$$CBV?$basic_string@DU?$char_traits@D@std@@V?$allocator@D@2@@std@@PAU_DATAVAR@MQ2Internal@@@std@@@2@$0A@@std@@@2@PBV12@@Z 0302aff0 f i MQ2DataVars.obj
 0001:0002a020       ?_Dec@const_iterator@?$_Tree@V?$_Tmap_traits@V?$basic_string@DU?$char_traits@D@std@@V?$allocator@D@2@@std@@PAU_DATAVAR@MQ2Internal@@U?$less@V?$basic_string@DU?$char_traits@D@std@@V?$allocator@D@2@@std@@@2@V?$allocator@U?$pair@$$CBV?$basic_string@DU?$char_traits@D@std@@V?$allocator@D@2@@std@@PAU_DATAVAR@MQ2Internal@@@std@@@2@$0A@@std@@@std@@QAEXXZ 0302b020 f i MQ2DataVars.obj
 0001:0002a0b0       ?_Inc@const_iterator@?$_Tree@V?$_Tmap_traits@V?$basic_string@DU?$char_traits@D@std@@V?$allocator@D@2@@std@@PAU_DATAVAR@MQ2Internal@@U?$less@V?$basic_string@DU?$char_traits@D@std@@V?$allocator@D@2@@std@@@2@V?$allocator@U?$pair@$$CBV?$basic_string@DU?$char_traits@D@std@@V?$allocator@D@2@@std@@PAU_DATAVAR@MQ2Internal@@@std@@@2@$0A@@std@@@std@@QAEXXZ 0302b0b0 f i MQ2DataVars.obj
 0001:0002a120       ?allocate@?$allocator@U_Node@?$_Tree_nod@V?$_Tmap_traits@V?$basic_string@DU?$char_traits@D@std@@V?$allocator@D@2@@std@@PAU_DATAVAR@MQ2Internal@@U?$less@V?$basic_string@DU?$char_traits@D@std@@V?$allocator@D@2@@std@@@2@V?$allocator@U?$pair@$$CBV?$basic_string@DU?$char_traits@D@std@@V?$allocator@D@2@@std@@PAU_DATAVAR@MQ2Internal@@@std@@@2@$0A@@std@@@std@@@std@@QAEPAU_Node@?$_Tree_nod@V?$_Tmap_traits@V?$basic_string@DU?$char_traits@D@std@@V?$allocator@D@2@@std@@PAU_DATAVAR@MQ2Internal@@U?$less@V?$basic_string@DU?$char_traits@D@std@@V?$allocator@D@2@@std@@@2@V?$allocator@U?$pair@$$CBV?$basic_string@DU?$char_traits@D@std@@V?$allocator@D@2@@std@@PAU_DATAVAR@MQ2Internal@@@std@@@2@$0A@@std@@@2@I@Z 0302b120 f i MQ2DataVars.obj
 0001:0002a140       ?construct@?$allocator@PAU_Node@?$_Tree_nod@V?$_Tmap_traits@V?$basic_string@DU?$char_traits@D@std@@V?$allocator@D@2@@std@@PAU_DATAVAR@MQ2Internal@@U?$less@V?$basic_string@DU?$char_traits@D@std@@V?$allocator@D@2@@std@@@2@V?$allocator@U?$pair@$$CBV?$basic_string@DU?$char_traits@D@std@@V?$allocator@D@2@@std@@PAU_DATAVAR@MQ2Internal@@@std@@@2@$0A@@std@@@std@@@std@@QAEXPAPAU_Node@?$_Tree_nod@V?$_Tmap_traits@V?$basic_string@DU?$char_traits@D@std@@V?$allocator@D@2@@std@@PAU_DATAVAR@MQ2Internal@@U?$less@V?$basic_string@DU?$char_traits@D@std@@V?$allocator@D@2@@std@@@2@V?$allocator@U?$pair@$$CBV?$basic_string@DU?$char_traits@D@std@@V?$allocator@D@2@@std@@PAU_DATAVAR@MQ2Internal@@@std@@@2@$0A@@std@@@2@ABQAU342@@Z 0302b140 f i MQ2DataVars.obj
 0001:0002a160       ??1?$_Tmap_traits@V?$basic_string@DU?$char_traits@D@std@@V?$allocator@D@2@@std@@PAU_DATAVAR@MQ2Internal@@U?$less@V?$basic_string@DU?$char_traits@D@std@@V?$allocator@D@2@@std@@@2@V?$allocator@U?$pair@$$CBV?$basic_string@DU?$char_traits@D@std@@V?$allocator@D@2@@std@@PAU_DATAVAR@MQ2Internal@@@std@@@2@$0A@@std@@QAE@XZ 0302b160 f i MQ2DataVars.obj
 0001:0002a170       ??0iterator@?$_Tree@V?$_Tmap_traits@V?$basic_string@DU?$char_traits@D@std@@V?$allocator@D@2@@std@@PAU_DATAVAR@MQ2Internal@@U?$less@V?$basic_string@DU?$char_traits@D@std@@V?$allocator@D@2@@std@@@2@V?$allocator@U?$pair@$$CBV?$basic_string@DU?$char_traits@D@std@@V?$allocator@D@2@@std@@PAU_DATAVAR@MQ2Internal@@@std@@@2@$0A@@std@@@std@@QAE@PAU_Node@?$_Tree_nod@V?$_Tmap_traits@V?$basic_string@DU?$char_traits@D@std@@V?$allocator@D@2@@std@@PAU_DATAVAR@MQ2Internal@@U?$less@V?$basic_string@DU?$char_traits@D@std@@V?$allocator@D@2@@std@@@2@V?$allocator@U?$pair@$$CBV?$basic_string@DU?$char_traits@D@std@@V?$allocator@D@2@@std@@PAU_DATAVAR@MQ2Internal@@@std@@@2@$0A@@std@@@2@PBV12@@Z 0302b170 f i MQ2DataVars.obj
 0001:0002a1a0       ??0const_iterator@?$_Tree@V?$_Tmap_traits@V?$basic_string@DU?$char_traits@D@std@@V?$allocator@D@2@@std@@PAU_DATAVAR@MQ2Internal@@U?$less@V?$basic_string@DU?$char_traits@D@std@@V?$allocator@D@2@@std@@@2@V?$allocator@U?$pair@$$CBV?$basic_string@DU?$char_traits@D@std@@V?$allocator@D@2@@std@@PAU_DATAVAR@MQ2Internal@@@std@@@2@$0A@@std@@@std@@QAE@XZ 0302b1a0 f i MQ2DataVars.obj
 0001:0002a1b0       ??Econst_iterator@?$_Tree@V?$_Tmap_traits@V?$basic_string@DU?$char_traits@D@std@@V?$allocator@D@2@@std@@PAU_DATAVAR@MQ2Internal@@U?$less@V?$basic_string@DU?$char_traits@D@std@@V?$allocator@D@2@@std@@@2@V?$allocator@U?$pair@$$CBV?$basic_string@DU?$char_traits@D@std@@V?$allocator@D@2@@std@@PAU_DATAVAR@MQ2Internal@@@std@@@2@$0A@@std@@@std@@QAEAAV012@XZ 0302b1b0 f i MQ2DataVars.obj
 0001:0002a1c0       ??Fconst_iterator@?$_Tree@V?$_Tmap_traits@V?$basic_string@DU?$char_traits@D@std@@V?$allocator@D@2@@std@@PAU_DATAVAR@MQ2Internal@@U?$less@V?$basic_string@DU?$char_traits@D@std@@V?$allocator@D@2@@std@@@2@V?$allocator@U?$pair@$$CBV?$basic_string@DU?$char_traits@D@std@@V?$allocator@D@2@@std@@PAU_DATAVAR@MQ2Internal@@@std@@@2@$0A@@std@@@std@@QAEAAV012@XZ 0302b1c0 f i MQ2DataVars.obj
 0001:0002a1d0       ?_Make_iter@?$_Tree@V?$_Tmap_traits@V?$basic_string@DU?$char_traits@D@std@@V?$allocator@D@2@@std@@PAU_DATAVAR@MQ2Internal@@U?$less@V?$basic_string@DU?$char_traits@D@std@@V?$allocator@D@2@@std@@@2@V?$allocator@U?$pair@$$CBV?$basic_string@DU?$char_traits@D@std@@V?$allocator@D@2@@std@@PAU_DATAVAR@MQ2Internal@@@std@@@2@$0A@@std@@@std@@QBE?AViterator@12@Vconst_iterator@12@@Z 0302b1d0 f i MQ2DataVars.obj
 0001:0002a200       ?_Buynode@?$_Tree@V?$_Tmap_traits@V?$basic_string@DU?$char_traits@D@std@@V?$allocator@D@2@@std@@PAU_DATAVAR@MQ2Internal@@U?$less@V?$basic_string@DU?$char_traits@D@std@@V?$allocator@D@2@@std@@@2@V?$allocator@U?$pair@$$CBV?$basic_string@DU?$char_traits@D@std@@V?$allocator@D@2@@std@@PAU_DATAVAR@MQ2Internal@@@std@@@2@$0A@@std@@@std@@IAEPAU_Node@?$_Tree_nod@V?$_Tmap_traits@V?$basic_string@DU?$char_traits@D@std@@V?$allocator@D@2@@std@@PAU_DATAVAR@MQ2Internal@@U?$less@V?$basic_string@DU?$char_traits@D@std@@V?$allocator@D@2@@std@@@2@V?$allocator@U?$pair@$$CBV?$basic_string@DU?$char_traits@D@std@@V?$allocator@D@2@@std@@PAU_DATAVAR@MQ2Internal@@@std@@@2@$0A@@std@@@2@XZ 0302b200 f i MQ2DataVars.obj
 0001:0002a2a0       ??Fiterator@?$_Tree@V?$_Tmap_traits@V?$basic_string@DU?$char_traits@D@std@@V?$allocator@D@2@@std@@PAU_DATAVAR@MQ2Internal@@U?$less@V?$basic_string@DU?$char_traits@D@std@@V?$allocator@D@2@@std@@@2@V?$allocator@U?$pair@$$CBV?$basic_string@DU?$char_traits@D@std@@V?$allocator@D@2@@std@@PAU_DATAVAR@MQ2Internal@@@std@@@2@$0A@@std@@@std@@QAEAAV012@XZ 0302b2a0 f i MQ2DataVars.obj
 0001:0002a2b0       ??Econst_iterator@?$_Tree@V?$_Tmap_traits@V?$basic_string@DU?$char_traits@D@std@@V?$allocator@D@2@@std@@PAU_DATAVAR@MQ2Internal@@U?$less@V?$basic_string@DU?$char_traits@D@std@@V?$allocator@D@2@@std@@@2@V?$allocator@U?$pair@$$CBV?$basic_string@DU?$char_traits@D@std@@V?$allocator@D@2@@std@@PAU_DATAVAR@MQ2Internal@@@std@@@2@$0A@@std@@@std@@QAE?AV012@H@Z 0302b2b0 f i MQ2DataVars.obj
 0001:0002a2d0       ??0?$_Container_base_aux_alloc_real@V?$allocator@U?$pair@$$CBV?$basic_string@DU?$char_traits@D@std@@V?$allocator@D@2@@std@@PAU_DATAVAR@MQ2Internal@@@std@@@std@@@std@@IAE@V?$allocator@U?$pair@$$CBV?$basic_string@DU?$char_traits@D@std@@V?$allocator@D@2@@std@@PAU_DATAVAR@MQ2Internal@@@std@@@1@@Z 0302b2d0 f i MQ2DataVars.obj
 0001:0002a300       ??1?$pair@$$CBV?$basic_string@DU?$char_traits@D@std@@V?$allocator@D@2@@std@@PAU_DATAVAR@MQ2Internal@@@std@@QAE@XZ 0302b300 f i MQ2DataVars.obj
 0001:0002a330       ??1?$_Tree_nod@V?$_Tmap_traits@V?$basic_string@DU?$char_traits@D@std@@V?$allocator@D@2@@std@@PAU_DATAVAR@MQ2Internal@@U?$less@V?$basic_string@DU?$char_traits@D@std@@V?$allocator@D@2@@std@@@2@V?$allocator@U?$pair@$$CBV?$basic_string@DU?$char_traits@D@std@@V?$allocator@D@2@@std@@PAU_DATAVAR@MQ2Internal@@@std@@@2@$0A@@std@@@std@@QAE@XZ 0302b330 f i MQ2DataVars.obj
 0001:0002a340       ?end@?$_Tree@V?$_Tmap_traits@V?$basic_string@DU?$char_traits@D@std@@V?$allocator@D@2@@std@@PAU_DATAVAR@MQ2Internal@@U?$less@V?$basic_string@DU?$char_traits@D@std@@V?$allocator@D@2@@std@@@2@V?$allocator@U?$pair@$$CBV?$basic_string@DU?$char_traits@D@std@@V?$allocator@D@2@@std@@PAU_DATAVAR@MQ2Internal@@@std@@@2@$0A@@std@@@std@@QAE?AViterator@12@XZ 0302b340 f i MQ2DataVars.obj
 0001:0002a360       ?begin@?$_Tree@V?$_Tmap_traits@V?$basic_string@DU?$char_traits@D@std@@V?$allocator@D@2@@std@@PAU_DATAVAR@MQ2Internal@@U?$less@V?$basic_string@DU?$char_traits@D@std@@V?$allocator@D@2@@std@@@2@V?$allocator@U?$pair@$$CBV?$basic_string@DU?$char_traits@D@std@@V?$allocator@D@2@@std@@PAU_DATAVAR@MQ2Internal@@@std@@@2@$0A@@std@@@std@@QAE?AViterator@12@XZ 0302b360 f i MQ2DataVars.obj
 0001:0002a380       ?_Init@?$_Tree@V?$_Tmap_traits@V?$basic_string@DU?$char_traits@D@std@@V?$allocator@D@2@@std@@PAU_DATAVAR@MQ2Internal@@U?$less@V?$basic_string@DU?$char_traits@D@std@@V?$allocator@D@2@@std@@@2@V?$allocator@U?$pair@$$CBV?$basic_string@DU?$char_traits@D@std@@V?$allocator@D@2@@std@@PAU_DATAVAR@MQ2Internal@@@std@@@2@$0A@@std@@@std@@IAEXXZ 0302b380 f i MQ2DataVars.obj
 0001:0002a3b0       ?_Lbound@?$_Tree@V?$_Tmap_traits@V?$basic_string@DU?$char_traits@D@std@@V?$allocator@D@2@@std@@PAU_DATAVAR@MQ2Internal@@U?$less@V?$basic_string@DU?$char_traits@D@std@@V?$allocator@D@2@@std@@@2@V?$allocator@U?$pair@$$CBV?$basic_string@DU?$char_traits@D@std@@V?$allocator@D@2@@std@@PAU_DATAVAR@MQ2Internal@@@std@@@2@$0A@@std@@@std@@IBEPAU_Node@?$_Tree_nod@V?$_Tmap_traits@V?$basic_string@DU?$char_traits@D@std@@V?$allocator@D@2@@std@@PAU_DATAVAR@MQ2Internal@@U?$less@V?$basic_string@DU?$char_traits@D@std@@V?$allocator@D@2@@std@@@2@V?$allocator@U?$pair@$$CBV?$basic_string@DU?$char_traits@D@std@@V?$allocator@D@2@@std@@PAU_DATAVAR@MQ2Internal@@@std@@@2@$0A@@std@@@2@ABV?$basic_string@DU?$char_traits@D@std@@V?$allocator@D@2@@2@@Z 0302b3b0 f i MQ2DataVars.obj
 0001:0002a440       ??0?$_Tmap_traits@V?$basic_string@DU?$char_traits@D@std@@V?$allocator@D@2@@std@@PAU_DATAVAR@MQ2Internal@@U?$less@V?$basic_string@DU?$char_traits@D@std@@V?$allocator@D@2@@std@@@2@V?$allocator@U?$pair@$$CBV?$basic_string@DU?$char_traits@D@std@@V?$allocator@D@2@@std@@PAU_DATAVAR@MQ2Internal@@@std@@@2@$0A@@std@@QAE@U?$less@V?$basic_string@DU?$char_traits@D@std@@V?$allocator@D@2@@std@@@1@V?$allocator@U?$pair@$$CBV?$basic_string@DU?$char_traits@D@std@@V?$allocator@D@2@@std@@PAU_DATAVAR@MQ2Internal@@@std@@@1@@Z 0302b440 f i MQ2DataVars.obj
 0001:0002a470       ??1_Node@?$_Tree_nod@V?$_Tmap_traits@V?$basic_string@DU?$char_traits@D@std@@V?$allocator@D@2@@std@@PAU_DATAVAR@MQ2Internal@@U?$less@V?$basic_string@DU?$char_traits@D@std@@V?$allocator@D@2@@std@@@2@V?$allocator@U?$pair@$$CBV?$basic_string@DU?$char_traits@D@std@@V?$allocator@D@2@@std@@PAU_DATAVAR@MQ2Internal@@@std@@@2@$0A@@std@@@std@@QAE@XZ 0302b470 f i MQ2DataVars.obj
 0001:0002a4a0       ??1?$_Tree_ptr@V?$_Tmap_traits@V?$basic_string@DU?$char_traits@D@std@@V?$allocator@D@2@@std@@PAU_DATAVAR@MQ2Internal@@U?$less@V?$basic_string@DU?$char_traits@D@std@@V?$allocator@D@2@@std@@@2@V?$allocator@U?$pair@$$CBV?$basic_string@DU?$char_traits@D@std@@V?$allocator@D@2@@std@@PAU_DATAVAR@MQ2Internal@@@std@@@2@$0A@@std@@@std@@QAE@XZ 0302b4a0 f i MQ2DataVars.obj
 0001:0002a4b0       ?lower_bound@?$_Tree@V?$_Tmap_traits@V?$basic_string@DU?$char_traits@D@std@@V?$allocator@D@2@@std@@PAU_DATAVAR@MQ2Internal@@U?$less@V?$basic_string@DU?$char_traits@D@std@@V?$allocator@D@2@@std@@@2@V?$allocator@U?$pair@$$CBV?$basic_string@DU?$char_traits@D@std@@V?$allocator@D@2@@std@@PAU_DATAVAR@MQ2Internal@@@std@@@2@$0A@@std@@@std@@QAE?AViterator@12@ABV?$basic_string@DU?$char_traits@D@std@@V?$allocator@D@2@@2@@Z 0302b4b0 f i MQ2DataVars.obj
 0001:0002a4e0       ??0?$_Tree_nod@V?$_Tmap_traits@V?$basic_string@DU?$char_traits@D@std@@V?$allocator@D@2@@std@@PAU_DATAVAR@MQ2Internal@@U?$less@V?$basic_string@DU?$char_traits@D@std@@V?$allocator@D@2@@std@@@2@V?$allocator@U?$pair@$$CBV?$basic_string@DU?$char_traits@D@std@@V?$allocator@D@2@@std@@PAU_DATAVAR@MQ2Internal@@@std@@@2@$0A@@std@@@std@@IAE@ABU?$less@V?$basic_string@DU?$char_traits@D@std@@V?$allocator@D@2@@std@@@1@V?$allocator@U?$pair@$$CBV?$basic_string@DU?$char_traits@D@std@@V?$allocator@D@2@@std@@PAU_DATAVAR@MQ2Internal@@@std@@@1@@Z 0302b4e0 f i MQ2DataVars.obj
 0001:0002a510       ??_G_Node@?$_Tree_nod@V?$_Tmap_traits@V?$basic_string@DU?$char_traits@D@std@@V?$allocator@D@2@@std@@PAU_DATAVAR@MQ2Internal@@U?$less@V?$basic_string@DU?$char_traits@D@std@@V?$allocator@D@2@@std@@@2@V?$allocator@U?$pair@$$CBV?$basic_string@DU?$char_traits@D@std@@V?$allocator@D@2@@std@@PAU_DATAVAR@MQ2Internal@@@std@@@2@$0A@@std@@@std@@QAEPAXI@Z 0302b510 f i MQ2DataVars.obj
 0001:0002a550       ??1?$_Tree_val@V?$_Tmap_traits@V?$basic_string@DU?$char_traits@D@std@@V?$allocator@D@2@@std@@PAU_DATAVAR@MQ2Internal@@U?$less@V?$basic_string@DU?$char_traits@D@std@@V?$allocator@D@2@@std@@@2@V?$allocator@U?$pair@$$CBV?$basic_string@DU?$char_traits@D@std@@V?$allocator@D@2@@std@@PAU_DATAVAR@MQ2Internal@@@std@@@2@$0A@@std@@@std@@QAE@XZ 0302b550 f i MQ2DataVars.obj
 0001:0002a560       ??0?$pair@$$CBV?$basic_string@DU?$char_traits@D@std@@V?$allocator@D@2@@std@@PAU_DATAVAR@MQ2Internal@@@std@@QAE@ABV?$basic_string@DU?$char_traits@D@std@@V?$allocator@D@2@@1@ABQAU_DATAVAR@MQ2Internal@@@Z 0302b560 f i MQ2DataVars.obj
 0001:0002a590       ??0?$_Tree_ptr@V?$_Tmap_traits@V?$basic_string@DU?$char_traits@D@std@@V?$allocator@D@2@@std@@PAU_DATAVAR@MQ2Internal@@U?$less@V?$basic_string@DU?$char_traits@D@std@@V?$allocator@D@2@@std@@@2@V?$allocator@U?$pair@$$CBV?$basic_string@DU?$char_traits@D@std@@V?$allocator@D@2@@std@@PAU_DATAVAR@MQ2Internal@@@std@@@2@$0A@@std@@@std@@IAE@ABU?$less@V?$basic_string@DU?$char_traits@D@std@@V?$allocator@D@2@@std@@@1@V?$allocator@U?$pair@$$CBV?$basic_string@DU?$char_traits@D@std@@V?$allocator@D@2@@std@@PAU_DATAVAR@MQ2Internal@@@std@@@1@@Z 0302b590 f i MQ2DataVars.obj
 0001:0002a5c0       ??0?$pair@$$CBV?$basic_string@DU?$char_traits@D@std@@V?$allocator@D@2@@std@@PAU_DATAVAR@MQ2Internal@@@std@@QAE@ABU01@@Z 0302b5c0 f i MQ2DataVars.obj
 0001:0002a5f0       ??$_Destroy@U_Node@?$_Tree_nod@V?$_Tmap_traits@V?$basic_string@DU?$char_traits@D@std@@V?$allocator@D@2@@std@@PAU_DATAVAR@MQ2Internal@@U?$less@V?$basic_string@DU?$char_traits@D@std@@V?$allocator@D@2@@std@@@2@V?$allocator@U?$pair@$$CBV?$basic_string@DU?$char_traits@D@std@@V?$allocator@D@2@@std@@PAU_DATAVAR@MQ2Internal@@@std@@@2@$0A@@std@@@std@@@std@@YAXPAU_Node@?$_Tree_nod@V?$_Tmap_traits@V?$basic_string@DU?$char_traits@D@std@@V?$allocator@D@2@@std@@PAU_DATAVAR@MQ2Internal@@U?$less@V?$basic_string@DU?$char_traits@D@std@@V?$allocator@D@2@@std@@@2@V?$allocator@U?$pair@$$CBV?$basic_string@DU?$char_traits@D@std@@V?$allocator@D@2@@std@@PAU_DATAVAR@MQ2Internal@@@std@@@2@$0A@@std@@@0@@Z 0302b5f0 f i MQ2DataVars.obj
 0001:0002a620       ??0?$_Tree_val@V?$_Tmap_traits@V?$basic_string@DU?$char_traits@D@std@@V?$allocator@D@2@@std@@PAU_DATAVAR@MQ2Internal@@U?$less@V?$basic_string@DU?$char_traits@D@std@@V?$allocator@D@2@@std@@@2@V?$allocator@U?$pair@$$CBV?$basic_string@DU?$char_traits@D@std@@V?$allocator@D@2@@std@@PAU_DATAVAR@MQ2Internal@@@std@@@2@$0A@@std@@@std@@IAE@ABU?$less@V?$basic_string@DU?$char_traits@D@std@@V?$allocator@D@2@@std@@@1@V?$allocator@U?$pair@$$CBV?$basic_string@DU?$char_traits@D@std@@V?$allocator@D@2@@std@@PAU_DATAVAR@MQ2Internal@@@std@@@1@@Z 0302b620 f i MQ2DataVars.obj
 0001:0002a650       ?destroy@?$allocator@U_Node@?$_Tree_nod@V?$_Tmap_traits@V?$basic_string@DU?$char_traits@D@std@@V?$allocator@D@2@@std@@PAU_DATAVAR@MQ2Internal@@U?$less@V?$basic_string@DU?$char_traits@D@std@@V?$allocator@D@2@@std@@@2@V?$allocator@U?$pair@$$CBV?$basic_string@DU?$char_traits@D@std@@V?$allocator@D@2@@std@@PAU_DATAVAR@MQ2Internal@@@std@@@2@$0A@@std@@@std@@@std@@QAEXPAU_Node@?$_Tree_nod@V?$_Tmap_traits@V?$basic_string@DU?$char_traits@D@std@@V?$allocator@D@2@@std@@PAU_DATAVAR@MQ2Internal@@U?$less@V?$basic_string@DU?$char_traits@D@std@@V?$allocator@D@2@@std@@@2@V?$allocator@U?$pair@$$CBV?$basic_string@DU?$char_traits@D@std@@V?$allocator@D@2@@std@@PAU_DATAVAR@MQ2Internal@@@std@@@2@$0A@@std@@@2@@Z 0302b650 f i MQ2DataVars.obj
 0001:0002a680       ??0_Node@?$_Tree_nod@V?$_Tmap_traits@V?$basic_string@DU?$char_traits@D@std@@V?$allocator@D@2@@std@@PAU_DATAVAR@MQ2Internal@@U?$less@V?$basic_string@DU?$char_traits@D@std@@V?$allocator@D@2@@std@@@2@V?$allocator@U?$pair@$$CBV?$basic_string@DU?$char_traits@D@std@@V?$allocator@D@2@@std@@PAU_DATAVAR@MQ2Internal@@@std@@@2@$0A@@std@@@std@@QAE@PAU012@00ABU?$pair@$$CBV?$basic_string@DU?$char_traits@D@std@@V?$allocator@D@2@@std@@PAU_DATAVAR@MQ2Internal@@@2@D@Z 0302b680 f i MQ2DataVars.obj
 0001:0002a6e0       ??0?$_Tree@V?$_Tmap_traits@V?$basic_string@DU?$char_traits@D@std@@V?$allocator@D@2@@std@@PAU_DATAVAR@MQ2Internal@@U?$less@V?$basic_string@DU?$char_traits@D@std@@V?$allocator@D@2@@std@@@2@V?$allocator@U?$pair@$$CBV?$basic_string@DU?$char_traits@D@std@@V?$allocator@D@2@@std@@PAU_DATAVAR@MQ2Internal@@@std@@@2@$0A@@std@@@std@@QAE@ABU?$less@V?$basic_string@DU?$char_traits@D@std@@V?$allocator@D@2@@std@@@1@ABV?$allocator@U?$pair@$$CBV?$basic_string@DU?$char_traits@D@std@@V?$allocator@D@2@@std@@PAU_DATAVAR@MQ2Internal@@@std@@@1@@Z 0302b6e0 f i MQ2DataVars.obj
 0001:0002a730       ?erase@?$_Tree@V?$_Tmap_traits@V?$basic_string@DU?$char_traits@D@std@@V?$allocator@D@2@@std@@PAU_DATAVAR@MQ2Internal@@U?$less@V?$basic_string@DU?$char_traits@D@std@@V?$allocator@D@2@@std@@@2@V?$allocator@U?$pair@$$CBV?$basic_string@DU?$char_traits@D@std@@V?$allocator@D@2@@std@@PAU_DATAVAR@MQ2Internal@@@std@@@2@$0A@@std@@@std@@QAE?AViterator@12@Vconst_iterator@12@@Z 0302b730 f i MQ2DataVars.obj
 0001:0002aa10       ?_Buynode@?$_Tree@V?$_Tmap_traits@V?$basic_string@DU?$char_traits@D@std@@V?$allocator@D@2@@std@@PAU_DATAVAR@MQ2Internal@@U?$less@V?$basic_string@DU?$char_traits@D@std@@V?$allocator@D@2@@std@@@2@V?$allocator@U?$pair@$$CBV?$basic_string@DU?$char_traits@D@std@@V?$allocator@D@2@@std@@PAU_DATAVAR@MQ2Internal@@@std@@@2@$0A@@std@@@std@@IAEPAU_Node@?$_Tree_nod@V?$_Tmap_traits@V?$basic_string@DU?$char_traits@D@std@@V?$allocator@D@2@@std@@PAU_DATAVAR@MQ2Internal@@U?$less@V?$basic_string@DU?$char_traits@D@std@@V?$allocator@D@2@@std@@@2@V?$allocator@U?$pair@$$CBV?$basic_string@DU?$char_traits@D@std@@V?$allocator@D@2@@std@@PAU_DATAVAR@MQ2Internal@@@std@@@2@$0A@@std@@@2@PAU342@00ABU?$pair@$$CBV?$basic_string@DU?$char_traits@D@std@@V?$allocator@D@2@@std@@PAU_DATAVAR@MQ2Internal@@@2@D@Z 0302ba10 f i MQ2DataVars.obj
 0001:0002aaa0       ?_Erase@?$_Tree@V?$_Tmap_traits@V?$basic_string@DU?$char_traits@D@std@@V?$allocator@D@2@@std@@PAU_DATAVAR@MQ2Internal@@U?$less@V?$basic_string@DU?$char_traits@D@std@@V?$allocator@D@2@@std@@@2@V?$allocator@U?$pair@$$CBV?$basic_string@DU?$char_traits@D@std@@V?$allocator@D@2@@std@@PAU_DATAVAR@MQ2Internal@@@std@@@2@$0A@@std@@@std@@IAEXPAU_Node@?$_Tree_nod@V?$_Tmap_traits@V?$basic_string@DU?$char_traits@D@std@@V?$allocator@D@2@@std@@PAU_DATAVAR@MQ2Internal@@U?$less@V?$basic_string@DU?$char_traits@D@std@@V?$allocator@D@2@@std@@@2@V?$allocator@U?$pair@$$CBV?$basic_string@DU?$char_traits@D@std@@V?$allocator@D@2@@std@@PAU_DATAVAR@MQ2Internal@@@std@@@2@$0A@@std@@@2@@Z 0302baa0 f i MQ2DataVars.obj
 0001:0002ab00       ?_Insert@?$_Tree@V?$_Tmap_traits@V?$basic_string@DU?$char_traits@D@std@@V?$allocator@D@2@@std@@PAU_DATAVAR@MQ2Internal@@U?$less@V?$basic_string@DU?$char_traits@D@std@@V?$allocator@D@2@@std@@@2@V?$allocator@U?$pair@$$CBV?$basic_string@DU?$char_traits@D@std@@V?$allocator@D@2@@std@@PAU_DATAVAR@MQ2Internal@@@std@@@2@$0A@@std@@@std@@IAE?AViterator@12@_NPAU_Node@?$_Tree_nod@V?$_Tmap_traits@V?$basic_string@DU?$char_traits@D@std@@V?$allocator@D@2@@std@@PAU_DATAVAR@MQ2Internal@@U?$less@V?$basic_string@DU?$char_traits@D@std@@V?$allocator@D@2@@std@@@2@V?$allocator@U?$pair@$$CBV?$basic_string@DU?$char_traits@D@std@@V?$allocator@D@2@@std@@PAU_DATAVAR@MQ2Internal@@@std@@@2@$0A@@std@@@2@ABU?$pair@$$CBV?$basic_string@DU?$char_traits@D@std@@V?$allocator@D@2@@std@@PAU_DATAVAR@MQ2Internal@@@2@@Z 0302bb00 f i MQ2DataVars.obj
 0001:0002acf0       ?clear@?$_Tree@V?$_Tmap_traits@V?$basic_string@DU?$char_traits@D@std@@V?$allocator@D@2@@std@@PAU_DATAVAR@MQ2Internal@@U?$less@V?$basic_string@DU?$char_traits@D@std@@V?$allocator@D@2@@std@@@2@V?$allocator@U?$pair@$$CBV?$basic_string@DU?$char_traits@D@std@@V?$allocator@D@2@@std@@PAU_DATAVAR@MQ2Internal@@@std@@@2@$0A@@std@@@std@@QAEXXZ 0302bcf0 f i MQ2DataVars.obj
 0001:0002ad20       ?insert@?$_Tree@V?$_Tmap_traits@V?$basic_string@DU?$char_traits@D@std@@V?$allocator@D@2@@std@@PAU_DATAVAR@MQ2Internal@@U?$less@V?$basic_string@DU?$char_traits@D@std@@V?$allocator@D@2@@std@@@2@V?$allocator@U?$pair@$$CBV?$basic_string@DU?$char_traits@D@std@@V?$allocator@D@2@@std@@PAU_DATAVAR@MQ2Internal@@@std@@@2@$0A@@std@@@std@@QAE?AU?$pair@Viterator@?$_Tree@V?$_Tmap_traits@V?$basic_string@DU?$char_traits@D@std@@V?$allocator@D@2@@std@@PAU_DATAVAR@MQ2Internal@@U?$less@V?$basic_string@DU?$char_traits@D@std@@V?$allocator@D@2@@std@@@2@V?$allocator@U?$pair@$$CBV?$basic_string@DU?$char_traits@D@std@@V?$allocator@D@2@@std@@PAU_DATAVAR@MQ2Internal@@@std@@@2@$0A@@std@@@std@@_N@2@ABU?$pair@$$CBV?$basic_string@DU?$char_traits@D@std@@V?$allocator@D@2@@std@@PAU_DATAVAR@MQ2Internal@@@2@@Z 0302bd20 f i MQ2DataVars.obj
 0001:0002ae80       ?erase@?$_Tree@V?$_Tmap_traits@V?$basic_string@DU?$char_traits@D@std@@V?$allocator@D@2@@std@@PAU_DATAVAR@MQ2Internal@@U?$less@V?$basic_string@DU?$char_traits@D@std@@V?$allocator@D@2@@std@@@2@V?$allocator@U?$pair@$$CBV?$basic_string@DU?$char_traits@D@std@@V?$allocator@D@2@@std@@PAU_DATAVAR@MQ2Internal@@@std@@@2@$0A@@std@@@std@@QAE?AViterator@12@Vconst_iterator@12@0@Z 0302be80 f i MQ2DataVars.obj
 0001:0002af60       ?insert@?$_Tree@V?$_Tmap_traits@V?$basic_string@DU?$char_traits@D@std@@V?$allocator@D@2@@std@@PAU_DATAVAR@MQ2Internal@@U?$less@V?$basic_string@DU?$char_traits@D@std@@V?$allocator@D@2@@std@@@2@V?$allocator@U?$pair@$$CBV?$basic_string@DU?$char_traits@D@std@@V?$allocator@D@2@@std@@PAU_DATAVAR@MQ2Internal@@@std@@@2@$0A@@std@@@std@@QAE?AViterator@12@Vconst_iterator@12@ABU?$pair@$$CBV?$basic_string@DU?$char_traits@D@std@@V?$allocator@D@2@@std@@PAU_DATAVAR@MQ2Internal@@@2@@Z 0302bf60 f i MQ2DataVars.obj
 0001:0002b190       ?_Tidy@?$_Tree@V?$_Tmap_traits@V?$basic_string@DU?$char_traits@D@std@@V?$allocator@D@2@@std@@PAU_DATAVAR@MQ2Internal@@U?$less@V?$basic_string@DU?$char_traits@D@std@@V?$allocator@D@2@@std@@@2@V?$allocator@U?$pair@$$CBV?$basic_string@DU?$char_traits@D@std@@V?$allocator@D@2@@std@@PAU_DATAVAR@MQ2Internal@@@std@@@2@$0A@@std@@@std@@IAEXXZ 0302c190 f i MQ2DataVars.obj
 0001:0002b1d0       ??A?$map@V?$basic_string@DU?$char_traits@D@std@@V?$allocator@D@2@@std@@PAU_DATAVAR@MQ2Internal@@U?$less@V?$basic_string@DU?$char_traits@D@std@@V?$allocator@D@2@@std@@@2@V?$allocator@U?$pair@$$CBV?$basic_string@DU?$char_traits@D@std@@V?$allocator@D@2@@std@@PAU_DATAVAR@MQ2Internal@@@std@@@2@@std@@QAEAAPAU_DATAVAR@MQ2Internal@@ABV?$basic_string@DU?$char_traits@D@std@@V?$allocator@D@2@@1@@Z 0302c1d0 f i MQ2DataVars.obj
 0001:0002b2c0       ??1?$_Tree@V?$_Tmap_traits@V?$basic_string@DU?$char_traits@D@std@@V?$allocator@D@2@@std@@PAU_DATAVAR@MQ2Internal@@U?$less@V?$basic_string@DU?$char_traits@D@std@@V?$allocator@D@2@@std@@@2@V?$allocator@U?$pair@$$CBV?$basic_string@DU?$char_traits@D@std@@V?$allocator@D@2@@std@@PAU_DATAVAR@MQ2Internal@@@std@@@2@$0A@@std@@@std@@QAE@XZ 0302c2c0 f i MQ2DataVars.obj
 0001:0002b300       ??1?$map@V?$basic_string@DU?$char_traits@D@std@@V?$allocator@D@2@@std@@PAU_DATAVAR@MQ2Internal@@U?$less@V?$basic_string@DU?$char_traits@D@std@@V?$allocator@D@2@@std@@@2@V?$allocator@U?$pair@$$CBV?$basic_string@DU?$char_traits@D@std@@V?$allocator@D@2@@std@@PAU_DATAVAR@MQ2Internal@@@std@@@2@@std@@QAE@XZ 0302c300 f i MQ2DataVars.obj
 0001:0002b340       ?DeleteMQ2DataVariable@@YAXPAU_DATAVAR@MQ2Internal@@@Z 0302c340 f i MQ2DataVars.obj
 0001:0002b420       _FindMQ2DataVariable       0302c420 f i MQ2DataVars.obj
 0001:0002b530       ?AddMQ2DataEventVariable@@YAHPAD0PAVMQ2Type@MQ2Internal@@PAPAU_DATAVAR@2@0@Z 0302c530 f   MQ2DataVars.obj
 0001:0002b6a0       _AddMQ2DataVariable        0302c6a0 f   MQ2DataVars.obj
 0001:0002b830       _DeleteMQ2DataVariable     0302c830 f   MQ2DataVars.obj
 0001:0002b860       _ClearMQ2DataVariables     0302c860 f   MQ2DataVars.obj
 0001:0002b890       _NewDeclareVar             0302c890 f   MQ2DataVars.obj
 0001:0002bb00       _NewDeleteVarCmd           0302cb00 f   MQ2DataVars.obj
 0001:0002bb60       _NewVarset                 0302cb60 f   MQ2DataVars.obj
 0001:0002bd10       _NewVarcalc                0302cd10 f   MQ2DataVars.obj
 0001:0002bf30       _NewVardata                0302cf30 f   MQ2DataVars.obj
 0001:0002c140       ?AddEvent@@YAXKPADZZ       0302d140 f   MQ2DataVars.obj
 0001:0002c270       ?EventBlechCallback@@YGXIPAXPAU_BLECHVALUE@@@Z 0302d270 f   MQ2DataVars.obj
 0001:0002c420       _CheckChatForEvent         0302d420 f   MQ2DataVars.obj
 0001:0002cac0       _DropTimers                0302dac0 f   MQ2DataVars.obj
 0001:0002cb30       ??0?$map@V?$basic_string@DU?$char_traits@D@std@@V?$allocator@D@2@@std@@PAU_DATAVAR@MQ2Internal@@U?$less@V?$basic_string@DU?$char_traits@D@std@@V?$allocator@D@2@@std@@@2@V?$allocator@U?$pair@$$CBV?$basic_string@DU?$char_traits@D@std@@V?$allocator@D@2@@std@@PAU_DATAVAR@MQ2Internal@@@std@@@2@@std@@QAE@XZ 0302db30 f i MQ2DataVars.obj
 0001:0002cb80       ?FindDetour@@YAPAU_OurDetours@@K@Z 0302db80 f   MQ2DetourAPI.obj
 0001:0002cba0       _AddDetour                 0302dba0 f   MQ2DetourAPI.obj
 0001:0002cca0       _AddDetourf                0302dca0 f   MQ2DetourAPI.obj
 0001:0002cd00       _RemoveDetour              0302dd00 f   MQ2DetourAPI.obj
 0001:0002cdb0       ?RemoveOurDetours@@YAXXZ   0302ddb0 f   MQ2DetourAPI.obj
 0001:0002ce40       ?doit_tramp@CObfuscator@@QAEHHH@Z 0302de40 f   MQ2DetourAPI.obj
 0001:0002ce60       ?Trampoline@CEmoteHook@@QAEXXZ 0302de60 f   MQ2DetourAPI.obj
 0001:0002ce80       ?HookInlineChecks@@YAXH@Z  0302de80 f   MQ2DetourAPI.obj
 0001:0002d0c0       ?memcheck0@@YAHPAEH@Z      0302e0c0 f   MQ2DetourAPI.obj
 0001:0002d150       ?memcheck1@@YAHPAEHUmckey@@@Z 0302e150 f   MQ2DetourAPI.obj
 0001:0002d240       ?memcheck2@@YAHPAEHUmckey@@@Z 0302e240 f   MQ2DetourAPI.obj
 0001:0002d320       ?memcheck3@@YAHPAEHUmckey@@@Z 0302e320 f   MQ2DetourAPI.obj
 0001:0002d400       ?memcheck4@@YAHPAEHUmckey@@@Z 0302e400 f   MQ2DetourAPI.obj
 0001:0002d4e0       ?CrashDetected_Detour@@YAXKKKKK@Z 0302e4e0 f   MQ2DetourAPI.obj
 0001:0002d500       ?CrashDetected_Trampoline@@YAXKKKKK@Z 0302e500 f   MQ2DetourAPI.obj
 0001:0002d520       ?emotify2@@YAXPAD@Z        0302e520 f   MQ2DetourAPI.obj
 0001:0002d560       ?doit_detour@CObfuscator@@QAEHHH@Z 0302e560 f   MQ2DetourAPI.obj
 0001:0002d5b0       ?emotify@@YAXXZ            0302e5b0 f   MQ2DetourAPI.obj
 0001:0002d5d0       ?Detour@CEmoteHook@@QAEXXZ 0302e5d0 f   MQ2DetourAPI.obj
 0001:0002d5e0       ?HookMemChecker@@YAXH@Z    0302e5e0 f   MQ2DetourAPI.obj
 0001:0002d810       _InitializeMQ2Detours      0302e810 f   MQ2DetourAPI.obj
 0001:0002d840       _ShutdownMQ2Detours        0302e840 f   MQ2DetourAPI.obj
 0001:0002d870       ?DInputDataDetour@@YGJPAUIDirectInputDevice8A@@KPAUDIDEVICEOBJECTDATA@@PAKK@Z 0302e870 f   MQ2DInput.obj
 0001:0002da40       ?DInputStateDetour@@YGJPAUIDirectInputDevice8A@@KPAX@Z 0302ea40 f   MQ2DInput.obj
 0001:0002dad0       ?DInputAcquireDetour@@YGJPAUIDirectInputDevice8A@@@Z 0302ead0 f   MQ2DInput.obj
 0001:0002db00       _InitializeMQ2DInput       0302eb00 f   MQ2DInput.obj
 0001:0002dc30       _ShutdownMQ2DInput         0302ec30 f   MQ2DInput.obj
 0001:0002dce0       ??0?$allocator@U?$pair@$$CBV?$basic_string@DU?$char_traits@D@std@@V?$allocator@D@2@@std@@PAU_MACROBLOCK@MQ2Internal@@@std@@@std@@QAE@XZ 0302ece0 f i MQ2Globals.obj
 0001:0002dcf0       ??0?$allocator@U?$pair@$$CBV?$basic_string@DU?$char_traits@D@std@@V?$allocator@D@2@@std@@PAU_SPAWNINFO@EQData@@@std@@@std@@QAE@XZ 0302ecf0 f i MQ2Globals.obj
 0001:0002dd00       ?_Left@?$_Tree@V?$_Tmap_traits@V?$basic_string@DU?$char_traits@D@std@@V?$allocator@D@2@@std@@PAU_MACROBLOCK@MQ2Internal@@U?$less@V?$basic_string@DU?$char_traits@D@std@@V?$allocator@D@2@@std@@@2@V?$allocator@U?$pair@$$CBV?$basic_string@DU?$char_traits@D@std@@V?$allocator@D@2@@std@@PAU_MACROBLOCK@MQ2Internal@@@std@@@2@$0A@@std@@@std@@KAAAPAU_Node@?$_Tree_nod@V?$_Tmap_traits@V?$basic_string@DU?$char_traits@D@std@@V?$allocator@D@2@@std@@PAU_MACROBLOCK@MQ2Internal@@U?$less@V?$basic_string@DU?$char_traits@D@std@@V?$allocator@D@2@@std@@@2@V?$allocator@U?$pair@$$CBV?$basic_string@DU?$char_traits@D@std@@V?$allocator@D@2@@std@@PAU_MACROBLOCK@MQ2Internal@@@std@@@2@$0A@@std@@@2@PAU342@@Z 0302ed00 f i MQ2Globals.obj
 0001:0002dd10       ?_Parent@?$_Tree@V?$_Tmap_traits@V?$basic_string@DU?$char_traits@D@std@@V?$allocator@D@2@@std@@PAU_MACROBLOCK@MQ2Internal@@U?$less@V?$basic_string@DU?$char_traits@D@std@@V?$allocator@D@2@@std@@@2@V?$allocator@U?$pair@$$CBV?$basic_string@DU?$char_traits@D@std@@V?$allocator@D@2@@std@@PAU_MACROBLOCK@MQ2Internal@@@std@@@2@$0A@@std@@@std@@KAAAPAU_Node@?$_Tree_nod@V?$_Tmap_traits@V?$basic_string@DU?$char_traits@D@std@@V?$allocator@D@2@@std@@PAU_MACROBLOCK@MQ2Internal@@U?$less@V?$basic_string@DU?$char_traits@D@std@@V?$allocator@D@2@@std@@@2@V?$allocator@U?$pair@$$CBV?$basic_string@DU?$char_traits@D@std@@V?$allocator@D@2@@std@@PAU_MACROBLOCK@MQ2Internal@@@std@@@2@$0A@@std@@@2@PAU342@@Z 0302ed10 f i MQ2Globals.obj
 0001:0002dd20       ?_Right@?$_Tree@V?$_Tmap_traits@V?$basic_string@DU?$char_traits@D@std@@V?$allocator@D@2@@std@@PAU_MACROBLOCK@MQ2Internal@@U?$less@V?$basic_string@DU?$char_traits@D@std@@V?$allocator@D@2@@std@@@2@V?$allocator@U?$pair@$$CBV?$basic_string@DU?$char_traits@D@std@@V?$allocator@D@2@@std@@PAU_MACROBLOCK@MQ2Internal@@@std@@@2@$0A@@std@@@std@@KAAAPAU_Node@?$_Tree_nod@V?$_Tmap_traits@V?$basic_string@DU?$char_traits@D@std@@V?$allocator@D@2@@std@@PAU_MACROBLOCK@MQ2Internal@@U?$less@V?$basic_string@DU?$char_traits@D@std@@V?$allocator@D@2@@std@@@2@V?$allocator@U?$pair@$$CBV?$basic_string@DU?$char_traits@D@std@@V?$allocator@D@2@@std@@PAU_MACROBLOCK@MQ2Internal@@@std@@@2@$0A@@std@@@2@PAU342@@Z 0302ed20 f i MQ2Globals.obj
 0001:0002dd30       ??0?$allocator@U?$pair@$$CBV?$basic_string@DU?$char_traits@D@std@@V?$allocator@D@2@@std@@PAU_MACROBLOCK@MQ2Internal@@@std@@@std@@QAE@ABV01@@Z 0302ed30 f i MQ2Globals.obj
 0001:0002dd40       ?deallocate@?$allocator@U_Node@?$_Tree_nod@V?$_Tmap_traits@V?$basic_string@DU?$char_traits@D@std@@V?$allocator@D@2@@std@@PAU_MACROBLOCK@MQ2Internal@@U?$less@V?$basic_string@DU?$char_traits@D@std@@V?$allocator@D@2@@std@@@2@V?$allocator@U?$pair@$$CBV?$basic_string@DU?$char_traits@D@std@@V?$allocator@D@2@@std@@PAU_MACROBLOCK@MQ2Internal@@@std@@@2@$0A@@std@@@std@@@std@@QAEXPAU_Node@?$_Tree_nod@V?$_Tmap_traits@V?$basic_string@DU?$char_traits@D@std@@V?$allocator@D@2@@std@@PAU_MACROBLOCK@MQ2Internal@@U?$less@V?$basic_string@DU?$char_traits@D@std@@V?$allocator@D@2@@std@@@2@V?$allocator@U?$pair@$$CBV?$basic_string@DU?$char_traits@D@std@@V?$allocator@D@2@@std@@PAU_MACROBLOCK@MQ2Internal@@@std@@@2@$0A@@std@@@2@I@Z 0302ed40 f i MQ2Globals.obj
 0001:0002dd50       ?_Left@?$_Tree@V?$_Tmap_traits@V?$basic_string@DU?$char_traits@D@std@@V?$allocator@D@2@@std@@PAU_SPAWNINFO@EQData@@U?$less@V?$basic_string@DU?$char_traits@D@std@@V?$allocator@D@2@@std@@@2@V?$allocator@U?$pair@$$CBV?$basic_string@DU?$char_traits@D@std@@V?$allocator@D@2@@std@@PAU_SPAWNINFO@EQData@@@std@@@2@$0A@@std@@@std@@KAAAPAU_Node@?$_Tree_nod@V?$_Tmap_traits@V?$basic_string@DU?$char_traits@D@std@@V?$allocator@D@2@@std@@PAU_SPAWNINFO@EQData@@U?$less@V?$basic_string@DU?$char_traits@D@std@@V?$allocator@D@2@@std@@@2@V?$allocator@U?$pair@$$CBV?$basic_string@DU?$char_traits@D@std@@V?$allocator@D@2@@std@@PAU_SPAWNINFO@EQData@@@std@@@2@$0A@@std@@@2@PAU342@@Z 0302ed50 f i MQ2Globals.obj
 0001:0002dd60       ?_Parent@?$_Tree@V?$_Tmap_traits@V?$basic_string@DU?$char_traits@D@std@@V?$allocator@D@2@@std@@PAU_SPAWNINFO@EQData@@U?$less@V?$basic_string@DU?$char_traits@D@std@@V?$allocator@D@2@@std@@@2@V?$allocator@U?$pair@$$CBV?$basic_string@DU?$char_traits@D@std@@V?$allocator@D@2@@std@@PAU_SPAWNINFO@EQData@@@std@@@2@$0A@@std@@@std@@KAAAPAU_Node@?$_Tree_nod@V?$_Tmap_traits@V?$basic_string@DU?$char_traits@D@std@@V?$allocator@D@2@@std@@PAU_SPAWNINFO@EQData@@U?$less@V?$basic_string@DU?$char_traits@D@std@@V?$allocator@D@2@@std@@@2@V?$allocator@U?$pair@$$CBV?$basic_string@DU?$char_traits@D@std@@V?$allocator@D@2@@std@@PAU_SPAWNINFO@EQData@@@std@@@2@$0A@@std@@@2@PAU342@@Z 0302ed60 f i MQ2Globals.obj
 0001:0002dd70       ?_Right@?$_Tree@V?$_Tmap_traits@V?$basic_string@DU?$char_traits@D@std@@V?$allocator@D@2@@std@@PAU_SPAWNINFO@EQData@@U?$less@V?$basic_string@DU?$char_traits@D@std@@V?$allocator@D@2@@std@@@2@V?$allocator@U?$pair@$$CBV?$basic_string@DU?$char_traits@D@std@@V?$allocator@D@2@@std@@PAU_SPAWNINFO@EQData@@@std@@@2@$0A@@std@@@std@@KAAAPAU_Node@?$_Tree_nod@V?$_Tmap_traits@V?$basic_string@DU?$char_traits@D@std@@V?$allocator@D@2@@std@@PAU_SPAWNINFO@EQData@@U?$less@V?$basic_string@DU?$char_traits@D@std@@V?$allocator@D@2@@std@@@2@V?$allocator@U?$pair@$$CBV?$basic_string@DU?$char_traits@D@std@@V?$allocator@D@2@@std@@PAU_SPAWNINFO@EQData@@@std@@@2@$0A@@std@@@2@PAU342@@Z 0302ed70 f i MQ2Globals.obj
 0001:0002dd80       ??0?$allocator@U?$pair@$$CBV?$basic_string@DU?$char_traits@D@std@@V?$allocator@D@2@@std@@PAU_SPAWNINFO@EQData@@@std@@@std@@QAE@ABV01@@Z 0302ed80 f i MQ2Globals.obj
 0001:0002dd90       ?deallocate@?$allocator@U_Node@?$_Tree_nod@V?$_Tmap_traits@V?$basic_string@DU?$char_traits@D@std@@V?$allocator@D@2@@std@@PAU_SPAWNINFO@EQData@@U?$less@V?$basic_string@DU?$char_traits@D@std@@V?$allocator@D@2@@std@@@2@V?$allocator@U?$pair@$$CBV?$basic_string@DU?$char_traits@D@std@@V?$allocator@D@2@@std@@PAU_SPAWNINFO@EQData@@@std@@@2@$0A@@std@@@std@@@std@@QAEXPAU_Node@?$_Tree_nod@V?$_Tmap_traits@V?$basic_string@DU?$char_traits@D@std@@V?$allocator@D@2@@std@@PAU_SPAWNINFO@EQData@@U?$less@V?$basic_string@DU?$char_traits@D@std@@V?$allocator@D@2@@std@@@2@V?$allocator@U?$pair@$$CBV?$basic_string@DU?$char_traits@D@std@@V?$allocator@D@2@@std@@PAU_SPAWNINFO@EQData@@@std@@@2@$0A@@std@@@2@I@Z 0302ed90 f i MQ2Globals.obj
 0001:0002dda0       ?_Isnil@?$_Tree@V?$_Tmap_traits@V?$basic_string@DU?$char_traits@D@std@@V?$allocator@D@2@@std@@PAU_MACROBLOCK@MQ2Internal@@U?$less@V?$basic_string@DU?$char_traits@D@std@@V?$allocator@D@2@@std@@@2@V?$allocator@U?$pair@$$CBV?$basic_string@DU?$char_traits@D@std@@V?$allocator@D@2@@std@@PAU_MACROBLOCK@MQ2Internal@@@std@@@2@$0A@@std@@@std@@KAAADPAU_Node@?$_Tree_nod@V?$_Tmap_traits@V?$basic_string@DU?$char_traits@D@std@@V?$allocator@D@2@@std@@PAU_MACROBLOCK@MQ2Internal@@U?$less@V?$basic_string@DU?$char_traits@D@std@@V?$allocator@D@2@@std@@@2@V?$allocator@U?$pair@$$CBV?$basic_string@DU?$char_traits@D@std@@V?$allocator@D@2@@std@@PAU_MACROBLOCK@MQ2Internal@@@std@@@2@$0A@@std@@@2@@Z 0302eda0 f i MQ2Globals.obj
 0001:0002ddb0       ?_Lmost@?$_Tree@V?$_Tmap_traits@V?$basic_string@DU?$char_traits@D@std@@V?$allocator@D@2@@std@@PAU_MACROBLOCK@MQ2Internal@@U?$less@V?$basic_string@DU?$char_traits@D@std@@V?$allocator@D@2@@std@@@2@V?$allocator@U?$pair@$$CBV?$basic_string@DU?$char_traits@D@std@@V?$allocator@D@2@@std@@PAU_MACROBLOCK@MQ2Internal@@@std@@@2@$0A@@std@@@std@@IBEAAPAU_Node@?$_Tree_nod@V?$_Tmap_traits@V?$basic_string@DU?$char_traits@D@std@@V?$allocator@D@2@@std@@PAU_MACROBLOCK@MQ2Internal@@U?$less@V?$basic_string@DU?$char_traits@D@std@@V?$allocator@D@2@@std@@@2@V?$allocator@U?$pair@$$CBV?$basic_string@DU?$char_traits@D@std@@V?$allocator@D@2@@std@@PAU_MACROBLOCK@MQ2Internal@@@std@@@2@$0A@@std@@@2@XZ 0302edb0 f i MQ2Globals.obj
 0001:0002ddc0       ?_Rmost@?$_Tree@V?$_Tmap_traits@V?$basic_string@DU?$char_traits@D@std@@V?$allocator@D@2@@std@@PAU_MACROBLOCK@MQ2Internal@@U?$less@V?$basic_string@DU?$char_traits@D@std@@V?$allocator@D@2@@std@@@2@V?$allocator@U?$pair@$$CBV?$basic_string@DU?$char_traits@D@std@@V?$allocator@D@2@@std@@PAU_MACROBLOCK@MQ2Internal@@@std@@@2@$0A@@std@@@std@@IBEAAPAU_Node@?$_Tree_nod@V?$_Tmap_traits@V?$basic_string@DU?$char_traits@D@std@@V?$allocator@D@2@@std@@PAU_MACROBLOCK@MQ2Internal@@U?$less@V?$basic_string@DU?$char_traits@D@std@@V?$allocator@D@2@@std@@@2@V?$allocator@U?$pair@$$CBV?$basic_string@DU?$char_traits@D@std@@V?$allocator@D@2@@std@@PAU_MACROBLOCK@MQ2Internal@@@std@@@2@$0A@@std@@@2@XZ 0302edc0 f i MQ2Globals.obj
 0001:0002ddd0       ?_Root@?$_Tree@V?$_Tmap_traits@V?$basic_string@DU?$char_traits@D@std@@V?$allocator@D@2@@std@@PAU_MACROBLOCK@MQ2Internal@@U?$less@V?$basic_string@DU?$char_traits@D@std@@V?$allocator@D@2@@std@@@2@V?$allocator@U?$pair@$$CBV?$basic_string@DU?$char_traits@D@std@@V?$allocator@D@2@@std@@PAU_MACROBLOCK@MQ2Internal@@@std@@@2@$0A@@std@@@std@@IBEAAPAU_Node@?$_Tree_nod@V?$_Tmap_traits@V?$basic_string@DU?$char_traits@D@std@@V?$allocator@D@2@@std@@PAU_MACROBLOCK@MQ2Internal@@U?$less@V?$basic_string@DU?$char_traits@D@std@@V?$allocator@D@2@@std@@@2@V?$allocator@U?$pair@$$CBV?$basic_string@DU?$char_traits@D@std@@V?$allocator@D@2@@std@@PAU_MACROBLOCK@MQ2Internal@@@std@@@2@$0A@@std@@@2@XZ 0302edd0 f i MQ2Globals.obj
 0001:0002dde0       ?_Isnil@?$_Tree@V?$_Tmap_traits@V?$basic_string@DU?$char_traits@D@std@@V?$allocator@D@2@@std@@PAU_SPAWNINFO@EQData@@U?$less@V?$basic_string@DU?$char_traits@D@std@@V?$allocator@D@2@@std@@@2@V?$allocator@U?$pair@$$CBV?$basic_string@DU?$char_traits@D@std@@V?$allocator@D@2@@std@@PAU_SPAWNINFO@EQData@@@std@@@2@$0A@@std@@@std@@KAAADPAU_Node@?$_Tree_nod@V?$_Tmap_traits@V?$basic_string@DU?$char_traits@D@std@@V?$allocator@D@2@@std@@PAU_SPAWNINFO@EQData@@U?$less@V?$basic_string@DU?$char_traits@D@std@@V?$allocator@D@2@@std@@@2@V?$allocator@U?$pair@$$CBV?$basic_string@DU?$char_traits@D@std@@V?$allocator@D@2@@std@@PAU_SPAWNINFO@EQData@@@std@@@2@$0A@@std@@@2@@Z 0302ede0 f i MQ2Globals.obj
 0001:0002ddf0       ?_Lmost@?$_Tree@V?$_Tmap_traits@V?$basic_string@DU?$char_traits@D@std@@V?$allocator@D@2@@std@@PAU_SPAWNINFO@EQData@@U?$less@V?$basic_string@DU?$char_traits@D@std@@V?$allocator@D@2@@std@@@2@V?$allocator@U?$pair@$$CBV?$basic_string@DU?$char_traits@D@std@@V?$allocator@D@2@@std@@PAU_SPAWNINFO@EQData@@@std@@@2@$0A@@std@@@std@@IBEAAPAU_Node@?$_Tree_nod@V?$_Tmap_traits@V?$basic_string@DU?$char_traits@D@std@@V?$allocator@D@2@@std@@PAU_SPAWNINFO@EQData@@U?$less@V?$basic_string@DU?$char_traits@D@std@@V?$allocator@D@2@@std@@@2@V?$allocator@U?$pair@$$CBV?$basic_string@DU?$char_traits@D@std@@V?$allocator@D@2@@std@@PAU_SPAWNINFO@EQData@@@std@@@2@$0A@@std@@@2@XZ 0302edf0 f i MQ2Globals.obj
 0001:0002de00       ?_Rmost@?$_Tree@V?$_Tmap_traits@V?$basic_string@DU?$char_traits@D@std@@V?$allocator@D@2@@std@@PAU_SPAWNINFO@EQData@@U?$less@V?$basic_string@DU?$char_traits@D@std@@V?$allocator@D@2@@std@@@2@V?$allocator@U?$pair@$$CBV?$basic_string@DU?$char_traits@D@std@@V?$allocator@D@2@@std@@PAU_SPAWNINFO@EQData@@@std@@@2@$0A@@std@@@std@@IBEAAPAU_Node@?$_Tree_nod@V?$_Tmap_traits@V?$basic_string@DU?$char_traits@D@std@@V?$allocator@D@2@@std@@PAU_SPAWNINFO@EQData@@U?$less@V?$basic_string@DU?$char_traits@D@std@@V?$allocator@D@2@@std@@@2@V?$allocator@U?$pair@$$CBV?$basic_string@DU?$char_traits@D@std@@V?$allocator@D@2@@std@@PAU_SPAWNINFO@EQData@@@std@@@2@$0A@@std@@@2@XZ 0302ee00 f i MQ2Globals.obj
 0001:0002de10       ?_Root@?$_Tree@V?$_Tmap_traits@V?$basic_string@DU?$char_traits@D@std@@V?$allocator@D@2@@std@@PAU_SPAWNINFO@EQData@@U?$less@V?$basic_string@DU?$char_traits@D@std@@V?$allocator@D@2@@std@@@2@V?$allocator@U?$pair@$$CBV?$basic_string@DU?$char_traits@D@std@@V?$allocator@D@2@@std@@PAU_SPAWNINFO@EQData@@@std@@@2@$0A@@std@@@std@@IBEAAPAU_Node@?$_Tree_nod@V?$_Tmap_traits@V?$basic_string@DU?$char_traits@D@std@@V?$allocator@D@2@@std@@PAU_SPAWNINFO@EQData@@U?$less@V?$basic_string@DU?$char_traits@D@std@@V?$allocator@D@2@@std@@@2@V?$allocator@U?$pair@$$CBV?$basic_string@DU?$char_traits@D@std@@V?$allocator@D@2@@std@@PAU_SPAWNINFO@EQData@@@std@@@2@$0A@@std@@@2@XZ 0302ee10 f i MQ2Globals.obj
 0001:0002de20       ??8const_iterator@?$_Tree@V?$_Tmap_traits@V?$basic_string@DU?$char_traits@D@std@@V?$allocator@D@2@@std@@PAU_MACROBLOCK@MQ2Internal@@U?$less@V?$basic_string@DU?$char_traits@D@std@@V?$allocator@D@2@@std@@@2@V?$allocator@U?$pair@$$CBV?$basic_string@DU?$char_traits@D@std@@V?$allocator@D@2@@std@@PAU_MACROBLOCK@MQ2Internal@@@std@@@2@$0A@@std@@@std@@QBE_NABV012@@Z 0302ee20 f i MQ2Globals.obj
 0001:0002de50       ??9const_iterator@?$_Tree@V?$_Tmap_traits@V?$basic_string@DU?$char_traits@D@std@@V?$allocator@D@2@@std@@PAU_MACROBLOCK@MQ2Internal@@U?$less@V?$basic_string@DU?$char_traits@D@std@@V?$allocator@D@2@@std@@@2@V?$allocator@U?$pair@$$CBV?$basic_string@DU?$char_traits@D@std@@V?$allocator@D@2@@std@@PAU_MACROBLOCK@MQ2Internal@@@std@@@2@$0A@@std@@@std@@QBE_NABV012@@Z 0302ee50 f i MQ2Globals.obj
 0001:0002de80       ??8const_iterator@?$_Tree@V?$_Tmap_traits@V?$basic_string@DU?$char_traits@D@std@@V?$allocator@D@2@@std@@PAU_SPAWNINFO@EQData@@U?$less@V?$basic_string@DU?$char_traits@D@std@@V?$allocator@D@2@@std@@@2@V?$allocator@U?$pair@$$CBV?$basic_string@DU?$char_traits@D@std@@V?$allocator@D@2@@std@@PAU_SPAWNINFO@EQData@@@std@@@2@$0A@@std@@@std@@QBE_NABV012@@Z 0302ee80 f i MQ2Globals.obj
 0001:0002deb0       ??9const_iterator@?$_Tree@V?$_Tmap_traits@V?$basic_string@DU?$char_traits@D@std@@V?$allocator@D@2@@std@@PAU_SPAWNINFO@EQData@@U?$less@V?$basic_string@DU?$char_traits@D@std@@V?$allocator@D@2@@std@@@2@V?$allocator@U?$pair@$$CBV?$basic_string@DU?$char_traits@D@std@@V?$allocator@D@2@@std@@PAU_SPAWNINFO@EQData@@@std@@@2@$0A@@std@@@std@@QBE_NABV012@@Z 0302eeb0 f i MQ2Globals.obj
 0001:0002dee0       ?_Color@?$_Tree@V?$_Tmap_traits@V?$basic_string@DU?$char_traits@D@std@@V?$allocator@D@2@@std@@PAU_MACROBLOCK@MQ2Internal@@U?$less@V?$basic_string@DU?$char_traits@D@std@@V?$allocator@D@2@@std@@@2@V?$allocator@U?$pair@$$CBV?$basic_string@DU?$char_traits@D@std@@V?$allocator@D@2@@std@@PAU_MACROBLOCK@MQ2Internal@@@std@@@2@$0A@@std@@@std@@KAAADPAU_Node@?$_Tree_nod@V?$_Tmap_traits@V?$basic_string@DU?$char_traits@D@std@@V?$allocator@D@2@@std@@PAU_MACROBLOCK@MQ2Internal@@U?$less@V?$basic_string@DU?$char_traits@D@std@@V?$allocator@D@2@@std@@@2@V?$allocator@U?$pair@$$CBV?$basic_string@DU?$char_traits@D@std@@V?$allocator@D@2@@std@@PAU_MACROBLOCK@MQ2Internal@@@std@@@2@$0A@@std@@@2@@Z 0302eee0 f i MQ2Globals.obj
 0001:0002def0       ?_Lrotate@?$_Tree@V?$_Tmap_traits@V?$basic_string@DU?$char_traits@D@std@@V?$allocator@D@2@@std@@PAU_MACROBLOCK@MQ2Internal@@U?$less@V?$basic_string@DU?$char_traits@D@std@@V?$allocator@D@2@@std@@@2@V?$allocator@U?$pair@$$CBV?$basic_string@DU?$char_traits@D@std@@V?$allocator@D@2@@std@@PAU_MACROBLOCK@MQ2Internal@@@std@@@2@$0A@@std@@@std@@IAEXPAU_Node@?$_Tree_nod@V?$_Tmap_traits@V?$basic_string@DU?$char_traits@D@std@@V?$allocator@D@2@@std@@PAU_MACROBLOCK@MQ2Internal@@U?$less@V?$basic_string@DU?$char_traits@D@std@@V?$allocator@D@2@@std@@@2@V?$allocator@U?$pair@$$CBV?$basic_string@DU?$char_traits@D@std@@V?$allocator@D@2@@std@@PAU_MACROBLOCK@MQ2Internal@@@std@@@2@$0A@@std@@@2@@Z 0302eef0 f i MQ2Globals.obj
 0001:0002df40       ?_Max@?$_Tree@V?$_Tmap_traits@V?$basic_string@DU?$char_traits@D@std@@V?$allocator@D@2@@std@@PAU_MACROBLOCK@MQ2Internal@@U?$less@V?$basic_string@DU?$char_traits@D@std@@V?$allocator@D@2@@std@@@2@V?$allocator@U?$pair@$$CBV?$basic_string@DU?$char_traits@D@std@@V?$allocator@D@2@@std@@PAU_MACROBLOCK@MQ2Internal@@@std@@@2@$0A@@std@@@std@@KAPAU_Node@?$_Tree_nod@V?$_Tmap_traits@V?$basic_string@DU?$char_traits@D@std@@V?$allocator@D@2@@std@@PAU_MACROBLOCK@MQ2Internal@@U?$less@V?$basic_string@DU?$char_traits@D@std@@V?$allocator@D@2@@std@@@2@V?$allocator@U?$pair@$$CBV?$basic_string@DU?$char_traits@D@std@@V?$allocator@D@2@@std@@PAU_MACROBLOCK@MQ2Internal@@@std@@@2@$0A@@std@@@2@PAU342@@Z 0302ef40 f i MQ2Globals.obj
 0001:0002df60       ?_Min@?$_Tree@V?$_Tmap_traits@V?$basic_string@DU?$char_traits@D@std@@V?$allocator@D@2@@std@@PAU_MACROBLOCK@MQ2Internal@@U?$less@V?$basic_string@DU?$char_traits@D@std@@V?$allocator@D@2@@std@@@2@V?$allocator@U?$pair@$$CBV?$basic_string@DU?$char_traits@D@std@@V?$allocator@D@2@@std@@PAU_MACROBLOCK@MQ2Internal@@@std@@@2@$0A@@std@@@std@@KAPAU_Node@?$_Tree_nod@V?$_Tmap_traits@V?$basic_string@DU?$char_traits@D@std@@V?$allocator@D@2@@std@@PAU_MACROBLOCK@MQ2Internal@@U?$less@V?$basic_string@DU?$char_traits@D@std@@V?$allocator@D@2@@std@@@2@V?$allocator@U?$pair@$$CBV?$basic_string@DU?$char_traits@D@std@@V?$allocator@D@2@@std@@PAU_MACROBLOCK@MQ2Internal@@@std@@@2@$0A@@std@@@2@PAU342@@Z 0302ef60 f i MQ2Globals.obj
 0001:0002df80       ?_Rrotate@?$_Tree@V?$_Tmap_traits@V?$basic_string@DU?$char_traits@D@std@@V?$allocator@D@2@@std@@PAU_MACROBLOCK@MQ2Internal@@U?$less@V?$basic_string@DU?$char_traits@D@std@@V?$allocator@D@2@@std@@@2@V?$allocator@U?$pair@$$CBV?$basic_string@DU?$char_traits@D@std@@V?$allocator@D@2@@std@@PAU_MACROBLOCK@MQ2Internal@@@std@@@2@$0A@@std@@@std@@IAEXPAU_Node@?$_Tree_nod@V?$_Tmap_traits@V?$basic_string@DU?$char_traits@D@std@@V?$allocator@D@2@@std@@PAU_MACROBLOCK@MQ2Internal@@U?$less@V?$basic_string@DU?$char_traits@D@std@@V?$allocator@D@2@@std@@@2@V?$allocator@U?$pair@$$CBV?$basic_string@DU?$char_traits@D@std@@V?$allocator@D@2@@std@@PAU_MACROBLOCK@MQ2Internal@@@std@@@2@$0A@@std@@@2@@Z 0302ef80 f i MQ2Globals.obj
 0001:0002dfe0       ?_Color@?$_Tree@V?$_Tmap_traits@V?$basic_string@DU?$char_traits@D@std@@V?$allocator@D@2@@std@@PAU_SPAWNINFO@EQData@@U?$less@V?$basic_string@DU?$char_traits@D@std@@V?$allocator@D@2@@std@@@2@V?$allocator@U?$pair@$$CBV?$basic_string@DU?$char_traits@D@std@@V?$allocator@D@2@@std@@PAU_SPAWNINFO@EQData@@@std@@@2@$0A@@std@@@std@@KAAADPAU_Node@?$_Tree_nod@V?$_Tmap_traits@V?$basic_string@DU?$char_traits@D@std@@V?$allocator@D@2@@std@@PAU_SPAWNINFO@EQData@@U?$less@V?$basic_string@DU?$char_traits@D@std@@V?$allocator@D@2@@std@@@2@V?$allocator@U?$pair@$$CBV?$basic_string@DU?$char_traits@D@std@@V?$allocator@D@2@@std@@PAU_SPAWNINFO@EQData@@@std@@@2@$0A@@std@@@2@@Z 0302efe0 f i MQ2Globals.obj
 0001:0002dff0       ?_Lrotate@?$_Tree@V?$_Tmap_traits@V?$basic_string@DU?$char_traits@D@std@@V?$allocator@D@2@@std@@PAU_SPAWNINFO@EQData@@U?$less@V?$basic_string@DU?$char_traits@D@std@@V?$allocator@D@2@@std@@@2@V?$allocator@U?$pair@$$CBV?$basic_string@DU?$char_traits@D@std@@V?$allocator@D@2@@std@@PAU_SPAWNINFO@EQData@@@std@@@2@$0A@@std@@@std@@IAEXPAU_Node@?$_Tree_nod@V?$_Tmap_traits@V?$basic_string@DU?$char_traits@D@std@@V?$allocator@D@2@@std@@PAU_SPAWNINFO@EQData@@U?$less@V?$basic_string@DU?$char_traits@D@std@@V?$allocator@D@2@@std@@@2@V?$allocator@U?$pair@$$CBV?$basic_string@DU?$char_traits@D@std@@V?$allocator@D@2@@std@@PAU_SPAWNINFO@EQData@@@std@@@2@$0A@@std@@@2@@Z 0302eff0 f i MQ2Globals.obj
 0001:0002e040       ?_Max@?$_Tree@V?$_Tmap_traits@V?$basic_string@DU?$char_traits@D@std@@V?$allocator@D@2@@std@@PAU_SPAWNINFO@EQData@@U?$less@V?$basic_string@DU?$char_traits@D@std@@V?$allocator@D@2@@std@@@2@V?$allocator@U?$pair@$$CBV?$basic_string@DU?$char_traits@D@std@@V?$allocator@D@2@@std@@PAU_SPAWNINFO@EQData@@@std@@@2@$0A@@std@@@std@@KAPAU_Node@?$_Tree_nod@V?$_Tmap_traits@V?$basic_string@DU?$char_traits@D@std@@V?$allocator@D@2@@std@@PAU_SPAWNINFO@EQData@@U?$less@V?$basic_string@DU?$char_traits@D@std@@V?$allocator@D@2@@std@@@2@V?$allocator@U?$pair@$$CBV?$basic_string@DU?$char_traits@D@std@@V?$allocator@D@2@@std@@PAU_SPAWNINFO@EQData@@@std@@@2@$0A@@std@@@2@PAU342@@Z 0302f040 f i MQ2Globals.obj
 0001:0002e060       ?_Min@?$_Tree@V?$_Tmap_traits@V?$basic_string@DU?$char_traits@D@std@@V?$allocator@D@2@@std@@PAU_SPAWNINFO@EQData@@U?$less@V?$basic_string@DU?$char_traits@D@std@@V?$allocator@D@2@@std@@@2@V?$allocator@U?$pair@$$CBV?$basic_string@DU?$char_traits@D@std@@V?$allocator@D@2@@std@@PAU_SPAWNINFO@EQData@@@std@@@2@$0A@@std@@@std@@KAPAU_Node@?$_Tree_nod@V?$_Tmap_traits@V?$basic_string@DU?$char_traits@D@std@@V?$allocator@D@2@@std@@PAU_SPAWNINFO@EQData@@U?$less@V?$basic_string@DU?$char_traits@D@std@@V?$allocator@D@2@@std@@@2@V?$allocator@U?$pair@$$CBV?$basic_string@DU?$char_traits@D@std@@V?$allocator@D@2@@std@@PAU_SPAWNINFO@EQData@@@std@@@2@$0A@@std@@@2@PAU342@@Z 0302f060 f i MQ2Globals.obj
 0001:0002e080       ?_Rrotate@?$_Tree@V?$_Tmap_traits@V?$basic_string@DU?$char_traits@D@std@@V?$allocator@D@2@@std@@PAU_SPAWNINFO@EQData@@U?$less@V?$basic_string@DU?$char_traits@D@std@@V?$allocator@D@2@@std@@@2@V?$allocator@U?$pair@$$CBV?$basic_string@DU?$char_traits@D@std@@V?$allocator@D@2@@std@@PAU_SPAWNINFO@EQData@@@std@@@2@$0A@@std@@@std@@IAEXPAU_Node@?$_Tree_nod@V?$_Tmap_traits@V?$basic_string@DU?$char_traits@D@std@@V?$allocator@D@2@@std@@PAU_SPAWNINFO@EQData@@U?$less@V?$basic_string@DU?$char_traits@D@std@@V?$allocator@D@2@@std@@@2@V?$allocator@U?$pair@$$CBV?$basic_string@DU?$char_traits@D@std@@V?$allocator@D@2@@std@@PAU_SPAWNINFO@EQData@@@std@@@2@$0A@@std@@@2@@Z 0302f080 f i MQ2Globals.obj
 0001:0002e0e0       ?_Mynode@const_iterator@?$_Tree@V?$_Tmap_traits@V?$basic_string@DU?$char_traits@D@std@@V?$allocator@D@2@@std@@PAU_MACROBLOCK@MQ2Internal@@U?$less@V?$basic_string@DU?$char_traits@D@std@@V?$allocator@D@2@@std@@@2@V?$allocator@U?$pair@$$CBV?$basic_string@DU?$char_traits@D@std@@V?$allocator@D@2@@std@@PAU_MACROBLOCK@MQ2Internal@@@std@@@2@$0A@@std@@@std@@QBEPAU_Node@?$_Tree_nod@V?$_Tmap_traits@V?$basic_string@DU?$char_traits@D@std@@V?$allocator@D@2@@std@@PAU_MACROBLOCK@MQ2Internal@@U?$less@V?$basic_string@DU?$char_traits@D@std@@V?$allocator@D@2@@std@@@2@V?$allocator@U?$pair@$$CBV?$basic_string@DU?$char_traits@D@std@@V?$allocator@D@2@@std@@PAU_MACROBLOCK@MQ2Internal@@@std@@@2@$0A@@std@@@3@XZ 0302f0e0 f i MQ2Globals.obj
 0001:0002e0f0       ?_Mynode@const_iterator@?$_Tree@V?$_Tmap_traits@V?$basic_string@DU?$char_traits@D@std@@V?$allocator@D@2@@std@@PAU_SPAWNINFO@EQData@@U?$less@V?$basic_string@DU?$char_traits@D@std@@V?$allocator@D@2@@std@@@2@V?$allocator@U?$pair@$$CBV?$basic_string@DU?$char_traits@D@std@@V?$allocator@D@2@@std@@PAU_SPAWNINFO@EQData@@@std@@@2@$0A@@std@@@std@@QBEPAU_Node@?$_Tree_nod@V?$_Tmap_traits@V?$basic_string@DU?$char_traits@D@std@@V?$allocator@D@2@@std@@PAU_SPAWNINFO@EQData@@U?$less@V?$basic_string@DU?$char_traits@D@std@@V?$allocator@D@2@@std@@@2@V?$allocator@U?$pair@$$CBV?$basic_string@DU?$char_traits@D@std@@V?$allocator@D@2@@std@@PAU_SPAWNINFO@EQData@@@std@@@2@$0A@@std@@@3@XZ 0302f0f0 f i MQ2Globals.obj
 0001:0002e100       ??0?$_Iterator_with_base@Ubidirectional_iterator_tag@std@@U?$pair@$$CBV?$basic_string@DU?$char_traits@D@std@@V?$allocator@D@2@@std@@PAU_MACROBLOCK@MQ2Internal@@@2@HPBU32@ABU32@V_Iterator_base_aux@2@@std@@QAE@XZ 0302f100 f i MQ2Globals.obj
 0001:0002e110       ??0?$_Iterator_with_base@Ubidirectional_iterator_tag@std@@U?$pair@$$CBV?$basic_string@DU?$char_traits@D@std@@V?$allocator@D@2@@std@@PAU_SPAWNINFO@EQData@@@2@HPBU32@ABU32@V_Iterator_base_aux@2@@std@@QAE@XZ 0302f110 f i MQ2Globals.obj
 0001:0002e120       ?_Inc@const_iterator@?$_Tree@V?$_Tmap_traits@V?$basic_string@DU?$char_traits@D@std@@V?$allocator@D@2@@std@@PAU_MACROBLOCK@MQ2Internal@@U?$less@V?$basic_string@DU?$char_traits@D@std@@V?$allocator@D@2@@std@@@2@V?$allocator@U?$pair@$$CBV?$basic_string@DU?$char_traits@D@std@@V?$allocator@D@2@@std@@PAU_MACROBLOCK@MQ2Internal@@@std@@@2@$0A@@std@@@std@@QAEXXZ 0302f120 f i MQ2Globals.obj
 0001:0002e190       ?_Inc@const_iterator@?$_Tree@V?$_Tmap_traits@V?$basic_string@DU?$char_traits@D@std@@V?$allocator@D@2@@std@@PAU_SPAWNINFO@EQData@@U?$less@V?$basic_string@DU?$char_traits@D@std@@V?$allocator@D@2@@std@@@2@V?$allocator@U?$pair@$$CBV?$basic_string@DU?$char_traits@D@std@@V?$allocator@D@2@@std@@PAU_SPAWNINFO@EQData@@@std@@@2@$0A@@std@@@std@@QAEXXZ 0302f190 f i MQ2Globals.obj
 0001:0002e200       ??$_Destroy@PAU_Node@?$_Tree_nod@V?$_Tmap_traits@V?$basic_string@DU?$char_traits@D@std@@V?$allocator@D@2@@std@@PAU_MACROBLOCK@MQ2Internal@@U?$less@V?$basic_string@DU?$char_traits@D@std@@V?$allocator@D@2@@std@@@2@V?$allocator@U?$pair@$$CBV?$basic_string@DU?$char_traits@D@std@@V?$allocator@D@2@@std@@PAU_MACROBLOCK@MQ2Internal@@@std@@@2@$0A@@std@@@std@@@std@@YAXPAPAU_Node@?$_Tree_nod@V?$_Tmap_traits@V?$basic_string@DU?$char_traits@D@std@@V?$allocator@D@2@@std@@PAU_MACROBLOCK@MQ2Internal@@U?$less@V?$basic_string@DU?$char_traits@D@std@@V?$allocator@D@2@@std@@@2@V?$allocator@U?$pair@$$CBV?$basic_string@DU?$char_traits@D@std@@V?$allocator@D@2@@std@@PAU_MACROBLOCK@MQ2Internal@@@std@@@2@$0A@@std@@@0@@Z 0302f200 f i MQ2Globals.obj
 0001:0002e210       ??$_Destroy@PAU_Node@?$_Tree_nod@V?$_Tmap_traits@V?$basic_string@DU?$char_traits@D@std@@V?$allocator@D@2@@std@@PAU_SPAWNINFO@EQData@@U?$less@V?$basic_string@DU?$char_traits@D@std@@V?$allocator@D@2@@std@@@2@V?$allocator@U?$pair@$$CBV?$basic_string@DU?$char_traits@D@std@@V?$allocator@D@2@@std@@PAU_SPAWNINFO@EQData@@@std@@@2@$0A@@std@@@std@@@std@@YAXPAPAU_Node@?$_Tree_nod@V?$_Tmap_traits@V?$basic_string@DU?$char_traits@D@std@@V?$allocator@D@2@@std@@PAU_SPAWNINFO@EQData@@U?$less@V?$basic_string@DU?$char_traits@D@std@@V?$allocator@D@2@@std@@@2@V?$allocator@U?$pair@$$CBV?$basic_string@DU?$char_traits@D@std@@V?$allocator@D@2@@std@@PAU_SPAWNINFO@EQData@@@std@@@2@$0A@@std@@@0@@Z 0302f210 f i MQ2Globals.obj
 0001:0002e220       ??$?0U?$pair@$$CBV?$basic_string@DU?$char_traits@D@std@@V?$allocator@D@2@@std@@PAU_MACROBLOCK@MQ2Internal@@@std@@@?$allocator@PAU_Node@?$_Tree_nod@V?$_Tmap_traits@V?$basic_string@DU?$char_traits@D@std@@V?$allocator@D@2@@std@@PAU_MACROBLOCK@MQ2Internal@@U?$less@V?$basic_string@DU?$char_traits@D@std@@V?$allocator@D@2@@std@@@2@V?$allocator@U?$pair@$$CBV?$basic_string@DU?$char_traits@D@std@@V?$allocator@D@2@@std@@PAU_MACROBLOCK@MQ2Internal@@@std@@@2@$0A@@std@@@std@@@std@@QAE@ABV?$allocator@U?$pair@$$CBV?$basic_string@DU?$char_traits@D@std@@V?$allocator@D@2@@std@@PAU_MACROBLOCK@MQ2Internal@@@std@@@1@@Z 0302f220 f i MQ2Globals.obj
 0001:0002e230       ??$?0U?$pair@$$CBV?$basic_string@DU?$char_traits@D@std@@V?$allocator@D@2@@std@@PAU_SPAWNINFO@EQData@@@std@@@?$allocator@PAU_Node@?$_Tree_nod@V?$_Tmap_traits@V?$basic_string@DU?$char_traits@D@std@@V?$allocator@D@2@@std@@PAU_SPAWNINFO@EQData@@U?$less@V?$basic_string@DU?$char_traits@D@std@@V?$allocator@D@2@@std@@@2@V?$allocator@U?$pair@$$CBV?$basic_string@DU?$char_traits@D@std@@V?$allocator@D@2@@std@@PAU_SPAWNINFO@EQData@@@std@@@2@$0A@@std@@@std@@@std@@QAE@ABV?$allocator@U?$pair@$$CBV?$basic_string@DU?$char_traits@D@std@@V?$allocator@D@2@@std@@PAU_SPAWNINFO@EQData@@@std@@@1@@Z 0302f230 f i MQ2Globals.obj
 0001:0002e240       ??$?0U?$pair@$$CBV?$basic_string@DU?$char_traits@D@std@@V?$allocator@D@2@@std@@PAU_MACROBLOCK@MQ2Internal@@@std@@@?$allocator@U_Node@?$_Tree_nod@V?$_Tmap_traits@V?$basic_string@DU?$char_traits@D@std@@V?$allocator@D@2@@std@@PAU_MACROBLOCK@MQ2Internal@@U?$less@V?$basic_string@DU?$char_traits@D@std@@V?$allocator@D@2@@std@@@2@V?$allocator@U?$pair@$$CBV?$basic_string@DU?$char_traits@D@std@@V?$allocator@D@2@@std@@PAU_MACROBLOCK@MQ2Internal@@@std@@@2@$0A@@std@@@std@@@std@@QAE@ABV?$allocator@U?$pair@$$CBV?$basic_string@DU?$char_traits@D@std@@V?$allocator@D@2@@std@@PAU_MACROBLOCK@MQ2Internal@@@std@@@1@@Z 0302f240 f i MQ2Globals.obj
 0001:0002e250       ??$_Allocate@U_Node@?$_Tree_nod@V?$_Tmap_traits@V?$basic_string@DU?$char_traits@D@std@@V?$allocator@D@2@@std@@PAU_MACROBLOCK@MQ2Internal@@U?$less@V?$basic_string@DU?$char_traits@D@std@@V?$allocator@D@2@@std@@@2@V?$allocator@U?$pair@$$CBV?$basic_string@DU?$char_traits@D@std@@V?$allocator@D@2@@std@@PAU_MACROBLOCK@MQ2Internal@@@std@@@2@$0A@@std@@@std@@@std@@YAPAU_Node@?$_Tree_nod@V?$_Tmap_traits@V?$basic_string@DU?$char_traits@D@std@@V?$allocator@D@2@@std@@PAU_MACROBLOCK@MQ2Internal@@U?$less@V?$basic_string@DU?$char_traits@D@std@@V?$allocator@D@2@@std@@@2@V?$allocator@U?$pair@$$CBV?$basic_string@DU?$char_traits@D@std@@V?$allocator@D@2@@std@@PAU_MACROBLOCK@MQ2Internal@@@std@@@2@$0A@@std@@@0@IPAU120@@Z 0302f250 f i MQ2Globals.obj
 0001:0002e2b0       ??$_Construct@PAU_Node@?$_Tree_nod@V?$_Tmap_traits@V?$basic_string@DU?$char_traits@D@std@@V?$allocator@D@2@@std@@PAU_MACROBLOCK@MQ2Internal@@U?$less@V?$basic_string@DU?$char_traits@D@std@@V?$allocator@D@2@@std@@@2@V?$allocator@U?$pair@$$CBV?$basic_string@DU?$char_traits@D@std@@V?$allocator@D@2@@std@@PAU_MACROBLOCK@MQ2Internal@@@std@@@2@$0A@@std@@@std@@PAU123@@std@@YAXPAPAU_Node@?$_Tree_nod@V?$_Tmap_traits@V?$basic_string@DU?$char_traits@D@std@@V?$allocator@D@2@@std@@PAU_MACROBLOCK@MQ2Internal@@U?$less@V?$basic_string@DU?$char_traits@D@std@@V?$allocator@D@2@@std@@@2@V?$allocator@U?$pair@$$CBV?$basic_string@DU?$char_traits@D@std@@V?$allocator@D@2@@std@@PAU_MACROBLOCK@MQ2Internal@@@std@@@2@$0A@@std@@@0@ABQAU120@@Z 0302f2b0 f i MQ2Globals.obj
 0001:0002e2d0       ??$?0U?$pair@$$CBV?$basic_string@DU?$char_traits@D@std@@V?$allocator@D@2@@std@@PAU_SPAWNINFO@EQData@@@std@@@?$allocator@U_Node@?$_Tree_nod@V?$_Tmap_traits@V?$basic_string@DU?$char_traits@D@std@@V?$allocator@D@2@@std@@PAU_SPAWNINFO@EQData@@U?$less@V?$basic_string@DU?$char_traits@D@std@@V?$allocator@D@2@@std@@@2@V?$allocator@U?$pair@$$CBV?$basic_string@DU?$char_traits@D@std@@V?$allocator@D@2@@std@@PAU_SPAWNINFO@EQData@@@std@@@2@$0A@@std@@@std@@@std@@QAE@ABV?$allocator@U?$pair@$$CBV?$basic_string@DU?$char_traits@D@std@@V?$allocator@D@2@@std@@PAU_SPAWNINFO@EQData@@@std@@@1@@Z 0302f2d0 f i MQ2Globals.obj
 0001:0002e2e0       ??$_Allocate@U_Node@?$_Tree_nod@V?$_Tmap_traits@V?$basic_string@DU?$char_traits@D@std@@V?$allocator@D@2@@std@@PAU_SPAWNINFO@EQData@@U?$less@V?$basic_string@DU?$char_traits@D@std@@V?$allocator@D@2@@std@@@2@V?$allocator@U?$pair@$$CBV?$basic_string@DU?$char_traits@D@std@@V?$allocator@D@2@@std@@PAU_SPAWNINFO@EQData@@@std@@@2@$0A@@std@@@std@@@std@@YAPAU_Node@?$_Tree_nod@V?$_Tmap_traits@V?$basic_string@DU?$char_traits@D@std@@V?$allocator@D@2@@std@@PAU_SPAWNINFO@EQData@@U?$less@V?$basic_string@DU?$char_traits@D@std@@V?$allocator@D@2@@std@@@2@V?$allocator@U?$pair@$$CBV?$basic_string@DU?$char_traits@D@std@@V?$allocator@D@2@@std@@PAU_SPAWNINFO@EQData@@@std@@@2@$0A@@std@@@0@IPAU120@@Z 0302f2e0 f i MQ2Globals.obj
 0001:0002e340       ??$_Construct@PAU_Node@?$_Tree_nod@V?$_Tmap_traits@V?$basic_string@DU?$char_traits@D@std@@V?$allocator@D@2@@std@@PAU_SPAWNINFO@EQData@@U?$less@V?$basic_string@DU?$char_traits@D@std@@V?$allocator@D@2@@std@@@2@V?$allocator@U?$pair@$$CBV?$basic_string@DU?$char_traits@D@std@@V?$allocator@D@2@@std@@PAU_SPAWNINFO@EQData@@@std@@@2@$0A@@std@@@std@@PAU123@@std@@YAXPAPAU_Node@?$_Tree_nod@V?$_Tmap_traits@V?$basic_string@DU?$char_traits@D@std@@V?$allocator@D@2@@std@@PAU_SPAWNINFO@EQData@@U?$less@V?$basic_string@DU?$char_traits@D@std@@V?$allocator@D@2@@std@@@2@V?$allocator@U?$pair@$$CBV?$basic_string@DU?$char_traits@D@std@@V?$allocator@D@2@@std@@PAU_SPAWNINFO@EQData@@@std@@@2@$0A@@std@@@0@ABQAU120@@Z 0302f340 f i MQ2Globals.obj
 0001:0002e360       ??$?0U?$pair@$$CBV?$basic_string@DU?$char_traits@D@std@@V?$allocator@D@2@@std@@PAU_MACROBLOCK@MQ2Internal@@@std@@@?$allocator@V_Aux_cont@std@@@std@@QAE@ABV?$allocator@U?$pair@$$CBV?$basic_string@DU?$char_traits@D@std@@V?$allocator@D@2@@std@@PAU_MACROBLOCK@MQ2Internal@@@std@@@1@@Z 0302f360 f i MQ2Globals.obj
 0001:0002e370       ??$?0U?$pair@$$CBV?$basic_string@DU?$char_traits@D@std@@V?$allocator@D@2@@std@@PAU_SPAWNINFO@EQData@@@std@@@?$allocator@V_Aux_cont@std@@@std@@QAE@ABV?$allocator@U?$pair@$$CBV?$basic_string@DU?$char_traits@D@std@@V?$allocator@D@2@@std@@PAU_SPAWNINFO@EQData@@@std@@@1@@Z 0302f370 f i MQ2Globals.obj
 0001:0002e380       ??1?$_Container_base_aux_alloc_real@V?$allocator@U?$pair@$$CBV?$basic_string@DU?$char_traits@D@std@@V?$allocator@D@2@@std@@PAU_MACROBLOCK@MQ2Internal@@@std@@@std@@@std@@IAE@XZ 0302f380 f i MQ2Globals.obj
 0001:0002e390       ??1?$_Container_base_aux_alloc_real@V?$allocator@U?$pair@$$CBV?$basic_string@DU?$char_traits@D@std@@V?$allocator@D@2@@std@@PAU_SPAWNINFO@EQData@@@std@@@std@@@std@@IAE@XZ 0302f390 f i MQ2Globals.obj
 0001:0002e3a0       ?destroy@?$allocator@PAU_Node@?$_Tree_nod@V?$_Tmap_traits@V?$basic_string@DU?$char_traits@D@std@@V?$allocator@D@2@@std@@PAU_MACROBLOCK@MQ2Internal@@U?$less@V?$basic_string@DU?$char_traits@D@std@@V?$allocator@D@2@@std@@@2@V?$allocator@U?$pair@$$CBV?$basic_string@DU?$char_traits@D@std@@V?$allocator@D@2@@std@@PAU_MACROBLOCK@MQ2Internal@@@std@@@2@$0A@@std@@@std@@@std@@QAEXPAPAU_Node@?$_Tree_nod@V?$_Tmap_traits@V?$basic_string@DU?$char_traits@D@std@@V?$allocator@D@2@@std@@PAU_MACROBLOCK@MQ2Internal@@U?$less@V?$basic_string@DU?$char_traits@D@std@@V?$allocator@D@2@@std@@@2@V?$allocator@U?$pair@$$CBV?$basic_string@DU?$char_traits@D@std@@V?$allocator@D@2@@std@@PAU_MACROBLOCK@MQ2Internal@@@std@@@2@$0A@@std@@@2@@Z 0302f3a0 f i MQ2Globals.obj
 0001:0002e3b0       ?destroy@?$allocator@PAU_Node@?$_Tree_nod@V?$_Tmap_traits@V?$basic_string@DU?$char_traits@D@std@@V?$allocator@D@2@@std@@PAU_SPAWNINFO@EQData@@U?$less@V?$basic_string@DU?$char_traits@D@std@@V?$allocator@D@2@@std@@@2@V?$allocator@U?$pair@$$CBV?$basic_string@DU?$char_traits@D@std@@V?$allocator@D@2@@std@@PAU_SPAWNINFO@EQData@@@std@@@2@$0A@@std@@@std@@@std@@QAEXPAPAU_Node@?$_Tree_nod@V?$_Tmap_traits@V?$basic_string@DU?$char_traits@D@std@@V?$allocator@D@2@@std@@PAU_SPAWNINFO@EQData@@U?$less@V?$basic_string@DU?$char_traits@D@std@@V?$allocator@D@2@@std@@@2@V?$allocator@U?$pair@$$CBV?$basic_string@DU?$char_traits@D@std@@V?$allocator@D@2@@std@@PAU_SPAWNINFO@EQData@@@std@@@2@$0A@@std@@@2@@Z 0302f3b0 f i MQ2Globals.obj
 0001:0002e3c0       ?allocate@?$allocator@U_Node@?$_Tree_nod@V?$_Tmap_traits@V?$basic_string@DU?$char_traits@D@std@@V?$allocator@D@2@@std@@PAU_MACROBLOCK@MQ2Internal@@U?$less@V?$basic_string@DU?$char_traits@D@std@@V?$allocator@D@2@@std@@@2@V?$allocator@U?$pair@$$CBV?$basic_string@DU?$char_traits@D@std@@V?$allocator@D@2@@std@@PAU_MACROBLOCK@MQ2Internal@@@std@@@2@$0A@@std@@@std@@@std@@QAEPAU_Node@?$_Tree_nod@V?$_Tmap_traits@V?$basic_string@DU?$char_traits@D@std@@V?$allocator@D@2@@std@@PAU_MACROBLOCK@MQ2Internal@@U?$less@V?$basic_string@DU?$char_traits@D@std@@V?$allocator@D@2@@std@@@2@V?$allocator@U?$pair@$$CBV?$basic_string@DU?$char_traits@D@std@@V?$allocator@D@2@@std@@PAU_MACROBLOCK@MQ2Internal@@@std@@@2@$0A@@std@@@2@I@Z 0302f3c0 f i MQ2Globals.obj
 0001:0002e3e0       ?construct@?$allocator@PAU_Node@?$_Tree_nod@V?$_Tmap_traits@V?$basic_string@DU?$char_traits@D@std@@V?$allocator@D@2@@std@@PAU_MACROBLOCK@MQ2Internal@@U?$less@V?$basic_string@DU?$char_traits@D@std@@V?$allocator@D@2@@std@@@2@V?$allocator@U?$pair@$$CBV?$basic_string@DU?$char_traits@D@std@@V?$allocator@D@2@@std@@PAU_MACROBLOCK@MQ2Internal@@@std@@@2@$0A@@std@@@std@@@std@@QAEXPAPAU_Node@?$_Tree_nod@V?$_Tmap_traits@V?$basic_string@DU?$char_traits@D@std@@V?$allocator@D@2@@std@@PAU_MACROBLOCK@MQ2Internal@@U?$less@V?$basic_string@DU?$char_traits@D@std@@V?$allocator@D@2@@std@@@2@V?$allocator@U?$pair@$$CBV?$basic_string@DU?$char_traits@D@std@@V?$allocator@D@2@@std@@PAU_MACROBLOCK@MQ2Internal@@@std@@@2@$0A@@std@@@2@ABQAU342@@Z 0302f3e0 f i MQ2Globals.obj
 0001:0002e400       ?allocate@?$allocator@U_Node@?$_Tree_nod@V?$_Tmap_traits@V?$basic_string@DU?$char_traits@D@std@@V?$allocator@D@2@@std@@PAU_SPAWNINFO@EQData@@U?$less@V?$basic_string@DU?$char_traits@D@std@@V?$allocator@D@2@@std@@@2@V?$allocator@U?$pair@$$CBV?$basic_string@DU?$char_traits@D@std@@V?$allocator@D@2@@std@@PAU_SPAWNINFO@EQData@@@std@@@2@$0A@@std@@@std@@@std@@QAEPAU_Node@?$_Tree_nod@V?$_Tmap_traits@V?$basic_string@DU?$char_traits@D@std@@V?$allocator@D@2@@std@@PAU_SPAWNINFO@EQData@@U?$less@V?$basic_string@DU?$char_traits@D@std@@V?$allocator@D@2@@std@@@2@V?$allocator@U?$pair@$$CBV?$basic_string@DU?$char_traits@D@std@@V?$allocator@D@2@@std@@PAU_SPAWNINFO@EQData@@@std@@@2@$0A@@std@@@2@I@Z 0302f400 f i MQ2Globals.obj
 0001:0002e420       ?construct@?$allocator@PAU_Node@?$_Tree_nod@V?$_Tmap_traits@V?$basic_string@DU?$char_traits@D@std@@V?$allocator@D@2@@std@@PAU_SPAWNINFO@EQData@@U?$less@V?$basic_string@DU?$char_traits@D@std@@V?$allocator@D@2@@std@@@2@V?$allocator@U?$pair@$$CBV?$basic_string@DU?$char_traits@D@std@@V?$allocator@D@2@@std@@PAU_SPAWNINFO@EQData@@@std@@@2@$0A@@std@@@std@@@std@@QAEXPAPAU_Node@?$_Tree_nod@V?$_Tmap_traits@V?$basic_string@DU?$char_traits@D@std@@V?$allocator@D@2@@std@@PAU_SPAWNINFO@EQData@@U?$less@V?$basic_string@DU?$char_traits@D@std@@V?$allocator@D@2@@std@@@2@V?$allocator@U?$pair@$$CBV?$basic_string@DU?$char_traits@D@std@@V?$allocator@D@2@@std@@PAU_SPAWNINFO@EQData@@@std@@@2@$0A@@std@@@2@ABQAU342@@Z 0302f420 f i MQ2Globals.obj
 0001:0002e440       ??Econst_iterator@?$_Tree@V?$_Tmap_traits@V?$basic_string@DU?$char_traits@D@std@@V?$allocator@D@2@@std@@PAU_MACROBLOCK@MQ2Internal@@U?$less@V?$basic_string@DU?$char_traits@D@std@@V?$allocator@D@2@@std@@@2@V?$allocator@U?$pair@$$CBV?$basic_string@DU?$char_traits@D@std@@V?$allocator@D@2@@std@@PAU_MACROBLOCK@MQ2Internal@@@std@@@2@$0A@@std@@@std@@QAEAAV012@XZ 0302f440 f i MQ2Globals.obj
 0001:0002e450       ??Econst_iterator@?$_Tree@V?$_Tmap_traits@V?$basic_string@DU?$char_traits@D@std@@V?$allocator@D@2@@std@@PAU_SPAWNINFO@EQData@@U?$less@V?$basic_string@DU?$char_traits@D@std@@V?$allocator@D@2@@std@@@2@V?$allocator@U?$pair@$$CBV?$basic_string@DU?$char_traits@D@std@@V?$allocator@D@2@@std@@PAU_SPAWNINFO@EQData@@@std@@@2@$0A@@std@@@std@@QAEAAV012@XZ 0302f450 f i MQ2Globals.obj
 0001:0002e460       ??0?$_Bidit@U?$pair@$$CBV?$basic_string@DU?$char_traits@D@std@@V?$allocator@D@2@@std@@PAU_MACROBLOCK@MQ2Internal@@@std@@HPBU12@ABU12@@std@@QAE@XZ 0302f460 f i MQ2Globals.obj
 0001:0002e470       ??0?$_Bidit@U?$pair@$$CBV?$basic_string@DU?$char_traits@D@std@@V?$allocator@D@2@@std@@PAU_SPAWNINFO@EQData@@@std@@HPBU12@ABU12@@std@@QAE@XZ 0302f470 f i MQ2Globals.obj
 0001:0002e480       ??1?$_Tmap_traits@V?$basic_string@DU?$char_traits@D@std@@V?$allocator@D@2@@std@@PAU_MACROBLOCK@MQ2Internal@@U?$less@V?$basic_string@DU?$char_traits@D@std@@V?$allocator@D@2@@std@@@2@V?$allocator@U?$pair@$$CBV?$basic_string@DU?$char_traits@D@std@@V?$allocator@D@2@@std@@PAU_MACROBLOCK@MQ2Internal@@@std@@@2@$0A@@std@@QAE@XZ 0302f480 f i MQ2Globals.obj
 0001:0002e490       ??1?$_Tmap_traits@V?$basic_string@DU?$char_traits@D@std@@V?$allocator@D@2@@std@@PAU_SPAWNINFO@EQData@@U?$less@V?$basic_string@DU?$char_traits@D@std@@V?$allocator@D@2@@std@@@2@V?$allocator@U?$pair@$$CBV?$basic_string@DU?$char_traits@D@std@@V?$allocator@D@2@@std@@PAU_SPAWNINFO@EQData@@@std@@@2@$0A@@std@@QAE@XZ 0302f490 f i MQ2Globals.obj
 0001:0002e4a0       ?_Buynode@?$_Tree@V?$_Tmap_traits@V?$basic_string@DU?$char_traits@D@std@@V?$allocator@D@2@@std@@PAU_MACROBLOCK@MQ2Internal@@U?$less@V?$basic_string@DU?$char_traits@D@std@@V?$allocator@D@2@@std@@@2@V?$allocator@U?$pair@$$CBV?$basic_string@DU?$char_traits@D@std@@V?$allocator@D@2@@std@@PAU_MACROBLOCK@MQ2Internal@@@std@@@2@$0A@@std@@@std@@IAEPAU_Node@?$_Tree_nod@V?$_Tmap_traits@V?$basic_string@DU?$char_traits@D@std@@V?$allocator@D@2@@std@@PAU_MACROBLOCK@MQ2Internal@@U?$less@V?$basic_string@DU?$char_traits@D@std@@V?$allocator@D@2@@std@@@2@V?$allocator@U?$pair@$$CBV?$basic_string@DU?$char_traits@D@std@@V?$allocator@D@2@@std@@PAU_MACROBLOCK@MQ2Internal@@@std@@@2@$0A@@std@@@2@XZ 0302f4a0 f i MQ2Globals.obj
 0001:0002e540       ?_Buynode@?$_Tree@V?$_Tmap_traits@V?$basic_string@DU?$char_traits@D@std@@V?$allocator@D@2@@std@@PAU_SPAWNINFO@EQData@@U?$less@V?$basic_string@DU?$char_traits@D@std@@V?$allocator@D@2@@std@@@2@V?$allocator@U?$pair@$$CBV?$basic_string@DU?$char_traits@D@std@@V?$allocator@D@2@@std@@PAU_SPAWNINFO@EQData@@@std@@@2@$0A@@std@@@std@@IAEPAU_Node@?$_Tree_nod@V?$_Tmap_traits@V?$basic_string@DU?$char_traits@D@std@@V?$allocator@D@2@@std@@PAU_SPAWNINFO@EQData@@U?$less@V?$basic_string@DU?$char_traits@D@std@@V?$allocator@D@2@@std@@@2@V?$allocator@U?$pair@$$CBV?$basic_string@DU?$char_traits@D@std@@V?$allocator@D@2@@std@@PAU_SPAWNINFO@EQData@@@std@@@2@$0A@@std@@@2@XZ 0302f540 f i MQ2Globals.obj
 0001:0002e5e0       ??Econst_iterator@?$_Tree@V?$_Tmap_traits@V?$basic_string@DU?$char_traits@D@std@@V?$allocator@D@2@@std@@PAU_MACROBLOCK@MQ2Internal@@U?$less@V?$basic_string@DU?$char_traits@D@std@@V?$allocator@D@2@@std@@@2@V?$allocator@U?$pair@$$CBV?$basic_string@DU?$char_traits@D@std@@V?$allocator@D@2@@std@@PAU_MACROBLOCK@MQ2Internal@@@std@@@2@$0A@@std@@@std@@QAE?AV012@H@Z 0302f5e0 f i MQ2Globals.obj
 0001:0002e600       ??Econst_iterator@?$_Tree@V?$_Tmap_traits@V?$basic_string@DU?$char_traits@D@std@@V?$allocator@D@2@@std@@PAU_SPAWNINFO@EQData@@U?$less@V?$basic_string@DU?$char_traits@D@std@@V?$allocator@D@2@@std@@@2@V?$allocator@U?$pair@$$CBV?$basic_string@DU?$char_traits@D@std@@V?$allocator@D@2@@std@@PAU_SPAWNINFO@EQData@@@std@@@2@$0A@@std@@@std@@QAE?AV012@H@Z 0302f600 f i MQ2Globals.obj
 0001:0002e620       ??0const_iterator@?$_Tree@V?$_Tmap_traits@V?$basic_string@DU?$char_traits@D@std@@V?$allocator@D@2@@std@@PAU_MACROBLOCK@MQ2Internal@@U?$less@V?$basic_string@DU?$char_traits@D@std@@V?$allocator@D@2@@std@@@2@V?$allocator@U?$pair@$$CBV?$basic_string@DU?$char_traits@D@std@@V?$allocator@D@2@@std@@PAU_MACROBLOCK@MQ2Internal@@@std@@@2@$0A@@std@@@std@@QAE@PAU_Node@?$_Tree_nod@V?$_Tmap_traits@V?$basic_string@DU?$char_traits@D@std@@V?$allocator@D@2@@std@@PAU_MACROBLOCK@MQ2Internal@@U?$less@V?$basic_string@DU?$char_traits@D@std@@V?$allocator@D@2@@std@@@2@V?$allocator@U?$pair@$$CBV?$basic_string@DU?$char_traits@D@std@@V?$allocator@D@2@@std@@PAU_MACROBLOCK@MQ2Internal@@@std@@@2@$0A@@std@@@2@PBV12@@Z 0302f620 f i MQ2Globals.obj
 0001:0002e650       ??0const_iterator@?$_Tree@V?$_Tmap_traits@V?$basic_string@DU?$char_traits@D@std@@V?$allocator@D@2@@std@@PAU_SPAWNINFO@EQData@@U?$less@V?$basic_string@DU?$char_traits@D@std@@V?$allocator@D@2@@std@@@2@V?$allocator@U?$pair@$$CBV?$basic_string@DU?$char_traits@D@std@@V?$allocator@D@2@@std@@PAU_SPAWNINFO@EQData@@@std@@@2@$0A@@std@@@std@@QAE@PAU_Node@?$_Tree_nod@V?$_Tmap_traits@V?$basic_string@DU?$char_traits@D@std@@V?$allocator@D@2@@std@@PAU_SPAWNINFO@EQData@@U?$less@V?$basic_string@DU?$char_traits@D@std@@V?$allocator@D@2@@std@@@2@V?$allocator@U?$pair@$$CBV?$basic_string@DU?$char_traits@D@std@@V?$allocator@D@2@@std@@PAU_SPAWNINFO@EQData@@@std@@@2@$0A@@std@@@2@PBV12@@Z 0302f650 f i MQ2Globals.obj
 0001:0002e680       ??0?$_Container_base_aux_alloc_real@V?$allocator@U?$pair@$$CBV?$basic_string@DU?$char_traits@D@std@@V?$allocator@D@2@@std@@PAU_MACROBLOCK@MQ2Internal@@@std@@@std@@@std@@IAE@V?$allocator@U?$pair@$$CBV?$basic_string@DU?$char_traits@D@std@@V?$allocator@D@2@@std@@PAU_MACROBLOCK@MQ2Internal@@@std@@@1@@Z 0302f680 f i MQ2Globals.obj
 0001:0002e6b0       ??0?$_Container_base_aux_alloc_real@V?$allocator@U?$pair@$$CBV?$basic_string@DU?$char_traits@D@std@@V?$allocator@D@2@@std@@PAU_SPAWNINFO@EQData@@@std@@@std@@@std@@IAE@V?$allocator@U?$pair@$$CBV?$basic_string@DU?$char_traits@D@std@@V?$allocator@D@2@@std@@PAU_SPAWNINFO@EQData@@@std@@@1@@Z 0302f6b0 f i MQ2Globals.obj
 0001:0002e6e0       ??1?$_Tree_nod@V?$_Tmap_traits@V?$basic_string@DU?$char_traits@D@std@@V?$allocator@D@2@@std@@PAU_MACROBLOCK@MQ2Internal@@U?$less@V?$basic_string@DU?$char_traits@D@std@@V?$allocator@D@2@@std@@@2@V?$allocator@U?$pair@$$CBV?$basic_string@DU?$char_traits@D@std@@V?$allocator@D@2@@std@@PAU_MACROBLOCK@MQ2Internal@@@std@@@2@$0A@@std@@@std@@QAE@XZ 0302f6e0 f i MQ2Globals.obj
 0001:0002e6f0       ??1?$_Tree_nod@V?$_Tmap_traits@V?$basic_string@DU?$char_traits@D@std@@V?$allocator@D@2@@std@@PAU_SPAWNINFO@EQData@@U?$less@V?$basic_string@DU?$char_traits@D@std@@V?$allocator@D@2@@std@@@2@V?$allocator@U?$pair@$$CBV?$basic_string@DU?$char_traits@D@std@@V?$allocator@D@2@@std@@PAU_SPAWNINFO@EQData@@@std@@@2@$0A@@std@@@std@@QAE@XZ 0302f6f0 f i MQ2Globals.obj
 0001:0002e700       ?_Init@?$_Tree@V?$_Tmap_traits@V?$basic_string@DU?$char_traits@D@std@@V?$allocator@D@2@@std@@PAU_MACROBLOCK@MQ2Internal@@U?$less@V?$basic_string@DU?$char_traits@D@std@@V?$allocator@D@2@@std@@@2@V?$allocator@U?$pair@$$CBV?$basic_string@DU?$char_traits@D@std@@V?$allocator@D@2@@std@@PAU_MACROBLOCK@MQ2Internal@@@std@@@2@$0A@@std@@@std@@IAEXXZ 0302f700 f i MQ2Globals.obj
 0001:0002e730       ?_Init@?$_Tree@V?$_Tmap_traits@V?$basic_string@DU?$char_traits@D@std@@V?$allocator@D@2@@std@@PAU_SPAWNINFO@EQData@@U?$less@V?$basic_string@DU?$char_traits@D@std@@V?$allocator@D@2@@std@@@2@V?$allocator@U?$pair@$$CBV?$basic_string@DU?$char_traits@D@std@@V?$allocator@D@2@@std@@PAU_SPAWNINFO@EQData@@@std@@@2@$0A@@std@@@std@@IAEXXZ 0302f730 f i MQ2Globals.obj
 0001:0002e760       ??0iterator@?$_Tree@V?$_Tmap_traits@V?$basic_string@DU?$char_traits@D@std@@V?$allocator@D@2@@std@@PAU_MACROBLOCK@MQ2Internal@@U?$less@V?$basic_string@DU?$char_traits@D@std@@V?$allocator@D@2@@std@@@2@V?$allocator@U?$pair@$$CBV?$basic_string@DU?$char_traits@D@std@@V?$allocator@D@2@@std@@PAU_MACROBLOCK@MQ2Internal@@@std@@@2@$0A@@std@@@std@@QAE@PAU_Node@?$_Tree_nod@V?$_Tmap_traits@V?$basic_string@DU?$char_traits@D@std@@V?$allocator@D@2@@std@@PAU_MACROBLOCK@MQ2Internal@@U?$less@V?$basic_string@DU?$char_traits@D@std@@V?$allocator@D@2@@std@@@2@V?$allocator@U?$pair@$$CBV?$basic_string@DU?$char_traits@D@std@@V?$allocator@D@2@@std@@PAU_MACROBLOCK@MQ2Internal@@@std@@@2@$0A@@std@@@2@PBV12@@Z 0302f760 f i MQ2Globals.obj
 0001:0002e790       ??0iterator@?$_Tree@V?$_Tmap_traits@V?$basic_string@DU?$char_traits@D@std@@V?$allocator@D@2@@std@@PAU_SPAWNINFO@EQData@@U?$less@V?$basic_string@DU?$char_traits@D@std@@V?$allocator@D@2@@std@@@2@V?$allocator@U?$pair@$$CBV?$basic_string@DU?$char_traits@D@std@@V?$allocator@D@2@@std@@PAU_SPAWNINFO@EQData@@@std@@@2@$0A@@std@@@std@@QAE@PAU_Node@?$_Tree_nod@V?$_Tmap_traits@V?$basic_string@DU?$char_traits@D@std@@V?$allocator@D@2@@std@@PAU_SPAWNINFO@EQData@@U?$less@V?$basic_string@DU?$char_traits@D@std@@V?$allocator@D@2@@std@@@2@V?$allocator@U?$pair@$$CBV?$basic_string@DU?$char_traits@D@std@@V?$allocator@D@2@@std@@PAU_SPAWNINFO@EQData@@@std@@@2@$0A@@std@@@2@PBV12@@Z 0302f790 f i MQ2Globals.obj
 0001:0002e7c0       ??0?$_Tmap_traits@V?$basic_string@DU?$char_traits@D@std@@V?$allocator@D@2@@std@@PAU_MACROBLOCK@MQ2Internal@@U?$less@V?$basic_string@DU?$char_traits@D@std@@V?$allocator@D@2@@std@@@2@V?$allocator@U?$pair@$$CBV?$basic_string@DU?$char_traits@D@std@@V?$allocator@D@2@@std@@PAU_MACROBLOCK@MQ2Internal@@@std@@@2@$0A@@std@@QAE@U?$less@V?$basic_string@DU?$char_traits@D@std@@V?$allocator@D@2@@std@@@1@V?$allocator@U?$pair@$$CBV?$basic_string@DU?$char_traits@D@std@@V?$allocator@D@2@@std@@PAU_MACROBLOCK@MQ2Internal@@@std@@@1@@Z 0302f7c0 f i MQ2Globals.obj
 0001:0002e7f0       ??0?$_Tmap_traits@V?$basic_string@DU?$char_traits@D@std@@V?$allocator@D@2@@std@@PAU_SPAWNINFO@EQData@@U?$less@V?$basic_string@DU?$char_traits@D@std@@V?$allocator@D@2@@std@@@2@V?$allocator@U?$pair@$$CBV?$basic_string@DU?$char_traits@D@std@@V?$allocator@D@2@@std@@PAU_SPAWNINFO@EQData@@@std@@@2@$0A@@std@@QAE@U?$less@V?$basic_string@DU?$char_traits@D@std@@V?$allocator@D@2@@std@@@1@V?$allocator@U?$pair@$$CBV?$basic_string@DU?$char_traits@D@std@@V?$allocator@D@2@@std@@PAU_SPAWNINFO@EQData@@@std@@@1@@Z 0302f7f0 f i MQ2Globals.obj
 0001:0002e820       ??1?$pair@$$CBV?$basic_string@DU?$char_traits@D@std@@V?$allocator@D@2@@std@@PAU_MACROBLOCK@MQ2Internal@@@std@@QAE@XZ 0302f820 f i MQ2Globals.obj
 0001:0002e850       ??1?$pair@$$CBV?$basic_string@DU?$char_traits@D@std@@V?$allocator@D@2@@std@@PAU_SPAWNINFO@EQData@@@std@@QAE@XZ 0302f850 f i MQ2Globals.obj
 0001:0002e880       ??1?$_Tree_ptr@V?$_Tmap_traits@V?$basic_string@DU?$char_traits@D@std@@V?$allocator@D@2@@std@@PAU_MACROBLOCK@MQ2Internal@@U?$less@V?$basic_string@DU?$char_traits@D@std@@V?$allocator@D@2@@std@@@2@V?$allocator@U?$pair@$$CBV?$basic_string@DU?$char_traits@D@std@@V?$allocator@D@2@@std@@PAU_MACROBLOCK@MQ2Internal@@@std@@@2@$0A@@std@@@std@@QAE@XZ 0302f880 f i MQ2Globals.obj
 0001:0002e890       ??1?$_Tree_ptr@V?$_Tmap_traits@V?$basic_string@DU?$char_traits@D@std@@V?$allocator@D@2@@std@@PAU_SPAWNINFO@EQData@@U?$less@V?$basic_string@DU?$char_traits@D@std@@V?$allocator@D@2@@std@@@2@V?$allocator@U?$pair@$$CBV?$basic_string@DU?$char_traits@D@std@@V?$allocator@D@2@@std@@PAU_SPAWNINFO@EQData@@@std@@@2@$0A@@std@@@std@@QAE@XZ 0302f890 f i MQ2Globals.obj
 0001:0002e8a0       ?begin@?$_Tree@V?$_Tmap_traits@V?$basic_string@DU?$char_traits@D@std@@V?$allocator@D@2@@std@@PAU_MACROBLOCK@MQ2Internal@@U?$less@V?$basic_string@DU?$char_traits@D@std@@V?$allocator@D@2@@std@@@2@V?$allocator@U?$pair@$$CBV?$basic_string@DU?$char_traits@D@std@@V?$allocator@D@2@@std@@PAU_MACROBLOCK@MQ2Internal@@@std@@@2@$0A@@std@@@std@@QAE?AViterator@12@XZ 0302f8a0 f i MQ2Globals.obj
 0001:0002e8c0       ?end@?$_Tree@V?$_Tmap_traits@V?$basic_string@DU?$char_traits@D@std@@V?$allocator@D@2@@std@@PAU_MACROBLOCK@MQ2Internal@@U?$less@V?$basic_string@DU?$char_traits@D@std@@V?$allocator@D@2@@std@@@2@V?$allocator@U?$pair@$$CBV?$basic_string@DU?$char_traits@D@std@@V?$allocator@D@2@@std@@PAU_MACROBLOCK@MQ2Internal@@@std@@@2@$0A@@std@@@std@@QAE?AViterator@12@XZ 0302f8c0 f i MQ2Globals.obj
 0001:0002e8e0       ?begin@?$_Tree@V?$_Tmap_traits@V?$basic_string@DU?$char_traits@D@std@@V?$allocator@D@2@@std@@PAU_SPAWNINFO@EQData@@U?$less@V?$basic_string@DU?$char_traits@D@std@@V?$allocator@D@2@@std@@@2@V?$allocator@U?$pair@$$CBV?$basic_string@DU?$char_traits@D@std@@V?$allocator@D@2@@std@@PAU_SPAWNINFO@EQData@@@std@@@2@$0A@@std@@@std@@QAE?AViterator@12@XZ 0302f8e0 f i MQ2Globals.obj
 0001:0002e900       ?end@?$_Tree@V?$_Tmap_traits@V?$basic_string@DU?$char_traits@D@std@@V?$allocator@D@2@@std@@PAU_SPAWNINFO@EQData@@U?$less@V?$basic_string@DU?$char_traits@D@std@@V?$allocator@D@2@@std@@@2@V?$allocator@U?$pair@$$CBV?$basic_string@DU?$char_traits@D@std@@V?$allocator@D@2@@std@@PAU_SPAWNINFO@EQData@@@std@@@2@$0A@@std@@@std@@QAE?AViterator@12@XZ 0302f900 f i MQ2Globals.obj
 0001:0002e920       ?_Make_iter@?$_Tree@V?$_Tmap_traits@V?$basic_string@DU?$char_traits@D@std@@V?$allocator@D@2@@std@@PAU_MACROBLOCK@MQ2Internal@@U?$less@V?$basic_string@DU?$char_traits@D@std@@V?$allocator@D@2@@std@@@2@V?$allocator@U?$pair@$$CBV?$basic_string@DU?$char_traits@D@std@@V?$allocator@D@2@@std@@PAU_MACROBLOCK@MQ2Internal@@@std@@@2@$0A@@std@@@std@@QBE?AViterator@12@Vconst_iterator@12@@Z 0302f920 f i MQ2Globals.obj
 0001:0002e950       ?_Make_iter@?$_Tree@V?$_Tmap_traits@V?$basic_string@DU?$char_traits@D@std@@V?$allocator@D@2@@std@@PAU_SPAWNINFO@EQData@@U?$less@V?$basic_string@DU?$char_traits@D@std@@V?$allocator@D@2@@std@@@2@V?$allocator@U?$pair@$$CBV?$basic_string@DU?$char_traits@D@std@@V?$allocator@D@2@@std@@PAU_SPAWNINFO@EQData@@@std@@@2@$0A@@std@@@std@@QBE?AViterator@12@Vconst_iterator@12@@Z 0302f950 f i MQ2Globals.obj
 0001:0002e980       ??0?$_Tree_nod@V?$_Tmap_traits@V?$basic_string@DU?$char_traits@D@std@@V?$allocator@D@2@@std@@PAU_MACROBLOCK@MQ2Internal@@U?$less@V?$basic_string@DU?$char_traits@D@std@@V?$allocator@D@2@@std@@@2@V?$allocator@U?$pair@$$CBV?$basic_string@DU?$char_traits@D@std@@V?$allocator@D@2@@std@@PAU_MACROBLOCK@MQ2Internal@@@std@@@2@$0A@@std@@@std@@IAE@ABU?$less@V?$basic_string@DU?$char_traits@D@std@@V?$allocator@D@2@@std@@@1@V?$allocator@U?$pair@$$CBV?$basic_string@DU?$char_traits@D@std@@V?$allocator@D@2@@std@@PAU_MACROBLOCK@MQ2Internal@@@std@@@1@@Z 0302f980 f i MQ2Globals.obj
 0001:0002e9b0       ??0?$_Tree_nod@V?$_Tmap_traits@V?$basic_string@DU?$char_traits@D@std@@V?$allocator@D@2@@std@@PAU_SPAWNINFO@EQData@@U?$less@V?$basic_string@DU?$char_traits@D@std@@V?$allocator@D@2@@std@@@2@V?$allocator@U?$pair@$$CBV?$basic_string@DU?$char_traits@D@std@@V?$allocator@D@2@@std@@PAU_SPAWNINFO@EQData@@@std@@@2@$0A@@std@@@std@@IAE@ABU?$less@V?$basic_string@DU?$char_traits@D@std@@V?$allocator@D@2@@std@@@1@V?$allocator@U?$pair@$$CBV?$basic_string@DU?$char_traits@D@std@@V?$allocator@D@2@@std@@PAU_SPAWNINFO@EQData@@@std@@@1@@Z 0302f9b0 f i MQ2Globals.obj
 0001:0002e9e0       ??1_Node@?$_Tree_nod@V?$_Tmap_traits@V?$basic_string@DU?$char_traits@D@std@@V?$allocator@D@2@@std@@PAU_MACROBLOCK@MQ2Internal@@U?$less@V?$basic_string@DU?$char_traits@D@std@@V?$allocator@D@2@@std@@@2@V?$allocator@U?$pair@$$CBV?$basic_string@DU?$char_traits@D@std@@V?$allocator@D@2@@std@@PAU_MACROBLOCK@MQ2Internal@@@std@@@2@$0A@@std@@@std@@QAE@XZ 0302f9e0 f i MQ2Globals.obj
 0001:0002ea10       ??1_Node@?$_Tree_nod@V?$_Tmap_traits@V?$basic_string@DU?$char_traits@D@std@@V?$allocator@D@2@@std@@PAU_SPAWNINFO@EQData@@U?$less@V?$basic_string@DU?$char_traits@D@std@@V?$allocator@D@2@@std@@@2@V?$allocator@U?$pair@$$CBV?$basic_string@DU?$char_traits@D@std@@V?$allocator@D@2@@std@@PAU_SPAWNINFO@EQData@@@std@@@2@$0A@@std@@@std@@QAE@XZ 0302fa10 f i MQ2Globals.obj
 0001:0002ea40       ??1?$_Tree_val@V?$_Tmap_traits@V?$basic_string@DU?$char_traits@D@std@@V?$allocator@D@2@@std@@PAU_MACROBLOCK@MQ2Internal@@U?$less@V?$basic_string@DU?$char_traits@D@std@@V?$allocator@D@2@@std@@@2@V?$allocator@U?$pair@$$CBV?$basic_string@DU?$char_traits@D@std@@V?$allocator@D@2@@std@@PAU_MACROBLOCK@MQ2Internal@@@std@@@2@$0A@@std@@@std@@QAE@XZ 0302fa40 f i MQ2Globals.obj
 0001:0002ea50       ??1?$_Tree_val@V?$_Tmap_traits@V?$basic_string@DU?$char_traits@D@std@@V?$allocator@D@2@@std@@PAU_SPAWNINFO@EQData@@U?$less@V?$basic_string@DU?$char_traits@D@std@@V?$allocator@D@2@@std@@@2@V?$allocator@U?$pair@$$CBV?$basic_string@DU?$char_traits@D@std@@V?$allocator@D@2@@std@@PAU_SPAWNINFO@EQData@@@std@@@2@$0A@@std@@@std@@QAE@XZ 0302fa50 f i MQ2Globals.obj
 0001:0002ea60       ??0?$_Tree_ptr@V?$_Tmap_traits@V?$basic_string@DU?$char_traits@D@std@@V?$allocator@D@2@@std@@PAU_MACROBLOCK@MQ2Internal@@U?$less@V?$basic_string@DU?$char_traits@D@std@@V?$allocator@D@2@@std@@@2@V?$allocator@U?$pair@$$CBV?$basic_string@DU?$char_traits@D@std@@V?$allocator@D@2@@std@@PAU_MACROBLOCK@MQ2Internal@@@std@@@2@$0A@@std@@@std@@IAE@ABU?$less@V?$basic_string@DU?$char_traits@D@std@@V?$allocator@D@2@@std@@@1@V?$allocator@U?$pair@$$CBV?$basic_string@DU?$char_traits@D@std@@V?$allocator@D@2@@std@@PAU_MACROBLOCK@MQ2Internal@@@std@@@1@@Z 0302fa60 f i MQ2Globals.obj
 0001:0002ea90       ??0?$_Tree_ptr@V?$_Tmap_traits@V?$basic_string@DU?$char_traits@D@std@@V?$allocator@D@2@@std@@PAU_SPAWNINFO@EQData@@U?$less@V?$basic_string@DU?$char_traits@D@std@@V?$allocator@D@2@@std@@@2@V?$allocator@U?$pair@$$CBV?$basic_string@DU?$char_traits@D@std@@V?$allocator@D@2@@std@@PAU_SPAWNINFO@EQData@@@std@@@2@$0A@@std@@@std@@IAE@ABU?$less@V?$basic_string@DU?$char_traits@D@std@@V?$allocator@D@2@@std@@@1@V?$allocator@U?$pair@$$CBV?$basic_string@DU?$char_traits@D@std@@V?$allocator@D@2@@std@@PAU_SPAWNINFO@EQData@@@std@@@1@@Z 0302fa90 f i MQ2Globals.obj
 0001:0002eac0       ??_G_Node@?$_Tree_nod@V?$_Tmap_traits@V?$basic_string@DU?$char_traits@D@std@@V?$allocator@D@2@@std@@PAU_MACROBLOCK@MQ2Internal@@U?$less@V?$basic_string@DU?$char_traits@D@std@@V?$allocator@D@2@@std@@@2@V?$allocator@U?$pair@$$CBV?$basic_string@DU?$char_traits@D@std@@V?$allocator@D@2@@std@@PAU_MACROBLOCK@MQ2Internal@@@std@@@2@$0A@@std@@@std@@QAEPAXI@Z 0302fac0 f i MQ2Globals.obj
 0001:0002eb00       ??_G_Node@?$_Tree_nod@V?$_Tmap_traits@V?$basic_string@DU?$char_traits@D@std@@V?$allocator@D@2@@std@@PAU_SPAWNINFO@EQData@@U?$less@V?$basic_string@DU?$char_traits@D@std@@V?$allocator@D@2@@std@@@2@V?$allocator@U?$pair@$$CBV?$basic_string@DU?$char_traits@D@std@@V?$allocator@D@2@@std@@PAU_SPAWNINFO@EQData@@@std@@@2@$0A@@std@@@std@@QAEPAXI@Z 0302fb00 f i MQ2Globals.obj
 0001:0002eb40       ??0?$_Tree_val@V?$_Tmap_traits@V?$basic_string@DU?$char_traits@D@std@@V?$allocator@D@2@@std@@PAU_MACROBLOCK@MQ2Internal@@U?$less@V?$basic_string@DU?$char_traits@D@std@@V?$allocator@D@2@@std@@@2@V?$allocator@U?$pair@$$CBV?$basic_string@DU?$char_traits@D@std@@V?$allocator@D@2@@std@@PAU_MACROBLOCK@MQ2Internal@@@std@@@2@$0A@@std@@@std@@IAE@ABU?$less@V?$basic_string@DU?$char_traits@D@std@@V?$allocator@D@2@@std@@@1@V?$allocator@U?$pair@$$CBV?$basic_string@DU?$char_traits@D@std@@V?$allocator@D@2@@std@@PAU_MACROBLOCK@MQ2Internal@@@std@@@1@@Z 0302fb40 f i MQ2Globals.obj
 0001:0002eb70       ??0?$_Tree_val@V?$_Tmap_traits@V?$basic_string@DU?$char_traits@D@std@@V?$allocator@D@2@@std@@PAU_SPAWNINFO@EQData@@U?$less@V?$basic_string@DU?$char_traits@D@std@@V?$allocator@D@2@@std@@@2@V?$allocator@U?$pair@$$CBV?$basic_string@DU?$char_traits@D@std@@V?$allocator@D@2@@std@@PAU_SPAWNINFO@EQData@@@std@@@2@$0A@@std@@@std@@IAE@ABU?$less@V?$basic_string@DU?$char_traits@D@std@@V?$allocator@D@2@@std@@@1@V?$allocator@U?$pair@$$CBV?$basic_string@DU?$char_traits@D@std@@V?$allocator@D@2@@std@@PAU_SPAWNINFO@EQData@@@std@@@1@@Z 0302fb70 f i MQ2Globals.obj
 0001:0002eba0       ??$_Destroy@U_Node@?$_Tree_nod@V?$_Tmap_traits@V?$basic_string@DU?$char_traits@D@std@@V?$allocator@D@2@@std@@PAU_MACROBLOCK@MQ2Internal@@U?$less@V?$basic_string@DU?$char_traits@D@std@@V?$allocator@D@2@@std@@@2@V?$allocator@U?$pair@$$CBV?$basic_string@DU?$char_traits@D@std@@V?$allocator@D@2@@std@@PAU_MACROBLOCK@MQ2Internal@@@std@@@2@$0A@@std@@@std@@@std@@YAXPAU_Node@?$_Tree_nod@V?$_Tmap_traits@V?$basic_string@DU?$char_traits@D@std@@V?$allocator@D@2@@std@@PAU_MACROBLOCK@MQ2Internal@@U?$less@V?$basic_string@DU?$char_traits@D@std@@V?$allocator@D@2@@std@@@2@V?$allocator@U?$pair@$$CBV?$basic_string@DU?$char_traits@D@std@@V?$allocator@D@2@@std@@PAU_MACROBLOCK@MQ2Internal@@@std@@@2@$0A@@std@@@0@@Z 0302fba0 f i MQ2Globals.obj
 0001:0002ebd0       ??$_Destroy@U_Node@?$_Tree_nod@V?$_Tmap_traits@V?$basic_string@DU?$char_traits@D@std@@V?$allocator@D@2@@std@@PAU_SPAWNINFO@EQData@@U?$less@V?$basic_string@DU?$char_traits@D@std@@V?$allocator@D@2@@std@@@2@V?$allocator@U?$pair@$$CBV?$basic_string@DU?$char_traits@D@std@@V?$allocator@D@2@@std@@PAU_SPAWNINFO@EQData@@@std@@@2@$0A@@std@@@std@@@std@@YAXPAU_Node@?$_Tree_nod@V?$_Tmap_traits@V?$basic_string@DU?$char_traits@D@std@@V?$allocator@D@2@@std@@PAU_SPAWNINFO@EQData@@U?$less@V?$basic_string@DU?$char_traits@D@std@@V?$allocator@D@2@@std@@@2@V?$allocator@U?$pair@$$CBV?$basic_string@DU?$char_traits@D@std@@V?$allocator@D@2@@std@@PAU_SPAWNINFO@EQData@@@std@@@2@$0A@@std@@@0@@Z 0302fbd0 f i MQ2Globals.obj
 0001:0002ec00       ??0?$_Tree@V?$_Tmap_traits@V?$basic_string@DU?$char_traits@D@std@@V?$allocator@D@2@@std@@PAU_MACROBLOCK@MQ2Internal@@U?$less@V?$basic_string@DU?$char_traits@D@std@@V?$allocator@D@2@@std@@@2@V?$allocator@U?$pair@$$CBV?$basic_string@DU?$char_traits@D@std@@V?$allocator@D@2@@std@@PAU_MACROBLOCK@MQ2Internal@@@std@@@2@$0A@@std@@@std@@QAE@ABU?$less@V?$basic_string@DU?$char_traits@D@std@@V?$allocator@D@2@@std@@@1@ABV?$allocator@U?$pair@$$CBV?$basic_string@DU?$char_traits@D@std@@V?$allocator@D@2@@std@@PAU_MACROBLOCK@MQ2Internal@@@std@@@1@@Z 0302fc00 f i MQ2Globals.obj
 0001:0002ec50       ??0?$_Tree@V?$_Tmap_traits@V?$basic_string@DU?$char_traits@D@std@@V?$allocator@D@2@@std@@PAU_SPAWNINFO@EQData@@U?$less@V?$basic_string@DU?$char_traits@D@std@@V?$allocator@D@2@@std@@@2@V?$allocator@U?$pair@$$CBV?$basic_string@DU?$char_traits@D@std@@V?$allocator@D@2@@std@@PAU_SPAWNINFO@EQData@@@std@@@2@$0A@@std@@@std@@QAE@ABU?$less@V?$basic_string@DU?$char_traits@D@std@@V?$allocator@D@2@@std@@@1@ABV?$allocator@U?$pair@$$CBV?$basic_string@DU?$char_traits@D@std@@V?$allocator@D@2@@std@@PAU_SPAWNINFO@EQData@@@std@@@1@@Z 0302fc50 f i MQ2Globals.obj
 0001:0002eca0       ?destroy@?$allocator@U_Node@?$_Tree_nod@V?$_Tmap_traits@V?$basic_string@DU?$char_traits@D@std@@V?$allocator@D@2@@std@@PAU_MACROBLOCK@MQ2Internal@@U?$less@V?$basic_string@DU?$char_traits@D@std@@V?$allocator@D@2@@std@@@2@V?$allocator@U?$pair@$$CBV?$basic_string@DU?$char_traits@D@std@@V?$allocator@D@2@@std@@PAU_MACROBLOCK@MQ2Internal@@@std@@@2@$0A@@std@@@std@@@std@@QAEXPAU_Node@?$_Tree_nod@V?$_Tmap_traits@V?$basic_string@DU?$char_traits@D@std@@V?$allocator@D@2@@std@@PAU_MACROBLOCK@MQ2Internal@@U?$less@V?$basic_string@DU?$char_traits@D@std@@V?$allocator@D@2@@std@@@2@V?$allocator@U?$pair@$$CBV?$basic_string@DU?$char_traits@D@std@@V?$allocator@D@2@@std@@PAU_MACROBLOCK@MQ2Internal@@@std@@@2@$0A@@std@@@2@@Z 0302fca0 f i MQ2Globals.obj
 0001:0002ecd0       ?destroy@?$allocator@U_Node@?$_Tree_nod@V?$_Tmap_traits@V?$basic_string@DU?$char_traits@D@std@@V?$allocator@D@2@@std@@PAU_SPAWNINFO@EQData@@U?$less@V?$basic_string@DU?$char_traits@D@std@@V?$allocator@D@2@@std@@@2@V?$allocator@U?$pair@$$CBV?$basic_string@DU?$char_traits@D@std@@V?$allocator@D@2@@std@@PAU_SPAWNINFO@EQData@@@std@@@2@$0A@@std@@@std@@@std@@QAEXPAU_Node@?$_Tree_nod@V?$_Tmap_traits@V?$basic_string@DU?$char_traits@D@std@@V?$allocator@D@2@@std@@PAU_SPAWNINFO@EQData@@U?$less@V?$basic_string@DU?$char_traits@D@std@@V?$allocator@D@2@@std@@@2@V?$allocator@U?$pair@$$CBV?$basic_string@DU?$char_traits@D@std@@V?$allocator@D@2@@std@@PAU_SPAWNINFO@EQData@@@std@@@2@$0A@@std@@@2@@Z 0302fcd0 f i MQ2Globals.obj
 0001:0002ed00       ?erase@?$_Tree@V?$_Tmap_traits@V?$basic_string@DU?$char_traits@D@std@@V?$allocator@D@2@@std@@PAU_MACROBLOCK@MQ2Internal@@U?$less@V?$basic_string@DU?$char_traits@D@std@@V?$allocator@D@2@@std@@@2@V?$allocator@U?$pair@$$CBV?$basic_string@DU?$char_traits@D@std@@V?$allocator@D@2@@std@@PAU_MACROBLOCK@MQ2Internal@@@std@@@2@$0A@@std@@@std@@QAE?AViterator@12@Vconst_iterator@12@@Z 0302fd00 f i MQ2Globals.obj
 0001:0002efe0       ?erase@?$_Tree@V?$_Tmap_traits@V?$basic_string@DU?$char_traits@D@std@@V?$allocator@D@2@@std@@PAU_SPAWNINFO@EQData@@U?$less@V?$basic_string@DU?$char_traits@D@std@@V?$allocator@D@2@@std@@@2@V?$allocator@U?$pair@$$CBV?$basic_string@DU?$char_traits@D@std@@V?$allocator@D@2@@std@@PAU_SPAWNINFO@EQData@@@std@@@2@$0A@@std@@@std@@QAE?AViterator@12@Vconst_iterator@12@@Z 0302ffe0 f i MQ2Globals.obj
 0001:0002f2c0       ?_Erase@?$_Tree@V?$_Tmap_traits@V?$basic_string@DU?$char_traits@D@std@@V?$allocator@D@2@@std@@PAU_MACROBLOCK@MQ2Internal@@U?$less@V?$basic_string@DU?$char_traits@D@std@@V?$allocator@D@2@@std@@@2@V?$allocator@U?$pair@$$CBV?$basic_string@DU?$char_traits@D@std@@V?$allocator@D@2@@std@@PAU_MACROBLOCK@MQ2Internal@@@std@@@2@$0A@@std@@@std@@IAEXPAU_Node@?$_Tree_nod@V?$_Tmap_traits@V?$basic_string@DU?$char_traits@D@std@@V?$allocator@D@2@@std@@PAU_MACROBLOCK@MQ2Internal@@U?$less@V?$basic_string@DU?$char_traits@D@std@@V?$allocator@D@2@@std@@@2@V?$allocator@U?$pair@$$CBV?$basic_string@DU?$char_traits@D@std@@V?$allocator@D@2@@std@@PAU_MACROBLOCK@MQ2Internal@@@std@@@2@$0A@@std@@@2@@Z 030302c0 f i MQ2Globals.obj
 0001:0002f320       ?_Erase@?$_Tree@V?$_Tmap_traits@V?$basic_string@DU?$char_traits@D@std@@V?$allocator@D@2@@std@@PAU_SPAWNINFO@EQData@@U?$less@V?$basic_string@DU?$char_traits@D@std@@V?$allocator@D@2@@std@@@2@V?$allocator@U?$pair@$$CBV?$basic_string@DU?$char_traits@D@std@@V?$allocator@D@2@@std@@PAU_SPAWNINFO@EQData@@@std@@@2@$0A@@std@@@std@@IAEXPAU_Node@?$_Tree_nod@V?$_Tmap_traits@V?$basic_string@DU?$char_traits@D@std@@V?$allocator@D@2@@std@@PAU_SPAWNINFO@EQData@@U?$less@V?$basic_string@DU?$char_traits@D@std@@V?$allocator@D@2@@std@@@2@V?$allocator@U?$pair@$$CBV?$basic_string@DU?$char_traits@D@std@@V?$allocator@D@2@@std@@PAU_SPAWNINFO@EQData@@@std@@@2@$0A@@std@@@2@@Z 03030320 f i MQ2Globals.obj
 0001:0002f380       ?clear@?$_Tree@V?$_Tmap_traits@V?$basic_string@DU?$char_traits@D@std@@V?$allocator@D@2@@std@@PAU_MACROBLOCK@MQ2Internal@@U?$less@V?$basic_string@DU?$char_traits@D@std@@V?$allocator@D@2@@std@@@2@V?$allocator@U?$pair@$$CBV?$basic_string@DU?$char_traits@D@std@@V?$allocator@D@2@@std@@PAU_MACROBLOCK@MQ2Internal@@@std@@@2@$0A@@std@@@std@@QAEXXZ 03030380 f i MQ2Globals.obj
 0001:0002f3b0       ?clear@?$_Tree@V?$_Tmap_traits@V?$basic_string@DU?$char_traits@D@std@@V?$allocator@D@2@@std@@PAU_SPAWNINFO@EQData@@U?$less@V?$basic_string@DU?$char_traits@D@std@@V?$allocator@D@2@@std@@@2@V?$allocator@U?$pair@$$CBV?$basic_string@DU?$char_traits@D@std@@V?$allocator@D@2@@std@@PAU_SPAWNINFO@EQData@@@std@@@2@$0A@@std@@@std@@QAEXXZ 030303b0 f i MQ2Globals.obj
 0001:0002f3e0       ?erase@?$_Tree@V?$_Tmap_traits@V?$basic_string@DU?$char_traits@D@std@@V?$allocator@D@2@@std@@PAU_MACROBLOCK@MQ2Internal@@U?$less@V?$basic_string@DU?$char_traits@D@std@@V?$allocator@D@2@@std@@@2@V?$allocator@U?$pair@$$CBV?$basic_string@DU?$char_traits@D@std@@V?$allocator@D@2@@std@@PAU_MACROBLOCK@MQ2Internal@@@std@@@2@$0A@@std@@@std@@QAE?AViterator@12@Vconst_iterator@12@0@Z 030303e0 f i MQ2Globals.obj
 0001:0002f4c0       ?erase@?$_Tree@V?$_Tmap_traits@V?$basic_string@DU?$char_traits@D@std@@V?$allocator@D@2@@std@@PAU_SPAWNINFO@EQData@@U?$less@V?$basic_string@DU?$char_traits@D@std@@V?$allocator@D@2@@std@@@2@V?$allocator@U?$pair@$$CBV?$basic_string@DU?$char_traits@D@std@@V?$allocator@D@2@@std@@PAU_SPAWNINFO@EQData@@@std@@@2@$0A@@std@@@std@@QAE?AViterator@12@Vconst_iterator@12@0@Z 030304c0 f i MQ2Globals.obj
 0001:0002f5a0       ?_Tidy@?$_Tree@V?$_Tmap_traits@V?$basic_string@DU?$char_traits@D@std@@V?$allocator@D@2@@std@@PAU_MACROBLOCK@MQ2Internal@@U?$less@V?$basic_string@DU?$char_traits@D@std@@V?$allocator@D@2@@std@@@2@V?$allocator@U?$pair@$$CBV?$basic_string@DU?$char_traits@D@std@@V?$allocator@D@2@@std@@PAU_MACROBLOCK@MQ2Internal@@@std@@@2@$0A@@std@@@std@@IAEXXZ 030305a0 f i MQ2Globals.obj
 0001:0002f5e0       ?_Tidy@?$_Tree@V?$_Tmap_traits@V?$basic_string@DU?$char_traits@D@std@@V?$allocator@D@2@@std@@PAU_SPAWNINFO@EQData@@U?$less@V?$basic_string@DU?$char_traits@D@std@@V?$allocator@D@2@@std@@@2@V?$allocator@U?$pair@$$CBV?$basic_string@DU?$char_traits@D@std@@V?$allocator@D@2@@std@@PAU_SPAWNINFO@EQData@@@std@@@2@$0A@@std@@@std@@IAEXXZ 030305e0 f i MQ2Globals.obj
 0001:0002f620       ??1?$_Tree@V?$_Tmap_traits@V?$basic_string@DU?$char_traits@D@std@@V?$allocator@D@2@@std@@PAU_MACROBLOCK@MQ2Internal@@U?$less@V?$basic_string@DU?$char_traits@D@std@@V?$allocator@D@2@@std@@@2@V?$allocator@U?$pair@$$CBV?$basic_string@DU?$char_traits@D@std@@V?$allocator@D@2@@std@@PAU_MACROBLOCK@MQ2Internal@@@std@@@2@$0A@@std@@@std@@QAE@XZ 03030620 f i MQ2Globals.obj
 0001:0002f660       ??1?$_Tree@V?$_Tmap_traits@V?$basic_string@DU?$char_traits@D@std@@V?$allocator@D@2@@std@@PAU_SPAWNINFO@EQData@@U?$less@V?$basic_string@DU?$char_traits@D@std@@V?$allocator@D@2@@std@@@2@V?$allocator@U?$pair@$$CBV?$basic_string@DU?$char_traits@D@std@@V?$allocator@D@2@@std@@PAU_SPAWNINFO@EQData@@@std@@@2@$0A@@std@@@std@@QAE@XZ 03030660 f i MQ2Globals.obj
 0001:0002f6a0       ??1?$map@V?$basic_string@DU?$char_traits@D@std@@V?$allocator@D@2@@std@@PAU_MACROBLOCK@MQ2Internal@@U?$less@V?$basic_string@DU?$char_traits@D@std@@V?$allocator@D@2@@std@@@2@V?$allocator@U?$pair@$$CBV?$basic_string@DU?$char_traits@D@std@@V?$allocator@D@2@@std@@PAU_MACROBLOCK@MQ2Internal@@@std@@@2@@std@@QAE@XZ 030306a0 f i MQ2Globals.obj
 0001:0002f6e0       ??1?$map@V?$basic_string@DU?$char_traits@D@std@@V?$allocator@D@2@@std@@PAU_SPAWNINFO@EQData@@U?$less@V?$basic_string@DU?$char_traits@D@std@@V?$allocator@D@2@@std@@@2@V?$allocator@U?$pair@$$CBV?$basic_string@DU?$char_traits@D@std@@V?$allocator@D@2@@std@@PAU_SPAWNINFO@EQData@@@std@@@2@@std@@QAE@XZ 030306e0 f i MQ2Globals.obj
 0001:0002f720       ??0?$map@V?$basic_string@DU?$char_traits@D@std@@V?$allocator@D@2@@std@@PAU_MACROBLOCK@MQ2Internal@@U?$less@V?$basic_string@DU?$char_traits@D@std@@V?$allocator@D@2@@std@@@2@V?$allocator@U?$pair@$$CBV?$basic_string@DU?$char_traits@D@std@@V?$allocator@D@2@@std@@PAU_MACROBLOCK@MQ2Internal@@@std@@@2@@std@@QAE@XZ 03030720 f i MQ2Globals.obj
 0001:0002f770       ??0?$map@V?$basic_string@DU?$char_traits@D@std@@V?$allocator@D@2@@std@@PAU_SPAWNINFO@EQData@@U?$less@V?$basic_string@DU?$char_traits@D@std@@V?$allocator@D@2@@std@@@2@V?$allocator@U?$pair@$$CBV?$basic_string@DU?$char_traits@D@std@@V?$allocator@D@2@@std@@PAU_SPAWNINFO@EQData@@@std@@@2@@std@@QAE@XZ 03030770 f i MQ2Globals.obj
 0001:0002f7c0       ??0_Iterator_base_secure@std@@QAE@XZ 030307c0 f i MQ2KeyBinds.obj
 0001:0002f7d0       ?_Has_container@_Iterator_base_secure@std@@QBE_NXZ 030307d0 f i MQ2KeyBinds.obj
 0001:0002f7e0       ?SetEQKeyBindByNumber@@YAHKHAAVKeyCombo@EQClasses@@@Z 030307e0 f   MQ2KeyBinds.obj
 0001:0002f840       ?ClearCommandStateArray_Trampoline@KeypressHandlerHook@@QAEXXZ 03030840 f   MQ2KeyBinds.obj
 0001:0002f860       ?HandleKeyDown_Trampoline@KeypressHandlerHook@@QAE_NABVKeyCombo@EQClasses@@@Z 03030860 f   MQ2KeyBinds.obj
 0001:0002f880       ?HandleKeyUp_Trampoline@KeypressHandlerHook@@QAE_NABVKeyCombo@EQClasses@@@Z 03030880 f   MQ2KeyBinds.obj
 0001:0002f8a0       ??0MQ2KeyBind@@QAE@XZ      030308a0 f i MQ2KeyBinds.obj
 0001:0002f8b0       ?DoRangedBind@@YAXPADH@Z   030308b0 f   MQ2KeyBinds.obj
 0001:0002f8f0       ??1?$CIndex@PAUMQ2KeyBind@@@MQ2Internal@@QAE@XZ 030308f0 f i MQ2KeyBinds.obj
 0001:0002f930       ?Cleanup@?$CIndex@PAUMQ2KeyBind@@@MQ2Internal@@QAEXXZ 03030930 f i MQ2KeyBinds.obj
 0001:0002f970       ??A?$CIndex@PAUMQ2KeyBind@@@MQ2Internal@@QAEAAPAUMQ2KeyBind@@K@Z 03030970 f i MQ2KeyBinds.obj
 0001:0002f980       ?Resize@?$CIndex@PAUMQ2KeyBind@@@MQ2Internal@@QAEXK@Z 03030980 f i MQ2KeyBinds.obj
 0001:0002fa30       ??0?$_Ranit_base@DHPBDABDV_Iterator_base_secure@std@@@std@@QAE@XZ 03030a30 f i MQ2KeyBinds.obj
 0001:0002fa40       ??$_Iter_random@V?$_String_iterator@DU?$char_traits@D@std@@V?$allocator@D@2@@std@@V12@@std@@YA?AUrandom_access_iterator_tag@0@ABV?$_String_iterator@DU?$char_traits@D@std@@V?$allocator@D@2@@0@0@Z 03030a40 f i MQ2KeyBinds.obj
 0001:0002fa50       ??Y?$_String_const_iterator@DU?$char_traits@D@std@@V?$allocator@D@2@@std@@QAEAAV01@H@Z 03030a50 f i MQ2KeyBinds.obj
 0001:0002fab0       ??$_Transform@PADPADP6AHH@ZUforward_iterator_tag@std@@@std@@YAPADPAD00P6AHH@ZUforward_iterator_tag@0@U_Range_checked_iterator_tag@0@@Z 03030ab0 f i MQ2KeyBinds.obj
 0001:0002faf0       ?_Checked_iterator_base@?$_String_iterator@DU?$char_traits@D@std@@V?$allocator@D@2@@std@@QBEPADXZ 03030af0 f i MQ2KeyBinds.obj
 0001:0002fb00       _MQ2HandleKeyDown          03030b00 f   MQ2KeyBinds.obj
 0001:0002fbb0       _MQ2HandleKeyUp            03030bb0 f   MQ2KeyBinds.obj
 0001:0002fc60       ?ClearCommandStateArray_Hook@KeypressHandlerHook@@QAEXXZ 03030c60 f i MQ2KeyBinds.obj
 0001:0002fcb0       ?HandleKeyDown_Hook@KeypressHandlerHook@@QAE_NABVKeyCombo@EQClasses@@@Z 03030cb0 f i MQ2KeyBinds.obj
 0001:0002fcf0       ?HandleKeyUp_Hook@KeypressHandlerHook@@QAE_NABVKeyCombo@EQClasses@@@Z 03030cf0 f i MQ2KeyBinds.obj
 0001:0002fd40       _ShutdownMQ2KeyBinds       03030d40 f   MQ2KeyBinds.obj
 0001:0002fd70       _DumpBinds                 03030d70 f   MQ2KeyBinds.obj
 0001:0002ff20       ??0?$CIndex@PAUMQ2KeyBind@@@MQ2Internal@@QAE@K@Z 03030f20 f i MQ2KeyBinds.obj
 0001:0002ff50       ?GetUnused@?$CIndex@PAUMQ2KeyBind@@@MQ2Internal@@QAEKXZ 03030f50 f i MQ2KeyBinds.obj
 0001:0002ffa0       ??0?$_String_const_iterator@DU?$char_traits@D@std@@V?$allocator@D@2@@std@@QAE@PBDPBV_Container_base_secure@1@@Z 03030fa0 f i MQ2KeyBinds.obj
 0001:00030000       ??Y?$_String_iterator@DU?$char_traits@D@std@@V?$allocator@D@2@@std@@QAEAAV01@H@Z 03031000 f i MQ2KeyBinds.obj
 0001:00030020       ??$_Checked_base@V?$_String_iterator@DU?$char_traits@D@std@@V?$allocator@D@2@@std@@U_Different_checked_iterator_base_type_tag@2@@std@@YAPADAAV?$_String_iterator@DU?$char_traits@D@std@@V?$allocator@D@2@@0@U_Different_checked_iterator_base_type_tag@0@@Z 03031020 f i MQ2KeyBinds.obj
 0001:00030030       ??0?$_String_iterator@DU?$char_traits@D@std@@V?$allocator@D@2@@std@@QAE@PADPBV_Container_base_secure@1@@Z 03031030 f i MQ2KeyBinds.obj
 0001:00030050       ??$_Checked_base@V?$_String_iterator@DU?$char_traits@D@std@@V?$allocator@D@2@@std@@@std@@YAPADAAV?$_String_iterator@DU?$char_traits@D@std@@V?$allocator@D@2@@0@@Z 03031050 f i MQ2KeyBinds.obj
 0001:00030060       ??H?$_String_iterator@DU?$char_traits@D@std@@V?$allocator@D@2@@std@@QBE?AV01@H@Z 03031060 f i MQ2KeyBinds.obj
 0001:000300a0       ?begin@?$basic_string@DU?$char_traits@D@std@@V?$allocator@D@2@@std@@QAE?AV?$_String_iterator@DU?$char_traits@D@std@@V?$allocator@D@2@@2@XZ 030310a0 f i MQ2KeyBinds.obj
 0001:000300e0       ?end@?$basic_string@DU?$char_traits@D@std@@V?$allocator@D@2@@std@@QAE?AV?$_String_iterator@DU?$char_traits@D@std@@V?$allocator@D@2@@2@XZ 030310e0 f i MQ2KeyBinds.obj
 0001:00030110       ??$_Transform@PADV?$_String_iterator@DU?$char_traits@D@std@@V?$allocator@D@2@@std@@P6AHH@Z@std@@YA?AV?$_String_iterator@DU?$char_traits@D@std@@V?$allocator@D@2@@0@PAD0V10@P6AHH@ZUrandom_access_iterator_tag@0@U_Range_checked_iterator_tag@0@@Z 03031110 f i MQ2KeyBinds.obj
 0001:00030180       ??$transform@V?$_String_iterator@DU?$char_traits@D@std@@V?$allocator@D@2@@std@@V12@P6AHH@Z@std@@YA?AV?$_String_iterator@DU?$char_traits@D@std@@V?$allocator@D@2@@0@V10@00P6AHH@Z@Z 03031180 f i MQ2KeyBinds.obj
 0001:000301c0       ?KeyBindByName@@YAPAUMQ2KeyBind@@PAD@Z 030311c0 f i MQ2KeyBinds.obj
 0001:00030360       ?SetKeyBindNameMap@@YAXPADK@Z 03031360 f i MQ2KeyBinds.obj
 0001:000304e0       _AddMQ2KeyBind             030314e0 f   MQ2KeyBinds.obj
 0001:00030660       _GetMQ2KeyBind             03031660 f   MQ2KeyBinds.obj
 0001:000306a0       _RemoveMQ2KeyBind          030316a0 f   MQ2KeyBinds.obj
 0001:000308a0       _PressMQ2KeyBind           030318a0 f   MQ2KeyBinds.obj
 0001:000308e0       _SetMQ2KeyBind             030318e0 f   MQ2KeyBinds.obj
 0001:000309c0       _MQ2KeyBindCommand         030319c0 f   MQ2KeyBinds.obj
 0001:00030f50       _InitializeMQ2KeyBinds     03031f50 f   MQ2KeyBinds.obj
 0001:00030ff0       ??0BlechNode@@QAE@PAV0@PAPAV0@PBDW4eBlechStringType@@@Z 03031ff0 f i MQ2MacroCommands.obj
 0001:00031050       ?AddChild@BlechNode@@QAEPAV1@PBDW4eBlechStringType@@@Z 03032050 f i MQ2MacroCommands.obj
 0001:00031250       ?AddEvent@BlechNode@@QAEXPAU_BLECHEVENT@@@Z 03032250 f i MQ2MacroCommands.obj
 0001:00031290       ?AddNode@Blech@@AAEPAVBlechNode@@IPBDW4eBlechStringType@@@Z 03032290 f i MQ2MacroCommands.obj
 0001:00031490       ?AddNode@Blech@@AAEPAVBlechNode@@PAV2@PBD1W4eBlechStringType@@@Z 03032490 f i MQ2MacroCommands.obj
 0001:00031550       ?CleanMacroLine@@YAXPAD@Z  03032550 f   MQ2MacroCommands.obj
 0001:000315e0       _Include                   030325e0 f   MQ2MacroCommands.obj
 0001:00031790       _Cleanup                   03032790 f   MQ2MacroCommands.obj
 0001:000318f0       _Delay                     030328f0 f   MQ2MacroCommands.obj
 0001:00031a20       _Goto                      03032a20 f   MQ2MacroCommands.obj
 0001:00031b00       _DumpStack                 03032b00 f   MQ2MacroCommands.obj
 0001:00031bc0       _FailIf                    03032bc0 f   MQ2MacroCommands.obj
 0001:00031d40       _NewIf                     03032d40 f   MQ2MacroCommands.obj
 0001:00031e80       _DoEvents                  03032e80 f   MQ2MacroCommands.obj
 0001:000321d0       _For                       030331d0 f   MQ2MacroCommands.obj
 0001:00032400       _Next                      03033400 f   MQ2MacroCommands.obj
 0001:000327a0       _GetFuncParam              030337a0 f   MQ2MacroCommands.obj
 0001:00032970       ??R?$less@I@std@@QBE_NABI0@Z 03033970 f i MQ2MacroCommands.obj
 0001:00032990       ??0?$pair@$$CBIPAU_BLECHEVENT@@@std@@QAE@ABIABQAU_BLECHEVENT@@@Z 03033990 f i MQ2MacroCommands.obj
 0001:000329b0       ?size@?$_Tree@V?$_Tmap_traits@IPAU_BLECHEVENT@@U?$less@I@std@@V?$allocator@U?$pair@$$CBIPAU_BLECHEVENT@@@std@@@3@$0A@@std@@@std@@QBEIXZ 030339b0 f i MQ2MacroCommands.obj
 0001:000329c0       ?_Kfn@?$_Tmap_traits@IPAU_BLECHEVENT@@U?$less@I@std@@V?$allocator@U?$pair@$$CBIPAU_BLECHEVENT@@@std@@@3@$0A@@std@@SAABIABU?$pair@$$CBIPAU_BLECHEVENT@@@2@@Z 030339c0 f i MQ2MacroCommands.obj
 0001:000329d0       ?_Myval@?$_Tree@V?$_Tmap_traits@V?$basic_string@DU?$char_traits@D@std@@V?$allocator@D@2@@std@@PAU_MACROBLOCK@MQ2Internal@@U?$less@V?$basic_string@DU?$char_traits@D@std@@V?$allocator@D@2@@std@@@2@V?$allocator@U?$pair@$$CBV?$basic_string@DU?$char_traits@D@std@@V?$allocator@D@2@@std@@PAU_MACROBLOCK@MQ2Internal@@@std@@@2@$0A@@std@@@std@@KAAAU?$pair@$$CBV?$basic_string@DU?$char_traits@D@std@@V?$allocator@D@2@@std@@PAU_MACROBLOCK@MQ2Internal@@@2@PAU_Node@?$_Tree_nod@V?$_Tmap_traits@V?$basic_string@DU?$char_traits@D@std@@V?$allocator@D@2@@std@@PAU_MACROBLOCK@MQ2Internal@@U?$less@V?$basic_string@DU?$char_traits@D@std@@V?$allocator@D@2@@std@@@2@V?$allocator@U?$pair@$$CBV?$basic_string@DU?$char_traits@D@std@@V?$allocator@D@2@@std@@PAU_MACROBLOCK@MQ2Internal@@@std@@@2@$0A@@std@@@2@@Z 030339d0 f i MQ2MacroCommands.obj
 0001:000329e0       ?size@?$_Tree@V?$_Tmap_traits@V?$basic_string@DU?$char_traits@D@std@@V?$allocator@D@2@@std@@PAU_MACROBLOCK@MQ2Internal@@U?$less@V?$basic_string@DU?$char_traits@D@std@@V?$allocator@D@2@@std@@@2@V?$allocator@U?$pair@$$CBV?$basic_string@DU?$char_traits@D@std@@V?$allocator@D@2@@std@@PAU_MACROBLOCK@MQ2Internal@@@std@@@2@$0A@@std@@@std@@QBEIXZ 030339e0 f i MQ2MacroCommands.obj
 0001:000329f0       ?_Kfn@?$_Tmap_traits@V?$basic_string@DU?$char_traits@D@std@@V?$allocator@D@2@@std@@PAU_MACROBLOCK@MQ2Internal@@U?$less@V?$basic_string@DU?$char_traits@D@std@@V?$allocator@D@2@@std@@@2@V?$allocator@U?$pair@$$CBV?$basic_string@DU?$char_traits@D@std@@V?$allocator@D@2@@std@@PAU_MACROBLOCK@MQ2Internal@@@std@@@2@$0A@@std@@SAABV?$basic_string@DU?$char_traits@D@std@@V?$allocator@D@2@@2@ABU?$pair@$$CBV?$basic_string@DU?$char_traits@D@std@@V?$allocator@D@2@@std@@PAU_MACROBLOCK@MQ2Internal@@@2@@Z 030339f0 f i MQ2MacroCommands.obj
 0001:00032a00       ??Dconst_iterator@?$_Tree@V?$_Tmap_traits@V?$basic_string@DU?$char_traits@D@std@@V?$allocator@D@2@@std@@PAU_MACROBLOCK@MQ2Internal@@U?$less@V?$basic_string@DU?$char_traits@D@std@@V?$allocator@D@2@@std@@@2@V?$allocator@U?$pair@$$CBV?$basic_string@DU?$char_traits@D@std@@V?$allocator@D@2@@std@@PAU_MACROBLOCK@MQ2Internal@@@std@@@2@$0A@@std@@@std@@QBEABU?$pair@$$CBV?$basic_string@DU?$char_traits@D@std@@V?$allocator@D@2@@std@@PAU_MACROBLOCK@MQ2Internal@@@2@XZ 03033a00 f i MQ2MacroCommands.obj
 0001:00032a30       ?_Dec@const_iterator@?$_Tree@V?$_Tmap_traits@IPAU_BLECHEVENT@@U?$less@I@std@@V?$allocator@U?$pair@$$CBIPAU_BLECHEVENT@@@std@@@3@$0A@@std@@@std@@QAEXXZ 03033a30 f i MQ2MacroCommands.obj
 0001:00032ac0       ??0?$pair@Viterator@?$_Tree@V?$_Tmap_traits@IPAU_BLECHEVENT@@U?$less@I@std@@V?$allocator@U?$pair@$$CBIPAU_BLECHEVENT@@@std@@@3@$0A@@std@@@std@@_N@std@@QAE@ABViterator@?$_Tree@V?$_Tmap_traits@IPAU_BLECHEVENT@@U?$less@I@std@@V?$allocator@U?$pair@$$CBIPAU_BLECHEVENT@@@std@@@3@$0A@@std@@@1@AB_N@Z 03033ac0 f i MQ2MacroCommands.obj
 0001:00032ae0       ??0?$pair@Viterator@?$_Tree@V?$_Tmap_traits@V?$basic_string@DU?$char_traits@D@std@@V?$allocator@D@2@@std@@PAU_MACROBLOCK@MQ2Internal@@U?$less@V?$basic_string@DU?$char_traits@D@std@@V?$allocator@D@2@@std@@@2@V?$allocator@U?$pair@$$CBV?$basic_string@DU?$char_traits@D@std@@V?$allocator@D@2@@std@@PAU_MACROBLOCK@MQ2Internal@@@std@@@2@$0A@@std@@@std@@_N@std@@QAE@ABViterator@?$_Tree@V?$_Tmap_traits@V?$basic_string@DU?$char_traits@D@std@@V?$allocator@D@2@@std@@PAU_MACROBLOCK@MQ2Internal@@U?$less@V?$basic_string@DU?$char_traits@D@std@@V?$allocator@D@2@@std@@@2@V?$allocator@U?$pair@$$CBV?$basic_string@DU?$char_traits@D@std@@V?$allocator@D@2@@std@@PAU_MACROBLOCK@MQ2Internal@@@std@@@2@$0A@@std@@@1@AB_N@Z 03033ae0 f i MQ2MacroCommands.obj
 0001:00032b00       ?max_size@?$allocator@U?$pair@$$CBIPAU_BLECHEVENT@@@std@@@std@@QBEIXZ 03033b00 f i MQ2MacroCommands.obj
 0001:00032b10       ?max_size@?$allocator@U?$pair@$$CBV?$basic_string@DU?$char_traits@D@std@@V?$allocator@D@2@@std@@PAU_MACROBLOCK@MQ2Internal@@@std@@@std@@QBEIXZ 03033b10 f i MQ2MacroCommands.obj
 0001:00032b20       ??0_Node@?$_Tree_nod@V?$_Tmap_traits@IPAU_BLECHEVENT@@U?$less@I@std@@V?$allocator@U?$pair@$$CBIPAU_BLECHEVENT@@@std@@@3@$0A@@std@@@std@@QAE@PAU012@00ABU?$pair@$$CBIPAU_BLECHEVENT@@@2@D@Z 03033b20 f i MQ2MacroCommands.obj
 0001:00032b60       ?_Key@?$_Tree@V?$_Tmap_traits@IPAU_BLECHEVENT@@U?$less@I@std@@V?$allocator@U?$pair@$$CBIPAU_BLECHEVENT@@@std@@@3@$0A@@std@@@std@@KAABIPAU_Node@?$_Tree_nod@V?$_Tmap_traits@IPAU_BLECHEVENT@@U?$less@I@std@@V?$allocator@U?$pair@$$CBIPAU_BLECHEVENT@@@std@@@3@$0A@@std@@@2@@Z 03033b60 f i MQ2MacroCommands.obj
 0001:00032b70       ?_Key@?$_Tree@V?$_Tmap_traits@V?$basic_string@DU?$char_traits@D@std@@V?$allocator@D@2@@std@@PAU_MACROBLOCK@MQ2Internal@@U?$less@V?$basic_string@DU?$char_traits@D@std@@V?$allocator@D@2@@std@@@2@V?$allocator@U?$pair@$$CBV?$basic_string@DU?$char_traits@D@std@@V?$allocator@D@2@@std@@PAU_MACROBLOCK@MQ2Internal@@@std@@@2@$0A@@std@@@std@@KAABV?$basic_string@DU?$char_traits@D@std@@V?$allocator@D@2@@2@PAU_Node@?$_Tree_nod@V?$_Tmap_traits@V?$basic_string@DU?$char_traits@D@std@@V?$allocator@D@2@@std@@PAU_MACROBLOCK@MQ2Internal@@U?$less@V?$basic_string@DU?$char_traits@D@std@@V?$allocator@D@2@@std@@@2@V?$allocator@U?$pair@$$CBV?$basic_string@DU?$char_traits@D@std@@V?$allocator@D@2@@std@@PAU_MACROBLOCK@MQ2Internal@@@std@@@2@$0A@@std@@@2@@Z 03033b70 f i MQ2MacroCommands.obj
 0001:00032b80       ??Diterator@?$_Tree@V?$_Tmap_traits@V?$basic_string@DU?$char_traits@D@std@@V?$allocator@D@2@@std@@PAU_MACROBLOCK@MQ2Internal@@U?$less@V?$basic_string@DU?$char_traits@D@std@@V?$allocator@D@2@@std@@@2@V?$allocator@U?$pair@$$CBV?$basic_string@DU?$char_traits@D@std@@V?$allocator@D@2@@std@@PAU_MACROBLOCK@MQ2Internal@@@std@@@2@$0A@@std@@@std@@QBEAAU?$pair@$$CBV?$basic_string@DU?$char_traits@D@std@@V?$allocator@D@2@@std@@PAU_MACROBLOCK@MQ2Internal@@@2@XZ 03033b80 f i MQ2MacroCommands.obj
 0001:00032bb0       ?_Lbound@?$_Tree@V?$_Tmap_traits@IPAU_BLECHEVENT@@U?$less@I@std@@V?$allocator@U?$pair@$$CBIPAU_BLECHEVENT@@@std@@@3@$0A@@std@@@std@@IBEPAU_Node@?$_Tree_nod@V?$_Tmap_traits@IPAU_BLECHEVENT@@U?$less@I@std@@V?$allocator@U?$pair@$$CBIPAU_BLECHEVENT@@@std@@@3@$0A@@std@@@2@ABI@Z 03033bb0 f i MQ2MacroCommands.obj
 0001:00032be0       ??Fconst_iterator@?$_Tree@V?$_Tmap_traits@IPAU_BLECHEVENT@@U?$less@I@std@@V?$allocator@U?$pair@$$CBIPAU_BLECHEVENT@@@std@@@3@$0A@@std@@@std@@QAEAAV012@XZ 03033be0 f i MQ2MacroCommands.obj
 0001:00032bf0       ?max_size@?$_Tree@V?$_Tmap_traits@IPAU_BLECHEVENT@@U?$less@I@std@@V?$allocator@U?$pair@$$CBIPAU_BLECHEVENT@@@std@@@3@$0A@@std@@@std@@QBEIXZ 03033bf0 f i MQ2MacroCommands.obj
 0001:00032c00       ??Fiterator@?$_Tree@V?$_Tmap_traits@IPAU_BLECHEVENT@@U?$less@I@std@@V?$allocator@U?$pair@$$CBIPAU_BLECHEVENT@@@std@@@3@$0A@@std@@@std@@QAEAAV012@XZ 03033c00 f i MQ2MacroCommands.obj
 0001:00032c10       ?max_size@?$_Tree@V?$_Tmap_traits@V?$basic_string@DU?$char_traits@D@std@@V?$allocator@D@2@@std@@PAU_MACROBLOCK@MQ2Internal@@U?$less@V?$basic_string@DU?$char_traits@D@std@@V?$allocator@D@2@@std@@@2@V?$allocator@U?$pair@$$CBV?$basic_string@DU?$char_traits@D@std@@V?$allocator@D@2@@std@@PAU_MACROBLOCK@MQ2Internal@@@std@@@2@$0A@@std@@@std@@QBEIXZ 03033c10 f i MQ2MacroCommands.obj
 0001:00032c20       ?_Dec@const_iterator@?$_Tree@V?$_Tmap_traits@V?$basic_string@DU?$char_traits@D@std@@V?$allocator@D@2@@std@@PAU_MACROBLOCK@MQ2Internal@@U?$less@V?$basic_string@DU?$char_traits@D@std@@V?$allocator@D@2@@std@@@2@V?$allocator@U?$pair@$$CBV?$basic_string@DU?$char_traits@D@std@@V?$allocator@D@2@@std@@PAU_MACROBLOCK@MQ2Internal@@@std@@@2@$0A@@std@@@std@@QAEXXZ 03033c20 f i MQ2MacroCommands.obj
 0001:00032cb0       ??0const_iterator@?$_Tree@V?$_Tmap_traits@IPAU_BLECHEVENT@@U?$less@I@std@@V?$allocator@U?$pair@$$CBIPAU_BLECHEVENT@@@std@@@3@$0A@@std@@@std@@QAE@XZ 03033cb0 f i MQ2MacroCommands.obj
 0001:00032cc0       ??0const_iterator@?$_Tree@V?$_Tmap_traits@V?$basic_string@DU?$char_traits@D@std@@V?$allocator@D@2@@std@@PAU_MACROBLOCK@MQ2Internal@@U?$less@V?$basic_string@DU?$char_traits@D@std@@V?$allocator@D@2@@std@@@2@V?$allocator@U?$pair@$$CBV?$basic_string@DU?$char_traits@D@std@@V?$allocator@D@2@@std@@PAU_MACROBLOCK@MQ2Internal@@@std@@@2@$0A@@std@@@std@@QAE@XZ 03033cc0 f i MQ2MacroCommands.obj
 0001:00032cd0       ??Fconst_iterator@?$_Tree@V?$_Tmap_traits@V?$basic_string@DU?$char_traits@D@std@@V?$allocator@D@2@@std@@PAU_MACROBLOCK@MQ2Internal@@U?$less@V?$basic_string@DU?$char_traits@D@std@@V?$allocator@D@2@@std@@@2@V?$allocator@U?$pair@$$CBV?$basic_string@DU?$char_traits@D@std@@V?$allocator@D@2@@std@@PAU_MACROBLOCK@MQ2Internal@@@std@@@2@$0A@@std@@@std@@QAEAAV012@XZ 03033cd0 f i MQ2MacroCommands.obj
 0001:00032ce0       ?_Buynode@?$_Tree@V?$_Tmap_traits@IPAU_BLECHEVENT@@U?$less@I@std@@V?$allocator@U?$pair@$$CBIPAU_BLECHEVENT@@@std@@@3@$0A@@std@@@std@@IAEPAU_Node@?$_Tree_nod@V?$_Tmap_traits@IPAU_BLECHEVENT@@U?$less@I@std@@V?$allocator@U?$pair@$$CBIPAU_BLECHEVENT@@@std@@@3@$0A@@std@@@2@PAU342@00ABU?$pair@$$CBIPAU_BLECHEVENT@@@2@D@Z 03033ce0 f i MQ2MacroCommands.obj
 0001:00032d70       ??Fiterator@?$_Tree@V?$_Tmap_traits@V?$basic_string@DU?$char_traits@D@std@@V?$allocator@D@2@@std@@PAU_MACROBLOCK@MQ2Internal@@U?$less@V?$basic_string@DU?$char_traits@D@std@@V?$allocator@D@2@@std@@@2@V?$allocator@U?$pair@$$CBV?$basic_string@DU?$char_traits@D@std@@V?$allocator@D@2@@std@@PAU_MACROBLOCK@MQ2Internal@@@std@@@2@$0A@@std@@@std@@QAEAAV012@XZ 03033d70 f i MQ2MacroCommands.obj
 0001:00032d80       ?_Lbound@?$_Tree@V?$_Tmap_traits@V?$basic_string@DU?$char_traits@D@std@@V?$allocator@D@2@@std@@PAU_MACROBLOCK@MQ2Internal@@U?$less@V?$basic_string@DU?$char_traits@D@std@@V?$allocator@D@2@@std@@@2@V?$allocator@U?$pair@$$CBV?$basic_string@DU?$char_traits@D@std@@V?$allocator@D@2@@std@@PAU_MACROBLOCK@MQ2Internal@@@std@@@2@$0A@@std@@@std@@IBEPAU_Node@?$_Tree_nod@V?$_Tmap_traits@V?$basic_string@DU?$char_traits@D@std@@V?$allocator@D@2@@std@@PAU_MACROBLOCK@MQ2Internal@@U?$less@V?$basic_string@DU?$char_traits@D@std@@V?$allocator@D@2@@std@@@2@V?$allocator@U?$pair@$$CBV?$basic_string@DU?$char_traits@D@std@@V?$allocator@D@2@@std@@PAU_MACROBLOCK@MQ2Internal@@@std@@@2@$0A@@std@@@2@ABV?$basic_string@DU?$char_traits@D@std@@V?$allocator@D@2@@2@@Z 03033d80 f i MQ2MacroCommands.obj
 0001:00032e10       ?lower_bound@?$_Tree@V?$_Tmap_traits@IPAU_BLECHEVENT@@U?$less@I@std@@V?$allocator@U?$pair@$$CBIPAU_BLECHEVENT@@@std@@@3@$0A@@std@@@std@@QAE?AViterator@12@ABI@Z 03033e10 f i MQ2MacroCommands.obj
 0001:00032e50       ?lower_bound@?$_Tree@V?$_Tmap_traits@V?$basic_string@DU?$char_traits@D@std@@V?$allocator@D@2@@std@@PAU_MACROBLOCK@MQ2Internal@@U?$less@V?$basic_string@DU?$char_traits@D@std@@V?$allocator@D@2@@std@@@2@V?$allocator@U?$pair@$$CBV?$basic_string@DU?$char_traits@D@std@@V?$allocator@D@2@@std@@PAU_MACROBLOCK@MQ2Internal@@@std@@@2@$0A@@std@@@std@@QAE?AViterator@12@ABV?$basic_string@DU?$char_traits@D@std@@V?$allocator@D@2@@2@@Z 03033e50 f i MQ2MacroCommands.obj
 0001:00032e80       ??0?$pair@$$CBV?$basic_string@DU?$char_traits@D@std@@V?$allocator@D@2@@std@@PAU_MACROBLOCK@MQ2Internal@@@std@@QAE@ABV?$basic_string@DU?$char_traits@D@std@@V?$allocator@D@2@@1@ABQAU_MACROBLOCK@MQ2Internal@@@Z 03033e80 f i MQ2MacroCommands.obj
 0001:00032eb0       ??0?$pair@$$CBV?$basic_string@DU?$char_traits@D@std@@V?$allocator@D@2@@std@@PAU_MACROBLOCK@MQ2Internal@@@std@@QAE@ABU01@@Z 03033eb0 f i MQ2MacroCommands.obj
 0001:00032ee0       ?Reset@Blech@@QAEXXZ       03033ee0 f i MQ2MacroCommands.obj
 0001:00032f50       ?_Insert@?$_Tree@V?$_Tmap_traits@IPAU_BLECHEVENT@@U?$less@I@std@@V?$allocator@U?$pair@$$CBIPAU_BLECHEVENT@@@std@@@3@$0A@@std@@@std@@IAE?AViterator@12@_NPAU_Node@?$_Tree_nod@V?$_Tmap_traits@IPAU_BLECHEVENT@@U?$less@I@std@@V?$allocator@U?$pair@$$CBIPAU_BLECHEVENT@@@std@@@3@$0A@@std@@@2@ABU?$pair@$$CBIPAU_BLECHEVENT@@@2@@Z 03033f50 f i MQ2MacroCommands.obj
 0001:00033140       ??0_Node@?$_Tree_nod@V?$_Tmap_traits@V?$basic_string@DU?$char_traits@D@std@@V?$allocator@D@2@@std@@PAU_MACROBLOCK@MQ2Internal@@U?$less@V?$basic_string@DU?$char_traits@D@std@@V?$allocator@D@2@@std@@@2@V?$allocator@U?$pair@$$CBV?$basic_string@DU?$char_traits@D@std@@V?$allocator@D@2@@std@@PAU_MACROBLOCK@MQ2Internal@@@std@@@2@$0A@@std@@@std@@QAE@PAU012@00ABU?$pair@$$CBV?$basic_string@DU?$char_traits@D@std@@V?$allocator@D@2@@std@@PAU_MACROBLOCK@MQ2Internal@@@2@D@Z 03034140 f i MQ2MacroCommands.obj
 0001:000331a0       ?insert@?$_Tree@V?$_Tmap_traits@IPAU_BLECHEVENT@@U?$less@I@std@@V?$allocator@U?$pair@$$CBIPAU_BLECHEVENT@@@std@@@3@$0A@@std@@@std@@QAE?AU?$pair@Viterator@?$_Tree@V?$_Tmap_traits@IPAU_BLECHEVENT@@U?$less@I@std@@V?$allocator@U?$pair@$$CBIPAU_BLECHEVENT@@@std@@@3@$0A@@std@@@std@@_N@2@ABU?$pair@$$CBIPAU_BLECHEVENT@@@2@@Z 030341a0 f i MQ2MacroCommands.obj
 0001:00033290       ?_Buynode@?$_Tree@V?$_Tmap_traits@V?$basic_string@DU?$char_traits@D@std@@V?$allocator@D@2@@std@@PAU_MACROBLOCK@MQ2Internal@@U?$less@V?$basic_string@DU?$char_traits@D@std@@V?$allocator@D@2@@std@@@2@V?$allocator@U?$pair@$$CBV?$basic_string@DU?$char_traits@D@std@@V?$allocator@D@2@@std@@PAU_MACROBLOCK@MQ2Internal@@@std@@@2@$0A@@std@@@std@@IAEPAU_Node@?$_Tree_nod@V?$_Tmap_traits@V?$basic_string@DU?$char_traits@D@std@@V?$allocator@D@2@@std@@PAU_MACROBLOCK@MQ2Internal@@U?$less@V?$basic_string@DU?$char_traits@D@std@@V?$allocator@D@2@@std@@@2@V?$allocator@U?$pair@$$CBV?$basic_string@DU?$char_traits@D@std@@V?$allocator@D@2@@std@@PAU_MACROBLOCK@MQ2Internal@@@std@@@2@$0A@@std@@@2@PAU342@00ABU?$pair@$$CBV?$basic_string@DU?$char_traits@D@std@@V?$allocator@D@2@@std@@PAU_MACROBLOCK@MQ2Internal@@@2@D@Z 03034290 f i MQ2MacroCommands.obj
 0001:00033320       ?insert@?$_Tree@V?$_Tmap_traits@IPAU_BLECHEVENT@@U?$less@I@std@@V?$allocator@U?$pair@$$CBIPAU_BLECHEVENT@@@std@@@3@$0A@@std@@@std@@QAE?AViterator@12@Vconst_iterator@12@ABU?$pair@$$CBIPAU_BLECHEVENT@@@2@@Z 03034320 f i MQ2MacroCommands.obj
 0001:000334f0       ?_Insert@?$_Tree@V?$_Tmap_traits@V?$basic_string@DU?$char_traits@D@std@@V?$allocator@D@2@@std@@PAU_MACROBLOCK@MQ2Internal@@U?$less@V?$basic_string@DU?$char_traits@D@std@@V?$allocator@D@2@@std@@@2@V?$allocator@U?$pair@$$CBV?$basic_string@DU?$char_traits@D@std@@V?$allocator@D@2@@std@@PAU_MACROBLOCK@MQ2Internal@@@std@@@2@$0A@@std@@@std@@IAE?AViterator@12@_NPAU_Node@?$_Tree_nod@V?$_Tmap_traits@V?$basic_string@DU?$char_traits@D@std@@V?$allocator@D@2@@std@@PAU_MACROBLOCK@MQ2Internal@@U?$less@V?$basic_string@DU?$char_traits@D@std@@V?$allocator@D@2@@std@@@2@V?$allocator@U?$pair@$$CBV?$basic_string@DU?$char_traits@D@std@@V?$allocator@D@2@@std@@PAU_MACROBLOCK@MQ2Internal@@@std@@@2@$0A@@std@@@2@ABU?$pair@$$CBV?$basic_string@DU?$char_traits@D@std@@V?$allocator@D@2@@std@@PAU_MACROBLOCK@MQ2Internal@@@2@@Z 030344f0 f i MQ2MacroCommands.obj
 0001:000336e0       _EndMacro                  030346e0 f   MQ2MacroCommands.obj
 0001:00033a30       _Return                    03034a30 f   MQ2MacroCommands.obj
 0001:00033af0       ??A?$map@IPAU_BLECHEVENT@@U?$less@I@std@@V?$allocator@U?$pair@$$CBIPAU_BLECHEVENT@@@std@@@3@@std@@QAEAAPAU_BLECHEVENT@@ABI@Z 03034af0 f i MQ2MacroCommands.obj
 0001:00033ba0       ?insert@?$_Tree@V?$_Tmap_traits@V?$basic_string@DU?$char_traits@D@std@@V?$allocator@D@2@@std@@PAU_MACROBLOCK@MQ2Internal@@U?$less@V?$basic_string@DU?$char_traits@D@std@@V?$allocator@D@2@@std@@@2@V?$allocator@U?$pair@$$CBV?$basic_string@DU?$char_traits@D@std@@V?$allocator@D@2@@std@@PAU_MACROBLOCK@MQ2Internal@@@std@@@2@$0A@@std@@@std@@QAE?AU?$pair@Viterator@?$_Tree@V?$_Tmap_traits@V?$basic_string@DU?$char_traits@D@std@@V?$allocator@D@2@@std@@PAU_MACROBLOCK@MQ2Internal@@U?$less@V?$basic_string@DU?$char_traits@D@std@@V?$allocator@D@2@@std@@@2@V?$allocator@U?$pair@$$CBV?$basic_string@DU?$char_traits@D@std@@V?$allocator@D@2@@std@@PAU_MACROBLOCK@MQ2Internal@@@std@@@2@$0A@@std@@@std@@_N@2@ABU?$pair@$$CBV?$basic_string@DU?$char_traits@D@std@@V?$allocator@D@2@@std@@PAU_MACROBLOCK@MQ2Internal@@@2@@Z 03034ba0 f i MQ2MacroCommands.obj
 0001:00033d00       ?AddEvent@Blech@@QAEIPBDP6GXIPAXPAU_BLECHVALUE@@@Z1@Z 03034d00 f i MQ2MacroCommands.obj
 0001:00033e60       _AddMacroLine              03034e60 f   MQ2MacroCommands.obj
 0001:000345b0       ?insert@?$_Tree@V?$_Tmap_traits@V?$basic_string@DU?$char_traits@D@std@@V?$allocator@D@2@@std@@PAU_MACROBLOCK@MQ2Internal@@U?$less@V?$basic_string@DU?$char_traits@D@std@@V?$allocator@D@2@@std@@@2@V?$allocator@U?$pair@$$CBV?$basic_string@DU?$char_traits@D@std@@V?$allocator@D@2@@std@@PAU_MACROBLOCK@MQ2Internal@@@std@@@2@$0A@@std@@@std@@QAE?AViterator@12@Vconst_iterator@12@ABU?$pair@$$CBV?$basic_string@DU?$char_traits@D@std@@V?$allocator@D@2@@std@@PAU_MACROBLOCK@MQ2Internal@@@2@@Z 030355b0 f i MQ2MacroCommands.obj
 0001:000347e0       ??A?$map@V?$basic_string@DU?$char_traits@D@std@@V?$allocator@D@2@@std@@PAU_MACROBLOCK@MQ2Internal@@U?$less@V?$basic_string@DU?$char_traits@D@std@@V?$allocator@D@2@@std@@@2@V?$allocator@U?$pair@$$CBV?$basic_string@DU?$char_traits@D@std@@V?$allocator@D@2@@std@@PAU_MACROBLOCK@MQ2Internal@@@std@@@2@@std@@QAEAAPAU_MACROBLOCK@MQ2Internal@@ABV?$basic_string@DU?$char_traits@D@std@@V?$allocator@D@2@@1@@Z 030357e0 f i MQ2MacroCommands.obj
 0001:000348d0       _Call                      030358d0 f   MQ2MacroCommands.obj
 0001:00034c50       _Macro                     03035c50 f   MQ2MacroCommands.obj
 0001:00035000       ?strrchr@@YAPADPADH@Z      03036000 f i MQ2Main.obj
 0001:00035020       ?pXWnd@CSidlScreenWnd@EQClasses@@QAEPAVCXWnd@2@XZ 03036020 f i MQ2Main.obj
 0001:00035030       ?ReplacevfTable@CCustomWnd@MQ2Internal@@QAEXXZ 03036030 f i MQ2Main.obj
 0001:00035060       ?RemovevfTable@CCustomWnd@MQ2Internal@@QAEXXZ 03036060 f i MQ2Main.obj
 0001:00035080       ?SetvfTable@CCustomWnd@MQ2Internal@@QAEXKK@Z 03036080 f i MQ2Main.obj
 0001:00035090       ?ParseINIFile@@YAHPAD@Z    03036090 f   MQ2Main.obj
 0001:00035ad0       ?MQ2Initialize@@YA_NXZ     03036ad0 f   MQ2Main.obj
 0001:00035db0       ?MQ2Shutdown@@YAXXZ        03036db0 f   MQ2Main.obj
 0001:00035f60       ?MQ2Start@@YGKPAX@Z        03036f60 f   MQ2Main.obj
 0001:00036060       _MQ2Malloc                 03037060 f   MQ2Main.obj
 0001:00036070       _MQ2Free                   03037070 f   MQ2Main.obj
 0001:00036080       ?WndNotification@CMQNewsWnd@@QAEHPAVCXWnd@EQClasses@@IPAX@Z 03037080 f i MQ2Main.obj
 0001:000360b0       ?AddNewsLine@@YAXPADK@Z    030370b0 f   MQ2Main.obj
 0001:00036150       ?hookCBTProc@@YGJHIJ@Z     03037150 f   MQ2Main.obj
 0001:00036170       ?InjectEnable@@YAXXZ       03037170 f   MQ2Main.obj
 0001:00036190       ?InjectDisable@@YAXXZ      03037190 f   MQ2Main.obj
 0001:000361b0       _CastRay                   030371b0 f   MQ2Main.obj
 0001:000361c0       _GetFastTime               030371c0 f   MQ2Main.obj
 0001:000361d0       ??0CCustomWnd@MQ2Internal@@QAE@PAD@Z 030371d0 f i MQ2Main.obj
 0001:00036250       ??1CCustomWnd@MQ2Internal@@QAE@XZ 03037250 f i MQ2Main.obj
 0001:00036270       _DllMain@12                03037270 f   MQ2Main.obj
 0001:000363c0       ??0CMQNewsWnd@@QAE@PAD@Z   030373c0 f i MQ2Main.obj
 0001:00036440       ??1CMQNewsWnd@@QAE@XZ      03037440 f i MQ2Main.obj
 0001:00036460       ??_GCMQNewsWnd@@QAEPAXI@Z  03037460 f i MQ2Main.obj
 0001:000364a0       _DeleteMQ2NewsWindow       030374a0 f   MQ2Main.obj
 0001:000364e0       ?InsertMQ2News@@YAXXZ      030374e0 f   MQ2Main.obj
 0001:00036650       _CreateMQ2NewsWindow       03037650 f   MQ2Main.obj
 0001:00036730       ?ExtractValue@@YAHPAD000@Z 03037730 f   MQ2Mouse.obj
 0001:00036800       ?MouseButtonUp@@YAXKKPAD@Z 03037800 f   MQ2Mouse.obj
 0001:000368b0       ?ClickMouseLoc@@YAXPAD0@Z  030378b0 f   MQ2Mouse.obj
 0001:000369d0       _IsMouseWaitingForButton   030379d0 f   MQ2Mouse.obj
 0001:000369f0       _IsMouseWaiting            030379f0 f   MQ2Mouse.obj
 0001:00036a60       _Click                     03037a60 f   MQ2Mouse.obj
 0001:00036cc0       _InitializeParser          03037cc0 f   MQ2ParseAPI.obj
 0001:00036cf0       _ShutdownParser            03037cf0 f   MQ2ParseAPI.obj
 0001:00036d20       ?FindLastParameter@@YAHPBDAAPBDAAI@Z 03037d20 f   MQ2ParseAPI.obj
 0001:00036d60       _ParseMacroParameter       03037d60 f   MQ2ParseAPI.obj
 0001:00036f00       ?checkme@@YAKPAD@Z         03037f00 f   MQ2PluginHandler.obj
 0001:00036f10       _LoadMQ2Plugin             03037f10 f   MQ2PluginHandler.obj
 0001:00037350       _UnloadMQ2Plugin           03038350 f   MQ2PluginHandler.obj
 0001:00037480       _RewriteMQ2Plugins         03038480 f   MQ2PluginHandler.obj
 0001:00037500       _InitializeMQ2Plugins      03038500 f   MQ2PluginHandler.obj
 0001:000376e0       _UnloadMQ2Plugins          030386e0 f   MQ2PluginHandler.obj
 0001:00037730       _ShutdownMQ2Plugins        03038730 f   MQ2PluginHandler.obj
 0001:00037790       _WriteChatColor            03038790 f   MQ2PluginHandler.obj
 0001:00037870       _PluginsIncomingChat       03038870 f   MQ2PluginHandler.obj
 0001:000378e0       _PulsePlugins              030388e0 f   MQ2PluginHandler.obj
 0001:00037930       _PluginsZoned              03038930 f   MQ2PluginHandler.obj
 0001:00037990       _PluginsCleanUI            03038990 f   MQ2PluginHandler.obj
 0001:000379f0       _PluginsReloadUI           030389f0 f   MQ2PluginHandler.obj
 0001:00037a50       _PluginsSetGameState       03038a50 f   MQ2PluginHandler.obj
 0001:00037c00       _PluginsDrawHUD            03038c00 f   MQ2PluginHandler.obj
 0001:00037c50       _PluginsAddSpawn           03038c50 f   MQ2PluginHandler.obj
 0001:00037cf0       _PluginsAddGroundItem      03038cf0 f   MQ2PluginHandler.obj
 0001:00037d70       _PluginsRemoveGroundItem   03038d70 f   MQ2PluginHandler.obj
 0001:00037dc0       _PluginsBeginZone          03038dc0 f   MQ2PluginHandler.obj
 0001:00037e30       _PluginsEndZone            03038e30 f   MQ2PluginHandler.obj
 0001:00037ec0       ??0?$pair@Viterator@?$_Tree@V?$_Tmap_traits@V?$basic_string@DU?$char_traits@D@std@@V?$allocator@D@2@@std@@PAU_SPAWNINFO@EQData@@U?$less@V?$basic_string@DU?$char_traits@D@std@@V?$allocator@D@2@@std@@@2@V?$allocator@U?$pair@$$CBV?$basic_string@DU?$char_traits@D@std@@V?$allocator@D@2@@std@@PAU_SPAWNINFO@EQData@@@std@@@2@$0A@@std@@@std@@V123@@std@@QAE@ABViterator@?$_Tree@V?$_Tmap_traits@V?$basic_string@DU?$char_traits@D@std@@V?$allocator@D@2@@std@@PAU_SPAWNINFO@EQData@@U?$less@V?$basic_string@DU?$char_traits@D@std@@V?$allocator@D@2@@std@@@2@V?$allocator@U?$pair@$$CBV?$basic_string@DU?$char_traits@D@std@@V?$allocator@D@2@@std@@PAU_SPAWNINFO@EQData@@@std@@@2@$0A@@std@@@1@0@Z 03038ec0 f i MQ2PluginHandler.obj
 0001:00037ef0       ?_Myval@?$_Tree@V?$_Tmap_traits@V?$basic_string@DU?$char_traits@D@std@@V?$allocator@D@2@@std@@PAU_SPAWNINFO@EQData@@U?$less@V?$basic_string@DU?$char_traits@D@std@@V?$allocator@D@2@@std@@@2@V?$allocator@U?$pair@$$CBV?$basic_string@DU?$char_traits@D@std@@V?$allocator@D@2@@std@@PAU_SPAWNINFO@EQData@@@std@@@2@$0A@@std@@@std@@KAAAU?$pair@$$CBV?$basic_string@DU?$char_traits@D@std@@V?$allocator@D@2@@std@@PAU_SPAWNINFO@EQData@@@2@PAU_Node@?$_Tree_nod@V?$_Tmap_traits@V?$basic_string@DU?$char_traits@D@std@@V?$allocator@D@2@@std@@PAU_SPAWNINFO@EQData@@U?$less@V?$basic_string@DU?$char_traits@D@std@@V?$allocator@D@2@@std@@@2@V?$allocator@U?$pair@$$CBV?$basic_string@DU?$char_traits@D@std@@V?$allocator@D@2@@std@@PAU_SPAWNINFO@EQData@@@std@@@2@$0A@@std@@@2@@Z 03038ef0 f i MQ2PluginHandler.obj
 0001:00037f00       ?_Kfn@?$_Tmap_traits@V?$basic_string@DU?$char_traits@D@std@@V?$allocator@D@2@@std@@PAU_SPAWNINFO@EQData@@U?$less@V?$basic_string@DU?$char_traits@D@std@@V?$allocator@D@2@@std@@@2@V?$allocator@U?$pair@$$CBV?$basic_string@DU?$char_traits@D@std@@V?$allocator@D@2@@std@@PAU_SPAWNINFO@EQData@@@std@@@2@$0A@@std@@SAABV?$basic_string@DU?$char_traits@D@std@@V?$allocator@D@2@@2@ABU?$pair@$$CBV?$basic_string@DU?$char_traits@D@std@@V?$allocator@D@2@@std@@PAU_SPAWNINFO@EQData@@@2@@Z 03038f00 f i MQ2PluginHandler.obj
 0001:00037f10       ??$_Iter_cat@Viterator@?$_Tree@V?$_Tmap_traits@V?$basic_string@DU?$char_traits@D@std@@V?$allocator@D@2@@std@@PAU_SPAWNINFO@EQData@@U?$less@V?$basic_string@DU?$char_traits@D@std@@V?$allocator@D@2@@std@@@2@V?$allocator@U?$pair@$$CBV?$basic_string@DU?$char_traits@D@std@@V?$allocator@D@2@@std@@PAU_SPAWNINFO@EQData@@@std@@@2@$0A@@std@@@std@@@std@@YA?AUbidirectional_iterator_tag@0@ABViterator@?$_Tree@V?$_Tmap_traits@V?$basic_string@DU?$char_traits@D@std@@V?$allocator@D@2@@std@@PAU_SPAWNINFO@EQData@@U?$less@V?$basic_string@DU?$char_traits@D@std@@V?$allocator@D@2@@std@@@2@V?$allocator@U?$pair@$$CBV?$basic_string@DU?$char_traits@D@std@@V?$allocator@D@2@@std@@PAU_SPAWNINFO@EQData@@@std@@@2@$0A@@std@@@0@@Z 03038f10 f i MQ2PluginHandler.obj
 0001:00037f20       ?_Key@?$_Tree@V?$_Tmap_traits@V?$basic_string@DU?$char_traits@D@std@@V?$allocator@D@2@@std@@PAU_SPAWNINFO@EQData@@U?$less@V?$basic_string@DU?$char_traits@D@std@@V?$allocator@D@2@@std@@@2@V?$allocator@U?$pair@$$CBV?$basic_string@DU?$char_traits@D@std@@V?$allocator@D@2@@std@@PAU_SPAWNINFO@EQData@@@std@@@2@$0A@@std@@@std@@KAABV?$basic_string@DU?$char_traits@D@std@@V?$allocator@D@2@@2@PAU_Node@?$_Tree_nod@V?$_Tmap_traits@V?$basic_string@DU?$char_traits@D@std@@V?$allocator@D@2@@std@@PAU_SPAWNINFO@EQData@@U?$less@V?$basic_string@DU?$char_traits@D@std@@V?$allocator@D@2@@std@@@2@V?$allocator@U?$pair@$$CBV?$basic_string@DU?$char_traits@D@std@@V?$allocator@D@2@@std@@PAU_SPAWNINFO@EQData@@@std@@@2@$0A@@std@@@2@@Z 03038f20 f i MQ2PluginHandler.obj
 0001:00037f30       ??Eiterator@?$_Tree@V?$_Tmap_traits@V?$basic_string@DU?$char_traits@D@std@@V?$allocator@D@2@@std@@PAU_SPAWNINFO@EQData@@U?$less@V?$basic_string@DU?$char_traits@D@std@@V?$allocator@D@2@@std@@@2@V?$allocator@U?$pair@$$CBV?$basic_string@DU?$char_traits@D@std@@V?$allocator@D@2@@std@@PAU_SPAWNINFO@EQData@@@std@@@2@$0A@@std@@@std@@QAEAAV012@XZ 03038f30 f i MQ2PluginHandler.obj
 0001:00037f40       ??$_Distance2@Viterator@?$_Tree@V?$_Tmap_traits@V?$basic_string@DU?$char_traits@D@std@@V?$allocator@D@2@@std@@PAU_SPAWNINFO@EQData@@U?$less@V?$basic_string@DU?$char_traits@D@std@@V?$allocator@D@2@@std@@@2@V?$allocator@U?$pair@$$CBV?$basic_string@DU?$char_traits@D@std@@V?$allocator@D@2@@std@@PAU_SPAWNINFO@EQData@@@std@@@2@$0A@@std@@@std@@I@std@@YAXViterator@?$_Tree@V?$_Tmap_traits@V?$basic_string@DU?$char_traits@D@std@@V?$allocator@D@2@@std@@PAU_SPAWNINFO@EQData@@U?$less@V?$basic_string@DU?$char_traits@D@std@@V?$allocator@D@2@@std@@@2@V?$allocator@U?$pair@$$CBV?$basic_string@DU?$char_traits@D@std@@V?$allocator@D@2@@std@@PAU_SPAWNINFO@EQData@@@std@@@2@$0A@@std@@@0@0AAIUbidirectional_iterator_tag@0@@Z 03038f40 f i MQ2PluginHandler.obj
 0001:00037f80       ??$_Distance@Viterator@?$_Tree@V?$_Tmap_traits@V?$basic_string@DU?$char_traits@D@std@@V?$allocator@D@2@@std@@PAU_SPAWNINFO@EQData@@U?$less@V?$basic_string@DU?$char_traits@D@std@@V?$allocator@D@2@@std@@@2@V?$allocator@U?$pair@$$CBV?$basic_string@DU?$char_traits@D@std@@V?$allocator@D@2@@std@@PAU_SPAWNINFO@EQData@@@std@@@2@$0A@@std@@@std@@I@std@@YAXViterator@?$_Tree@V?$_Tmap_traits@V?$basic_string@DU?$char_traits@D@std@@V?$allocator@D@2@@std@@PAU_SPAWNINFO@EQData@@U?$less@V?$basic_string@DU?$char_traits@D@std@@V?$allocator@D@2@@std@@@2@V?$allocator@U?$pair@$$CBV?$basic_string@DU?$char_traits@D@std@@V?$allocator@D@2@@std@@PAU_SPAWNINFO@EQData@@@std@@@2@$0A@@std@@@0@0AAI@Z 03038f80 f i MQ2PluginHandler.obj
 0001:00037fb0       ?WriteChatColor@@YAXV?$basic_string@DU?$char_traits@D@std@@V?$allocator@D@2@@std@@@Z 03038fb0 f   MQ2PluginHandler.obj
 0001:00038030       ?_Eqrange@?$_Tree@V?$_Tmap_traits@V?$basic_string@DU?$char_traits@D@std@@V?$allocator@D@2@@std@@PAU_SPAWNINFO@EQData@@U?$less@V?$basic_string@DU?$char_traits@D@std@@V?$allocator@D@2@@std@@@2@V?$allocator@U?$pair@$$CBV?$basic_string@DU?$char_traits@D@std@@V?$allocator@D@2@@std@@PAU_SPAWNINFO@EQData@@@std@@@2@$0A@@std@@@std@@IAE?AU?$pair@Viterator@?$_Tree@V?$_Tmap_traits@V?$basic_string@DU?$char_traits@D@std@@V?$allocator@D@2@@std@@PAU_SPAWNINFO@EQData@@U?$less@V?$basic_string@DU?$char_traits@D@std@@V?$allocator@D@2@@std@@@2@V?$allocator@U?$pair@$$CBV?$basic_string@DU?$char_traits@D@std@@V?$allocator@D@2@@std@@PAU_SPAWNINFO@EQData@@@std@@@2@$0A@@std@@@std@@V123@@2@ABV?$basic_string@DU?$char_traits@D@std@@V?$allocator@D@2@@2@@Z 03039030 f i MQ2PluginHandler.obj
 0001:000381c0       ?equal_range@?$_Tree@V?$_Tmap_traits@V?$basic_string@DU?$char_traits@D@std@@V?$allocator@D@2@@std@@PAU_SPAWNINFO@EQData@@U?$less@V?$basic_string@DU?$char_traits@D@std@@V?$allocator@D@2@@std@@@2@V?$allocator@U?$pair@$$CBV?$basic_string@DU?$char_traits@D@std@@V?$allocator@D@2@@std@@PAU_SPAWNINFO@EQData@@@std@@@2@$0A@@std@@@std@@QAE?AU?$pair@Viterator@?$_Tree@V?$_Tmap_traits@V?$basic_string@DU?$char_traits@D@std@@V?$allocator@D@2@@std@@PAU_SPAWNINFO@EQData@@U?$less@V?$basic_string@DU?$char_traits@D@std@@V?$allocator@D@2@@std@@@2@V?$allocator@U?$pair@$$CBV?$basic_string@DU?$char_traits@D@std@@V?$allocator@D@2@@std@@PAU_SPAWNINFO@EQData@@@std@@@2@$0A@@std@@@std@@V123@@2@ABV?$basic_string@DU?$char_traits@D@std@@V?$allocator@D@2@@2@@Z 030391c0 f i MQ2PluginHandler.obj
 0001:000381e0       ?erase@?$_Tree@V?$_Tmap_traits@V?$basic_string@DU?$char_traits@D@std@@V?$allocator@D@2@@std@@PAU_SPAWNINFO@EQData@@U?$less@V?$basic_string@DU?$char_traits@D@std@@V?$allocator@D@2@@std@@@2@V?$allocator@U?$pair@$$CBV?$basic_string@DU?$char_traits@D@std@@V?$allocator@D@2@@std@@PAU_SPAWNINFO@EQData@@@std@@@2@$0A@@std@@@std@@QAEIABV?$basic_string@DU?$char_traits@D@std@@V?$allocator@D@2@@2@@Z 030391e0 f i MQ2PluginHandler.obj
 0001:00038250       _PluginsRemoveSpawn        03039250 f   MQ2PluginHandler.obj
 0001:00038330       ?DoNextCommand@@YAHXZ      03039330 f   MQ2Pulse.obj
 0001:00038500       ?Pulse@@YAXXZ              03039500 f   MQ2Pulse.obj
 0001:00038be0       ?Heartbeat@@YAXXZ          03039be0 f   MQ2Pulse.obj
 0001:00038de0       ?Trampoline_ProcessGameEvents@@YAHXZ 03039de0 f   MQ2Pulse.obj
 0001:00038e00       ?EnterZone_Trampoline@CEverQuestHook@@QAEXPAX@Z 03039e00 f   MQ2Pulse.obj
 0001:00038e20       ?SetGameState_Trampoline@CEverQuestHook@@QAEXK@Z 03039e20 f   MQ2Pulse.obj
 0001:00038e40       _ShutdownMQ2Pulse          03039e40 f   MQ2Pulse.obj
 0001:00038e70       ?Detour_ProcessGameEvents@@YAHXZ 03039e70 f   MQ2Pulse.obj
 0001:00038e80       ?EnterZone_Detour@CEverQuestHook@@QAEXPAX@Z 03039e80 f i MQ2Pulse.obj
 0001:00038ea0       ?SetGameState_Detour@CEverQuestHook@@QAEXK@Z 03039ea0 f i MQ2Pulse.obj
 0001:00038ed0       _InitializeMQ2Pulse        03039ed0 f   MQ2Pulse.obj
 0001:000394e0       ?AddGroundItem@@YAXXZ      0303a4e0 f   MQ2Spawns.obj
 0001:00039530       ?RemoveGroundItem@@YAXPAU_GROUNDITEM@EQData@@@Z 0303a530 f   MQ2Spawns.obj
 0001:000395b0       ?EQItemList_Trampoline@EQItemListHook@@QAEXXZ 0303a5b0 f   MQ2Spawns.obj
 0001:000395d0       ?dEQItemList_Trampoline@EQItemListHook@@QAEXXZ 0303a5d0 f   MQ2Spawns.obj
 0001:000395f0       ?EQPlayer_ExtraDetour@EQPlayerHook@@QAEXPAU_SPAWNINFO@EQData@@@Z 0303a5f0 f i MQ2Spawns.obj
 0001:00039620       ?CanSetName@CActorEx@@QAE_NK@Z 0303a620 f   MQ2Spawns.obj
 0001:00039630       ?SetNameColor@CActorEx@@QAEXAAK@Z 0303a630 f   MQ2Spawns.obj
 0001:00039640       ?ChangeBoneStringSprite@CActorEx@@QAEXHHPAD@Z 0303a640 f   MQ2Spawns.obj
 0001:00039650       ?SetNameSpriteTint_Trampoline@EQPlayerHook@@QAE_NXZ 0303a650 f   MQ2Spawns.obj
 0001:00039670       ?SetNameSpriteState_Trampoline@EQPlayerHook@@QAEH_N@Z 0303a670 f   MQ2Spawns.obj
 0001:00039690       ?dEQPlayer_Trampoline@EQPlayerHook@@QAEXXZ 0303a690 f   MQ2Spawns.obj
 0001:000396b0       ?EQPlayer_Trampoline@EQPlayerHook@@QAEXKKKKKKK@Z 0303a6b0 f   MQ2Spawns.obj
 0001:000396d0       _ShutdownMQ2Spawns         0303a6d0 f   MQ2Spawns.obj
 0001:000397a0       _ProcessPendingGroundItems 0303a7a0 f   MQ2Spawns.obj
 0001:00039800       _CaptionColorCmd           0303a800 f   MQ2Spawns.obj
 0001:00039bc0       ?EQItemList_Detour@EQItemListHook@@QAEXXZ 0303abc0 f i MQ2Spawns.obj
 0001:00039bf0       ?dEQItemList_Detour@EQItemListHook@@QAEXXZ 0303abf0 f i MQ2Spawns.obj
 0001:00039c10       ?EQPlayer_Detour@EQPlayerHook@@QAEXKKKKKKK@Z 0303ac10 f i MQ2Spawns.obj
 0001:00039c50       ?dEQPlayer_Detour@EQPlayerHook@@QAEXXZ 0303ac50 f i MQ2Spawns.obj
 0001:00039c70       ?SetNameSpriteState_Detour@EQPlayerHook@@QAEH_N@Z 0303ac70 f i MQ2Spawns.obj
 0001:00039ca0       ?SetNameSpriteTint_Detour@EQPlayerHook@@QAE_NXZ 0303aca0 f i MQ2Spawns.obj
 0001:00039cc0       ?SetNameSpriteTint@@YAXPAU_SPAWNINFO@EQData@@@Z 0303acc0 f   MQ2Spawns.obj
 0001:0003a020       _SetNameSpriteState        0303b020 f   MQ2Spawns.obj
 0001:0003a240       ?UpdateSpawnCaptions@@YAXXZ 0303b240 f   MQ2Spawns.obj
 0001:0003a2b0       _InitializeMQ2Spawns       0303b2b0 f   MQ2Spawns.obj
 0001:0003a580       _UpdateMQ2SpawnSort        0303b580 f   MQ2Spawns.obj
 0001:0003a6f0       ?abs@@YAJJ@Z               0303b6f0 f i MQ2Utilities.obj
 0001:0003a700       ?abs@@YAMM@Z               0303b700 f i MQ2Utilities.obj
 0001:0003ac40       _DebugSpew                 0303bc40 f   MQ2Utilities.obj
 0001:0003acb0       _WriteChatf                0303bcb0 f   MQ2Utilities.obj
 0001:0003ad00       _DebugSpewAlways           0303bd00 f   MQ2Utilities.obj
 0001:0003ade0       _DebugSpewNoFile           0303bde0 f   MQ2Utilities.obj
 0001:0003ae40       ?StrReplaceSection@@YAXPADK0@Z 0303be40 f   MQ2Utilities.obj
 0001:0003aea0       _ConvertCR                 0303bea0 f   MQ2Utilities.obj
 0001:0003aee0       ?Flavorator@@YAXPAD@Z      0303bee0 f   MQ2Utilities.obj
 0001:0003afd0       _SyntaxError               0303bfd0 f   MQ2Utilities.obj
 0001:0003b0c0       _MacroError                0303c0c0 f   MQ2Utilities.obj
 0001:0003b220       _FatalError                0303c220 f   MQ2Utilities.obj
 0001:0003b370       _MQ2DataError              0303c370 f   MQ2Utilities.obj
 0001:0003b4f0       _FixStringTable            0303c4f0 f   MQ2Utilities.obj
 0001:0003b540       _GetNextArg                0303c540 f   MQ2Utilities.obj
 0001:0003b610       _GetArg                    0303c610 f   MQ2Utilities.obj
 0001:0003b740       _GetEQPath                 0303c740 f   MQ2Utilities.obj
 0001:0003b7a0       _ConvertItemTags           0303c7a0 f   MQ2Utilities.obj
 0001:0003b7c0       _AppendCXStr               0303c7c0 f   MQ2Utilities.obj
 0001:0003b7d0       _SetCXStr                  0303c7d0 f   MQ2Utilities.obj
 0001:0003b7e0       _GetCXStr                  0303c7e0 f   MQ2Utilities.obj
 0001:0003b870       _StripMQChat               0303c870 f   MQ2Utilities.obj
 0001:0003b8c0       _MQToSTML                  0303c8c0 f   MQ2Utilities.obj
 0001:0003bcb0       _GetFilenameFromFullPath   0303ccb0 f   MQ2Utilities.obj
 0001:0003bd00       _GetSubFromLine            0303cd00 f   MQ2Utilities.obj
 0001:0003bd60       _CompareTimes              0303cd60 f   MQ2Utilities.obj
 0001:0003bda0       _AddFilter                 0303cda0 f   MQ2Utilities.obj
 0001:0003be10       _DefaultFilters            0303ce10 f   MQ2Utilities.obj
 0001:0003c000       _ConvertHotkeyNameToKeyName 0303d000 f   MQ2Utilities.obj
 0001:0003c060       _GetFullZone               0303d060 f   MQ2Utilities.obj
 0001:0003c090       _GetShortZone              0303d090 f   MQ2Utilities.obj
 0001:0003c0c0       _GetZoneID                 0303d0c0 f   MQ2Utilities.obj
 0001:0003c130       _GetGameTime               0303d130 f   MQ2Utilities.obj
 0001:0003c180       _GetGameDate               0303d180 f   MQ2Utilities.obj
 0001:0003c1e0       _GetLanguageIDByName       0303d1e0 f   MQ2Utilities.obj
 0001:0003c470       _GetSpellNameByID          0303d470 f   MQ2Utilities.obj
 0001:0003c4a0       _GetSpellByName            0303d4a0 f   MQ2Utilities.obj
 0001:0003c540       _GetSpellDuration          0303d540 f   MQ2Utilities.obj
 0001:0003c7d0       _GetDeityTeamByID          0303d7d0 f   MQ2Utilities.obj
 0001:0003c820       _GetGuildByID              0303d820 f   MQ2Utilities.obj
 0001:0003c840       _GetGuildIDByName          0303d840 f   MQ2Utilities.obj
 0001:0003c8a0       _GetLightForSpawn          0303d8a0 f   MQ2Utilities.obj
 0001:0003c8d0       _DistanceToSpawn3D         0303d8d0 f   MQ2Utilities.obj
 0001:0003c930       _EstimatedDistanceToSpawn  0303d930 f   MQ2Utilities.obj
 0001:0003c9d0       _ConColor                  0303d9d0 f   MQ2Utilities.obj
 0001:0003ca50       _GetEnviroContainer        0303da50 f   MQ2Utilities.obj
 0001:0003ca70       _FindContainerForContents  0303da70 f   MQ2Utilities.obj
 0001:0003cac0       _FindSpeed                 0303dac0 f   MQ2Utilities.obj
 0001:0003cb00       _GetItemLinkHash           0303db00 f   MQ2Utilities.obj
 0001:0003cb20       _GetItemLink               0303db20 f   MQ2Utilities.obj
 0001:0003cb80       _GetLoginName              0303db80 f   MQ2Utilities.obj
 0001:0003cc60       _STMLToPlainText           0303dc60 f   MQ2Utilities.obj
 0001:0003cde0       ?ClearSearchItem@@YAXAAU_SEARCHITEM@MQ2Internal@@@Z 0303dde0 f   MQ2Utilities.obj
 0001:0003ce00       ?ItemMatchesSearch@@YAHAAU_SEARCHITEM@MQ2Internal@@PAU_CONTENTS@EQData@@@Z 0303de00 f   MQ2Utilities.obj
 0001:0003d030       ?SearchThroughItems@@YAHAAU_SEARCHITEM@MQ2Internal@@PAPAU_CONTENTS@EQData@@PAK@Z 0303e030 f   MQ2Utilities.obj
 0001:0003d1f0       _ClearSearchSpawn          0303e1f0 f   MQ2Utilities.obj
 0001:0003d240       _DistanceToPoint           0303e240 f   MQ2Utilities.obj
 0001:0003d280       ?GetSpellEffectName@@YAPADJPAD@Z 0303e280 f   MQ2Utilities.obj
 0001:0003daa0       _SlotValueCalculate        0303eaa0 f   MQ2Utilities.obj
 0001:0003e4e0       _FindMappableCommand       0303f4e0 f   MQ2Utilities.obj
 0001:0003e520       _DisplayOverlayText        0303f520 f   MQ2Utilities.obj
 0001:0003e590       _ParseKeyCombo             0303f590 f   MQ2Utilities.obj
 0001:0003e6f0       _DescribeKeyCombo          0303f6f0 f   MQ2Utilities.obj
 0001:0003e7a0       _LoadCfgFile               0303f7a0 f   MQ2Utilities.obj
 0001:0003e990       _FindInvSlotForContents    0303f990 f   MQ2Utilities.obj
 0001:0003eaf0       _FindInvSlot               0303faf0 f   MQ2Utilities.obj
 0001:0003ec60       _FindNextInvSlot           0303fc60 f   MQ2Utilities.obj
 0001:0003ede0       ?EvaluateRPN@@YAHPAU_CalcOp@@HAAN@Z 0303fde0 f   MQ2Utilities.obj
 0001:0003f2e0       ?FastCalculate@@YAHPADAAN@Z 030402e0 f   MQ2Utilities.obj
 0001:00040450       _Calculate                 03041450 f   MQ2Utilities.obj
 0001:00040580       _PlayerHasAAAbility        03041580 f   MQ2Utilities.obj
 0001:000405b0       _GetAAIndexByName          030415b0 f   MQ2Utilities.obj
 0001:00040620       _GetAAIndexByID            03041620 f   MQ2Utilities.obj
 0001:00040660       _IsInGroup                 03041660 f   MQ2Utilities.obj
 0001:00040730       _IsInRaid                  03041730 f   MQ2Utilities.obj
 0001:000407c0       _IsNamed                   030417c0 f   MQ2Utilities.obj
 0001:00040920       _FormatSearchSpawn         03041920 f   MQ2Utilities.obj
 0001:00041030       _ParseSearchSpawnArgs      03042030 f   MQ2Utilities.obj
 0001:00041be0       _ParseSearchSpawn          03042be0 f   MQ2Utilities.obj
 0001:00041cc0       _GetAlert                  03042cc0 f   MQ2Utilities.obj
 0001:00041cf0       _AddNewAlertList           03042cf0 f   MQ2Utilities.obj
 0001:00041d30       _FreeAlertList             03042d30 f   MQ2Utilities.obj
 0001:00041d70       _FreeAlerts                03042d70 f   MQ2Utilities.obj
 0001:00041e10       _IsAlert                   03042e10 f   MQ2Utilities.obj
 0001:00041ec0       _CheckAlertForRecursion    03042ec0 f   MQ2Utilities.obj
 0001:00042020       _CleanupName               03043020 f   MQ2Utilities.obj
 0001:00042200       ?SuperWhoDisplay@@YAXPAU_SPAWNINFO@EQData@@K@Z 03043200 f   MQ2Utilities.obj
 0001:00042fa0       _pWHOSORTCompare           03043fa0 f   MQ2Utilities.obj
 0001:000431c0       _thrMsgBox@4               030441c0 f   MQ2Utilities.obj
 0001:000431f0       _StateHeightMultiplier     030441f0 f   MQ2Utilities.obj
 0001:00043250       _FindSpellListByName       03044250 f   MQ2Utilities.obj
 0001:00043290       _RewriteAliases            03044290 f   MQ2Utilities.obj
 0001:000432e0       _RewriteSubstitutions      030442e0 f   MQ2Utilities.obj
 0001:00043330       _GetFriendlyNameForGroundItem 03044330 f   MQ2Utilities.obj
 0001:00043430       _GetModel                  03044430 f   MQ2Utilities.obj
 0001:00043490       _SetDisplaySWhoFilter      03044490 f   MQ2Utilities.obj
 0001:00043570       _WriteFilterNames          03044570 f   MQ2Utilities.obj
 0001:00043610       _GetShortBuffID            03044610 f   MQ2Utilities.obj
 0001:00043650       _GetBuffID                 03044650 f   MQ2Utilities.obj
 0001:00043690       _GetLDoNTheme              03044690 f   MQ2Utilities.obj
 0001:000436e0       _GetItemTimer              030446e0 f   MQ2Utilities.obj
 0001:00043710       _GetItemContentsBySlotID   03044710 f   MQ2Utilities.obj
 0001:00043770       _GetItemContentsByName     03044770 f   MQ2Utilities.obj
 0001:00043880       _GetParentWnd              03044880 f   MQ2Utilities.obj
 0001:000438a0       _LoH_HT_Ready              030448a0 f   MQ2Utilities.obj
 0001:000438d0       _GetSkillIDFromName        030448d0 f   MQ2Utilities.obj
 0001:00043920       _InHoverState              03044920 f   MQ2Utilities.obj
 0001:00043940       _GetGameState              03044940 f   MQ2Utilities.obj
 0001:00043960       _BuffStackTest             03044960 f   MQ2Utilities.obj
 0001:00043b30       _GetMeleeRange             03044b30 f   MQ2Utilities.obj
 0001:00043bf0       _AttackRanged              03044bf0 f   MQ2Utilities.obj
 0001:00043c20       _UseAbility                03044c20 f   MQ2Utilities.obj
 0001:00043e30       ??0?$CIndex@PAU_MQRANK@MQ2Internal@@@MQ2Internal@@QAE@XZ 03044e30 f i MQ2Utilities.obj
 0001:00043e50       ??1?$CIndex@PAU_MQRANK@MQ2Internal@@@MQ2Internal@@QAE@XZ 03044e50 f i MQ2Utilities.obj
 0001:00043e90       ?Cleanup@?$CIndex@PAU_MQRANK@MQ2Internal@@@MQ2Internal@@QAEXXZ 03044e90 f i MQ2Utilities.obj
 0001:00043ed0       ??A?$CIndex@PAU_MQRANK@MQ2Internal@@@MQ2Internal@@QAEAAPAU_MQRANK@1@K@Z 03044ed0 f i MQ2Utilities.obj
 0001:00043ee0       ??0?$CIndex@PAU_SPAWNINFO@EQData@@@MQ2Internal@@QAE@XZ 03044ee0 f i MQ2Utilities.obj
 0001:00043f00       ??1?$CIndex@PAU_SPAWNINFO@EQData@@@MQ2Internal@@QAE@XZ 03044f00 f i MQ2Utilities.obj
 0001:00043f40       ??A?$CIndex@PAU_SPAWNINFO@EQData@@@MQ2Internal@@QAEAAPAU_SPAWNINFO@EQData@@K@Z 03044f40 f i MQ2Utilities.obj
 0001:00043f50       ?Resize@?$CIndex@PAU_MQRANK@MQ2Internal@@@MQ2Internal@@QAEXK@Z 03044f50 f i MQ2Utilities.obj
 0001:00044000       ?Resize@?$CIndex@PAU_SPAWNINFO@EQData@@@MQ2Internal@@QAEXK@Z 03045000 f i MQ2Utilities.obj
 0001:000440b0       _ShowSpellSlotInfo         030450b0 f   MQ2Utilities.obj
 0001:0004b6f0       _IsPCNear                  0304c6f0 f   MQ2Utilities.obj
 0001:0004b790       ?GetUnused@?$CIndex@PAU_MQRANK@MQ2Internal@@@MQ2Internal@@QAEKXZ 0304c790 f i MQ2Utilities.obj
 0001:0004b7e0       ?GetUnused@?$CIndex@PAU_SPAWNINFO@EQData@@@MQ2Internal@@QAEKXZ 0304c7e0 f i MQ2Utilities.obj
 0001:0004b830       ??Y?$CIndex@PAU_MQRANK@MQ2Internal@@@MQ2Internal@@QAEAAPAU_MQRANK@1@AAPAU21@@Z 0304c830 f i MQ2Utilities.obj
 0001:0004b850       ??Y?$CIndex@PAU_SPAWNINFO@EQData@@@MQ2Internal@@QAEAAPAU_SPAWNINFO@EQData@@AAPAU23@@Z 0304c850 f i MQ2Utilities.obj
 0001:0004b870       _NthNearestSpawn           0304c870 f   MQ2Utilities.obj
 0001:0004ba10       _SearchThroughSpawns       0304ca10 f   MQ2Utilities.obj
 0001:0004bb00       _GetClosestAlert           0304cb00 f   MQ2Utilities.obj
 0001:0004bbc0       _SpawnMatchesSearch        0304cbc0 f   MQ2Utilities.obj
 0001:0004c180       ?SuperWhoDisplay@@YAXPAU_SPAWNINFO@EQData@@PAU_SEARCHSPAWN@MQ2Internal@@K@Z 0304d180 f   MQ2Utilities.obj
 0001:0004c4a0       _CountMatchingSpawns       0304d4a0 f   MQ2Utilities.obj
 0001:0004c550       ?Init_Trampoline@CSidlInitHook@@QAEXPAVCXStr@EQClasses@@H@Z 0304d550 f   MQ2Windows.obj
 0001:0004c570       ?RemoveWnd_Trampoline@CXWndManagerHook@@QAEHPAVCXWnd@EQClasses@@@Z 0304d570 f   MQ2Windows.obj
 0001:0004c590       ?XMLRead_Trampoline@CXMLSOMDocumentBaseHook@@QAEHPAVCXStr@EQClasses@@00@Z 0304d590 f   MQ2Windows.obj
 0001:0004c5b0       ?GenerateMQUI@@YA_NXZ      0304d5b0 f   MQ2Windows.obj
 0001:0004ca10       ?DestroyMQUI@@YAXXZ        0304da10 f   MQ2Windows.obj
 0001:0004cb20       _AddXMLFile                0304db20 f   MQ2Windows.obj
 0001:0004cd10       _RemoveXMLFile             0304dd10 f   MQ2Windows.obj
 0001:0004cd90       _SendWndClick2             0304dd90 f   MQ2Windows.obj
 0001:0004cf50       ?RecurseAndListWindows@@YAHPAU_CSIDLWND@EQUIStructs@@@Z 0304df50 f   MQ2Windows.obj
 0001:0004d030       ?ListItemSlots@@YAXPAU_SPAWNINFO@EQData@@PAD@Z 0304e030 f   MQ2Windows.obj
 0001:0004d0b0       ??1?$CIndex@PAU_WindowInfo@@@MQ2Internal@@QAE@XZ 0304e0b0 f i MQ2Windows.obj
 0001:0004d0f0       ?Cleanup@?$CIndex@PAU_WindowInfo@@@MQ2Internal@@QAEXXZ 0304e0f0 f i MQ2Windows.obj
 0001:0004d130       ??A?$CIndex@PAU_WindowInfo@@@MQ2Internal@@QAEAAPAU_WindowInfo@@K@Z 0304e130 f i MQ2Windows.obj
 0001:0004d140       ?Resize@?$CIndex@PAU_WindowInfo@@@MQ2Internal@@QAEXK@Z 0304e140 f i MQ2Windows.obj
 0001:0004d1f0       ?XMLRead@CXMLSOMDocumentBaseHook@@QAEHPAVCXStr@EQClasses@@00@Z 0304e1f0 f i MQ2Windows.obj
 0001:0004d2c0       _ShutdownMQ2Windows        0304e2c0 f   MQ2Windows.obj
 0001:0004d320       ??0?$CIndex@PAU_WindowInfo@@@MQ2Internal@@QAE@K@Z 0304e320 f i MQ2Windows.obj
 0001:0004d350       ?GetUnused@?$CIndex@PAU_WindowInfo@@@MQ2Internal@@QAEKXZ 0304e350 f i MQ2Windows.obj
 0001:0004d3a0       ?Init_Detour@CSidlInitHook@@QAEXPAVCXStr@EQClasses@@H@Z 0304e3a0 f i MQ2Windows.obj
 0001:0004d610       ?RemoveWnd_Detour@CXWndManagerHook@@QAEHPAVCXWnd@EQClasses@@@Z 0304e610 f i MQ2Windows.obj
 0001:0004d800       _FindMQ2Window             0304e800 f   MQ2Windows.obj
 0001:0004db30       _SendWndClick              0304eb30 f   MQ2Windows.obj
 0001:0004dd30       _SendListSelect            0304ed30 f   MQ2Windows.obj
 0001:0004dde0       ?SendTabSelect@@YA_NPAD0K@Z 0304ede0 f   MQ2Windows.obj
 0001:0004de80       _SendWndNotification       0304ee80 f   MQ2Windows.obj
 0001:0004df60       _AddWindow                 0304ef60 f   MQ2Windows.obj
 0001:0004e1a0       _RemoveWindow              0304f1a0 f   MQ2Windows.obj
 0001:0004e350       ?ListWindows@@YAXPAU_SPAWNINFO@EQData@@PAD@Z 0304f350 f   MQ2Windows.obj
 0001:0004e5d0       ?WndNotify@@YAXPAU_SPAWNINFO@EQData@@PAD@Z 0304f5d0 f   MQ2Windows.obj
 0001:0004e8d0       ?ItemNotify@@YAXPAU_SPAWNINFO@EQData@@PAD@Z 0304f8d0 f   MQ2Windows.obj
 0001:0004eca0       _InitializeMQ2Windows      0304fca0 f   MQ2Windows.obj
 0001:0004f54c       _PlaySoundA@12             0305054c f   winmm:WINMM.dll
 0001:0004f552       _EnterCriticalSection@4    03050552 f   kernel32:KERNEL32.dll
 0001:0004f558       _LeaveCriticalSection@4    03050558 f   kernel32:KERNEL32.dll
 0001:0004f55e       _DeleteCriticalSection@4   0305055e f   kernel32:KERNEL32.dll
 0001:0004f564       _GetTickCount@0            03050564 f   kernel32:KERNEL32.dll
 0001:0004f56a       _InitializeCriticalSection@4 0305056a f   kernel32:KERNEL32.dll
 0001:0004f570       _GetProcAddress@8          03050570 f   kernel32:KERNEL32.dll
 0001:0004f576       _GetModuleHandleA@4        03050576 f   kernel32:KERNEL32.dll
 0001:0004f57c       _GetPrivateProfileStringA@24 0305057c f   kernel32:KERNEL32.dll
 0001:0004f582       _FindClose@4               03050582 f   kernel32:KERNEL32.dll
 0001:0004f588       _FindNextFileA@8           03050588 f   kernel32:KERNEL32.dll
 0001:0004f58e       _FindFirstFileA@8          0305058e f   kernel32:KERNEL32.dll
 0001:0004f594       _Beep@8                    03050594 f   kernel32:KERNEL32.dll
 0001:0004f59a       _WritePrivateProfileStringA@16 0305059a f   kernel32:KERNEL32.dll
 0001:0004f5a0       _CreateThread@24           030505a0 f   kernel32:KERNEL32.dll
 0001:0004f5a6       _OutputDebugStringA@4      030505a6 f   kernel32:KERNEL32.dll
 0001:0004f5ac       _FileTimeToSystemTime@8    030505ac f   kernel32:KERNEL32.dll
 0001:0004f5b2       _WriteProcessMemory@20     030505b2 f   kernel32:KERNEL32.dll
 0001:0004f5b8       _VirtualProtectEx@20       030505b8 f   kernel32:KERNEL32.dll
 0001:0004f5be       _GetCurrentProcess@0       030505be f   kernel32:KERNEL32.dll
 0001:0004f5c4       _GetPrivateProfileIntA@16  030505c4 f   kernel32:KERNEL32.dll
 0001:0004f5ca       _Sleep@4                   030505ca f   kernel32:KERNEL32.dll
 0001:0004f5d0       _GetModuleFileNameA@12     030505d0 f   kernel32:KERNEL32.dll
 0001:0004f5d6       _FreeLibrary@4             030505d6 f   kernel32:KERNEL32.dll
 0001:0004f5dc       _LoadLibraryA@4            030505dc f   kernel32:KERNEL32.dll
 0001:0004f5e2       _WritePrivateProfileSectionA@12 030505e2 f   kernel32:KERNEL32.dll
 0001:0004f5e8       _CallNextHookEx@16         030505e8 f   user32:USER32.dll
 0001:0004f5ee       _MessageBoxA@16            030505ee f   user32:USER32.dll
 0001:0004f5f4       _SetWindowsHookExA@16      030505f4 f   user32:USER32.dll
 0001:0004f5fa       _UnhookWindowsHookEx@4     030505fa f   user32:USER32.dll
 0001:0004f600       _ShellExecuteA@24          03050600 f   shell32:SHELL32.dll
 0001:0004f606       ??0invalid_argument@std@@QAE@ABV?$basic_string@DU?$char_traits@D@std@@V?$allocator@D@2@@1@@Z 03050606 f i libcpmt:string.obj
 0001:0004f623       ??1invalid_argument@std@@UAE@XZ 03050623 f i libcpmt:string.obj
 0001:0004f62e       ??_Einvalid_argument@std@@UAEPAXI@Z 0305062e f i libcpmt:string.obj
 0001:0004f62e       ??_Ginvalid_argument@std@@UAEPAXI@Z 0305062e f i libcpmt:string.obj
 0001:0004f655       ?_Xlen@_String_base@std@@SAXXZ 03050655 f   libcpmt:string.obj
 0001:0004f68d       ?_Xran@_String_base@std@@SAXXZ 0305068d f   libcpmt:string.obj
 0001:0004f6c5       ?_Xinvarg@_String_base@std@@SAXXZ 030506c5 f   libcpmt:string.obj
 0001:0004f6fd       ??0invalid_argument@std@@QAE@ABV01@@Z 030506fd f i libcpmt:string.obj
 0001:0004f720       _DetourRemove@8            03050720 f   detours:detours.obj
 0001:0004f880       ??0CDetourEnableWriteOnCodePage@@QAE@PAEJ@Z 03050880 f i detours:detours.obj
 0001:0004f900       ??1CDetourEnableWriteOnCodePage@@QAE@XZ 03050900 f i detours:detours.obj
 0001:0004f970       _DetourFunction@8          03050970 f   detours:detours.obj
 0001:0004fc60       ?SetPermission@CDetourEnableWriteOnCodePage@@QAEHK@Z 03050c60 f i detours:detours.obj
 0001:0004fca0       ?IsValid@CDetourEnableWriteOnCodePage@@QAEHXZ 03050ca0 f i detours:detours.obj
 0001:0004fd40       ?DetourGenJmp@@YAPAEPAE00@Z 03050d40 f i detours:detours.obj
 0001:0004fd80       ?DetourGenBreak@@YAPAEPAE@Z 03050d80 f i detours:detours.obj
 0001:0004fda0       _DetourFunctionWithEmptyTrampoline@12 03050da0 f   detours:detours.obj
 0001:0004fdc0       _DetourFunctionWithEmptyTrampolineEx@24 03050dc0 f   detours:detours.obj
 0001:0004fe70       _DetourFunctionWithTrampoline@8 03050e70 f   detours:detours.obj
 0001:0004fe90       _DetourFunctionWithTrampolineEx@16 03050e90 f   detours:detours.obj
 0001:0004ff80       ?DetourLoadImageHlp@@YAPAU_DETOUR_SYM_INFO@@XZ 03050f80 f   detours:detours.obj
 0001:00050140       _DetourGetFinalCode@8      03051140 f   detours:detours.obj
 0001:000501b0       _DetourFindFunction@8      030511b0 f   detours:detours.obj
 0001:00050350       _DetourEnumerateModules@4  03051350 f   detours:detours.obj
 0001:00050460       _DetourGetEntryPoint@4     03051460 f   detours:detours.obj
 0001:00050590       _DetourEnumerateExports@12 03051590 f   detours:detours.obj
 0001:000507f0       _DetourGetSizeOfPayloads@4 030517f0 f   detours:detours.obj
 0001:00050aa0       _DetourFindPayload@12      03051aa0 f   detours:detours.obj
 0001:00050c00       _==                        03051c00 f i detours:detours.obj
 0001:00050c20       _IsEqualGUID               03051c20 f i detours:detours.obj
 0001:00050c40       _DetourCopyInstructionEx@16 03051c40 f   detours:disasm.obj
 0001:00050c70       _DetourCopyInstruction@12  03051c70 f   detours:disasm.obj
 0001:00050ca0       ??0CDetourDis@@QAE@PAPAEPAJ@Z 03051ca0 f   detours:disasm.obj
 0001:00050d20       ?Set16BitOperand@CDetourDis@@IAEXXZ 03051d20 f   detours:disasm.obj
 0001:00050d40       ?Set32BitOperand@CDetourDis@@IAEXXZ 03051d40 f   detours:disasm.obj
 0001:00050d60       ?Set16BitAddress@CDetourDis@@IAEXXZ 03051d60 f   detours:disasm.obj
 0001:00050d80       ?Set32BitAddress@CDetourDis@@IAEXXZ 03051d80 f   detours:disasm.obj
 0001:00050da0       ?CopyInstruction@CDetourDis@@QAEPAEPAE0@Z 03051da0 f   detours:disasm.obj
 0001:00050e00       ?CopyBytes@CDetourDis@@IAEPAEPBUCOPYENTRY@1@PAE1@Z 03051e00 f   detours:disasm.obj
 0001:00050fd0       ?CopyBytesPrefix@CDetourDis@@IAEPAEPBUCOPYENTRY@1@PAE1@Z 03051fd0 f   detours:disasm.obj
 0001:00051020       ?AdjustTarget@CDetourDis@@IAEPAEPAE0JJ@Z 03052020 f   detours:disasm.obj
 0001:00051100       ?Invalid@CDetourDis@@IAEPAEPBUCOPYENTRY@1@PAE1@Z 03052100 f   detours:disasm.obj
 0001:00051120       ?Copy0F@CDetourDis@@IAEPAEPBUCOPYENTRY@1@PAE1@Z 03052120 f   detours:disasm.obj
 0001:00051170       ?Copy66@CDetourDis@@IAEPAEPBUCOPYENTRY@1@PAE1@Z 03052170 f   detours:disasm.obj
 0001:000511a0       ?Copy67@CDetourDis@@IAEPAEPBUCOPYENTRY@1@PAE1@Z 030521a0 f   detours:disasm.obj
 0001:000511d0       ?CopyF6@CDetourDis@@IAEPAEPBUCOPYENTRY@1@PAE1@Z 030521d0 f   detours:disasm.obj
 0001:00051230       ?CopyF7@CDetourDis@@IAEPAEPBUCOPYENTRY@1@PAE1@Z 03052230 f   detours:disasm.obj
 0001:00051290       ?CopyFF@CDetourDis@@IAEPAEPBUCOPYENTRY@1@PAE1@Z 03052290 f   detours:disasm.obj
 0001:00051340       ?SanityCheckSystem@CDetourDis@@SAHXZ 03052340 f   detours:disasm.obj
 0001:000513f0       _memset                    030523f0 f   LIBCMT:memset.obj
 0001:0005146a       _free                      0305246a f   LIBCMT:free.obj
 0001:000514f8       ??3@YAXPAX@Z               030524f8 f   LIBCMT:delete.obj
 0001:00051503       _V6_HeapAlloc              03052503 f   LIBCMT:malloc.obj
 0001:00051552       __heap_alloc               03052552 f i LIBCMT:malloc.obj
 0001:000515cc       _malloc                    030525cc f   LIBCMT:malloc.obj
 0001:000516a0       _memcpy                    030526a0 f   LIBCMT:memcpy.obj
 0001:00051a05       _sprintf                   03052a05 f   LIBCMT:sprintf.obj
 0001:00051a82       __sprintf_l                03052a82 f   LIBCMT:sprintf.obj
 0001:00051a9e       _sprintf_s                 03052a9e f   LIBCMT:sprintf.obj
 0001:00051abc       __sprintf_s_l              03052abc f   LIBCMT:sprintf.obj
 0001:00051adb       __snprintf_s               03052adb f   LIBCMT:sprintf.obj
 0001:00051afc       __snprintf_s_l             03052afc f   LIBCMT:sprintf.obj
 0001:00051b1e       __sprintf_p                03052b1e f   LIBCMT:sprintf.obj
 0001:00051b3c       __sprintf_p_l              03052b3c f   LIBCMT:sprintf.obj
 0001:00051b5b       __scprintf                 03052b5b f   LIBCMT:sprintf.obj
 0001:00051b70       __scprintf_p               03052b70 f   LIBCMT:sprintf.obj
 0001:00051b85       __scprintf_l               03052b85 f   LIBCMT:sprintf.obj
 0001:00051b9e       __scprintf_p_l             03052b9e f   LIBCMT:sprintf.obj
 0001:00051bb7       __fpclear                  03052bb7 f   LIBCMT:_fpinit_.obj
 0001:00051bb8       __cfltcvt_init             03052bb8 f   LIBCMT:_fpinit_.obj
 0001:00051c18       ___setfflag                03052c18 f   LIBCMT:_fpinit_.obj
 0001:00051c2d       __fpmath                   03052c2d f   LIBCMT:_fpinit_.obj
 0001:00051c50       ??0bad_alloc@std@@QAE@XZ   03052c50 f i LIBCMT:new.obj
 0001:00051c6b       ??2@YAPAXI@Z               03052c6b f   LIBCMT:new.obj
 0001:00051cd0       _strstr                    03052cd0 f   LIBCMT:strstr.obj
 0001:00051d56       ??0exception@std@@QAE@XZ   03052d56 f   LIBCMT:stdexcpt.obj
 0001:00051d67       ??0exception@std@@QAE@ABQBD@Z 03052d67 f   LIBCMT:stdexcpt.obj
 0001:00051dba       ??0exception@std@@QAE@ABQBDH@Z 03052dba f   LIBCMT:stdexcpt.obj
 0001:00051dd7       ??0exception@std@@QAE@ABV01@@Z 03052dd7 f   LIBCMT:stdexcpt.obj
 0001:00051e34       ??4exception@std@@QAEAAV01@ABV01@@Z 03052e34 f   LIBCMT:stdexcpt.obj
 0001:00051e8f       ??1exception@std@@UAE@XZ   03052e8f f   LIBCMT:stdexcpt.obj
 0001:00051ea5       ?what@exception@std@@UBEPBDXZ 03052ea5 f   LIBCMT:stdexcpt.obj
 0001:00051eb2       ??0bad_cast@std@@QAE@PBD@Z 03052eb2 f   LIBCMT:stdexcpt.obj
 0001:00051ed0       ??0bad_cast@std@@QAE@ABV01@@Z 03052ed0 f   LIBCMT:stdexcpt.obj
 0001:00051eed       ??1bad_cast@std@@UAE@XZ    03052eed f   LIBCMT:stdexcpt.obj
 0001:00051ef8       ??0bad_typeid@std@@QAE@PBD@Z 03052ef8 f   LIBCMT:stdexcpt.obj
 0001:00051f16       ??0bad_typeid@std@@QAE@ABV01@@Z 03052f16 f   LIBCMT:stdexcpt.obj
 0001:00051f33       ??1bad_typeid@std@@UAE@XZ  03052f33 f   LIBCMT:stdexcpt.obj
 0001:00051f3e       ??0__non_rtti_object@std@@QAE@PBD@Z 03052f3e f   LIBCMT:stdexcpt.obj
 0001:00051f5b       ??0__non_rtti_object@std@@QAE@ABV01@@Z 03052f5b f   LIBCMT:stdexcpt.obj
 0001:00051f78       ??1__non_rtti_object@std@@UAE@XZ 03052f78 f   LIBCMT:stdexcpt.obj
 0001:00051f83       ??_Eexception@std@@UAEPAXI@Z 03052f83 f i LIBCMT:stdexcpt.obj
 0001:00051f83       ??_Gexception@std@@UAEPAXI@Z 03052f83 f i LIBCMT:stdexcpt.obj
 0001:00051fa4       ??_Gbad_cast@std@@UAEPAXI@Z 03052fa4 f i LIBCMT:stdexcpt.obj
 0001:00051fa4       ??_Ebad_cast@std@@UAEPAXI@Z 03052fa4 f i LIBCMT:stdexcpt.obj
 0001:00051fcb       ??_Gbad_typeid@std@@UAEPAXI@Z 03052fcb f i LIBCMT:stdexcpt.obj
 0001:00051fcb       ??_Ebad_typeid@std@@UAEPAXI@Z 03052fcb f i LIBCMT:stdexcpt.obj
 0001:00051ff2       ??_E__non_rtti_object@std@@UAEPAXI@Z 03052ff2 f i LIBCMT:stdexcpt.obj
 0001:00051ff2       ??_G__non_rtti_object@std@@UAEPAXI@Z 03052ff2 f i LIBCMT:stdexcpt.obj
 0001:00052019       ?name@type_info@@QBEPBDPAU__type_info_node@@@Z 03053019 f   LIBCMT:typinfo.obj
 0001:0005202d       ??1type_info@@UAE@XZ       0305302d f   LIBCMT:typinfo.obj
 0001:0005203d       ??_Gtype_info@@UAEPAXI@Z   0305303d f i LIBCMT:typinfo.obj
 0001:0005203d       ??_Etype_info@@UAEPAXI@Z   0305303d f i LIBCMT:typinfo.obj
 0001:0005205e       ?_name_internal_method@type_info@@QBEPBDPAU__type_info_node@@@Z 0305305e f   LIBCMT:typinfo.obj
 0001:00052072       ?_type_info_dtor_internal_method@type_info@@QAEXXZ 03053072 f   LIBCMT:typinfo.obj
 0001:0005207c       ??8type_info@@QBE_NABV0@@Z 0305307c f   LIBCMT:typinfo.obj
 0001:0005209c       ??9type_info@@QBE_NABV0@@Z 0305309c f   LIBCMT:typinfo.obj
 0001:000520bd       ?before@type_info@@QBEHABV1@@Z 030530bd f   LIBCMT:typinfo.obj
 0001:000520e1       ?raw_name@type_info@@QBEPBDXZ 030530e1 f   LIBCMT:typinfo.obj
 0001:000520e5       ??0type_info@@AAE@ABV0@@Z  030530e5 f   LIBCMT:typinfo.obj
 0001:000520f0       ??4type_info@@AAEAAV0@ABV0@@Z 030530f0 f   LIBCMT:typinfo.obj
 0001:000520f5       _memcpy_s                  030530f5 f   LIBCMT:memcpy_s.obj
 0001:00052172       _memmove_s                 03053172 f   LIBCMT:memmove_s.obj
 0001:000521cf       __initp_misc_invarg        030531cf f   LIBCMT:invarg.obj
 0001:000521de       __invoke_watson            030531de f   LIBCMT:invarg.obj
 0001:00052306       __set_invalid_parameter_handler 03053306 f   LIBCMT:invarg.obj
 0001:0005232d       __get_invalid_parameter_handler 0305332d f   LIBCMT:invarg.obj
 0001:0005233a       ?_invoke_watson@@YAXPBG00II@Z 0305333a f   LIBCMT:invarg.obj
 0001:00052345       __invalid_parameter        03053345 f   LIBCMT:invarg.obj
 0001:0005236b       __invalid_parameter_noinfo 0305336b f   LIBCMT:invarg.obj
 0001:0005237b       ?_invalid_parameter@@YAXPBG00II@Z 0305337b f   LIBCMT:invarg.obj
 0001:00052386       __CxxThrowException@8      03053386 f   LIBCMT:throw.obj
 0001:000523d2       ?_JumpToContinuation@@YGXPAXPAUEHRegistrationNode@@@Z 030533d2 f   LIBCMT:_trnsctrl_.obj
 0001:00052404       ?_CallMemberFunction0@@YGXPAX0@Z 03053404 f   LIBCMT:_trnsctrl_.obj
 0001:0005240b       ?_CallMemberFunction1@@YGXPAX00@Z 0305340b f   LIBCMT:_trnsctrl_.obj
 0001:00052412       ?_CallMemberFunction2@@YGXPAX00H@Z 03053412 f   LIBCMT:_trnsctrl_.obj
 0001:00052419       ?_UnwindNestedFrames@@YGXPAUEHRegistrationNode@@PAUEHExceptionRecord@@@Z 03053419 f   LIBCMT:_trnsctrl_.obj
 0001:0005246d       ___CxxFrameHandler         0305346d f   LIBCMT:_trnsctrl_.obj
 0001:000524a3       ___CxxFrameHandler3        030534a3 f   LIBCMT:_trnsctrl_.obj
 0001:000524d9       ___CxxFrameHandler2        030534d9 f   LIBCMT:_trnsctrl_.obj
 0001:0005250f       ___CxxLongjmpUnwind@4      0305350f f   LIBCMT:_trnsctrl_.obj
 0001:00052561       ?_CallSETranslator@@YAHPAUEHExceptionRecord@@PAUEHRegistrationNode@@PAX2PBU_s_FuncInfo@@H1@Z 03053561 f   LIBCMT:_trnsctrl_.obj
 0001:000526d7       ?_GetRangeOfTrysToCheck@@YAPBU_s_TryBlockMapEntry@@PBU_s_FuncInfo@@HHPAI1@Z 030536d7 f   LIBCMT:_trnsctrl_.obj
 0001:0005274c       __CreateFrameInfo          0305374c f   LIBCMT:_trnsctrl_.obj
 0001:00052778       __IsExceptionObjectToBeDestroyed 03053778 f   LIBCMT:_trnsctrl_.obj
 0001:0005279f       __FindAndUnlinkFrame       0305379f f   LIBCMT:_trnsctrl_.obj
 0001:000527f1       ?_CallCatchBlock2@@YAPAXPAUEHRegistrationNode@@PBU_s_FuncInfo@@PAXHK@Z 030537f1 f   LIBCMT:_trnsctrl_.obj
 0001:00052860       __alloca_probe             03053860     LIBCMT:chkstk.obj
 0001:00052860       __chkstk                   03053860 f   LIBCMT:chkstk.obj
 0001:00052890       _strncpy                   03053890 f   LIBCMT:strncpy.obj
 0001:000529b4       ??0_LocaleUpdate@@QAE@PAUlocaleinfo_struct@@@Z 030539b4 f i LIBCMT:_ctype.obj
 0001:00052a3b       ??1_LocaleUpdate@@QAE@XZ   03053a3b f i LIBCMT:_ctype.obj
 0001:00052a49       ?GetLocaleT@_LocaleUpdate@@QAEPAUlocaleinfo_struct@@XZ 03053a49 f i LIBCMT:_ctype.obj
 0001:00052a4c       __isalpha_l                03053a4c f i LIBCMT:_ctype.obj
 0001:00052aa2       _isalpha                   03053aa2 f i LIBCMT:_ctype.obj
 0001:00052ad2       __isupper_l                03053ad2 f i LIBCMT:_ctype.obj
 0001:00052b23       _isupper                   03053b23 f i LIBCMT:_ctype.obj
 0001:00052b51       __islower_l                03053b51 f i LIBCMT:_ctype.obj
 0001:00052ba2       _islower                   03053ba2 f i LIBCMT:_ctype.obj
 0001:00052bd0       __isdigit_l                03053bd0 f i LIBCMT:_ctype.obj
 0001:00052c21       _isdigit                   03053c21 f i LIBCMT:_ctype.obj
 0001:00052c4f       __isxdigit_l               03053c4f f i LIBCMT:_ctype.obj
 0001:00052ca5       _isxdigit                  03053ca5 f i LIBCMT:_ctype.obj
 0001:00052cd5       __isspace_l                03053cd5 f i LIBCMT:_ctype.obj
 0001:00052d26       _isspace                   03053d26 f i LIBCMT:_ctype.obj
 0001:00052d54       __ispunct_l                03053d54 f i LIBCMT:_ctype.obj
 0001:00052da5       _ispunct                   03053da5 f i LIBCMT:_ctype.obj
 0001:00052dd3       __isalnum_l                03053dd3 f i LIBCMT:_ctype.obj
 0001:00052e29       _isalnum                   03053e29 f i LIBCMT:_ctype.obj
 0001:00052e59       __isprint_l                03053e59 f i LIBCMT:_ctype.obj
 0001:00052eaf       _isprint                   03053eaf f i LIBCMT:_ctype.obj
 0001:00052edf       __isgraph_l                03053edf f i LIBCMT:_ctype.obj
 0001:00052f35       _isgraph                   03053f35 f i LIBCMT:_ctype.obj
 0001:00052f65       __iscntrl_l                03053f65 f i LIBCMT:_ctype.obj
 0001:00052fb6       _iscntrl                   03053fb6 f i LIBCMT:_ctype.obj
 0001:00052fe4       ___isascii                 03053fe4 f i LIBCMT:_ctype.obj
 0001:00052ff6       ___toascii                 03053ff6 f i LIBCMT:_ctype.obj
 0001:00053003       __iscsymf_l                03054003 f i LIBCMT:_ctype.obj
 0001:00053026       ___iscsymf                 03054026 f i LIBCMT:_ctype.obj
 0001:00053045       __iscsym_l                 03054045 f i LIBCMT:_ctype.obj
 0001:00053068       ___iscsym                  03054068 f i LIBCMT:_ctype.obj
 0001:000530a0       _strchr                    030540a0 f   LIBCMT:strchr.obj
 0001:000530a6       ___from_strstr_to_strchr   030540a6     LIBCMT:strchr.obj
 0001:00053160       _atan2                     03054160 f   LIBCMT:_87ctriga_.obj
 0001:0005316a       __CIatan2                  0305416a f   LIBCMT:_87ctriga_.obj
 0001:00053180       __CIsqrt                   03054180 f   LIBCMT:_sqrt_.obj
 0001:00053194       _sqrt                      03054194     LIBCMT:_sqrt_.obj
 0001:00053240       __ftol2_sse                03054240 f   LIBCMT:ftol2.obj
 0001:00053249       __ftol2_pentium4           03054249 f   LIBCMT:ftol2.obj
 0001:0005325c       __ftol2_sse_excpt          0305425c f   LIBCMT:ftol2.obj
 0001:00053276       __ftol2                    03054276 f   LIBCMT:ftol2.obj
 0001:000532eb       _atol                      030542eb f   LIBCMT:atox.obj
 0001:00053301       __atol_l                   03054301 f   LIBCMT:atox.obj
 0001:0005331a       _atoi                      0305431a f   LIBCMT:atox.obj
 0001:00053325       __atoi_l                   03054325 f   LIBCMT:atox.obj
 0001:00053330       __atoi64                   03054330 f   LIBCMT:atox.obj
 0001:00053346       __atoi64_l                 03054346 f   LIBCMT:atox.obj
 0001:0005335f       __fclose_nolock            0305435f f   LIBCMT:fclose.obj
 0001:000533d6       _fclose                    030543d6 f   LIBCMT:fclose.obj
 0001:00053452       _fputs                     03054452 f   LIBCMT:fputs.obj
 0001:00053561       __fsopen                   03054561 f   LIBCMT:fopen.obj
 0001:00053625       _fopen                     03054625 f   LIBCMT:fopen.obj
 0001:0005363c       _fopen_s                   0305463c f   LIBCMT:fopen.obj
 0001:0005368f       __atof_l                   0305468f f   LIBCMT:atof.obj
 0001:0005373a       _atof                      0305473a f   LIBCMT:atof.obj
 0001:0005374d       ___strgtold12              0305474d f   LIBCMT:atof.obj
 0001:0005378f       ___STRINGTOLD              0305478f f   LIBCMT:atof.obj
 0001:000537c8       __MarkAllocaS              030547c8 f i LIBCMT:strlwr.obj
 0001:000537de       __freea                    030547de f i LIBCMT:strlwr.obj
 0001:000537fe       ?_strlwr_s_l_stat@@YAHPADIPAUlocaleinfo_struct@@@Z 030547fe f   LIBCMT:strlwr.obj
 0001:00053981       __strlwr_s_l               03054981 f   LIBCMT:strlwr.obj
 0001:000539b5       __strlwr_s                 030549b5 f   LIBCMT:strlwr.obj
 0001:000539cc       __strlwr_l                 030549cc f   LIBCMT:strlwr.obj
 0001:000539e6       __strlwr                   030549e6 f   LIBCMT:strlwr.obj
 0001:000539e6       _strlwr                    030549e6 f   LIBCMT:strlwr.obj
 0001:00053a4b       _fprintf                   03054a4b f   LIBCMT:fprintf.obj
 0001:00053b67       __fprintf_l                03054b67 f   LIBCMT:fprintf.obj
 0001:00053b83       __fprintf_s_l              03054b83 f   LIBCMT:fprintf.obj
 0001:00053b9f       _fprintf_s                 03054b9f f   LIBCMT:fprintf.obj
 0001:00053bba       __fprintf_p_l              03054bba f   LIBCMT:fprintf.obj
 0001:00053bd6       __fprintf_p                03054bd6 f   LIBCMT:fprintf.obj
 0001:00053bf1       __mkdir                    03054bf1 f   LIBCMT:mkdir.obj
 0001:00053c23       _strncmp                   03054c23 f   LIBCMT:strncmp.obj
 0001:00053ce3       ___ascii_stricmp           03054ce3 f   LIBCMT:stricmp.obj
 0001:00053d1c       __stricmp_l                03054d1c f   LIBCMT:stricmp.obj
 0001:00053df1       __stricmp                  03054df1 f   LIBCMT:stricmp.obj
 0001:00053df1       _stricmp                   03054df1 f   LIBCMT:stricmp.obj
 0001:00053e43       _strtok                    03054e43 f   LIBCMT:strtok.obj
 0001:00053f10       _strncat                   03054f10 f   LIBCMT:strncat.obj
 0001:00054045       __purecall                 03055045 f   LIBCMT:purevirt.obj
 0001:0005406f       __set_purecall_handler     0305506f f   LIBCMT:purevirt.obj
 0001:00054096       __get_purecall_handler     03055096 f   LIBCMT:purevirt.obj
 0001:000540a3       __invoke_watson_if_error   030550a3 f i LIBCMT:loctim64.obj
 0001:000540c7       __localtime64_s            030550c7 f   LIBCMT:loctim64.obj
 0001:0005437f       __localtime64              0305537f f   LIBCMT:loctim64.obj
 0001:000543a6       __time64                   030553a6 f   LIBCMT:time64.obj
 0001:000543f7       __access_s                 030553f7 f   LIBCMT:access.obj
 0001:00054480       __access                   03055480 f   LIBCMT:access.obj
 0001:000544a0       _memmove                   030554a0 f   LIBCMT:memmove.obj
 0001:000548bf       ___onexitinit              030558bf f   LIBCMT:onexit.obj
 0001:000548f0       __onexit                   030558f0 f   LIBCMT:onexit.obj
 0001:0005492c       _atexit                    0305592c f   LIBCMT:onexit.obj
 0001:000549ad       _sscanf                    030559ad f   LIBCMT:sscanf.obj
 0001:000549cf       __sscanf_l                 030559cf f   LIBCMT:sscanf.obj
 0001:000549f2       _sscanf_s                  030559f2 f   LIBCMT:sscanf.obj
 0001:00054a14       __sscanf_s_l               03055a14 f   LIBCMT:sscanf.obj
 0001:00054a37       _srand                     03055a37 f   LIBCMT:rand.obj
 0001:00054a49       _rand                      03055a49 f   LIBCMT:rand.obj
 0001:00054a70       _atan                      03055a70 f   LIBCMT:_atan_.obj
 0001:00054ab0       __CIatan                   03055ab0 f   LIBCMT:_atan_.obj
 0001:00054aeb       __CIatan_default           03055aeb f   LIBCMT:_atan_.obj
 0001:00054aff       __atan_default             03055aff     LIBCMT:_atan_.obj
 0001:00054b90       _acos                      03055b90 f   LIBCMT:_acos_.obj
 0001:00054bd0       __CIacos                   03055bd0 f   LIBCMT:_acos_.obj
 0001:00054c0b       __CIacos_default           03055c0b f   LIBCMT:_acos_.obj
 0001:00054c1f       __acos_default             03055c1f     LIBCMT:_acos_.obj
 0001:00054ce0       _asin                      03055ce0 f   LIBCMT:_asin_.obj
 0001:00054d20       __CIasin                   03055d20 f   LIBCMT:_asin_.obj
 0001:00054d5b       __CIasin_default           03055d5b f   LIBCMT:_asin_.obj
 0001:00054d6f       __asin_default             03055d6f     LIBCMT:_asin_.obj
 0001:00054e30       _tan                       03055e30 f   LIBCMT:_tan_.obj
 0001:00054e70       __CItan                    03055e70 f   LIBCMT:_tan_.obj
 0001:00054eab       __CItan_default            03055eab f   LIBCMT:_tan_.obj
 0001:00054ebf       __tan_default              03055ebf     LIBCMT:_tan_.obj
 0001:00054f60       _cos                       03055f60 f   LIBCMT:_cos_.obj
 0001:00054fa0       __CIcos                    03055fa0 f   LIBCMT:_cos_.obj
 0001:00054fdb       __CIcos_default            03055fdb f   LIBCMT:_cos_.obj
 0001:00054fef       __cos_default              03055fef     LIBCMT:_cos_.obj
 0001:00055090       _sin                       03056090 f   LIBCMT:_sin_.obj
 0001:000550d0       __CIsin                    030560d0 f   LIBCMT:_sin_.obj
 0001:0005510b       __CIsin_default            0305610b f   LIBCMT:_sin_.obj
 0001:0005511f       __sin_default              0305611f     LIBCMT:_sin_.obj
 0001:000551b9       _clock                     030561b9 f   LIBCMT:clock.obj
 0001:000551fe       ___inittime                030561fe f   LIBCMT:clock.obj
 0001:00055237       __toupper                  03056237 f   LIBCMT:toupper.obj
 0001:00055244       __toupper_l                03056244 f   LIBCMT:toupper.obj
 0001:0005535a       _toupper                   0305635a f   LIBCMT:toupper.obj
 0001:00055386       __tolower                  03056386 f   LIBCMT:tolower.obj
 0001:00055393       __tolower_l                03056393 f   LIBCMT:tolower.obj
 0001:000554a8       _tolower                   030564a8 f   LIBCMT:tolower.obj
 0001:000554d4       _fgets                     030564d4 f   LIBCMT:fgets.obj
 0001:0005561c       _feof                      0305661c f   LIBCMT:feoferr.obj
 0001:00055650       _ferror                    03056650 f   LIBCMT:feoferr.obj
 0001:00055690       _strrchr                   03056690 f   LIBCMT:strrchr.obj
 0001:00055780       _qsort                     03056780 f   LIBCMT:qsort.obj
 0001:000559cd       __vsprintf_l               030569cd f   LIBCMT:vsprintf.obj
 0001:00055a4b       _vsprintf                  03056a4b f   LIBCMT:vsprintf.obj
 0001:00055a65       __vscprintf_helper         03056a65 f   LIBCMT:vsprintf.obj
 0001:00055abc       __vscprintf                03056abc f   LIBCMT:vsprintf.obj
 0001:00055ad8       __vscprintf_l              03056ad8 f   LIBCMT:vsprintf.obj
 0001:00055af5       __vscprintf_p              03056af5 f   LIBCMT:vsprintf.obj
 0001:00055b11       __vscprintf_p_l            03056b11 f   LIBCMT:vsprintf.obj
 0001:00055b30       _ceil                      03056b30 f   LIBCMT:_ceil_pentium4_.obj
 0001:00055b70       __ceil_pentium4            03056b70 f   LIBCMT:_ceil_pentium4_.obj
 0001:00055c91       __itoa                     03056c91 f   LIBCMT:xtoa.obj
 0001:00055c91       _itoa                      03056c91 f   LIBCMT:xtoa.obj
 0001:00055cbb       __ltoa                     03056cbb f   LIBCMT:xtoa.obj
 0001:00055ce2       __ultoa                    03056ce2 f   LIBCMT:xtoa.obj
 0001:00055d6b       __i64toa                   03056d6b f   LIBCMT:xtoa.obj
 0001:00055d9e       __ui64toa                  03056d9e f   LIBCMT:xtoa.obj
 0001:00055dc0       _pow                       03056dc0 f   LIBCMT:_pow_.obj
 0001:00055e00       __CIpow                    03056e00 f   LIBCMT:_pow_.obj
 0001:00055e3b       __CIpow_default            03056e3b f   LIBCMT:_pow_.obj
 0001:00055e54       __pow_default              03056e54     LIBCMT:_pow_.obj
 0001:0005604a       _remove                    0305704a f   LIBCMT:unlink.obj
 0001:0005607a       __unlink                   0305707a f   LIBCMT:unlink.obj
 0001:00056085       _printf                    03057085 f   LIBCMT:printf.obj
 0001:00056134       __printf_l                 03057134 f   LIBCMT:printf.obj
 0001:0005614d       __printf_s_l               0305714d f   LIBCMT:printf.obj
 0001:00056166       _printf_s                  03057166 f   LIBCMT:printf.obj
 0001:0005617e       __printf_p_l               0305717e f   LIBCMT:printf.obj
 0001:00056197       __printf_p                 03057197 f   LIBCMT:printf.obj
 0001:000561af       __set_printf_count_output  030571af f   LIBCMT:printf.obj
 0001:000561d9       __get_printf_count_output  030571d9 f   LIBCMT:printf.obj
 0001:000561ef       __CRT_INIT@12              030571ef f   LIBCMT:dllcrt0.obj
 0001:0005641a       __DllMainCRTStartup@12     0305741a f   LIBCMT:dllcrt0.obj
 0001:00056440       _strlen                    03057440 f   LIBCMT:strlen.obj
 0001:000564cb       @__security_check_cookie@4 030574cb f   LIBCMT:secchk.obj
 0001:000564da       __EH_prolog3               030574da f   LIBCMT:ehprolg3.obj
 0001:0005650d       __EH_prolog3_catch         0305750d f   LIBCMT:ehprolg3.obj
 0001:00056543       __EH_prolog3_GS            03057543 f   LIBCMT:ehprolg3.obj
 0001:00056579       __EH_prolog3_catch_GS      03057579 f   LIBCMT:ehprolg3.obj
 0001:000565b2       __EH_epilog3               030575b2 f   LIBCMT:ehprolg3.obj
 0001:000565c6       __EH_epilog3_GS            030575c6 f   LIBCMT:ehprolg3.obj
 0001:000565d5       __EH_epilog3_catch_GS      030575d5 f   LIBCMT:ehprolg3.obj
 0001:000565f0       _strcpy                    030575f0 f   LIBCMT:strcat.obj
 0001:00056600       _strcat                    03057600 f   LIBCMT:strcat.obj
 0001:000566e8       __global_unwind2           030576e8 f   LIBCMT:exsup.obj
 0001:0005674d       __local_unwind2            0305774d f   LIBCMT:exsup.obj
 0001:000567d1       __abnormal_termination     030577d1 f   LIBCMT:exsup.obj
 0001:000567f4       __NLG_Notify1              030577f4 f   LIBCMT:exsup.obj
 0001:000567fd       __NLG_Notify               030577fd f   LIBCMT:exsup.obj
 0001:00056814       __NLG_Dispatch             03057814     LIBCMT:exsup.obj
 0001:00056814       __NLG_Dispatch2            03057814     LIBCMT:exsup.obj
 0001:0005681c       __NLG_Call                 0305781c f   LIBCMT:exsup.obj
 0001:0005681e       __NLG_Return2              0305781e     LIBCMT:exsup.obj
 0001:00056828       __except_handler3          03057828 f   LIBCMT:exsup3.obj
 0001:00056926       __seh_longjmp_unwind@4     03057926 f   LIBCMT:exsup3.obj
 0001:00056950       _strcmp                    03057950 f   LIBCMT:strcmp.obj
 0001:00057f4e       _memcmp                    03058f4e f   LIBCMT:memcmp.obj
 0001:00059625       __VEC_memzero              0305a625 f   LIBCMT:p4_memset.obj
 0001:00059704       __get_sse2_info            0305a704 f   LIBCMT:cpu_disp.obj
 0001:00059766       ___sse2_available_init     0305a766 f   LIBCMT:cpu_disp.obj
 0001:00059773       __get_errno_from_oserr     0305a773 f   LIBCMT:dosmap.obj
 0001:000597b5       __errno                    0305a7b5 f   LIBCMT:dosmap.obj
 0001:000597c8       ___doserrno                0305a7c8 f   LIBCMT:dosmap.obj
 0001:000597db       __dosmaperr                0305a7db f   LIBCMT:dosmap.obj
 0001:000597fe       __set_errno                0305a7fe f   LIBCMT:dosmap.obj
 0001:0005981f       __get_errno                0305a81f f   LIBCMT:dosmap.obj
 0001:0005984e       __set_doserrno             0305a84e f   LIBCMT:dosmap.obj
 0001:0005986f       __get_doserrno             0305a86f f   LIBCMT:dosmap.obj
 0001:0005989e       ___heap_select             0305a89e f   LIBCMT:heapinit.obj
 0001:000598a2       __heap_init                0305a8a2 f   LIBCMT:heapinit.obj
 0001:000598d2       __heap_term                0305a8d2 f   LIBCMT:heapinit.obj
 0001:00059946       __get_heap_handle          0305a946 f   LIBCMT:heapinit.obj
 0001:0005994c       __mtinitlocks              0305a94c f   LIBCMT:mlock.obj
 0001:00059997       __mtdeletelocks            0305a997 f   LIBCMT:mlock.obj
 0001:000599ee       __unlock                   0305a9ee f   LIBCMT:mlock.obj
 0001:00059a05       __lockerr_exit             0305aa05 f   LIBCMT:mlock.obj
 0001:00059a1d       __mtinitlocknum            0305aa1d f   LIBCMT:mlock.obj
 0001:00059ae0       __lock                     0305aae0 f   LIBCMT:mlock.obj
 0001:00059b13       __get_sbh_threshold        0305ab13 f   LIBCMT:sbheap.obj
 0001:00059b34       __set_amblksiz             0305ab34 f   LIBCMT:sbheap.obj
 0001:00059b7f       __get_amblksiz             0305ab7f f   LIBCMT:sbheap.obj
 0001:00059bc0       ___sbh_heap_init           0305abc0 f   LIBCMT:sbheap.obj
 0001:00059c0e       ___sbh_find_block          0305ac0e f   LIBCMT:sbheap.obj
 0001:00059c3e       ___sbh_free_block          0305ac3e f   LIBCMT:sbheap.obj
 0001:00059f54       ___sbh_alloc_new_region    0305af54 f   LIBCMT:sbheap.obj
 0001:0005a004       ___sbh_alloc_new_group     0305b004 f   LIBCMT:sbheap.obj
 0001:0005a10c       ___sbh_resize_block        0305b10c f   LIBCMT:sbheap.obj
 0001:0005a3ed       ___sbh_heapmin             0305b3ed f   LIBCMT:sbheap.obj
 0001:0005a4ba       ___sbh_heap_check          0305b4ba f   LIBCMT:sbheap.obj
 0001:0005a79e       __set_sbh_threshold        0305b79e f   LIBCMT:sbheap.obj
 0001:0005a84d       ___sbh_alloc_block         0305b84d f   LIBCMT:sbheap.obj
 0001:0005ab34       __SEH_prolog4              0305bb34 f   LIBCMT:sehprolg4.obj
 0001:0005ab79       __SEH_epilog4              0305bb79 f   LIBCMT:sehprolg4.obj
 0001:0005abc0       __except_handler4          0305bbc0 f   LIBCMT:chandler4.obj
 0001:0005ad4c       __crt_waiting_on_module_handle 0305bd4c f   LIBCMT:crt0dat.obj
 0001:0005ad7c       __amsg_exit                0305bd7c f   LIBCMT:crt0dat.obj
 0001:0005ada5       ___crtCorExitProcess       0305bda5 f   LIBCMT:crt0dat.obj
 0001:0005add0       ___crtExitProcess          0305bdd0 f   LIBCMT:crt0dat.obj
 0001:0005ade8       __lockexit                 0305bde8 f   LIBCMT:crt0dat.obj
 0001:0005adf1       __unlockexit               0305bdf1 f   LIBCMT:crt0dat.obj
 0001:0005ae17       __initterm_e               0305be17 f   LIBCMT:crt0dat.obj
 0001:0005ae3b       __get_wpgmptr              0305be3b f   LIBCMT:crt0dat.obj
 0001:0005ae77       __get_pgmptr               0305be77 f   LIBCMT:crt0dat.obj
 0001:0005aeb3       __cinit                    0305beb3 f   LIBCMT:crt0dat.obj
 0001:0005b064       _exit                      0305c064 f   LIBCMT:crt0dat.obj
 0001:0005b07a       __exit                     0305c07a f   LIBCMT:crt0dat.obj
 0001:0005b090       __cexit                    0305c090 f   LIBCMT:crt0dat.obj
 0001:0005b09f       __c_exit                   0305c09f f   LIBCMT:crt0dat.obj
 0001:0005b0ae       __init_pointers            0305c0ae f   LIBCMT:crt0dat.obj
 0001:0005b0fc       __NMSG_WRITE               0305c0fc f   LIBCMT:crt0msg.obj
 0001:0005b2a7       __GET_RTERRMSG             0305c2a7 f   LIBCMT:crt0msg.obj
 0001:0005b2cd       __FF_MSGBANNER             0305c2cd f   LIBCMT:crt0msg.obj
 0001:0005b306       __initp_heap_handler       0305c306 f   LIBCMT:handler.obj
 0001:0005b315       ?_set_new_handler@@YAP6AHI@ZP6AHI@Z@Z 0305c315 f   LIBCMT:handler.obj
 0001:0005b34b       ?_set_new_handler@@YAP6AHI@ZH@Z 0305c34b f   LIBCMT:handler.obj
 0001:0005b354       ?_query_new_handler@@YAP6AHI@ZXZ 0305c354 f   LIBCMT:handler.obj
 0001:0005b361       __callnewh                 0305c361 f   LIBCMT:handler.obj
 0001:0005b410       __VEC_memcpy               0305c410 f   LIBCMT:p4_memcpy.obj
 0001:0005b4f3       __flsbuf                   0305c4f3 f   LIBCMT:_flsbuf.obj
 0001:0005b6fd       _get_int_arg               0305c6fd f i LIBCMT:output.obj
 0001:0005b70f       _get_int64_arg             0305c70f f i LIBCMT:output.obj
 0001:0005b724       _get_short_arg             0305c724 f i LIBCMT:output.obj
 0001:0005b737       __output_l                 0305c737 f   LIBCMT:output.obj
 0001:0005c2cf       __vsnprintf_helper         0305d2cf f   LIBCMT:vsnprnc.obj
 0001:0005c39b       __vsnprintf_c              0305d39b f   LIBCMT:vsnprnc.obj
 0001:0005c3c4       __vsnprintf_c_l            0305d3c4 f   LIBCMT:vsnprnc.obj
 0001:0005c3ee       __vsprintf_s_l             0305d3ee f   LIBCMT:vsnprnc.obj
 0001:0005c476       _vsprintf_s                0305d476 f   LIBCMT:vsnprnc.obj
 0001:0005c493       __vsnprintf_s_l            0305d493 f   LIBCMT:vsnprnc.obj
 0001:0005c59a       __vsnprintf_s              0305d59a f   LIBCMT:vsnprnc.obj
 0001:0005c5ba       __vsprintf_p               0305d5ba f   LIBCMT:vsnprnc.obj
 0001:0005c5e3       __vsprintf_p_l             0305d5e3 f   LIBCMT:vsnprnc.obj
 0001:0005c60d       __forcdecpt_l              0305d60d f   LIBCMT:cvt.obj
 0001:0005c680       __cropzeros_l              0305d680 f   LIBCMT:cvt.obj
 0001:0005c702       __positive                 0305d702 f   LIBCMT:cvt.obj
 0001:0005c71e       __fassign_l                0305d71e f   LIBCMT:cvt.obj
 0001:0005c760       __fassign                  0305d760 f   LIBCMT:cvt.obj
 0001:0005c799       __forcdecpt                0305d799 f   LIBCMT:cvt.obj
 0001:0005c7ac       __cropzeros                0305d7ac f   LIBCMT:cvt.obj
 0001:0005c92e       __cftoe_l                  0305d92e f   LIBCMT:cvt.obj
 0001:0005c9fe       __cftoe                    0305d9fe f   LIBCMT:cvt.obj
 0001:0005ca1e       __cftoa_l                  0305da1e f   LIBCMT:cvt.obj
 0001:0005cd91       __cftoa                    0305dd91 f   LIBCMT:cvt.obj
 0001:0005cea8       __cftof_l                  0305dea8 f   LIBCMT:cvt.obj
 0001:0005cf63       __cftof                    0305df63 f   LIBCMT:cvt.obj
 0001:0005cf80       __cftog_l                  0305df80 f   LIBCMT:cvt.obj
 0001:0005d07a       __cftog                    0305e07a f   LIBCMT:cvt.obj
 0001:0005d09a       __cfltcvt_l                0305e09a f   LIBCMT:cvt.obj
 0001:0005d122       __cfltcvt                  0305e122 f   LIBCMT:cvt.obj
 0001:0005d145       __initp_misc_cfltcvt_tab   0305e145 f   LIBCMT:cmiscdat.obj
 0001:0005d166       __setdefaultprecision      0305e166 f   LIBCMT:fp8.obj
 0001:0005d191       __ms_p5_test_fdiv          0305e191 f   LIBCMT:_testfdiv_.obj
 0001:0005d1cf       __ms_p5_mp_test_fdiv       0305e1cf f   LIBCMT:_testfdiv_.obj
 0001:0005d1f8       _strcpy_s                  0305e1f8 f   LIBCMT:strcpy_s.obj
 0001:0005d260       ?_Type_info_dtor@type_info@@CAXPAV1@@Z 0305e260 f   LIBCMT:typname.obj
 0001:0005d2d0       ?_Name_base@type_info@@CAPBDPBV1@PAU__type_info_node@@@Z 0305e2d0 f   LIBCMT:typname.obj
 0001:0005d3c5       ?_Type_info_dtor_internal@type_info@@CAXPAV1@@Z 0305e3c5 f   LIBCMT:typname.obj
 0001:0005d435       ___unDNameHelper           0305e435 f   LIBCMT:typname.obj
 0001:0005d468       ?_Name_base_internal@type_info@@CAPBDPBV1@PAU__type_info_node@@@Z 0305e468 f   LIBCMT:typname.obj
 0001:0005d577       ___clean_type_info_names_internal 0305e577 f   LIBCMT:typname.obj
 0001:0005d5ca       __crt_debugger_hook        0305e5ca f   LIBCMT:dbghook.obj
 0001:0005d5d2       __crt_wait_module_handle   0305e5d2 f i LIBCMT:tidtable.obj
 0001:0005d5ec       __encode_pointer           0305e5ec f   LIBCMT:tidtable.obj
 0001:0005d65e       __encoded_null             0305e65e f   LIBCMT:tidtable.obj
 0001:0005d667       __decode_pointer           0305e667 f   LIBCMT:tidtable.obj
 0001:0005d6d9       ___crtTlsAlloc@4           0305e6d9 f   LIBCMT:tidtable.obj
 0001:0005d6e2       ___fls_getvalue@4          0305e6e2 f   LIBCMT:tidtable.obj
 0001:0005d6fc       ___get_flsindex            0305e6fc f   LIBCMT:tidtable.obj
 0001:0005d702       ___set_flsgetvalue         0305e702 f   LIBCMT:tidtable.obj
 0001:0005d736       ___fls_setvalue@8          0305e736 f   LIBCMT:tidtable.obj
 0001:0005d753       __mtterm                   0305e753 f   LIBCMT:tidtable.obj
 0001:0005d790       __initptd                  0305e790 f   LIBCMT:tidtable.obj
 0001:0005d877       __getptd_noexit            0305e877 f   LIBCMT:tidtable.obj
 0001:0005d8f0       __getptd                   0305e8f0 f   LIBCMT:tidtable.obj
 0001:0005d90a       __freefls@4                0305e90a f   LIBCMT:tidtable.obj
 0001:0005da39       __freeptd                  0305ea39 f   LIBCMT:tidtable.obj
 0001:0005daa7       ___threadid                0305eaa7 f   LIBCMT:tidtable.obj
 0001:0005daad       ___threadhandle            0305eaad f   LIBCMT:tidtable.obj
 0001:0005dab3       __mtinit                   0305eab3 f   LIBCMT:tidtable.obj
 0001:0005dc40       ??0bad_exception@std@@QAE@PBD@Z 0305ec40 f i LIBCMT:frame.obj
 0001:0005dc5e       ??1bad_exception@std@@UAE@XZ 0305ec5e f i LIBCMT:frame.obj
 0001:0005dc69       ??_Ebad_exception@std@@UAEPAXI@Z 0305ec69 f i LIBCMT:frame.obj
 0001:0005dc69       ??_Gbad_exception@std@@UAEPAXI@Z 0305ec69 f i LIBCMT:frame.obj
 0001:0005dc90       ___TypeMatch               0305ec90 f   LIBCMT:frame.obj
 0001:0005dcef       ___FrameUnwindFilter       0305ecef f   LIBCMT:frame.obj
 0001:0005dd38       ___FrameUnwindToState      0305ed38 f   LIBCMT:frame.obj
 0001:0005de5e       ___DestructExceptionObject 0305ee5e f   LIBCMT:frame.obj
 0001:0005deb3       ___AdjustPointer           0305eeb3 f   LIBCMT:frame.obj
 0001:0005dedc       ?__uncaught_exception@@YA_NXZ 0305eedc f   LIBCMT:frame.obj
 0001:0005deef       ___CxxRegisterExceptionObject 0305eeef f   LIBCMT:frame.obj
 0001:0005dfa6       ___CxxDetectRethrow        0305efa6 f   LIBCMT:frame.obj
 0001:0005dff8       ___CxxUnregisterExceptionObject 0305eff8 f   LIBCMT:frame.obj
 0001:0005e137       ___CxxQueryExceptionSize   0305f137 f   LIBCMT:frame.obj
 0001:0005e13b       ___CxxCallUnwindDtor       0305f13b f   LIBCMT:frame.obj
 0001:0005e16d       ___CxxCallUnwindDelDtor    0305f16d f   LIBCMT:frame.obj
 0001:0005e1a0       ___CxxCallUnwindStdDelDtor 0305f1a0 f   LIBCMT:frame.obj
 0001:0005e1d2       ___CxxCallUnwindVecDtor    0305f1d2 f   LIBCMT:frame.obj
 0001:0005e303       ?_is_exception_typeof@@YAHABVtype_info@@PAU_EXCEPTION_POINTERS@@@Z 0305f303 f   LIBCMT:frame.obj
 0001:0005e525       ___BuildCatchObjectHelper  0305f525 f   LIBCMT:frame.obj
 0001:0005e6a4       ___BuildCatchObject        0305f6a4 f   LIBCMT:frame.obj
 0001:0005e736       ___CxxExceptionFilter      0305f736 f   LIBCMT:frame.obj
 0001:0005ed24       ??0bad_exception@std@@QAE@ABV01@@Z 0305fd24 f i LIBCMT:frame.obj
 0001:0005ed41       ___InternalCxxFrameHandler 0305fd41 f   LIBCMT:frame.obj
 0001:0005ee27       ?terminate@@YAXXZ          0305fe27 f   LIBCMT:hooks.obj
 0001:0005ee60       ?unexpected@@YAXXZ         0305fe60 f   LIBCMT:hooks.obj
 0001:0005ee73       ?_inconsistency@@YAXXZ     0305fe73 f   LIBCMT:hooks.obj
 0001:0005eeab       __initp_eh_hooks           0305feab f   LIBCMT:hooks.obj
 0001:0005eec0       __CallSettingFrame@12      0305fec0 f   LIBCMT:lowhelpr.obj
 0001:0005eee7       __NLG_Return               0305fee7     LIBCMT:lowhelpr.obj
 0001:0005f132       ___updatetmbcinfo          03060132 f   LIBCMT:mbctype.obj
 0001:0005f252       __setmbcp_nolock           03060252 f   LIBCMT:mbctype.obj
 0001:0005f437       __getmbcp                  03060437 f   LIBCMT:mbctype.obj
 0001:0005f475       __setmbcp                  03060475 f   LIBCMT:mbctype.obj
 0001:0005f60f       ___initmbctable            0306060f f   LIBCMT:mbctype.obj
 0001:0005f62d       ____setlc_active_func      0306062d f   LIBCMT:setlocal.obj
 0001:0005f633       ____unguarded_readlc_active_add_func 03060633 f   LIBCMT:setlocal.obj
 0001:0005f639       ___freetlocinfo            03060639 f   LIBCMT:setlocal.obj
 0001:0005f782       ___addlocaleref            03060782 f   LIBCMT:setlocal.obj
 0001:0005f811       ___removelocaleref         03060811 f   LIBCMT:setlocal.obj
 0001:0005f90e       ___updatetlocinfo          0306090e f   LIBCMT:setlocal.obj
 0001:0005f984       __configthreadlocale       03060984 f   LIBCMT:setlocal.obj
 0001:0005fa41       __free_locale              03060a41 f   LIBCMT:setlocal.obj
 0001:0005fb03       ___free_locale             03060b03 f   LIBCMT:setlocal.obj
 0001:0005fb0e       __get_current_locale       03060b0e f   LIBCMT:setlocal.obj
 0001:0005fbbd       ___get_current_locale      03060bbd f   LIBCMT:setlocal.obj
 0001:0005fbc2       ___init_dummy              03060bc2 f   LIBCMT:setlocal.obj
 0001:0005fbc5       __strcats                  03060bc5 f   LIBCMT:setlocal.obj
 0001:0005fc05       ___lc_strtolc              03060c05 f   LIBCMT:setlocal.obj
 0001:0005fd2e       ___lc_lctostr              03060d2e f   LIBCMT:setlocal.obj
 0001:0005ff18       __expandlocale             03060f18 f   LIBCMT:setlocal.obj
 0001:00060666       __create_locale            03061666 f   LIBCMT:setlocal.obj
 0001:0006075b       ___create_locale           0306175b f   LIBCMT:setlocal.obj
 0001:00060766       _setlocale                 03061766 f   LIBCMT:setlocal.obj
 0001:000608d6       __isctype_l                030618d6 f   LIBCMT:isctype.obj
 0001:0006098e       __isctype                  0306198e f   LIBCMT:isctype.obj
 0001:000609dc       __fFATN2                   030619dc     LIBCMT:_87triga_.obj
 0001:00060a2c       __rtpiby2                  03061a2c     LIBCMT:_87triga_.obj
 0001:00060a70       __cintrindisp2             03061a70 f   LIBCMT:_87cdisp_.obj
 0001:00060aae       __cintrindisp1             03061aae f   LIBCMT:_87cdisp_.obj
 0001:00060aeb       __ctrandisp2               03061aeb f   LIBCMT:_87cdisp_.obj
 0001:00060c81       __ctrandisp1               03061c81 f   LIBCMT:_87cdisp_.obj
 0001:00060cb4       __fload                    03061cb4 f   LIBCMT:_87cdisp_.obj
 0001:00060cf0       __trandisp1                03061cf0 f   LIBCMT:_87disp_.obj
 0001:00060d57       __trandisp2                03061d57 f   LIBCMT:_87disp_.obj
 0001:00060de3       __rttospopde               03061de3     LIBCMT:_87disp_.obj
 0001:00060de8       __rttospop                 03061de8     LIBCMT:_87disp_.obj
 0001:00060dea       __rtnospop                 03061dea     LIBCMT:_87disp_.obj
 0001:00060dec       __rttosnpop                03061dec     LIBCMT:_87disp_.obj
 0001:00060ded       __rtnospopde               03061ded     LIBCMT:_87disp_.obj
 0001:00060df4       __rtzeropop                03061df4     LIBCMT:_87disp_.obj
 0001:00060df6       __rtzeronpop               03061df6     LIBCMT:_87disp_.obj
 0001:00060dfb       __rtonepop                 03061dfb     LIBCMT:_87disp_.obj
 0001:00060dfd       __rtonenpop                03061dfd     LIBCMT:_87disp_.obj
 0001:00060e02       __tosnan1                  03061e02     LIBCMT:_87disp_.obj
 0001:00060e2d       __nosnan2                  03061e2d     LIBCMT:_87disp_.obj
 0001:00060e2f       __tosnan2                  03061e2f     LIBCMT:_87disp_.obj
 0001:00060e57       __nan2                     03061e57     LIBCMT:_87disp_.obj
 0001:00060e96       __rtindfpop                03061e96     LIBCMT:_87disp_.obj
 0001:00060e98       __rtindfnpop               03061e98     LIBCMT:_87disp_.obj
 0001:00060ea9       __rttosnpopde              03061ea9     LIBCMT:_87disp_.obj
 0001:00060eb3       __rtchsifneg               03061eb3     LIBCMT:_87disp_.obj
 0001:00060ec0       __startTwoArgErrorHandling 03061ec0 f   LIBCMT:_genexcep_.obj
 0001:00060ed7       __startOneArgErrorHandling 03061ed7 f   LIBCMT:_genexcep_.obj
 0001:00060f20       __twoToTOS                 03061f20 f   LIBCMT:_common_.obj
 0001:00060f35       __load_CW                  03061f35 f   LIBCMT:_common_.obj
 0001:00060f4c       __convertTOStoQNaN         03061f4c f   LIBCMT:_common_.obj
 0001:00060f65       __fload_withFB             03061f65 f   LIBCMT:_common_.obj
 0001:00060fa8       __checkTOS_withFB          03061fa8 f   LIBCMT:_common_.obj
 0001:00060fbe       __fast_exit                03061fbe f   LIBCMT:_common_.obj
 0001:00060fcb       __math_exit                03061fcb f   LIBCMT:_common_.obj
 0001:00060ff5       __check_overflow_exit      03061ff5 f   LIBCMT:_common_.obj
 0001:00061009       __check_range_exit         03062009 f   LIBCMT:_common_.obj
 0001:000612db       _strtol                    030622db f   LIBCMT:strtol.obj
 0001:00061306       __strtol_l                 03062306 f   LIBCMT:strtol.obj
 0001:00061323       _strtoul                   03062323 f   LIBCMT:strtol.obj
 0001:0006134f       __strtoul_l                0306234f f   LIBCMT:strtol.obj
 0001:00061603       __strtoi64                 03062603 f   LIBCMT:strtoq.obj
 0001:0006162e       __strtoi64_l               0306262e f   LIBCMT:strtoq.obj
 0001:0006164b       __strtoui64                0306264b f   LIBCMT:strtoq.obj
 0001:00061677       __strtoui64_l              03062677 f   LIBCMT:strtoq.obj
 0001:00061694       __close_nolock             03062694 f   LIBCMT:close.obj
 0001:00061730       __close                    03062730 f   LIBCMT:close.obj
 0001:000617fd       __fileno                   030627fd f   LIBCMT:fileno.obj
 0001:0006182f       __freebuf                  0306282f f   LIBCMT:_freebuf.obj
 0001:00061860       __flush                    03062860 f   LIBCMT:fflush.obj
 0001:000618c8       __fflush_nolock            030628c8 f   LIBCMT:fflush.obj
 0001:000619ea       _fflush                    030629ea f   LIBCMT:fflush.obj
 0001:00061a3d       __flushall                 03062a3d f   LIBCMT:fflush.obj
 0001:00061a46       ___iob_func                03062a46 f   LIBCMT:_file.obj
 0001:00061a4c       ___initstdio               03062a4c f   LIBCMT:_file.obj
 0001:00061afd       ___endstdio                03062afd f   LIBCMT:_file.obj
 0001:00061b1d       __lock_file                03062b1d f   LIBCMT:_file.obj
 0001:00061b5e       __lock_file2               03062b5e f   LIBCMT:_file.obj
 0001:00061b90       __unlock_file              03062b90 f   LIBCMT:_file.obj
 0001:00061bcc       __unlock_file2             03062bcc f   LIBCMT:_file.obj
 0001:00061bfb       __stbuf                    03062bfb f   LIBCMT:_sftbuf.obj
 0001:00061c97       __ftbuf                    03062c97 f   LIBCMT:_sftbuf.obj
 0001:00061ccb       __fwrite_nolock            03062ccb f   LIBCMT:fwrite.obj
 0001:00061e2d       _fwrite                    03062e2d f   LIBCMT:fwrite.obj
 0001:00061eaf       __ioinit                   03062eaf f   LIBCMT:ioinit.obj
 0001:00062103       __ioterm                   03063103 f   LIBCMT:ioinit.obj
 0001:00062151       __openfile                 03063151 f   LIBCMT:_open.obj
 0001:0006241a       __getstream                0306341a f   LIBCMT:stream.obj
 0001:00062554       __local_unwind4            03063554 f   LIBCMT:exsup4.obj
 0001:0006262a       __seh_longjmp_unwind4@4    0306362a f   LIBCMT:exsup4.obj
 0001:00062646       @_EH4_CallFilterFunc@8     03063646 f   LIBCMT:exsup4.obj
 0001:0006265d       @_EH4_TransferToHandler@8  0306365d f   LIBCMT:exsup4.obj
 0001:00062676       @_EH4_GlobalUnwind@4       03063676 f   LIBCMT:exsup4.obj
 0001:00062690       @_EH4_LocalUnwind@16       03063690 f   LIBCMT:exsup4.obj
 0001:000626a7       __fltin2                   030636a7 f   LIBCMT:_cfin_.obj
 0001:0006274e       ___addl                    0306374e f i LIBCMT:_strgtold_.obj
 0001:00062772       ___shl_12                  03063772 f i LIBCMT:_strgtold_.obj
 0001:000627a5       ___shr_12                  030637a5 f i LIBCMT:_strgtold_.obj
 0001:000627d7       ___ld12mul                 030637d7 f i LIBCMT:_strgtold_.obj
 0001:00062a52       ___multtenpow12            03063a52 f i LIBCMT:_strgtold_.obj
 0001:00062d57       ___strgtold12_l            03063d57 f   LIBCMT:_strgtold_.obj
 0001:0006344f       ___STRINGTOLD_L            0306444f f   LIBCMT:_strgtold_.obj
 0001:0006386d       ___crtLCMapStringA         0306486d f   LIBCMT:a_map.obj
 0001:000638b2       _strnlen                   030648b2 f   LIBCMT:strlen_s.obj
 0001:000638d0       __alloca_probe_16          030648d0 f   LIBCMT:alloca16.obj
 0001:000638e6       __alloca_probe_8           030648e6     LIBCMT:alloca16.obj
 0001:000638fc       _vfprintf_helper           030648fc f   LIBCMT:vfprintf.obj
 0001:00063a17       __vfprintf_l               03064a17 f   LIBCMT:vfprintf.obj
 0001:00063a37       __vfprintf_s_l             03064a37 f   LIBCMT:vfprintf.obj
 0001:00063a57       __vfprintf_p_l             03064a57 f   LIBCMT:vfprintf.obj
 0001:00063a77       _vfprintf                  03064a77 f   LIBCMT:vfprintf.obj
 0001:00063a96       _vfprintf_s                03064a96 f   LIBCMT:vfprintf.obj
 0001:00063ab5       __vfprintf_p               03064ab5 f   LIBCMT:vfprintf.obj
 0001:00063ad4       _abort                     03064ad4 f   LIBCMT:abort.obj
 0001:00063beb       __set_abort_behavior       03064beb f   LIBCMT:abort.obj
 0001:00063c0c       ___getlocaleinfo           03064c0c f   LIBCMT:inithelp.obj
 0001:00063d8b       __initp_misc_purevirt      03064d8b f   LIBCMT:inithelp.obj
 0001:00063d9a       __set_daylight             03064d9a f i LIBCMT:tzset.obj
 0001:00063dab       __set_dstbias              03064dab f i LIBCMT:tzset.obj
 0001:00063dbc       __set_timezone             03064dbc f i LIBCMT:tzset.obj
 0001:000644e2       ___tzset                   030654e2 f   LIBCMT:tzset.obj
 0001:00064531       __tzset                    03065531 f   LIBCMT:tzset.obj
 0001:00064569       __isindst                  03065569 f   LIBCMT:tzset.obj
 0001:000645aa       __gmtime64_s               030655aa f   LIBCMT:gmtime64.obj
 0001:000647ed       __gmtime64                 030657ed f   LIBCMT:gmtime64.obj
 0001:00064814       __get_daylight             03065814 f   LIBCMT:timeset.obj
 0001:0006484d       __get_dstbias              0306584d f   LIBCMT:timeset.obj
 0001:00064886       __get_timezone             03065886 f   LIBCMT:timeset.obj
 0001:000648bf       __get_tzname               030658bf f   LIBCMT:timeset.obj
 0001:00064963       ___daylight                03065963 f   LIBCMT:timeset.obj
 0001:00064969       ___dstbias                 03065969 f   LIBCMT:timeset.obj
 0001:0006496f       ___timezone                0306596f f   LIBCMT:timeset.obj
 0001:00064975       ___tzname                  03065975 f   LIBCMT:timeset.obj
 0001:00064980       __alldiv                   03065980 f   LIBCMT:lldiv.obj
 0001:00064a30       __allrem                   03065a30 f   LIBCMT:llrem.obj
 0001:00064ae2       __gmtime32_s               03065ae2 f   LIBCMT:gmtime.obj
 0001:00064c15       ___getgmtimebuf            03065c15 f   LIBCMT:gmtime.obj
 0001:00064c4c       __gmtime32                 03065c4c f   LIBCMT:gmtime.obj
 0001:00064c80       __aulldiv                  03065c80 f   LIBCMT:ulldiv.obj
 0001:00064ce8       _wait_a_bit                03065ce8 f i LIBCMT:crtheap.obj
 0001:00064d0e       __set_malloc_crt_max_wait  03065d0e f   LIBCMT:crtheap.obj
 0001:00064d23       __malloc_crt               03065d23 f   LIBCMT:crtheap.obj
 0001:00064d68       __calloc_crt               03065d68 f   LIBCMT:crtheap.obj
 0001:00064db4       __realloc_crt              03065db4 f   LIBCMT:crtheap.obj
 0001:00064e02       __recalloc_crt             03065e02 f   LIBCMT:crtheap.obj
 0001:00064e54       __msize                    03065e54 f   LIBCMT:msize.obj
 0001:00064f4e       __INTRN_LOCALE_CONV        03065f4e f i LIBCMT:input.obj
 0001:00064fd3       __input_l                  03065fd3 f   LIBCMT:input.obj
 0001:0006605a       __input_s_l                0306705a f   LIBCMT:inputs.obj
 0001:0006717e       __sse2_mathfcns_init       0306817e f   LIBCMT:_mathfcns_.obj
 0001:00067192       __set_SSE2_enable          03068192 f   LIBCMT:_mathfcns_.obj
 0001:000671b0       __CIatan_pentium4          030681b0 f   LIBCMT:_atan_pentium4_.obj
 0001:000671c8       __atan_pentium4            030681c8     LIBCMT:_atan_pentium4_.obj
 0001:000674a0       __CIacos_pentium4          030684a0 f   LIBCMT:_acos_pentium4_.obj
 0001:000674b8       __acos_pentium4            030684b8     LIBCMT:_acos_pentium4_.obj
 0001:00067a00       __CIasin_pentium4          03068a00 f   LIBCMT:_asin_pentium4_.obj
 0001:00067a18       __asin_pentium4            03068a18     LIBCMT:_asin_pentium4_.obj
 0001:00067f80       __CItan_pentium4           03068f80 f   LIBCMT:_tan_pentium4_.obj
 0001:00067f98       __tan_pentium4             03068f98     LIBCMT:_tan_pentium4_.obj
 0001:000681e0       __CIcos_pentium4           030691e0 f   LIBCMT:_cos_pentium4_.obj
 0001:000681f8       __cos_pentium4             030691f8     LIBCMT:_cos_pentium4_.obj
 0001:00068390       __CIsin_pentium4           03069390 f   LIBCMT:_sin_pentium4_.obj
 0001:000683a8       __sin_pentium4             030693a8     LIBCMT:_sin_pentium4_.obj
 0001:00068560       __allmul                   03069560 f   LIBCMT:llmul.obj
 0001:00068594       __isleadbyte_l             03069594 f i LIBCMT:_wctype.obj
 0001:000685cc       _isleadbyte                030695cc f i LIBCMT:_wctype.obj
 0001:000685df       __iswalpha_l               030695df f i LIBCMT:_wctype.obj
 0001:000685f9       _iswalpha                  030695f9 f i LIBCMT:_wctype.obj
 0001:0006860f       __iswupper_l               0306960f f i LIBCMT:_wctype.obj
 0001:00068626       _iswupper                  03069626 f i LIBCMT:_wctype.obj
 0001:00068639       __iswlower_l               03069639 f i LIBCMT:_wctype.obj
 0001:00068650       _iswlower                  03069650 f i LIBCMT:_wctype.obj
 0001:00068663       __iswdigit_l               03069663 f i LIBCMT:_wctype.obj
 0001:0006867a       _iswdigit                  0306967a f i LIBCMT:_wctype.obj
 0001:0006868d       __iswxdigit_l              0306968d f i LIBCMT:_wctype.obj
 0001:000686a7       _iswxdigit                 030696a7 f i LIBCMT:_wctype.obj
 0001:000686bd       __iswspace_l               030696bd f i LIBCMT:_wctype.obj
 0001:000686d4       _iswspace                  030696d4 f i LIBCMT:_wctype.obj
 0001:000686e7       __iswpunct_l               030696e7 f i LIBCMT:_wctype.obj
 0001:000686fe       _iswpunct                  030696fe f i LIBCMT:_wctype.obj
 0001:00068711       __iswalnum_l               03069711 f i LIBCMT:_wctype.obj
 0001:0006872b       _iswalnum                  0306972b f i LIBCMT:_wctype.obj
 0001:00068741       __iswprint_l               03069741 f i LIBCMT:_wctype.obj
 0001:0006875b       _iswprint                  0306975b f i LIBCMT:_wctype.obj
 0001:00068771       __iswgraph_l               03069771 f i LIBCMT:_wctype.obj
 0001:0006878b       _iswgraph                  0306978b f i LIBCMT:_wctype.obj
 0001:000687a1       __iswcntrl_l               030697a1 f i LIBCMT:_wctype.obj
 0001:000687b8       _iswcntrl                  030697b8 f i LIBCMT:_wctype.obj
 0001:000687cb       _iswascii                  030697cb f i LIBCMT:_wctype.obj
 0001:000687df       __iswcsym_l                030697df f i LIBCMT:_wctype.obj
 0001:00068809       ___iswcsym                 03069809 f i LIBCMT:_wctype.obj
 0001:0006882f       __iswcsymf_l               0306982f f i LIBCMT:_wctype.obj
 0001:00068859       ___iswcsymf                03069859 f i LIBCMT:_wctype.obj
 0001:0006887f       __filbuf                   0306987f f   LIBCMT:_filbuf.obj
 0001:000689aa       __validate_param_reuseA    030699aa f   LIBCMT:outputp.obj
 0001:00068b7b       _get_crtdouble_arg         03069b7b f i LIBCMT:outputp.obj
 0001:00068b90       __output_p_l               03069b90 f   LIBCMT:outputp.obj
 0001:00069e50       ___libm_setusermatherr     0306ae50 f   LIBCMT:_libm_error_.obj
 0001:00069e7e       ___libm_error_support      0306ae7e f   LIBCMT:_libm_error_.obj
 0001:0006a12e       __ceil_default             0306b12e f   LIBCMT:_ceil_.obj
 0001:0006a210       __aulldvrm                 0306b210 f   LIBCMT:ulldvrm.obj
 0001:0006a2b0       __CIpow_pentium4           0306b2b0 f   LIBCMT:_pow_pentium4_.obj
 0001:0006a2c9       __pow_pentium4             0306b2c9     LIBCMT:_pow_pentium4_.obj
 0001:0006ae21       __fFEXP                    0306be21     LIBCMT:_87tran_.obj
 0001:0006ae88       __rtinfpopse               0306be88     LIBCMT:_87tran_.obj
 0001:0006ae8a       __rtinfnpopse              0306be8a     LIBCMT:_87tran_.obj
 0001:0006ae9a       __fFLN                     0306be9a     LIBCMT:_87tran_.obj
 0001:0006af4f       __rtinfpop                 0306bf4f     LIBCMT:_87tran_.obj
 0001:0006af51       __rtinfnpop                0306bf51     LIBCMT:_87tran_.obj
 0001:0006af6e       __ffexpm1                  0306bf6e     LIBCMT:_87tran_.obj
 0001:0006b017       __d_inttype                0306c017 f   LIBCMT:_powhlp_.obj
 0001:0006b07d       __powhlp                   0306c07d f   LIBCMT:_powhlp_.obj
 0001:0006b1bd       _vprintf_helper            0306c1bd f   LIBCMT:vprintf.obj
 0001:0006b24d       __vprintf_l                0306c24d f   LIBCMT:vprintf.obj
 0001:0006b26a       __vprintf_s_l              0306c26a f   LIBCMT:vprintf.obj
 0001:0006b287       __vprintf_p_l              0306c287 f   LIBCMT:vprintf.obj
 0001:0006b2a4       _vprintf                   0306c2a4 f   LIBCMT:vprintf.obj
 0001:0006b2c0       _vprintf_s                 0306c2c0 f   LIBCMT:vprintf.obj
 0001:0006b2dc       __vprintf_p                0306c2dc f   LIBCMT:vprintf.obj
 0001:0006b2f8       __setenvp                  0306c2f8 f   LIBCMT:stdenvp.obj
 0001:0006b3d6       __set_pgmptr               0306c3d6 f i LIBCMT:stdargv.obj
 0001:0006b57f       __setargv                  0306c57f f   LIBCMT:stdargv.obj
 0001:0006b63a       ___crtGetEnvironmentStringsA 0306c63a f   LIBCMT:a_env.obj
 0001:0006b771       __RTC_Initialize           0306c771 f   LIBCMT:_initsect_.obj
 0001:0006b797       __RTC_Terminate            0306c797 f   LIBCMT:_initsect_.obj
 0001:0006b7bd       __initp_misc_winxfltr      0306c7bd f   LIBCMT:winxfltr.obj
 0001:0006b7f3       __XcptFilter               0306c7f3 f   LIBCMT:winxfltr.obj
 0001:0006b953       ___CppXcptFilter           0306c953 f   LIBCMT:winxfltr.obj
 0001:0006b973       ___security_init_cookie    0306c973 f   LIBCMT:gs_support.obj
 0001:0006ba09       ___report_gsfailure        0306ca09 f   LIBCMT:gs_report.obj
 0001:0006bb0f       _CallDestructExceptionObject 0306cb0f f   LIBCMT:calldtor.obj
 0001:0006bc10       __ValidateEH3RN            0306cc10 f   LIBCMT:eh3valid.obj
 0001:0006bf59       __initp_misc_initcrit      0306cf59 f   LIBCMT:initcrit.obj
 0001:0006bf68       ___crtInitCritSecAndSpinCount 0306cf68 f   LIBCMT:initcrit.obj
 0001:0006bfd0       __ValidateImageBase        0306cfd0 f   LIBCMT:pesect.obj
 0001:0006c010       __FindPESection            0306d010 f   LIBCMT:pesect.obj
 0001:0006c060       __IsNonwritableInCurrentImage 0306d060 f   LIBCMT:pesect.obj
 0001:0006c11d       __initp_misc_winsig        0306d11d f   LIBCMT:winsig.obj
 0001:0006c20d       ___get_sigabrt             0306d20d f   LIBCMT:winsig.obj
 0001:0006c21a       ___fpecode                 0306d21a f   LIBCMT:winsig.obj
 0001:0006c223       ___pxcptinfoptrs           0306d223 f   LIBCMT:winsig.obj
 0001:0006c22c       _signal                    0306d22c f   LIBCMT:winsig.obj
 0001:0006c469       _raise                     0306d469 f   LIBCMT:winsig.obj
 0001:0006c619       __initp_misc_rand_s        0306d619 f   LIBCMT:rand_s.obj
 0001:0006c628       _rand_s                    0306d628 f   LIBCMT:rand_s.obj
 0001:0006c730       ___crtMessageBoxA          0306d730 f   LIBCMT:crtmbox.obj
 0001:0006c899       _strcat_s                  0306d899 f   LIBCMT:strcat_s.obj
 0001:0006c90d       _strncpy_s                 0306d90d f   LIBCMT:strncpy_s.obj
 0001:0006c9c2       __set_error_mode           0306d9c2 f   LIBCMT:errmode.obj
 0001:0006ca0d       ___set_app_type            0306da0d f   LIBCMT:errmode.obj
 0001:0006ca1c       ___get_app_type            0306da1c f   LIBCMT:errmode.obj
 0001:0006ca22       __lseeki64_nolock          0306da22 f   LIBCMT:lseeki64.obj
 0001:0006caa7       __lseeki64                 0306daa7 f   LIBCMT:lseeki64.obj
 0001:0006cbc0       __write_nolock             0306dbc0 f   LIBCMT:write.obj
 0001:0006d2f3       __write                    0306e2f3 f   LIBCMT:write.obj
 0001:0006d3cf       __getbuf                   0306e3cf f   LIBCMT:_getbuf.obj
 0001:0006d418       __isatty                   0306e418 f   LIBCMT:isatty.obj
 0001:0006d47c       __wctomb_s_l               0306e47c f   LIBCMT:wctomb.obj
 0001:0006d5e8       _wctomb_s                  0306e5e8 f   LIBCMT:wctomb.obj
 0001:0006d605       __wctomb_l                 0306e605 f   LIBCMT:wctomb.obj
 0001:0006d656       _wctomb                    0306e656 f   LIBCMT:wctomb.obj
 0001:0006d72e       __output_s_l               0306e72e f   LIBCMT:outputs.obj
 0001:0006e2fe       __atodbl_l                 0306f2fe f   LIBCMT:atodbl.obj
 0001:0006e3a6       __atodbl                   0306f3a6 f   LIBCMT:atodbl.obj
 0001:0006e3bd       __atoldbl_l                0306f3bd f   LIBCMT:atodbl.obj
 0001:0006e466       __atoldbl                  0306f466 f   LIBCMT:atodbl.obj
 0001:0006e47d       __atoflt_l                 0306f47d f   LIBCMT:atodbl.obj
 0001:0006e525       __atoflt                   0306f525 f   LIBCMT:atodbl.obj
 0001:0006e53c       __set_output_format        0306f53c f   LIBCMT:outputformat.obj
 0001:0006e578       __get_output_format        0306f578 f   LIBCMT:outputformat.obj
 0001:0006e57e       __fptostr                  0306f57e f   LIBCMT:_fptostr.obj
 0001:0006e63d       ___dtold                   0306f63d f   LIBCMT:_cfout_.obj
 0001:0006e6fa       __fltout2                  0306f6fa f   LIBCMT:_cfout_.obj
 0001:0006e790       __alldvrm                  0306f790 f   LIBCMT:lldvrm.obj
 0001:0006e870       __aullshr                  0306f870 f   LIBCMT:ullshr.obj
 0001:0006e88f       __fptrap                   0306f88f f   LIBCMT:crt0fp.obj
 0001:0006e898       __controlfp_s              0306f898 f   LIBCMT:_contrlfp_.obj
 0001:0006e904       ??0Block@HeapManager@@QAE@XZ 0306f904 f i LIBCMT:undname.obj
 0001:0006e90a       ?Constructor@HeapManager@@QAEXP6APAXI@ZP6AXPAX@Z@Z 0306f90a f i LIBCMT:undname.obj
 0001:0006e929       ?Destructor@HeapManager@@QAEXXZ 0306f929 f i LIBCMT:undname.obj
 0001:0006e951       ?getNumberOfDimensions@UnDecorator@@CAHXZ 0306f951 f   LIBCMT:undname.obj
 0001:0006e9b4       ?getTypeEncoding@UnDecorator@@CAHXZ 0306f9b4 f i LIBCMT:undname.obj
 0001:0006eea0       ?doUnderScore@UnDecorator@@SAHXZ 0306fea0 f i LIBCMT:undname.obj
 0001:0006eeab       ?doMSKeywords@UnDecorator@@SAHXZ 0306feab f i LIBCMT:undname.obj
 0001:0006eeb8       ?doPtr64@UnDecorator@@SAHXZ 0306feb8 f i LIBCMT:undname.obj
 0001:0006eec6       ?doFunctionReturns@UnDecorator@@SAHXZ 0306fec6 f i LIBCMT:undname.obj
 0001:0006eed4       ?doAllocationModel@UnDecorator@@SAHXZ 0306fed4 f i LIBCMT:undname.obj
 0001:0006eee2       ?doAllocationLanguage@UnDecorator@@SAHXZ 0306fee2 f i LIBCMT:undname.obj
 0001:0006eef0       ?doThisTypes@UnDecorator@@SAHXZ 0306fef0 f i LIBCMT:undname.obj
 0001:0006ef02       ?doAccessSpecifiers@UnDecorator@@SAHXZ 0306ff02 f i LIBCMT:undname.obj
 0001:0006ef10       ?doThrowTypes@UnDecorator@@SAHXZ 0306ff10 f i LIBCMT:undname.obj
 0001:0006ef1e       ?doMemberTypes@UnDecorator@@SAHXZ 0306ff1e f i LIBCMT:undname.obj
 0001:0006ef2c       ?doNameOnly@UnDecorator@@SAHXZ 0306ff2c f i LIBCMT:undname.obj
 0001:0006ef37       ?doTypeOnly@UnDecorator@@SAHXZ 0306ff37 f i LIBCMT:undname.obj
 0001:0006ef42       ?haveTemplateParameters@UnDecorator@@SAHXZ 0306ff42 f i LIBCMT:undname.obj
 0001:0006ef4d       ?doEcsu@UnDecorator@@SAHXZ 0306ff4d f i LIBCMT:undname.obj
 0001:0006ef5b       ?doNoIdentCharCheck@UnDecorator@@SAHXZ 0306ff5b f i LIBCMT:undname.obj
 0001:0006ef66       ?doEllipsis@UnDecorator@@SAHXZ 0306ff66 f i LIBCMT:undname.obj
 0001:0006ef74       ?UScore@UnDecorator@@SAPBDW4Tokens@@@Z 0306ff74 f   LIBCMT:undname.obj
 0001:0006ef92       ?getMemory@HeapManager@@QAEPAXIH@Z 0306ff92 f   LIBCMT:undname.obj
 0001:0006f01a       ??0DName@@QAE@XZ           0307001a f i LIBCMT:undname.obj
 0001:0006f02b       ??0DName@@QAE@ABV0@@Z      0307002b f i LIBCMT:undname.obj
 0001:0006f043       ?isValid@DName@@QBEHXZ     03070043 f i LIBCMT:undname.obj
 0001:0006f04d       ?isEmpty@DName@@QBEHXZ     0307004d f i LIBCMT:undname.obj
 0001:0006f055       ?status@DName@@QBE?AW4DNameStatus@@XZ 03070055 f i LIBCMT:undname.obj
 0001:0006f05a       ?setPtrRef@DName@@QAEAAV1@XZ 0307005a f i LIBCMT:undname.obj
 0001:0006f064       ?isPtrRef@DName@@QBEHXZ    03070064 f i LIBCMT:undname.obj
 0001:0006f06e       ?isUDC@DName@@QBEHXZ       0307006e f i LIBCMT:undname.obj
 0001:0006f07f       ?setIsUDC@DName@@QAEXXZ    0307007f f i LIBCMT:undname.obj
 0001:0006f08c       ?isUDTThunk@DName@@QBEHXZ  0307008c f i LIBCMT:undname.obj
 0001:0006f09d       ?setIsArray@DName@@QAEXXZ  0307009d f i LIBCMT:undname.obj
 0001:0006f0a5       ?isArray@DName@@QBEHXZ     030700a5 f i LIBCMT:undname.obj
 0001:0006f0af       ?isNoTE@DName@@QBEHXZ      030700af f i LIBCMT:undname.obj
 0001:0006f0b9       ?setIsNoTE@DName@@QAEXXZ   030700b9 f i LIBCMT:undname.obj
 0001:0006f0c1       ?isPinPtr@DName@@QBEHXZ    030700c1 f i LIBCMT:undname.obj
 0001:0006f0cb       ?setIsPinPtr@DName@@QAEXXZ 030700cb f i LIBCMT:undname.obj
 0001:0006f0d3       ?isComArray@DName@@QBEHXZ  030700d3 f i LIBCMT:undname.obj
 0001:0006f0dd       ?setIsComArray@DName@@QAEXXZ 030700dd f i LIBCMT:undname.obj
 0001:0006f0e5       ?isVCallThunk@DName@@QBEHXZ 030700e5 f i LIBCMT:undname.obj
 0001:0006f0ef       ?setIsVCallThunk@DName@@QAEXXZ 030700ef f i LIBCMT:undname.obj
 0001:0006f0f7       ?length@DName@@QBEHXZ      030700f7 f i LIBCMT:undname.obj
 0001:0006f104       ?getLastChar@DName@@QBEDXZ 03070104 f i LIBCMT:undname.obj
 0001:0006f112       ?getString@DName@@QBEPADPAD0@Z 03070112 f i LIBCMT:undname.obj
 0001:0006f12a       ??_5DName@@QAEAAV0@ABV0@@Z 0307012a f   LIBCMT:undname.obj
 0001:0006f149       ??4DName@@QAEAAV0@ABV0@@Z  03070149 f   LIBCMT:undname.obj
 0001:0006f161       ?isFull@Replicator@@QBEHXZ 03070161 f i LIBCMT:undname.obj
 0001:0006f16a       ??0Replicator@@QAE@XZ      0307016a f i LIBCMT:undname.obj
 0001:0006f170       ??0DNameNode@@IAE@XZ       03070170 f   LIBCMT:undname.obj
 0001:0006f179       ??0charNode@@QAE@D@Z       03070179 f   LIBCMT:undname.obj
 0001:0006f190       ?length@charNode@@UBEHXZ   03070190 f i LIBCMT:undname.obj
 0001:0006f194       ?getLastChar@charNode@@UBEDXZ 03070194 f i LIBCMT:undname.obj
 0001:0006f198       ?getString@charNode@@UBEPADPAD0@Z 03070198 f i LIBCMT:undname.obj
 0001:0006f1af       ??0pDNameNode@@QAE@PAVDName@@@Z 030701af f   LIBCMT:undname.obj
 0001:0006f1d9       ?length@pDNameNode@@UBEHXZ 030701d9 f i LIBCMT:undname.obj
 0001:0006f1ef       ?getLastChar@pDNameNode@@UBEDXZ 030701ef f i LIBCMT:undname.obj
 0001:0006f206       ?getString@pDNameNode@@UBEPADPAD0@Z 03070206 f i LIBCMT:undname.obj
 0001:0006f21f       ??0DNameStatusNode@@AAE@W4DNameStatus@@@Z 0307021f f   LIBCMT:undname.obj
 0001:0006f244       ?length@DNameStatusNode@@UBEHXZ 03070244 f i LIBCMT:undname.obj
 0001:0006f248       ?getLastChar@DNameStatusNode@@UBEDXZ 03070248 f i LIBCMT:undname.obj
 0001:0006f254       ?make@DNameStatusNode@@SAPAV1@W4DNameStatus@@@Z 03070254 f i LIBCMT:undname.obj
 0001:0006f2da       ??0pairNode@@QAE@PAVDNameNode@@0@Z 030702da f   LIBCMT:undname.obj
 0001:0006f2fb       ?length@pairNode@@UBEHXZ   030702fb f i LIBCMT:undname.obj
 0001:0006f326       ?getLastChar@pairNode@@UBEDXZ 03070326 f i LIBCMT:undname.obj
 0001:0006f342       ?getString@pairNode@@UBEPADPAD0@Z 03070342 f i LIBCMT:undname.obj
 0001:0006f3bc       ??0UnDecorator@@QAE@PADPBDHP6APADJ@ZK@Z 030703bc f i LIBCMT:undname.obj
 0001:0006f42b       ?getDataIndirectType@UnDecorator@@CA?AVDName@@XZ 0307042b f i LIBCMT:undname.obj
 0001:0006f460       ?getThisType@UnDecorator@@CA?AVDName@@XZ 03070460 f i LIBCMT:undname.obj
 0001:0006f496       ??2@YAPAXIAAVHeapManager@@H@Z 03070496 f i LIBCMT:undname.obj
 0001:0006f4ad       ?getStringHelper@@YAPADPAD00H@Z 030704ad f i LIBCMT:undname.obj
 0001:0006f4e4       ??0DName@@QAE@PAV0@@Z      030704e4 f   LIBCMT:undname.obj
 0001:0006f537       ??0DName@@QAE@W4DNameStatus@@@Z 03070537 f   LIBCMT:undname.obj
 0001:0006f57c       ?getString@DName@@QBEPADPADH@Z 0307057c f i LIBCMT:undname.obj
 0001:0006f5d4       ?append@DName@@AAEXPAVDNameNode@@@Z 030705d4 f   LIBCMT:undname.obj
 0001:0006f613       ??4DName@@QAEAAV0@PAV0@@Z  03070613 f   LIBCMT:undname.obj
 0001:0006f660       ??4DName@@QAEAAV0@W4DNameStatus@@@Z 03070660 f   LIBCMT:undname.obj
 0001:0006f697       ??YReplicator@@QAEAAV0@ABVDName@@@Z 03070697 f   LIBCMT:undname.obj
 0001:0006f6e1       ??AReplicator@@QBE?AVDName@@H@Z 030706e1 f   LIBCMT:undname.obj
 0001:0006f721       ??0pcharNode@@QAE@PBDH@Z   03070721 f   LIBCMT:undname.obj
 0001:0006f778       ?length@pcharNode@@UBEHXZ  03070778 f i LIBCMT:undname.obj
 0001:0006f77c       ?getLastChar@pcharNode@@UBEDXZ 0307077c f i LIBCMT:undname.obj
 0001:0006f78e       ?getString@pcharNode@@UBEPADPAD0@Z 0307078e f i LIBCMT:undname.obj
 0001:0006f7ab       ?getString@DNameStatusNode@@UBEPADPAD0@Z 030707ab f i LIBCMT:undname.obj
 0001:0006f7d4       ?getReturnType@UnDecorator@@CA?AVDName@@PAV2@@Z 030707d4 f   LIBCMT:undname.obj
 0001:0006f805       ?getStorageConvention@UnDecorator@@CA?AVDName@@XZ 03070805 f i LIBCMT:undname.obj
 0001:0006f818       ??YDName@@QAEAAV0@W4DNameStatus@@@Z 03070818 f   LIBCMT:undname.obj
 0001:0006f85a       ?doPchar@DName@@AAEXPBDH@Z 0307085a f   LIBCMT:undname.obj
 0001:0006f8d6       ??0DName@@QAE@D@Z          030708d6 f   LIBCMT:undname.obj
 0001:0006f903       ??0DName@@QAE@PBD@Z        03070903 f   LIBCMT:undname.obj
 0001:0006f93c       ??0DName@@QAE@AAPBDD@Z     0307093c f   LIBCMT:undname.obj
 0001:0006f9fb       ??0DName@@QAE@_K@Z         030709fb f   LIBCMT:undname.obj
 0001:0006fa69       ??0DName@@QAE@_J@Z         03070a69 f   LIBCMT:undname.obj
 0001:0006fb04       ??HDName@@QBE?AV0@W4DNameStatus@@@Z 03070b04 f   LIBCMT:undname.obj
 0001:0006fb28       ??YDName@@QAEAAV0@ABV0@@Z  03070b28 f   LIBCMT:undname.obj
 0001:0006fb6b       ??YDName@@QAEAAV0@PAV0@@Z  03070b6b f   LIBCMT:undname.obj
 0001:0006fbd2       ??4DName@@QAEAAV0@D@Z      03070bd2 f i LIBCMT:undname.obj
 0001:0006fbff       ??4DName@@QAEAAV0@PBD@Z    03070bff f   LIBCMT:undname.obj
 0001:0006fc34       ?getCallingConvention@UnDecorator@@CA?AVDName@@XZ 03070c34 f   LIBCMT:undname.obj
 0001:0006fcde       ?getVCallThunkType@UnDecorator@@CA?AVDName@@XZ 03070cde f i LIBCMT:undname.obj
 0001:0006fd17       ??HDName@@QBE?AV0@ABV0@@Z  03070d17 f   LIBCMT:undname.obj
 0001:0006fd3b       ??HDName@@QBE?AV0@PAV0@@Z  03070d3b f   LIBCMT:undname.obj
 0001:0006fd5f       ??YDName@@QAEAAV0@D@Z      03070d5f f   LIBCMT:undname.obj
 0001:0006fdb1       ??YDName@@QAEAAV0@PBD@Z    03070db1 f   LIBCMT:undname.obj
 0001:0006fe15       ?getArgumentList@UnDecorator@@CA?AVDName@@XZ 03070e15 f   LIBCMT:undname.obj
 0001:0006ff17       ?getVdispMapType@UnDecorator@@CA?AVDName@@ABV2@@Z 03070f17 f i LIBCMT:undname.obj
 0001:0006ff6b       ??H@YA?AVDName@@DABV0@@Z   03070f6b f i LIBCMT:undname.obj
 0001:0006ff8f       ??H@YA?AVDName@@W4DNameStatus@@ABV0@@Z 03070f8f f i LIBCMT:undname.obj
 0001:0006ffb3       ??H@YA?AVDName@@PBDABV0@@Z 03070fb3 f i LIBCMT:undname.obj
 0001:0006ffd7       ??HDName@@QBE?AV0@D@Z      03070fd7 f   LIBCMT:undname.obj
 0001:0006fffb       ??HDName@@QBE?AV0@PBD@Z    03070ffb f   LIBCMT:undname.obj
 0001:0007001f       ?getDimension@UnDecorator@@CA?AVDName@@_N@Z 0307101f f   LIBCMT:undname.obj
 0001:00070171       ?getEnumType@UnDecorator@@CA?AVDName@@XZ 03071171 f i LIBCMT:undname.obj
 0001:00070245       ?getArgumentTypes@UnDecorator@@CA?AVDName@@XZ 03071245 f   LIBCMT:undname.obj
 0001:00070321       ?getThrowTypes@UnDecorator@@CA?AVDName@@XZ 03071321 f   LIBCMT:undname.obj
 0001:000703a0       ?getExtendedDataIndirectType@UnDecorator@@CA?AVDName@@AADAA_NH@Z 030713a0 f   LIBCMT:undname.obj
 0001:0007051d       ?getArrayType@UnDecorator@@CA?AVDName@@ABV2@@Z 0307151d f i LIBCMT:undname.obj
 0001:00070697       ?getLexicalFrame@UnDecorator@@CA?AVDName@@XZ 03071697 f i LIBCMT:undname.obj
 0001:000706ca       ?getDisplacement@UnDecorator@@CA?AVDName@@XZ 030716ca f i LIBCMT:undname.obj
 0001:000706e0       ?getCallIndex@UnDecorator@@CA?AVDName@@XZ 030716e0 f i LIBCMT:undname.obj
 0001:000706f6       ?getGuardNumber@UnDecorator@@CA?AVDName@@XZ 030716f6 f i LIBCMT:undname.obj
 0001:0007070c       ?getVfTableType@UnDecorator@@CA?AVDName@@ABV2@@Z 0307170c f i LIBCMT:undname.obj
 0001:00070843       ?getStringEncoding@UnDecorator@@CA?AVDName@@PADH@Z 03071843 f   LIBCMT:undname.obj
 0001:000708e7       ?getSignedDimension@UnDecorator@@CA?AVDName@@XZ 030718e7 f   LIBCMT:undname.obj
 0001:00070939       ?getTemplateConstant@UnDecorator@@CA?AVDName@@XZ 03071939 f   LIBCMT:undname.obj
 0001:00070c06       ?getPtrRefDataType@UnDecorator@@CA?AVDName@@ABV2@H@Z 03071c06 f i LIBCMT:undname.obj
 0001:00070ce4       ?getVbTableType@UnDecorator@@CA?AVDName@@ABV2@@Z 03071ce4 f i LIBCMT:undname.obj
 0001:00070cfb       ?getTemplateArgumentList@UnDecorator@@CA?AVDName@@XZ 03071cfb f   LIBCMT:undname.obj
 0001:00070ebf       ?getOperatorName@UnDecorator@@CA?AVDName@@_NPA_N@Z 03071ebf f i LIBCMT:undname.obj
 0001:0007145c       ?getTemplateName@UnDecorator@@CA?AVDName@@_N@Z 0307245c f   LIBCMT:undname.obj
 0001:000715a3       ?getZName@UnDecorator@@CA?AVDName@@_N0@Z 030725a3 f   LIBCMT:undname.obj
 0001:00071799       ?getScopedName@UnDecorator@@CA?AVDName@@XZ 03072799 f   LIBCMT:undname.obj
 0001:0007186a       ?getECSUName@UnDecorator@@CA?AVDName@@XZ 0307286a f i LIBCMT:undname.obj
 0001:0007187d       ?getECSUDataType@UnDecorator@@CA?AVDName@@XZ 0307287d f   LIBCMT:undname.obj
 0001:00071984       ?getSymbolName@UnDecorator@@CA?AVDName@@XZ 03072984 f i LIBCMT:undname.obj
 0001:000719ce       ?getBasedType@UnDecorator@@CA?AVDName@@XZ 030729ce f   LIBCMT:undname.obj
 0001:00071a66       ?composeDeclaration@UnDecorator@@CA?AVDName@@ABV2@@Z 03072a66 f i LIBCMT:undname.obj
 0001:00072601       ?getDecoratedName@UnDecorator@@CA?AVDName@@XZ 03073601 f   LIBCMT:undname.obj
 0001:00072819       ?getScope@UnDecorator@@CA?AVDName@@XZ 03073819 f   LIBCMT:undname.obj
 0001:00072a89       ?getFunctionIndirectType@UnDecorator@@CA?AVDName@@ABV2@@Z 03073a89 f   LIBCMT:undname.obj
 0001:00072ddd       ?getDataIndirectType@UnDecorator@@CA?AVDName@@ABV2@D0H@Z 03073ddd f   LIBCMT:undname.obj
 0001:000732a4       ??BUnDecorator@@QAEPADXZ   030742a4 f i LIBCMT:undname.obj
 0001:000733d5       ?getPtrRefType@UnDecorator@@CA?AVDName@@ABV2@0D@Z 030743d5 f   LIBCMT:undname.obj
 0001:000734ce       ?getPointerType@UnDecorator@@CA?AVDName@@ABV2@0@Z 030744ce f i LIBCMT:undname.obj
 0001:000734eb       ?getPointerTypeArray@UnDecorator@@CA?AVDName@@ABV2@0@Z 030744eb f i LIBCMT:undname.obj
 0001:00073508       ?getReferenceType@UnDecorator@@CA?AVDName@@ABV2@0@Z 03074508 f i LIBCMT:undname.obj
 0001:00073525       ___unDName                 03074525 f   LIBCMT:undname.obj
 0001:000735bf       ___unDNameEx               030745bf f   LIBCMT:undname.obj
 0001:00073659       ?getBasicDataType@UnDecorator@@CA?AVDName@@ABV2@@Z 03074659 f   LIBCMT:undname.obj
 0001:00073a10       ?getPrimaryDataType@UnDecorator@@CA?AVDName@@ABV2@@Z 03074a10 f   LIBCMT:undname.obj
 0001:00073b48       ?getDataType@UnDecorator@@CA?AVDName@@PAV2@@Z 03074b48 f   LIBCMT:undname.obj
 0001:00073c08       ?getExternalDataType@UnDecorator@@CA?AVDName@@ABV2@@Z 03074c08 f i LIBCMT:undname.obj
 0001:00073c76       ?_ValidateRead@@YAHPBXI@Z  03074c76 f   LIBCMT:validate.obj
 0001:00073c88       ?_ValidateWrite@@YAHPAXI@Z 03074c88 f   LIBCMT:validate.obj
 0001:00073c9a       ?_ValidateExecute@@YAHP6GHXZ@Z 03074c9a f   LIBCMT:validate.obj
 0001:00073e66       ___crtGetStringTypeA       03074e66 f   LIBCMT:a_str.obj
 0001:00073ea8       ___pwctype_func            03074ea8 f   LIBCMT:ctype.obj
 0001:00073eae       ___pctype_func             03074eae f   LIBCMT:ctype.obj
 0001:000742f2       ___free_lc_time            030752f2 f   LIBCMT:inittime.obj
 0001:00074487       ___init_time               03075487 f   LIBCMT:inittime.obj
 0001:00074533       ___free_lconv_num          03075533 f   LIBCMT:initnum.obj
 0001:00074578       ___init_numeric            03075578 f   LIBCMT:initnum.obj
 0001:00074775       ___free_lconv_mon          03075775 f   LIBCMT:initmon.obj
 0001:00074803       ___init_monetary           03075803 f   LIBCMT:initmon.obj
 0001:00074ac9       ___init_ctype              03075ac9 f   LIBCMT:initctyp.obj
 0001:00074e6b       ____mb_cur_max_func        03075e6b f   LIBCMT:initctyp.obj
 0001:00074e94       ____mb_cur_max_l_func      03075e94 f   LIBCMT:initctyp.obj
 0001:00074eb0       ____lc_codepage_func       03075eb0 f   LIBCMT:initctyp.obj
 0001:00074ed6       ____lc_collate_cp_func     03075ed6 f   LIBCMT:initctyp.obj
 0001:00074efc       ____lc_handle_func         03075efc f   LIBCMT:initctyp.obj
 0001:00074f22       ___init_collate            03075f22 f   LIBCMT:initcoll.obj
 0001:00074f25       __Getdays_l                03075f25 f   LIBCMT:strftime.obj
 0001:00075025       __Getdays                  03076025 f   LIBCMT:strftime.obj
 0001:0007502e       __Getmonths_l              0307602e f   LIBCMT:strftime.obj
 0001:0007512e       __Getmonths                0307612e f   LIBCMT:strftime.obj
 0001:00075137       __Gettnames_l              03076137 f   LIBCMT:strftime.obj
 0001:0007548e       __Gettnames                0307648e f   LIBCMT:strftime.obj
 0001:00075db1       __Strftime_l               03076db1 f   LIBCMT:strftime.obj
 0001:00075f55       __strftime_l               03076f55 f   LIBCMT:strftime.obj
 0001:00075f75       _strftime                  03076f75 f   LIBCMT:strftime.obj
 0001:00075f94       __Strftime                 03076f94 f   LIBCMT:strftime.obj
 0001:00075fb4       _localeconv                03076fb4 f   LIBCMT:lconv.obj
 0001:00075fe0       _strcspn                   03076fe0 f   LIBCMT:strcspn.obj
 0001:00076621       ___get_qualified_locale    03077621 f   LIBCMT:getqloc.obj
 0001:00076820       _strpbrk                   03077820 f   LIBCMT:strpbrk.obj
 0001:00076860       __87except                 03077860 f   LIBCMT:_87except_.obj
 0001:0007699f       __set_osfhnd               0307799f f   LIBCMT:osfinfo.obj
 0001:00076a20       __free_osfhnd              03077a20 f   LIBCMT:osfinfo.obj
 0001:00076aa6       __get_osfhandle            03077aa6 f   LIBCMT:osfinfo.obj
 0001:00076b1d       ___lock_fhandle            03077b1d f   LIBCMT:osfinfo.obj
 0001:00076bbd       __unlock_fhandle           03077bbd f   LIBCMT:osfinfo.obj
 0001:00076be4       __alloc_osfhnd             03077be4 f   LIBCMT:osfinfo.obj
 0001:00076d7e       __open_osfhandle           03077d7e f   LIBCMT:osfinfo.obj
 0001:00076e94       __commit                   03077e94 f   LIBCMT:commit.obj
 0001:00076f75       __fcloseall                03077f75 f   LIBCMT:closeall.obj
 0001:00077733       __open                     03078733 f   LIBCMT:open.obj
 0001:000777e9       __sopen_helper             030787e9 f   LIBCMT:open.obj
 0001:000778b5       __sopen                    030788b5 f   LIBCMT:open.obj
 0001:000778e7       __sopen_s                  030788e7 f   LIBCMT:open.obj
 0001:00077907       __mbsnbicmp_l              03078907 f   LIBCMT:mbsnbicm.obj
 0001:00077b32       __mbsnbicmp                03078b32 f   LIBCMT:mbsnbicm.obj
 0001:00077b4c       __mbsnbcmp_l               03078b4c f   LIBCMT:mbsnbcmp.obj
 0001:00077cb6       __mbsnbcmp                 03078cb6 f   LIBCMT:mbsnbcmp.obj
 0001:00077cd0       __ZeroTail                 03078cd0 f i LIBCMT:_intrncvt_.obj
 0001:00077d19       __IncMan                   03078d19 f i LIBCMT:_intrncvt_.obj
 0001:00077d86       __RoundMan                 03078d86 f i LIBCMT:_intrncvt_.obj
 0001:00077e76       __CopyMan                  03078e76 f i LIBCMT:_intrncvt_.obj
 0001:00077e95       __FillZeroMan              03078e95 f i LIBCMT:_intrncvt_.obj
 0001:00077ea6       __IsZeroMan                03078ea6 f i LIBCMT:_intrncvt_.obj
 0001:00077ec5       __ShrMan                   03078ec5 f i LIBCMT:_intrncvt_.obj
 0001:00077f5f       __ld12cvt                  03078f5f f i LIBCMT:_intrncvt_.obj
 0001:0007848a       __ld12tod                  0307948a f   LIBCMT:_intrncvt_.obj
 0001:000789ce       __ld12tof                  030799ce f   LIBCMT:_intrncvt_.obj
 0001:00078f12       __ld12told                 03079f12 f   LIBCMT:_intrncvt_.obj
 0001:00078fd9       ___add_12                  03079fd9 f i LIBCMT:_mantold_.obj
 0001:0007904a       ___mtold12                 0307a04a f   LIBCMT:_mantold_.obj
 0001:00079218       ___ansicp                  0307a218 f   LIBCMT:convrtcp.obj
 0001:00079261       ___convertcp               0307a261 f   LIBCMT:convrtcp.obj
 0001:0007942e       ___crtGetLocaleInfoW       0307a42e f   LIBCMT:w_loc.obj
 0001:000795a1       ___crtGetLocaleInfoA       0307a5a1 f   LIBCMT:a_loc.obj
 0001:000795de       __getenv_helper_nolock     0307a5de f   LIBCMT:getenv.obj
 0001:0007979e       _getenv                    0307a79e f   LIBCMT:getenv.obj
 0001:00079821       _getenv_s                  0307a821 f   LIBCMT:getenv.obj
 0001:000798f9       __dupenv_s                 0307a8f9 f   LIBCMT:getenv.obj
 0001:000799df       __calloc_impl              0307a9df f   LIBCMT:calloc_impl.obj
 0001:00079afd       _realloc                   0307aafd f   LIBCMT:realloc.obj
 0001:00079d18       __recalloc                 0307ad18 f   LIBCMT:recalloc.obj
 0001:00079d93       __ungetc_nolock            0307ad93 f   LIBCMT:ungetc.obj
 0001:00079e84       _ungetc                    0307ae84 f   LIBCMT:ungetc.obj
 0001:00079ef6       __mbtowc_l                 0307aef6 f   LIBCMT:mbtowc.obj
 0001:0007a00d       _mbtowc                    0307b00d f   LIBCMT:mbtowc.obj
 0001:0007a027       __iswctype_l               0307b027 f   LIBCMT:iswctype.obj
 0001:0007a0b1       _iswctype                  0307b0b1 f   LIBCMT:iswctype.obj
 0001:0007a127       _is_wctype                 0307b127 f   LIBCMT:iswctype.obj
 0001:0007a132       __read_nolock              0307b132 f   LIBCMT:read.obj
 0001:0007a6f4       __read                     0307b6f4 f   LIBCMT:read.obj
 0001:0007a7f1       __matherr                  0307b7f1 f   LIBCMT:_matherr_.obj
 0001:0007a7f4       __raise_exc_ex             0307b7f4 f   LIBCMT:_fpexcept_.obj
 0001:0007aad0       __raise_exc                0307bad0 f   LIBCMT:_fpexcept_.obj
 0001:0007aaf3       __raise_excf               0307baf3 f   LIBCMT:_fpexcept_.obj
 0001:0007ab16       __handle_exc               0307bb16 f   LIBCMT:_fpexcept_.obj
 0001:0007acf8       __set_errno_from_matherr   0307bcf8 f   LIBCMT:_fpexcept_.obj
 0001:0007ad4b       __errcode                  0307bd4b f   LIBCMT:_fpexcept_.obj
 0001:0007ad7f       __umatherr                 0307bd7f f   LIBCMT:_fpexcept_.obj
 0001:0007ae1f       __handle_qnan1             0307be1f f   LIBCMT:_fpexcept_.obj
 0001:0007ae74       __handle_qnan2             0307be74 f   LIBCMT:_fpexcept_.obj
 0001:0007aed5       __except1                  0307bed5 f   LIBCMT:_fpexcept_.obj
 0001:0007af9e       __except2                  0307bf9e f   LIBCMT:_fpexcept_.obj
 0001:0007b076       __frnd                     0307c076 f   LIBCMT:_frnd_.obj
 0001:0007b08a       __set_exp                  0307c08a f   LIBCMT:_util_.obj
 0001:0007b0b6       __get_exp                  0307c0b6 f   LIBCMT:_util_.obj
 0001:0007b0ce       __add_exp                  0307c0ce f   LIBCMT:_util_.obj
 0001:0007b0fb       __set_bexp                 0307c0fb f   LIBCMT:_util_.obj
 0001:0007b122       __sptype                   0307c122 f   LIBCMT:_util_.obj
 0001:0007b182       __decomp                   0307c182 f   LIBCMT:_util_.obj
 0001:0007b23b       __statfp                   0307c23b f   LIBCMT:_fpctrl_.obj
 0001:0007b24b       __clrfp                    0307c24b f   LIBCMT:_fpctrl_.obj
 0001:0007b25c       __ctrlfp                   0307c25c f   LIBCMT:_fpctrl_.obj
 0001:0007b285       __set_statfp               0307c285 f   LIBCMT:_fpctrl_.obj
 0001:0007b2dd       ___get_fpsr_sse2           0307c2dd f   LIBCMT:_fpctrl_.obj
 0001:0007b2fb       ___set_fpsr_sse2           0307c2fb f   LIBCMT:_fpctrl_.obj
 0001:0007b36d       ___fclrf_sse2              0307c36d f   LIBCMT:_fpctrl_.obj
 0001:0007b38a       ___statfp_sse2             0307c38a f   LIBCMT:_fpctrl_.obj
 0001:0007b39d       ___clrfp_sse2              0307c39d f   LIBCMT:_fpctrl_.obj
 0001:0007b3b5       ___ctrlfp_sse2             0307c3b5 f   LIBCMT:_fpctrl_.obj
 0001:0007b3ec       ___set_statfp_sse2         0307c3ec f   LIBCMT:_fpctrl_.obj
 0001:0007b410       _fdiv_main_routine         0307c410 f   LIBCMT:_adj_fdiv_.obj
 0001:0007b527       __adj_fdiv_r               0307c527 f   LIBCMT:_adj_fdiv_.obj
 0001:0007b9c6       __fdivp_sti_st             0307c9c6 f   LIBCMT:_adj_fdiv_.obj
 0001:0007b9d9       __fdivrp_sti_st            0307c9d9 f   LIBCMT:_adj_fdiv_.obj
 0001:0007b9ec       __adj_fdiv_m32             0307c9ec f   LIBCMT:_adj_fdiv_.obj
 0001:0007ba38       __adj_fdiv_m64             0307ca38 f   LIBCMT:_adj_fdiv_.obj
 0001:0007ba84       __adj_fdiv_m16i            0307ca84 f   LIBCMT:_adj_fdiv_.obj
 0001:0007bab8       __adj_fdiv_m32i            0307cab8 f   LIBCMT:_adj_fdiv_.obj
 0001:0007baec       __adj_fdivr_m32            0307caec f   LIBCMT:_adj_fdiv_.obj
 0001:0007bb38       __adj_fdivr_m64            0307cb38 f   LIBCMT:_adj_fdiv_.obj
 0001:0007bb84       __adj_fdivr_m16i           0307cb84 f   LIBCMT:_adj_fdiv_.obj
 0001:0007bbb8       __adj_fdivr_m32i           0307cbb8 f   LIBCMT:_adj_fdiv_.obj
 0001:0007bbec       __safe_fdiv                0307cbec f   LIBCMT:_adj_fdiv_.obj
 0001:0007bc01       __safe_fdivr               0307cc01 f   LIBCMT:_adj_fdiv_.obj
 0001:0007bc16       __fprem_common             0307cc16 f   LIBCMT:_adj_fdiv_.obj
 0001:0007be1c       __adj_fprem                0307ce1c f   LIBCMT:_adj_fdiv_.obj
 0001:0007bece       __fprem1_common            0307cece f   LIBCMT:_adj_fdiv_.obj
 0001:0007c0d4       __adj_fprem1               0307d0d4 f   LIBCMT:_adj_fdiv_.obj
 0001:0007c189       __safe_fprem               0307d189 f   LIBCMT:_adj_fdiv_.obj
 0001:0007c18f       __safe_fprem1              0307d18f f   LIBCMT:_adj_fdiv_.obj
 0001:0007c195       __adj_fpatan               0307d195 f   LIBCMT:_adj_fdiv_.obj
 0001:0007c198       __adj_fptan                0307d198 f   LIBCMT:_adj_fdiv_.obj
 0001:0007c19b       __copysign                 0307d19b f   LIBCMT:_ieeemisc_.obj
 0001:0007c1c3       __chgsign                  0307d1c3 f   LIBCMT:_ieeemisc_.obj
 0001:0007c1f0       __scalb                    0307d1f0 f   LIBCMT:_ieeemisc_.obj
 0001:0007c20a       __logb                     0307d20a f   LIBCMT:_ieeemisc_.obj
 0001:0007c2f3       __nextafter                0307d2f3 f   LIBCMT:_ieeemisc_.obj
 0001:0007c59b       __finite                   0307d59b f   LIBCMT:_ieeemisc_.obj
 0001:0007c5b7       __isnan                    0307d5b7 f   LIBCMT:_ieeemisc_.obj
 0001:0007c5eb       __fpclass                  0307d5eb f   LIBCMT:_ieeemisc_.obj
 0001:0007c6d2       __ismbbkalnum_l            0307d6d2 f   LIBCMT:ismbbyte.obj
 0001:0007c6eb       __ismbbkalnum              0307d6eb f   LIBCMT:ismbbyte.obj
 0001:0007c703       __ismbbkprint_l            0307d703 f   LIBCMT:ismbbyte.obj
 0001:0007c71c       __ismbbkprint              0307d71c f   LIBCMT:ismbbyte.obj
 0001:0007c734       __ismbbkpunct_l            0307d734 f   LIBCMT:ismbbyte.obj
 0001:0007c74d       __ismbbkpunct              0307d74d f   LIBCMT:ismbbyte.obj
 0001:0007c765       __ismbbalnum_l             0307d765 f   LIBCMT:ismbbyte.obj
 0001:0007c781       __ismbbalnum               0307d781 f   LIBCMT:ismbbyte.obj
 0001:0007c79c       __ismbbalpha_l             0307d79c f   LIBCMT:ismbbyte.obj
 0001:0007c7b8       __ismbbalpha               0307d7b8 f   LIBCMT:ismbbyte.obj
 0001:0007c7d3       __ismbbgraph_l             0307d7d3 f   LIBCMT:ismbbyte.obj
 0001:0007c7ef       __ismbbgraph               0307d7ef f   LIBCMT:ismbbyte.obj
 0001:0007c80a       __ismbbprint_l             0307d80a f   LIBCMT:ismbbyte.obj
 0001:0007c826       __ismbbprint               0307d826 f   LIBCMT:ismbbyte.obj
 0001:0007c841       __ismbbpunct_l             0307d841 f   LIBCMT:ismbbyte.obj
 0001:0007c85a       __ismbbpunct               0307d85a f   LIBCMT:ismbbyte.obj
 0001:0007c872       __ismbblead_l              0307d872 f   LIBCMT:ismbbyte.obj
 0001:0007c88b       __ismbblead                0307d88b f   LIBCMT:ismbbyte.obj
 0001:0007c8a3       __ismbbtrail_l             0307d8a3 f   LIBCMT:ismbbyte.obj
 0001:0007c8bc       __ismbbtrail               0307d8bc f   LIBCMT:ismbbyte.obj
 0001:0007c8d4       __ismbbkana_l              0307d8d4 f   LIBCMT:ismbbyte.obj
 0001:0007c929       __ismbbkana                0307d929 f   LIBCMT:ismbbyte.obj
 0001:0007c93c       __putwch_nolock            0307d93c f   LIBCMT:putwch.obj
 0001:0007ca01       __cputws                   0307da01 f   LIBCMT:putwch.obj
 0001:0007caa0       __putwch                   0307daa0 f   LIBCMT:putwch.obj
 0001:0007cae6       _$I10_OUTPUT               0307dae6 f   LIBCMT:_x10fout_.obj
 0001:0007d40a       __set_controlfp            0307e40a f   LIBCMT:_ieee87_.obj
 0001:0007d77e       __statusfp                 0307e77e f   LIBCMT:_ieee87_.obj
 0001:0007d810       __fpreset                  0307e810 f   LIBCMT:_ieee87_.obj
 0001:0007da49       __statusfp2                0307ea49 f   LIBCMT:_ieee87_.obj
 0001:0007daa3       __clearfp                  0307eaa3 f   LIBCMT:_ieee87_.obj
 0001:0007db7c       ___control87_2             0307eb7c f   LIBCMT:_ieee87_.obj
 0001:0007de90       __control87                0307ee90 f i LIBCMT:_ieee87_.obj
 0001:0007e19f       __controlfp                0307f19f f   LIBCMT:_ieee87_.obj
 0001:0007e4b1       __strnicmp_l               0307f4b1 f   LIBCMT:strnicmp.obj
 0001:0007e5a3       __strnicmp                 0307f5a3 f   LIBCMT:strnicmp.obj
 0001:0007e5a3       _strnicmp                  0307f5a3 f   LIBCMT:strnicmp.obj
 0001:0007e6de       __itoa_s                   0307f6de f   LIBCMT:xtoas.obj
 0001:0007e708       __ltoa_s                   0307f708 f   LIBCMT:xtoas.obj
 0001:0007e72f       __ultoa_s                  0307f72f f   LIBCMT:xtoas.obj
 0001:0007e841       __i64toa_s                 0307f841 f   LIBCMT:xtoas.obj
 0001:0007e876       __ui64toa_s                0307f876 f   LIBCMT:xtoas.obj
 0001:0007e895       __chsize_nolock            0307f895 f   LIBCMT:chsize.obj
 0001:0007ea4b       __chsize_s                 0307fa4b f   LIBCMT:chsize.obj
 0001:0007eb38       __chsize                   0307fb38 f   LIBCMT:chsize.obj
 0001:0007eb54       __lseek_nolock             0307fb54 f   LIBCMT:lseek.obj
 0001:0007ebc9       __lseek                    0307fbc9 f   LIBCMT:lseek.obj
 0001:0007eca5       __setmode_nolock           0307fca5 f   LIBCMT:setmode.obj
 0001:0007ed61       __set_fmode                0307fd61 f   LIBCMT:setmode.obj
 0001:0007edad       __get_fmode                0307fdad f   LIBCMT:setmode.obj
 0001:0007ede6       __setmode                  0307fde6 f   LIBCMT:setmode.obj
 0001:0007eedd       __mbsnbicoll_l             0307fedd f   LIBCMT:mbsnbico.obj
 0001:0007efcb       __mbsnbicoll               0307ffcb f   LIBCMT:mbsnbico.obj
 0001:0007efe5       ___wtomb_environ           0307ffe5 f   LIBCMT:wtombenv.obj
 0001:0007f07c       _calloc                    0308007c f   LIBCMT:calloc.obj
 0001:0007f0df       ___crtGetStringTypeW       030800df f   LIBCMT:w_str.obj
 0001:0007f11d       _ldexp                     0308011d f   LIBCMT:_ldexp_.obj
 0001:0007f2cf       ___initconin               030802cf f   LIBCMT:initcon.obj
 0001:0007f2ee       ___initconout              030802ee f   LIBCMT:initcon.obj
 0001:0007f30d       ___termcon                 0308030d f   LIBCMT:initcon.obj
 0001:0007f33a       _wcslen                    0308033a f   LIBCMT:wcslen.obj
 0001:0007f360       ___ascii_strnicmp          03080360 f   LIBCMT:_strnicm.obj
 0001:0007f74f       ___crtCompareStringA       0308074f f   LIBCMT:a_cmp.obj
 0001:0007f791       __strnicoll_l              03080791 f   LIBCMT:strnicol.obj
 0001:0007f88b       __strnicoll                0308088b f   LIBCMT:strnicol.obj
 0001:0007f960       ___crtsetenv               03080960 f   LIBCMT:setenv.obj
 0001:0007fbab       _strdup                    03080bab f   LIBCMT:strdup.obj
 0001:0007fbab       __strdup                   03080bab f   LIBCMT:strdup.obj
 0001:0007fc00       __mbschr_l                 03080c00 f   LIBCMT:mbschr.obj
 0001:0007fcbc       __mbschr                   03080cbc f   LIBCMT:mbschr.obj
 0001:0007fcd4       _SetLastError@4            03080cd4 f   kernel32:KERNEL32.dll
 0001:0007fcda       _VirtualProtect@16         03080cda f   kernel32:KERNEL32.dll
 0001:0007fce0       _FlushInstructionCache@12  03080ce0 f   kernel32:KERNEL32.dll
 0001:0007fce6       _VirtualQuery@12           03080ce6 f   kernel32:KERNEL32.dll
 0001:0007fcec       _GetLastError@0            03080cec f   kernel32:KERNEL32.dll
 0001:0007fcf2       _HeapFree@12               03080cf2 f   kernel32:KERNEL32.dll
 0001:0007fcf8       _HeapAlloc@12              03080cf8 f   kernel32:KERNEL32.dll
 0001:0007fcfe       _TerminateProcess@8        03080cfe f   kernel32:KERNEL32.dll
 0001:0007fd04       _UnhandledExceptionFilter@4 03080d04 f   kernel32:KERNEL32.dll
 0001:0007fd0a       _SetUnhandledExceptionFilter@4 03080d0a f   kernel32:KERNEL32.dll
 0001:0007fd10       _IsDebuggerPresent@0       03080d10 f   kernel32:KERNEL32.dll
 0001:0007fd16       _RaiseException@16         03080d16 f   kernel32:KERNEL32.dll
 0001:0007fd1c       _RtlUnwind@16              03080d1c f   kernel32:KERNEL32.dll
 0001:0007fd22       _CreateDirectoryA@8        03080d22 f   kernel32:KERNEL32.dll
 0001:0007fd28       _GetSystemTimeAsFileTime@4 03080d28 f   kernel32:KERNEL32.dll
 0001:0007fd2e       _GetFileAttributesA@4      03080d2e f   kernel32:KERNEL32.dll
 0001:0007fd34       _DeleteFileA@4             03080d34 f   kernel32:KERNEL32.dll
 0001:0007fd3a       _GetCurrentThreadId@0      03080d3a f   kernel32:KERNEL32.dll
 0001:0007fd40       _GetCommandLineA@0         03080d40 f   kernel32:KERNEL32.dll
 0001:0007fd46       _HeapCreate@12             03080d46 f   kernel32:KERNEL32.dll
 0001:0007fd4c       _HeapDestroy@4             03080d4c f   kernel32:KERNEL32.dll
 0001:0007fd52       _VirtualFree@12            03080d52 f   kernel32:KERNEL32.dll
 0001:0007fd58       _FatalAppExitA@8           03080d58 f   kernel32:KERNEL32.dll
 0001:0007fd5e       _VirtualAlloc@16           03080d5e f   kernel32:KERNEL32.dll
 0001:0007fd64       _HeapReAlloc@16            03080d64 f   kernel32:KERNEL32.dll
 0001:0007fd6a       _GetModuleHandleW@4        03080d6a f   kernel32:KERNEL32.dll
 0001:0007fd70       _ExitProcess@4             03080d70 f   kernel32:KERNEL32.dll
 0001:0007fd76       _WriteFile@20              03080d76 f   kernel32:KERNEL32.dll
 0001:0007fd7c       _GetStdHandle@4            03080d7c f   kernel32:KERNEL32.dll
 0001:0007fd82       _TlsGetValue@4             03080d82 f   kernel32:KERNEL32.dll
 0001:0007fd88       _TlsAlloc@0                03080d88 f   kernel32:KERNEL32.dll
 0001:0007fd8e       _TlsSetValue@8             03080d8e f   kernel32:KERNEL32.dll
 0001:0007fd94       _TlsFree@4                 03080d94 f   kernel32:KERNEL32.dll
 0001:0007fd9a       _InterlockedIncrement@4    03080d9a f   kernel32:KERNEL32.dll
 0001:0007fda0       _InterlockedDecrement@4    03080da0 f   kernel32:KERNEL32.dll
 0001:0007fda6       _GetCurrentThread@0        03080da6 f   kernel32:KERNEL32.dll
 0001:0007fdac       _GetCPInfo@8               03080dac f   kernel32:KERNEL32.dll
 0001:0007fdb2       _GetACP@0                  03080db2 f   kernel32:KERNEL32.dll
 0001:0007fdb8       _GetOEMCP@0                03080db8 f   kernel32:KERNEL32.dll
 0001:0007fdbe       _IsValidCodePage@4         03080dbe f   kernel32:KERNEL32.dll
 0001:0007fdc4       _CloseHandle@4             03080dc4 f   kernel32:KERNEL32.dll
 0001:0007fdca       _SetHandleCount@4          03080dca f   kernel32:KERNEL32.dll
 0001:0007fdd0       _GetFileType@4             03080dd0 f   kernel32:KERNEL32.dll
 0001:0007fdd6       _GetStartupInfoA@4         03080dd6 f   kernel32:KERNEL32.dll
 0001:0007fddc       _LCMapStringA@24           03080ddc f   kernel32:KERNEL32.dll
 0001:0007fde2       _WideCharToMultiByte@32    03080de2 f   kernel32:KERNEL32.dll
 0001:0007fde8       _MultiByteToWideChar@24    03080de8 f   kernel32:KERNEL32.dll
 0001:0007fdee       _LCMapStringW@24           03080dee f   kernel32:KERNEL32.dll
 0001:0007fdf4       _GetTimeZoneInformation@4  03080df4 f   kernel32:KERNEL32.dll
 0001:0007fdfa       _HeapSize@12               03080dfa f   kernel32:KERNEL32.dll
 0001:0007fe00       _FreeEnvironmentStringsA@4 03080e00 f   kernel32:KERNEL32.dll
 0001:0007fe06       _GetEnvironmentStrings@0   03080e06 f   kernel32:KERNEL32.dll
 0001:0007fe0c       _FreeEnvironmentStringsW@4 03080e0c f   kernel32:KERNEL32.dll
 0001:0007fe12       _GetEnvironmentStringsW@0  03080e12 f   kernel32:KERNEL32.dll
 0001:0007fe18       _QueryPerformanceCounter@4 03080e18 f   kernel32:KERNEL32.dll
 0001:0007fe1e       _GetCurrentProcessId@0     03080e1e f   kernel32:KERNEL32.dll
 0001:0007fe24       _InitializeCriticalSectionAndSpinCount@8 03080e24 f   kernel32:KERNEL32.dll
 0001:0007fe2a       _SetConsoleCtrlHandler@8   03080e2a f   kernel32:KERNEL32.dll
 0001:0007fe30       _InterlockedExchange@8     03080e30 f   kernel32:KERNEL32.dll
 0001:0007fe36       _SetFilePointer@16         03080e36 f   kernel32:KERNEL32.dll
 0001:0007fe3c       _GetConsoleCP@0            03080e3c f   kernel32:KERNEL32.dll
 0001:0007fe42       _GetConsoleMode@8          03080e42 f   kernel32:KERNEL32.dll
 0001:0007fe48       _GetStringTypeA@20         03080e48 f   kernel32:KERNEL32.dll
 0001:0007fe4e       _GetStringTypeW@16         03080e4e f   kernel32:KERNEL32.dll
 0001:0007fe54       _GetTimeFormatA@24         03080e54 f   kernel32:KERNEL32.dll
 0001:0007fe5a       _GetDateFormatA@24         03080e5a f   kernel32:KERNEL32.dll
 0001:0007fe60       _GetUserDefaultLCID@0      03080e60 f   kernel32:KERNEL32.dll
 0001:0007fe66       _GetLocaleInfoA@16         03080e66 f   kernel32:KERNEL32.dll
 0001:0007fe6c       _EnumSystemLocalesA@8      03080e6c f   kernel32:KERNEL32.dll
 0001:0007fe72       _IsValidLocale@8           03080e72 f   kernel32:KERNEL32.dll
 0001:0007fe78       _SetStdHandle@8            03080e78 f   kernel32:KERNEL32.dll
 0001:0007fe7e       _FlushFileBuffers@4        03080e7e f   kernel32:KERNEL32.dll
 0001:0007fe84       _CreateFileA@28            03080e84 f   kernel32:KERNEL32.dll
 0001:0007fe8a       _GetLocaleInfoW@16         03080e8a f   kernel32:KERNEL32.dll
 0001:0007fe90       _ReadFile@20               03080e90 f   kernel32:KERNEL32.dll
 0001:0007fe96       _WriteConsoleA@20          03080e96 f   kernel32:KERNEL32.dll
 0001:0007fe9c       _GetConsoleOutputCP@0      03080e9c f   kernel32:KERNEL32.dll
 0001:0007fea2       _WriteConsoleW@20          03080ea2 f   kernel32:KERNEL32.dll
 0001:0007fea8       _SetEndOfFile@4            03080ea8 f   kernel32:KERNEL32.dll
 0001:0007feae       _GetProcessHeap@0          03080eae f   kernel32:KERNEL32.dll
 0001:0007feb4       _CompareStringA@24         03080eb4 f   kernel32:KERNEL32.dll
 0001:0007feba       _CompareStringW@24         03080eba f   kernel32:KERNEL32.dll
 0001:0007fec0       _SetEnvironmentVariableA@8 03080ec0 f   kernel32:KERNEL32.dll
 0001:00080044       __strupr_s_l               03081044 f   LIBCMT:strupr.obj
 0001:00080079       __strupr_s                 03081079 f   LIBCMT:strupr.obj
 0001:00080090       __strupr_l                 03081090 f   LIBCMT:strupr.obj
 0001:000800aa       __strupr                   030810aa f   LIBCMT:strupr.obj
 0001:000800aa       _strupr                    030810aa f   LIBCMT:strupr.obj
 0002:00000000       __imp__HeapReAlloc@16      03082000     kernel32:KERNEL32.dll
 0002:00000004       __imp__CompareStringW@24   03082004     kernel32:KERNEL32.dll
 0002:00000008       __imp__EnterCriticalSection@4 03082008     kernel32:KERNEL32.dll
 0002:0000000c       __imp__LeaveCriticalSection@4 0308200c     kernel32:KERNEL32.dll
 0002:00000010       __imp__DeleteCriticalSection@4 03082010     kernel32:KERNEL32.dll
 0002:00000014       __imp__GetTickCount@0      03082014     kernel32:KERNEL32.dll
 0002:00000018       __imp__InitializeCriticalSection@4 03082018     kernel32:KERNEL32.dll
 0002:0000001c       __imp__GetProcAddress@8    0308201c     kernel32:KERNEL32.dll
 0002:00000020       __imp__GetModuleHandleA@4  03082020     kernel32:KERNEL32.dll
 0002:00000024       __imp__GetPrivateProfileStringA@24 03082024     kernel32:KERNEL32.dll
 0002:00000028       __imp__FindClose@4         03082028     kernel32:KERNEL32.dll
 0002:0000002c       __imp__FindNextFileA@8     0308202c     kernel32:KERNEL32.dll
 0002:00000030       __imp__FindFirstFileA@8    03082030     kernel32:KERNEL32.dll
 0002:00000034       __imp__Beep@8              03082034     kernel32:KERNEL32.dll
 0002:00000038       __imp__WritePrivateProfileStringA@16 03082038     kernel32:KERNEL32.dll
 0002:0000003c       __imp__CreateThread@24     0308203c     kernel32:KERNEL32.dll
 0002:00000040       __imp__OutputDebugStringA@4 03082040     kernel32:KERNEL32.dll
 0002:00000044       __imp__FileTimeToSystemTime@8 03082044     kernel32:KERNEL32.dll
 0002:00000048       __imp__WriteProcessMemory@20 03082048     kernel32:KERNEL32.dll
 0002:0000004c       __imp__VirtualProtectEx@20 0308204c     kernel32:KERNEL32.dll
 0002:00000050       __imp__GetCurrentProcess@0 03082050     kernel32:KERNEL32.dll
 0002:00000054       __imp__GetPrivateProfileIntA@16 03082054     kernel32:KERNEL32.dll
 0002:00000058       __imp__Sleep@4             03082058     kernel32:KERNEL32.dll
 0002:0000005c       __imp__GetModuleFileNameA@12 0308205c     kernel32:KERNEL32.dll
 0002:00000060       __imp__FreeLibrary@4       03082060     kernel32:KERNEL32.dll
 0002:00000064       __imp__LoadLibraryA@4      03082064     kernel32:KERNEL32.dll
 0002:00000068       __imp__WritePrivateProfileSectionA@12 03082068     kernel32:KERNEL32.dll
 0002:0000006c       __imp__CompareStringA@24   0308206c     kernel32:KERNEL32.dll
 0002:00000070       __imp__GetProcessHeap@0    03082070     kernel32:KERNEL32.dll
 0002:00000074       __imp__SetEndOfFile@4      03082074     kernel32:KERNEL32.dll
 0002:00000078       __imp__WriteConsoleW@20    03082078     kernel32:KERNEL32.dll
 0002:0000007c       __imp__GetConsoleOutputCP@0 0308207c     kernel32:KERNEL32.dll
 0002:00000080       __imp__WriteConsoleA@20    03082080     kernel32:KERNEL32.dll
 0002:00000084       __imp__ReadFile@20         03082084     kernel32:KERNEL32.dll
 0002:00000088       __imp__SetLastError@4      03082088     kernel32:KERNEL32.dll
 0002:0000008c       __imp__VirtualProtect@16   0308208c     kernel32:KERNEL32.dll
 0002:00000090       __imp__FlushInstructionCache@12 03082090     kernel32:KERNEL32.dll
 0002:00000094       __imp__VirtualQuery@12     03082094     kernel32:KERNEL32.dll
 0002:00000098       __imp__GetLastError@0      03082098     kernel32:KERNEL32.dll
 0002:0000009c       __imp__HeapFree@12         0308209c     kernel32:KERNEL32.dll
 0002:000000a0       __imp__HeapAlloc@12        030820a0     kernel32:KERNEL32.dll
 0002:000000a4       __imp__TerminateProcess@8  030820a4     kernel32:KERNEL32.dll
 0002:000000a8       __imp__UnhandledExceptionFilter@4 030820a8     kernel32:KERNEL32.dll
 0002:000000ac       __imp__SetUnhandledExceptionFilter@4 030820ac     kernel32:KERNEL32.dll
 0002:000000b0       __imp__IsDebuggerPresent@0 030820b0     kernel32:KERNEL32.dll
 0002:000000b4       __imp__RaiseException@16   030820b4     kernel32:KERNEL32.dll
 0002:000000b8       __imp__RtlUnwind@16        030820b8     kernel32:KERNEL32.dll
 0002:000000bc       __imp__CreateDirectoryA@8  030820bc     kernel32:KERNEL32.dll
 0002:000000c0       __imp__GetSystemTimeAsFileTime@4 030820c0     kernel32:KERNEL32.dll
 0002:000000c4       __imp__GetFileAttributesA@4 030820c4     kernel32:KERNEL32.dll
 0002:000000c8       __imp__DeleteFileA@4       030820c8     kernel32:KERNEL32.dll
 0002:000000cc       __imp__GetCurrentThreadId@0 030820cc     kernel32:KERNEL32.dll
 0002:000000d0       __imp__GetCommandLineA@0   030820d0     kernel32:KERNEL32.dll
 0002:000000d4       __imp__HeapCreate@12       030820d4     kernel32:KERNEL32.dll
 0002:000000d8       __imp__HeapDestroy@4       030820d8     kernel32:KERNEL32.dll
 0002:000000dc       __imp__VirtualFree@12      030820dc     kernel32:KERNEL32.dll
 0002:000000e0       __imp__FatalAppExitA@8     030820e0     kernel32:KERNEL32.dll
 0002:000000e4       __imp__VirtualAlloc@16     030820e4     kernel32:KERNEL32.dll
 0002:000000e8       __imp__SetEnvironmentVariableA@8 030820e8     kernel32:KERNEL32.dll
 0002:000000ec       __imp__GetModuleHandleW@4  030820ec     kernel32:KERNEL32.dll
 0002:000000f0       __imp__ExitProcess@4       030820f0     kernel32:KERNEL32.dll
 0002:000000f4       __imp__WriteFile@20        030820f4     kernel32:KERNEL32.dll
 0002:000000f8       __imp__GetStdHandle@4      030820f8     kernel32:KERNEL32.dll
 0002:000000fc       __imp__TlsGetValue@4       030820fc     kernel32:KERNEL32.dll
 0002:00000100       __imp__TlsAlloc@0          03082100     kernel32:KERNEL32.dll
 0002:00000104       __imp__TlsSetValue@8       03082104     kernel32:KERNEL32.dll
 0002:00000108       __imp__TlsFree@4           03082108     kernel32:KERNEL32.dll
 0002:0000010c       __imp__InterlockedIncrement@4 0308210c     kernel32:KERNEL32.dll
 0002:00000110       __imp__InterlockedDecrement@4 03082110     kernel32:KERNEL32.dll
 0002:00000114       __imp__GetCurrentThread@0  03082114     kernel32:KERNEL32.dll
 0002:00000118       __imp__GetCPInfo@8         03082118     kernel32:KERNEL32.dll
 0002:0000011c       __imp__GetACP@0            0308211c     kernel32:KERNEL32.dll
 0002:00000120       __imp__GetOEMCP@0          03082120     kernel32:KERNEL32.dll
 0002:00000124       __imp__IsValidCodePage@4   03082124     kernel32:KERNEL32.dll
 0002:00000128       __imp__CloseHandle@4       03082128     kernel32:KERNEL32.dll
 0002:0000012c       __imp__SetHandleCount@4    0308212c     kernel32:KERNEL32.dll
 0002:00000130       __imp__GetFileType@4       03082130     kernel32:KERNEL32.dll
 0002:00000134       __imp__GetStartupInfoA@4   03082134     kernel32:KERNEL32.dll
 0002:00000138       __imp__LCMapStringA@24     03082138     kernel32:KERNEL32.dll
 0002:0000013c       __imp__WideCharToMultiByte@32 0308213c     kernel32:KERNEL32.dll
 0002:00000140       __imp__MultiByteToWideChar@24 03082140     kernel32:KERNEL32.dll
 0002:00000144       __imp__LCMapStringW@24     03082144     kernel32:KERNEL32.dll
 0002:00000148       __imp__GetTimeZoneInformation@4 03082148     kernel32:KERNEL32.dll
 0002:0000014c       __imp__HeapSize@12         0308214c     kernel32:KERNEL32.dll
 0002:00000150       __imp__FreeEnvironmentStringsA@4 03082150     kernel32:KERNEL32.dll
 0002:00000154       __imp__GetEnvironmentStrings@0 03082154     kernel32:KERNEL32.dll
 0002:00000158       __imp__FreeEnvironmentStringsW@4 03082158     kernel32:KERNEL32.dll
 0002:0000015c       __imp__GetEnvironmentStringsW@0 0308215c     kernel32:KERNEL32.dll
 0002:00000160       __imp__QueryPerformanceCounter@4 03082160     kernel32:KERNEL32.dll
 0002:00000164       __imp__GetCurrentProcessId@0 03082164     kernel32:KERNEL32.dll
 0002:00000168       __imp__InitializeCriticalSectionAndSpinCount@8 03082168     kernel32:KERNEL32.dll
 0002:0000016c       __imp__SetConsoleCtrlHandler@8 0308216c     kernel32:KERNEL32.dll
 0002:00000170       __imp__InterlockedExchange@8 03082170     kernel32:KERNEL32.dll
 0002:00000174       __imp__SetFilePointer@16   03082174     kernel32:KERNEL32.dll
 0002:00000178       __imp__GetConsoleCP@0      03082178     kernel32:KERNEL32.dll
 0002:0000017c       __imp__GetConsoleMode@8    0308217c     kernel32:KERNEL32.dll
 0002:00000180       __imp__GetStringTypeA@20   03082180     kernel32:KERNEL32.dll
 0002:00000184       __imp__GetStringTypeW@16   03082184     kernel32:KERNEL32.dll
 0002:00000188       __imp__GetTimeFormatA@24   03082188     kernel32:KERNEL32.dll
 0002:0000018c       __imp__GetDateFormatA@24   0308218c     kernel32:KERNEL32.dll
 0002:00000190       __imp__GetUserDefaultLCID@0 03082190     kernel32:KERNEL32.dll
 0002:00000194       __imp__GetLocaleInfoA@16   03082194     kernel32:KERNEL32.dll
 0002:00000198       __imp__EnumSystemLocalesA@8 03082198     kernel32:KERNEL32.dll
 0002:0000019c       __imp__IsValidLocale@8     0308219c     kernel32:KERNEL32.dll
 0002:000001a0       __imp__SetStdHandle@8      030821a0     kernel32:KERNEL32.dll
 0002:000001a4       __imp__FlushFileBuffers@4  030821a4     kernel32:KERNEL32.dll
 0002:000001a8       __imp__CreateFileA@28      030821a8     kernel32:KERNEL32.dll
 0002:000001ac       __imp__GetLocaleInfoW@16   030821ac     kernel32:KERNEL32.dll
 0002:000001b0       \177KERNEL32_NULL_THUNK_DATA 030821b0     kernel32:KERNEL32.dll
 0002:000001b4       __imp__ShellExecuteA@24    030821b4     shell32:SHELL32.dll
 0002:000001b8       \177SHELL32_NULL_THUNK_DATA 030821b8     shell32:SHELL32.dll
 0002:000001bc       __imp__UnhookWindowsHookEx@4 030821bc     user32:USER32.dll
 0002:000001c0       __imp__SetWindowsHookExA@16 030821c0     user32:USER32.dll
 0002:000001c4       __imp__MessageBoxA@16      030821c4     user32:USER32.dll
 0002:000001c8       __imp__CallNextHookEx@16   030821c8     user32:USER32.dll
 0002:000001cc       \177USER32_NULL_THUNK_DATA 030821cc     user32:USER32.dll
 0002:000001d0       __imp__PlaySoundA@12       030821d0     winmm:WINMM.dll
 0002:000001d4       \177WINMM_NULL_THUNK_DATA  030821d4     winmm:WINMM.dll
 0002:000001d8       ___xc_a                    030821d8     LIBCMT:crt0init.obj
 0002:0000020c       ___xc_z                    0308220c     LIBCMT:crt0init.obj
 0002:00000210       ___xi_a                    03082210     LIBCMT:crt0init.obj
 0002:0000022c       ___xi_z                    0308222c     LIBCMT:crt0init.obj
 0002:00000230       ___xp_a                    03082230     LIBCMT:crt0init.obj
 0002:0000023c       ___xp_z                    0308223c     LIBCMT:crt0init.obj
 0002:00000240       ___xt_a                    03082240     LIBCMT:crt0init.obj
 0002:00000244       ___xt_z                    03082244     LIBCMT:crt0init.obj
 0002:0000026c       ??_C@_03BMIBANNE@ber?$AA@  0308226c     EQClasses.obj
 0002:00000270       ??_C@_09MHCCJHFP@Berserker?$AA@ 03082270     EQClasses.obj
 0002:0000027c       ??_C@_03FCHAHFJA@bst?$AA@  0308227c     EQClasses.obj
 0002:00000280       ??_C@_09KINPMODP@Beastlord?$AA@ 03082280     EQClasses.obj
 0002:0000028c       ??_C@_03NONKPJJM@enc?$AA@  0308228c     EQClasses.obj
 0002:00000290       ??_C@_09EEJIJECG@Enchanter?$AA@ 03082290     EQClasses.obj
 0002:0000029c       ??_C@_03HEFOFDEK@mag?$AA@  0308229c     EQClasses.obj
 0002:000002a0       ??_C@_04EPDGEGDL@Mage?$AA@ 030822a0     EQClasses.obj
 0002:000002a8       ??_C@_03LKIFNJBF@wiz?$AA@  030822a8     EQClasses.obj
 0002:000002ac       ??_C@_06MNAGNDLP@Wizard?$AA@ 030822ac     EQClasses.obj
 0002:000002b4       ??_C@_03FIOJBHM@nec?$AA@   030822b4     EQClasses.obj
 0002:000002b8       ??_C@_0M@OEPIPDJH@Necromancer?$AA@ 030822b8     EQClasses.obj
 0002:000002c4       ??_C@_03DBKGKAOD@shm?$AA@  030822c4     EQClasses.obj
 0002:000002c8       ??_C@_06ELHMMIIB@Shaman?$AA@ 030822c8     EQClasses.obj
 0002:000002d0       ??_C@_03HGLKDJIJ@rog?$AA@  030822d0     EQClasses.obj
 0002:000002d4       ??_C@_05PIFIONNP@Rogue?$AA@ 030822d4     EQClasses.obj
 0002:000002dc       ??_C@_03BJHAANPG@brd?$AA@  030822dc     EQClasses.obj
 0002:000002e0       ??_C@_04MOJAIBDA@Bard?$AA@ 030822e0     EQClasses.obj
 0002:000002e8       ??_C@_03NDLHFLHL@mnk?$AA@  030822e8     EQClasses.obj
 0002:000002ec       ??_C@_04DOLLCHAJ@Monk?$AA@ 030822ec     EQClasses.obj
 0002:000002f4       ??_C@_03GPMCHBDK@dru?$AA@  030822f4     EQClasses.obj
 0002:000002f8       ??_C@_05EDJAKLCL@Druid?$AA@ 030822f8     EQClasses.obj
 0002:00000300       ??_C@_03OAGEBLKK@shd?$AA@  03082300     EQClasses.obj
 0002:00000304       ??_C@_0N@ICIHEJOD@Shadowknight?$AA@ 03082304     EQClasses.obj
 0002:00000314       ??_C@_03HHHIFDLO@rng?$AA@  03082314     EQClasses.obj
 0002:00000318       ??_C@_06MGJHBAMJ@Ranger?$AA@ 03082318     EQClasses.obj
 0002:00000320       ??_C@_03DFNJAFMD@pal?$AA@  03082320     EQClasses.obj
 0002:00000324       ??_C@_07DBGCNDAP@Paladin?$AA@ 03082324     EQClasses.obj
 0002:0000032c       ??_C@_03KLOMFBDO@clr?$AA@  0308232c     EQClasses.obj
 0002:00000330       ??_C@_06PBHENIKF@Cleric?$AA@ 03082330     EQClasses.obj
 0002:00000338       ??_C@_03HMEPACKF@war?$AA@  03082338     EQClasses.obj
 0002:0000033c       ??_C@_07DFKLKNJN@Warrior?$AA@ 0308233c     EQClasses.obj
 0002:00000344       ??_C@_00CNPNBAHC@?$AA@     03082344     EQClasses.obj
 0002:00000348       ??_C@_0P@GHFPNOJB@bad?5allocation?$AA@ 03082348     EQClasses.obj
 0002:00000358       ?collate@?$_Locbase@H@std@@2HB 03082358     EQClasses.obj
 0002:0000035c       ?ctype@?$_Locbase@H@std@@2HB 0308235c     EQClasses.obj
 0002:00000360       ?monetary@?$_Locbase@H@std@@2HB 03082360     EQClasses.obj
 0002:00000364       ?numeric@?$_Locbase@H@std@@2HB 03082364     EQClasses.obj
 0002:00000368       ?time@?$_Locbase@H@std@@2HB 03082368     EQClasses.obj
 0002:0000036c       ?messages@?$_Locbase@H@std@@2HB 0308236c     EQClasses.obj
 0002:00000370       ?all@?$_Locbase@H@std@@2HB 03082370     EQClasses.obj
 0002:00000374       ?none@?$_Locbase@H@std@@2HB 03082374     EQClasses.obj
 0002:00000378       ?table_size@?$ctype@D@std@@2IB 03082378     EQClasses.obj
 0002:0000037c       ?skipws@?$_Iosb@H@std@@2W4_Fmtflags@12@B 0308237c     EQClasses.obj
 0002:00000380       ?unitbuf@?$_Iosb@H@std@@2W4_Fmtflags@12@B 03082380     EQClasses.obj
 0002:00000384       ?uppercase@?$_Iosb@H@std@@2W4_Fmtflags@12@B 03082384     EQClasses.obj
 0002:00000388       ?showbase@?$_Iosb@H@std@@2W4_Fmtflags@12@B 03082388     EQClasses.obj
 0002:0000038c       ?showpoint@?$_Iosb@H@std@@2W4_Fmtflags@12@B 0308238c     EQClasses.obj
 0002:00000390       ?showpos@?$_Iosb@H@std@@2W4_Fmtflags@12@B 03082390     EQClasses.obj
 0002:00000394       ?left@?$_Iosb@H@std@@2W4_Fmtflags@12@B 03082394     EQClasses.obj
 0002:00000398       ?right@?$_Iosb@H@std@@2W4_Fmtflags@12@B 03082398     EQClasses.obj
 0002:0000039c       ?internal@?$_Iosb@H@std@@2W4_Fmtflags@12@B 0308239c     EQClasses.obj
 0002:000003a0       ?dec@?$_Iosb@H@std@@2W4_Fmtflags@12@B 030823a0     EQClasses.obj
 0002:000003a4       ?oct@?$_Iosb@H@std@@2W4_Fmtflags@12@B 030823a4     EQClasses.obj
 0002:000003a8       ?hex@?$_Iosb@H@std@@2W4_Fmtflags@12@B 030823a8     EQClasses.obj
 0002:000003ac       ?scientific@?$_Iosb@H@std@@2W4_Fmtflags@12@B 030823ac     EQClasses.obj
 0002:000003b0       ?fixed@?$_Iosb@H@std@@2W4_Fmtflags@12@B 030823b0     EQClasses.obj
 0002:000003b4       ?hexfloat@?$_Iosb@H@std@@2W4_Fmtflags@12@B 030823b4     EQClasses.obj
 0002:000003b8       ?boolalpha@?$_Iosb@H@std@@2W4_Fmtflags@12@B 030823b8     EQClasses.obj
 0002:000003bc       ?_Stdio@?$_Iosb@H@std@@2W4_Fmtflags@12@B 030823bc     EQClasses.obj
 0002:000003c0       ?adjustfield@?$_Iosb@H@std@@2W4_Fmtflags@12@B 030823c0     EQClasses.obj
 0002:000003c4       ?basefield@?$_Iosb@H@std@@2W4_Fmtflags@12@B 030823c4     EQClasses.obj
 0002:000003c8       ?floatfield@?$_Iosb@H@std@@2W4_Fmtflags@12@B 030823c8     EQClasses.obj
 0002:000003cc       ?goodbit@?$_Iosb@H@std@@2W4_Iostate@12@B 030823cc     EQClasses.obj
 0002:000003d0       ?eofbit@?$_Iosb@H@std@@2W4_Iostate@12@B 030823d0     EQClasses.obj
 0002:000003d4       ?failbit@?$_Iosb@H@std@@2W4_Iostate@12@B 030823d4     EQClasses.obj
 0002:000003d8       ?badbit@?$_Iosb@H@std@@2W4_Iostate@12@B 030823d8     EQClasses.obj
 0002:000003dc       ?_Hardfail@?$_Iosb@H@std@@2W4_Iostate@12@B 030823dc     EQClasses.obj
 0002:000003e0       ?in@?$_Iosb@H@std@@2W4_Openmode@12@B 030823e0     EQClasses.obj
 0002:000003e4       ?out@?$_Iosb@H@std@@2W4_Openmode@12@B 030823e4     EQClasses.obj
 0002:000003e8       ?ate@?$_Iosb@H@std@@2W4_Openmode@12@B 030823e8     EQClasses.obj
 0002:000003ec       ?app@?$_Iosb@H@std@@2W4_Openmode@12@B 030823ec     EQClasses.obj
 0002:000003f0       ?trunc@?$_Iosb@H@std@@2W4_Openmode@12@B 030823f0     EQClasses.obj
 0002:000003f4       ?_Nocreate@?$_Iosb@H@std@@2W4_Openmode@12@B 030823f4     EQClasses.obj
 0002:000003f8       ?_Noreplace@?$_Iosb@H@std@@2W4_Openmode@12@B 030823f8     EQClasses.obj
 0002:000003fc       ?binary@?$_Iosb@H@std@@2W4_Openmode@12@B 030823fc     EQClasses.obj
 0002:00000400       ?beg@?$_Iosb@H@std@@2W4_Seekdir@12@B 03082400     EQClasses.obj
 0002:00000404       ?cur@?$_Iosb@H@std@@2W4_Seekdir@12@B 03082404     EQClasses.obj
 0002:00000408       ?end@?$_Iosb@H@std@@2W4_Seekdir@12@B 03082408     EQClasses.obj
 0002:0000040c       ??_C@_0BF@KHBKOLEE@RemoveMQ2Benchmark?$CI?$CJ?$AA@ 0308240c     MQ2Benchmarks.obj
 0002:00000424       ??_C@_0P@BKIFDMBL@End?5Benchmarks?$AA@ 03082424     MQ2Benchmarks.obj
 0002:00000434       ??_C@_0CL@MCBOHMMP@?$FL?$AHy?$CFs?$AHx?$FN?5?$AHt?$CFd?$AHx?5for?5?$AHt?$CFd?$AHxms?0?5?$AHt@ 03082434     MQ2Benchmarks.obj
 0002:00000460       __real@00000000            03082460     MQ2Benchmarks.obj
 0002:00000464       ??_C@_0P@NMDNEMOJ@?9?9?9?9?9?9?9?9?9?9?9?9?9?9?$AA@ 03082464     MQ2Benchmarks.obj
 0002:00000474       ??_C@_0P@IBCBOIHC@MQ2?5Benchmarks?$AA@ 03082474     MQ2Benchmarks.obj
 0002:00000484       ??_C@_0BO@DLFCFMCM@?$AHy?$CFs?$AHx?5completed?5in?5?$AHt?$CF?42f?$AHxs?$AA@ 03082484     MQ2Benchmarks.obj
 0002:000004a8       __real@408f400000000000    030824a8     MQ2Benchmarks.obj
 0002:000004b0       __real@4f800000            030824b0     MQ2Benchmarks.obj
 0002:000004b4       ??_C@_0BN@PEBLFLBM@?$CF?940s?5?5?$CFd?5for?5?$CFdms?0?5?$CF?42f?5avg?$AA@ 030824b4     MQ2Benchmarks.obj
 0002:000004d4       ??_C@_0BE@CGLBCDCF@AddMQ2Benchmark?$CI?$CFs?$CJ?$AA@ 030824d4     MQ2Benchmarks.obj
 0002:000004e8       ??_C@_0L@OKCGGBKK@?1benchmark?$AA@ 030824e8     MQ2Benchmarks.obj
 0002:000004f4       ??_C@_0BM@HIBOGONL@Initializing?5MQ2?5Benchmarks?$AA@ 030824f4     MQ2Benchmarks.obj
 0002:00000510       ??_C@_0BN@OHNHPACO@Shutting?5down?5MQ2?5Benchmarks?$AA@ 03082510     MQ2Benchmarks.obj
 0002:00000534       ??_7bad_alloc@std@@6B@     03082534     MQ2ChatHook.obj
 0002:0000053c       ??_C@_0BA@GBDCPMBP@Lax?1Blech?51?47?44?$AA@ 0308253c     MQ2ChatHook.obj
 0002:0000054c       ??_C@_0BD@KHILPCBD@?$CFs?5tells?5you?0?5?8?$CFs?8?$AA@ 0308254c     MQ2ChatHook.obj
 0002:00000564       ??_7logic_error@std@@6B@   03082564     MQ2ChatHook.obj
 0002:00000570       ??_7out_of_range@std@@6B@  03082570     MQ2ChatHook.obj
 0002:00000578       ??_C@_0BM@PAPJHAGI@invalid?5map?1set?$DMT?$DO?5iterator?$AA@ 03082578     MQ2ChatHook.obj
 0002:00000594       ??_C@_02DKCKIIND@?$CFs?$AA@ 03082594     MQ2ChatHook.obj
 0002:00000598       ??_C@_0BH@MBDMBCCK@Initializing?5chat?5hook?$AA@ 03082598     MQ2ChatHook.obj
 0002:000005b0       ??_C@_0CJ@PFOKGMKL@MQ2?3?5Think?5of?5it?5as?5evolution?5in@ 030825b0     MQ2CleanUI.obj
 0002:000005dc       ??_C@_0BM@IFDPPKEL@Shutting?5down?5Display?5Hooks?$AA@ 030825dc     MQ2CleanUI.obj
 0002:000005f8       ??_C@_0BF@BIGKCLNP@Compat_DrawIndicator?$AA@ 030825f8     MQ2CleanUI.obj
 0002:00000610       ??_C@_0P@KNCDKOBN@EQPlayNice?4dll?$AA@ 03082610     MQ2CleanUI.obj
 0002:00000620       ??_C@_0BL@PDEFKKAN@Initializing?5Display?5Hooks?$AA@ 03082620     MQ2CleanUI.obj
 0002:0000063c       ??_C@_0CA@FCCFHNIH@DoCommand?5?9?5Couldn?8t?5parse?5?8?$CFs?8?$AA@ 0308263c     MQ2CommandAPI.obj
 0002:0000065c       ??_C@_0CC@GOBCALFN@Flow?5ran?5into?5another?5subroutine@ 0308265c     MQ2CommandAPI.obj
 0002:00000680       ??_C@_04FJJPJLP@sub?5?$AA@ 03082680     MQ2CommandAPI.obj
 0002:00000688       ??_C@_0BP@KIHJNNGN@no?5command?5or?5?$HL?5following?5else?$AA@ 03082688     MQ2CommandAPI.obj
 0002:000006a8       ??_C@_0DG@NJPAAPCP@?$HN?5and?5?$HL?5seen?5on?5the?5same?5line?5wi@ 030826a8     MQ2CommandAPI.obj
 0002:000006e0       ??_C@_04FHMCPBIP@else?$AA@ 030826e0     MQ2CommandAPI.obj
 0002:000006e8       ??_C@_01HCONENDN@?$HL?$AA@ 030826e8     MQ2CommandAPI.obj
 0002:000006ec       ??_C@_04HDOCAJNK@?$CFs?$CFs?$AA@ 030826ec     MQ2CommandAPI.obj
 0002:000006f4       ??_C@_0BE@MCKKGAJC@AddCommand?$CI?$CFs?00x?$CFX?$CJ?$AA@ 030826f4     MQ2CommandAPI.obj
 0002:00000708       ??_C@_0CG@MENHPNJK@RemoveCommand?3?5Command?5not?5found@ 03082708     MQ2CommandAPI.obj
 0002:00000730       ??_C@_0BA@OEDMGGGL@AddAlias?$CI?$CFs?0?$CFs?$CJ?$AA@ 03082730     MQ2CommandAPI.obj
 0002:00000740       ??_C@_0BF@PBPJDONC@AddSubstitute?$CI?$CFs?0?$CFs?$CJ?$AA@ 03082740     MQ2CommandAPI.obj
 0002:00000758       ??_C@_01CLKCMJKC@?5?$AA@   03082758     MQ2CommandAPI.obj
 0002:00000760       ??_C@_0FE@ILGAEGAN@A?5macro?5is?5currently?5running?4?5?5Y@ 03082760     MQ2CommandAPI.obj
 0002:000007b4       ??_C@_05IKPPFFMB@?1camp?$AA@ 030827b4     MQ2CommandAPI.obj
 0002:000007bc       ??_C@_0BJ@NGFEJMIF@CCommandHook?3?3Detour?$CI?$CFs?$CJ?$AA@ 030827bc     MQ2CommandAPI.obj
 0002:000007d8       ??_C@_0O@MJPLGCNG@Substitutions?$AA@ 030827d8     MQ2CommandAPI.obj
 0002:000007e8       ??_C@_03NHENGCKF@omg?$AA@  030827e8     MQ2CommandAPI.obj
 0002:000007ec       ??_C@_09OBOAKPMA@Oh?5My?5God?$AA@ 030827ec     MQ2CommandAPI.obj
 0002:000007f8       ??_C@_07ILNBOIJH@Aliases?$AA@ 030827f8     MQ2CommandAPI.obj
 0002:00000800       ??_C@_0BC@NGKFKJCB@?$CFs?2macroquest?4ini?$AA@ 03082800     MQ2CommandAPI.obj
 0002:00000814       ??_C@_06LKADFLEI@?1newif?$AA@ 03082814     MQ2CommandAPI.obj
 0002:0000081c       ??_C@_02COKGDMEE@?1r?$AA@  0308281c     MQ2CommandAPI.obj
 0002:00000820       ??_C@_06JIFBGNGE@?1reply?$AA@ 03082820     MQ2CommandAPI.obj
 0002:00000828       ??_C@_04CGIKALEB@?1key?$AA@ 03082828     MQ2CommandAPI.obj
 0002:00000830       ??_C@_05FOPNBDI@?1keys?$AA@ 03082830     MQ2CommandAPI.obj
 0002:00000838       ??_C@_03DJDKMPJN@?1gu?$AA@ 03082838     MQ2CommandAPI.obj
 0002:0000083c       ??_C@_09LNFJMHAN@?1guildsay?$AA@ 0308283c     MQ2CommandAPI.obj
 0002:00000848       ??_C@_02BJBDNKFA@?1g?$AA@  03082848     MQ2CommandAPI.obj
 0002:0000084c       ??_C@_05FNLHCODI@?1gsay?$AA@ 0308284c     MQ2CommandAPI.obj
 0002:00000854       ??_C@_03BBFPNKCD@?1ba?$AA@ 03082854     MQ2CommandAPI.obj
 0002:00000858       ??_C@_02GEGECOBF@?1b?$AA@  03082858     MQ2CommandAPI.obj
 0002:0000085c       ??_C@_07BOOADDE@?1bazaar?$AA@ 0308285c     MQ2CommandAPI.obj
 0002:00000864       ??_C@_05MPMEJLBC@?1load?$AA@ 03082864     MQ2CommandAPI.obj
 0002:0000086c       ??_C@_02ODPMDCNK@?1m?$AA@  0308286c     MQ2CommandAPI.obj
 0002:00000870       ??_C@_04MPALLEIA@?1msg?$AA@ 03082870     MQ2CommandAPI.obj
 0002:00000878       ??_C@_03BGFGHCPP@?1fa?$AA@ 03082878     MQ2CommandAPI.obj
 0002:0000087c       ??_C@_09BNBIFOMP@?1fastdrop?$AA@ 0308287c     MQ2CommandAPI.obj
 0002:00000888       ??_C@_02IOLBB@?1f?$AA@     03082888     MQ2CommandAPI.obj
 0002:0000088c       ??_C@_09PDEKMEHF@?1feedback?$AA@ 0308288c     MQ2CommandAPI.obj
 0002:00000898       ??_C@_04GJPNCIKE@?1cha?$AA@ 03082898     MQ2CommandAPI.obj
 0002:000008a0       ??_C@_08BLIELLHK@?1channel?$AA@ 030828a0     MQ2CommandAPI.obj
 0002:000008ac       ??_C@_02HNHPBPFE@?1c?$AA@  030828ac     MQ2CommandAPI.obj
 0002:000008b0       ??_C@_09OLEKOPKC@?1consider?$AA@ 030828b0     MQ2CommandAPI.obj
 0002:000008bc       ??_C@_03JPEAFOB@?1ta?$AA@  030828bc     MQ2CommandAPI.obj
 0002:000008c0       ??_C@_04PIDLFPBN@?1tap?$AA@ 030828c0     MQ2CommandAPI.obj
 0002:000008c8       ??_C@_02EPEJHNNG@?1a?$AA@  030828c8     MQ2CommandAPI.obj
 0002:000008cc       ??_C@_0L@IBDIANPL@?1anonymous?$AA@ 030828cc     MQ2CommandAPI.obj
 0002:000008d8       ??_C@_02FDNBMIAB@?1w?$AA@  030828d8     MQ2CommandAPI.obj
 0002:000008dc       ??_C@_02HIPMJLMC@?1t?$AA@  030828dc     MQ2CommandAPI.obj
 0002:000008e0       ??_C@_05DAOILOGO@?1tell?$AA@ 030828e0     MQ2CommandAPI.obj
 0002:000008e8       ??_C@_02DCDOIJJD@?1d?$AA@  030828e8     MQ2CommandAPI.obj
 0002:000008ec       ??_C@_05PMAEFPM@?1duel?$AA@ 030828ec     MQ2CommandAPI.obj
 0002:000008f4       ??_C@_09BMPONNKE@?1nomodkey?$AA@ 030828f4     MQ2CommandAPI.obj
 0002:00000900       ??_C@_08NMFKFKGG@?1noparse?$AA@ 03082900     MQ2CommandAPI.obj
 0002:0000090c       ??_C@_0O@CMAIFLBK@?1captioncolor?$AA@ 0308290c     MQ2CommandAPI.obj
 0002:0000091c       ??_C@_08MOLAHPFJ@?1caption?$AA@ 0308291c     MQ2CommandAPI.obj
 0002:00000928       ??_C@_04NHHFGLMD@?1hud?$AA@ 03082928     MQ2CommandAPI.obj
 0002:00000930       ??_C@_05HJPHKFMO@?1drop?$AA@ 03082930     MQ2CommandAPI.obj
 0002:00000938       ??_C@_0N@NPHAFMPN@?1clearerrors?$AA@ 03082938     MQ2CommandAPI.obj
 0002:00000948       ??_C@_08CMFBMEJP@?1combine?$AA@ 03082948     MQ2CommandAPI.obj
 0002:00000954       ??_C@_03FCELKDAF@?1if?$AA@ 03082954     MQ2CommandAPI.obj
 0002:00000958       ??_C@_06NJDGLLKJ@?1timed?$AA@ 03082958     MQ2CommandAPI.obj
 0002:00000960       ??_C@_09PIBEJDMC@?1shiftkey?$AA@ 03082960     MQ2CommandAPI.obj
 0002:0000096c       ??_C@_07LIOICFGF@?1altkey?$AA@ 0308296c     MQ2CommandAPI.obj
 0002:00000974       ??_C@_08EEBDHILD@?1ctrlkey?$AA@ 03082974     MQ2CommandAPI.obj
 0002:00000980       ??_C@_0L@OMNKDDLO@?1docommand?$AA@ 03082980     MQ2CommandAPI.obj
 0002:0000098c       ??_C@_09JGKEOKPK@?1dosocial?$AA@ 0308298c     MQ2CommandAPI.obj
 0002:00000998       ??_C@_08LAAGFDON@?1squelch?$AA@ 03082998     MQ2CommandAPI.obj
 0002:000009a4       ??_C@_0L@FIJAAEH@?1dumpbinds?$AA@ 030829a4     MQ2CommandAPI.obj
 0002:000009b0       ??_C@_08FOGLDALG@?1loadcfg?$AA@ 030829b0     MQ2CommandAPI.obj
 0002:000009bc       ??_C@_07MNKKOMGP@?1ranged?$AA@ 030829bc     MQ2CommandAPI.obj
 0002:000009c4       ??_C@_05FOMDDNJC@?1bind?$AA@ 030829c4     MQ2CommandAPI.obj
 0002:000009cc       ??_C@_0L@OPIGHIAL@?1multiline?$AA@ 030829cc     MQ2CommandAPI.obj
 0002:000009d8       ??_C@_06FNBMPHHI@?1popup?$AA@ 030829d8     MQ2CommandAPI.obj
 0002:000009e0       ??_C@_09ELIDKOOJ@?1keypress?$AA@ 030829e0     MQ2CommandAPI.obj
 0002:000009ec       ??_C@_05EHFCKIFO@?1exec?$AA@ 030829ec     MQ2CommandAPI.obj
 0002:000009f4       ??_C@_08DEDFHEPF@?1destroy?$AA@ 030829f4     MQ2CommandAPI.obj
 0002:00000a00       ??_C@_07CGOFJOF@?1plugin?$AA@ 03082a00     MQ2CommandAPI.obj
 0002:00000a08       ??_C@_0N@LIGHKJMK@?1windowstate?$AA@ 03082a08     MQ2CommandAPI.obj
 0002:00000a18       ??_C@_09ILJKCIHG@?1keepkeys?$AA@ 03082a18     MQ2CommandAPI.obj
 0002:00000a24       ??_C@_05ECMCKKNH@?1look?$AA@ 03082a24     MQ2CommandAPI.obj
 0002:00000a2c       ??_C@_09HCEFEGMM@?1banklist?$AA@ 03082a2c     MQ2CommandAPI.obj
 0002:00000a38       ??_C@_0M@FCHMGAGB@?1setautorun?$AA@ 03082a38     MQ2CommandAPI.obj
 0002:00000a44       ??_C@_0L@IKEEBMMA@?1dumpstack?$AA@ 03082a44     MQ2CommandAPI.obj
 0002:00000a50       ??_C@_04MKBEDOHK@?1ini?$AA@ 03082a50     MQ2CommandAPI.obj
 0002:00000a58       ??_C@_0N@CPICCDIF@?1updateitems?$AA@ 03082a58     MQ2CommandAPI.obj
 0002:00000a68       ??_C@_07GFPNODDB@?1return?$AA@ 03082a68     MQ2CommandAPI.obj
 0002:00000a70       ??_C@_05GNEKGCKL@?1call?$AA@ 03082a70     MQ2CommandAPI.obj
 0002:00000a78       ??_C@_05IDIMKCLI@?1next?$AA@ 03082a78     MQ2CommandAPI.obj
 0002:00000a80       ??_C@_04DKIDIPIB@?1for?$AA@ 03082a80     MQ2CommandAPI.obj
 0002:00000a88       ??_C@_05EBANBCFD@?1goto?$AA@ 03082a88     MQ2CommandAPI.obj
 0002:00000a90       ??_C@_09HDFDLCEB@?1doevents?$AA@ 03082a90     MQ2CommandAPI.obj
 0002:00000a9c       ??_C@_08MFLLEID@?1cleanup?$AA@ 03082a9c     MQ2CommandAPI.obj
 0002:00000aa8       ??_C@_06FPMJPHJG@?1delay?$AA@ 03082aa8     MQ2CommandAPI.obj
 0002:00000ab0       ??_C@_08IFJMAOCO@?1vardata?$AA@ 03082ab0     MQ2CommandAPI.obj
 0002:00000abc       ??_C@_07JEMGAGG@?1varset?$AA@ 03082abc     MQ2CommandAPI.obj
 0002:00000ac4       ??_C@_08BHLPECHE@?1varcalc?$AA@ 03082ac4     MQ2CommandAPI.obj
 0002:00000ad0       ??_C@_0L@MKAHHBJM@?1deletevar?$AA@ 03082ad0     MQ2CommandAPI.obj
 0002:00000adc       ??_C@_08NHFGDPCC@?1declare?$AA@ 03082adc     MQ2CommandAPI.obj
 0002:00000ae8       ??_C@_09KPLOLIBL@?1seterror?$AA@ 03082ae8     MQ2CommandAPI.obj
 0002:00000af4       ??_C@_06DDHJIFMJ@?1mqlog?$AA@ 03082af4     MQ2CommandAPI.obj
 0002:00000afc       ??_C@_05DGOOLKJO@?1beep?$AA@ 03082afc     MQ2CommandAPI.obj
 0002:00000b04       ??_C@_0M@LIOCPOCN@?1doortarget?$AA@ 03082b04     MQ2CommandAPI.obj
 0002:00000b10       ??_C@_06ODEDLFHK@?1doors?$AA@ 03082b10     MQ2CommandAPI.obj
 0002:00000b18       ??_C@_0M@JMINGACM@?1itemtarget?$AA@ 03082b18     MQ2CommandAPI.obj
 0002:00000b24       ??_C@_06DACKAEBO@?1items?$AA@ 03082b24     MQ2CommandAPI.obj
 0002:00000b2c       ??_C@_08PIODICKP@?1mqpause?$AA@ 03082b2c     MQ2CommandAPI.obj
 0002:00000b38       ??_C@_06DHCPBNA@?1click?$AA@ 03082b38     MQ2CommandAPI.obj
 0002:00000b40       ??_C@_06NENCCILK@?1alert?$AA@ 03082b40     MQ2CommandAPI.obj
 0002:00000b48       ??_C@_08EAOLFCNC@?1lootall?$AA@ 03082b48     MQ2CommandAPI.obj
 0002:00000b54       ??_C@_07MDAMOJBA@?1msgbox?$AA@ 03082b54     MQ2CommandAPI.obj
 0002:00000b5c       ??_C@_05GECHKEJP@?1echo?$AA@ 03082b5c     MQ2CommandAPI.obj
 0002:00000b64       ??_C@_0M@JHDAEFO@?1listmacros?$AA@ 03082b64     MQ2CommandAPI.obj
 0002:00000b70       ??_C@_09ICPEAAIC@?1endmacro?$AA@ 03082b70     MQ2CommandAPI.obj
 0002:00000b7c       ??_C@_0L@MCPOMPOM@?1loginname?$AA@ 03082b7c     MQ2CommandAPI.obj
 0002:00000b88       ??_C@_0M@DIELHCDN@?1loadspells?$AA@ 03082b88     MQ2CommandAPI.obj
 0002:00000b94       ??_C@_09INHMKEKD@?1memspell?$AA@ 03082b94     MQ2CommandAPI.obj
 0002:00000ba0       ??_C@_09COBGEJHN@?1sellitem?$AA@ 03082ba0     MQ2CommandAPI.obj
 0002:00000bac       ??_C@_08KKDNJMLG@?1buyitem?$AA@ 03082bac     MQ2CommandAPI.obj
 0002:00000bb8       ??_C@_06NHNNLIDG@?1macro?$AA@ 03082bb8     MQ2CommandAPI.obj
 0002:00000bc0       ??_C@_07EBCGLDGH@?1unload?$AA@ 03082bc0     MQ2CommandAPI.obj
 0002:00000bc8       ??_C@_07KFDFCALF@?1skills?$AA@ 03082bc8     MQ2CommandAPI.obj
 0002:00000bd0       ??_C@_06KHAEEMOM@?1where?$AA@ 03082bd0     MQ2CommandAPI.obj
 0002:00000bd8       ??_C@_09BFOJNAKJ@?1identify?$AA@ 03082bd8     MQ2CommandAPI.obj
 0002:00000be4       ??_C@_05HPDEBBKP@?1face?$AA@ 03082be4     MQ2CommandAPI.obj
 0002:00000bec       ??_C@_05MMNLIBKN@?1char?$AA@ 03082bec     MQ2CommandAPI.obj
 0002:00000bf4       ??_C@_09BOPGIKN@?1spewfile?$AA@ 03082bf4     MQ2CommandAPI.obj
 0002:00000c00       ??_C@_0L@FHOOKCDN@?1whofilter?$AA@ 03082c00     MQ2CommandAPI.obj
 0002:00000c0c       ??_C@_0M@OFHINLAD@?1substitute?$AA@ 03082c0c     MQ2CommandAPI.obj
 0002:00000c18       ??_C@_03BDBJGEHK@?1aa?$AA@ 03082c18     MQ2CommandAPI.obj
 0002:00000c1c       ??_C@_06MPCFBMOM@?1alias?$AA@ 03082c1c     MQ2CommandAPI.obj
 0002:00000c24       ??_C@_05PICLBOLP@?1cast?$AA@ 03082c24     MQ2CommandAPI.obj
 0002:00000c2c       ??_C@_0L@ECLAFMPA@?1doability?$AA@ 03082c2c     MQ2CommandAPI.obj
 0002:00000c38       ??_C@_07JGJMMIBJ@?1filter?$AA@ 03082c38     MQ2CommandAPI.obj
 0002:00000c40       ??_C@_09EOAMHHNG@?1charinfo?$AA@ 03082c40     MQ2CommandAPI.obj
 0002:00000c4c       ??_C@_07EBKILBIH@?1target?$AA@ 03082c4c     MQ2CommandAPI.obj
 0002:00000c54       ??_C@_05HDIPJJLA@?1help?$AA@ 03082c54     MQ2CommandAPI.obj
 0002:00000c5c       ??_C@_09JKMALBEG@?1location?$AA@ 03082c5c     MQ2CommandAPI.obj
 0002:00000c68       ??_C@_0L@IANKNLKD@?1whotarget?$AA@ 03082c68     MQ2CommandAPI.obj
 0002:00000c74       ??_C@_01KMDKNFGN@?1?$AA@   03082c74     MQ2CommandAPI.obj
 0002:00000c78       ??_C@_04CIAFMFOC@?1who?$AA@ 03082c78     MQ2CommandAPI.obj
 0002:00000c80       ??_C@_0BG@EGPIBHOK@Initializing?5Commands?$AA@ 03082c80     MQ2CommandAPI.obj
 0002:00000c98       ??_C@_0N@HNJJIAEL@DoN?5Merchant?$AA@ 03082c98     MQ2Commands.obj
 0002:00000ca8       ??_C@_08BMEIENOK@Campfire?$AA@ 03082ca8     MQ2Commands.obj
 0002:00000cb4       ??_C@_06NMEBMDIN@Banner?$AA@ 03082cb4     MQ2Commands.obj
 0002:00000cbc       ??_C@_04CLDMMPGN@Aura?$AA@ 03082cbc     MQ2Commands.obj
 0002:00000cc4       ??_C@_0BC@MKJKIPEE@Mercenary?5Liaison?$AA@ 03082cc4     MQ2Commands.obj
 0002:00000cd8       ??_C@_0BF@KHOIGALG@Fellowship?5Registrar?$AA@ 03082cd8     MQ2Commands.obj
 0002:00000cf0       ??_C@_0N@BNCLDFOJ@Guild?5Banker?$AA@ 03082cf0     MQ2Commands.obj
 0002:00000d00       ??_C@_0BF@KMGKBJKG@Guild?5Tribute?5Master?$AA@ 03082d00     MQ2Commands.obj
 0002:00000d18       ??_C@_0P@BKNMCCED@Tribute?5Master?$AA@ 03082d18     MQ2Commands.obj
 0002:00000d28       ??_C@_0BE@LNFKOHCE@Destructible?5Object?$AA@ 03082d28     MQ2Commands.obj
 0002:00000d3c       ??_C@_0O@MIBKNJNC@LDoN?5Merchant?$AA@ 03082d3c     MQ2Commands.obj
 0002:00000d4c       ??_C@_0P@HPHJOKMH@LDoN?5Recruiter?$AA@ 03082d4c     MQ2Commands.obj
 0002:00000d5c       ??_C@_0BB@HIDKNEJD@MQ2?5Unloading?4?4?4?$AA@ 03082d5c     MQ2Commands.obj
 0002:00000d70       ??_C@_0BB@OAGJBGHP@?9?9?9?9?9?9?9?9?9?9?9?9?9?9?9?9?$AA@ 03082d70     MQ2Commands.obj
 0002:00000d84       ??_C@_0L@EBEACPDN@Macro?5list?$AA@ 03082d84     MQ2Commands.obj
 0002:00000d90       ??_C@_0BJ@BLAMALJF@Couldn?8t?5find?5any?5macros?$AA@ 03082d90     MQ2Commands.obj
 0002:00000dac       ??_C@_06BNHEIDIH@?$CFs?2?$CK?4?$CK?$AA@ 03082dac     MQ2Commands.obj
 0002:00000db4       ??_C@_09GOEPMGFE@?$CFs?2?$CK?$CFs?$CK?4?$CK?$AA@ 03082db4     MQ2Commands.obj
 0002:00000dc0       ??_C@_0BB@NMCFJNCL@?$CFd?5item?$CFs?5found?4?$AA@ 03082dc0     MQ2Commands.obj
 0002:00000dd4       ??_C@_01LKDEMHDF@s?$AA@    03082dd4     MQ2Commands.obj
 0002:00000dd8       ??_C@_0BA@OCFEEJJD@No?5items?5found?4?$AA@ 03082dd8     MQ2Commands.obj
 0002:00000de8       ??_C@_0BJ@MJGHBAII@?$CFs?3?5?$CF1?42f?5away?5to?5the?5?$CFs?$AA@ 03082de8     MQ2Commands.obj
 0002:00000e08       __real@3fe0000000000000    03082e08     MQ2Commands.obj
 0002:00000e10       __real@4036800000000000    03082e10     MQ2Commands.obj
 0002:00000e18       __real@4076800000000000    03082e18     MQ2Commands.obj
 0002:00000e20       __real@4066800000000000    03082e20     MQ2Commands.obj
 0002:00000e28       ??_C@_0CG@PDFGJMLA@?5?5?5Item?5found?5?9?5?$CFd?3?5DropID?5?$CFd?5?$CFs@ 03082e28     MQ2Commands.obj
 0002:00000e50       ??_C@_0BM@DKGMJKGP@?9?9?9?9?9?9?9?9?9?9?9?9?9?9?9?9?9?9?9?9?9?9?9?9?9?9?9?$AA@ 03082e50     MQ2Commands.obj
 0002:00000e6c       ??_C@_0BF@FCEHKDNN@Items?5on?5the?5ground?3?$AA@ 03082e6c     MQ2Commands.obj
 0002:00000e84       ??_C@_0BO@HHPFLNLE@Couldn?8t?5find?5?8?$CFs?8?5to?5target?4?$AA@ 03082e84     MQ2Commands.obj
 0002:00000ea4       ??_C@_08HPLPOCJL@notarget?$AA@ 03082ea4     MQ2Commands.obj
 0002:00000eb0       ??_C@_0BE@GGABMIMN@Item?5?8?$CFs?8?5targeted?4?$AA@ 03082eb0     MQ2Commands.obj
 0002:00000ec8       __real@40c3880000000000    03082ec8     MQ2Commands.obj
 0002:00000ed0       __real@47c35000            03082ed0     MQ2Commands.obj
 0002:00000ed4       ??_C@_0BB@OPCICMGF@?$CFd?5door?$CFs?5found?4?$AA@ 03082ed4     MQ2Commands.obj
 0002:00000ee8       ??_C@_0BA@FPIGKJAL@No?5Doors?5found?4?$AA@ 03082ee8     MQ2Commands.obj
 0002:00000ef8       ??_C@_0BN@OGLAMBEN@?$CFd?3?5?$CFs?3?5?$CF1?42f?5away?5to?5the?5?$CFs?$AA@ 03082ef8     MQ2Commands.obj
 0002:00000f18       ??_C@_06ICDPEMJP@Doors?3?$AA@ 03082f18     MQ2Commands.obj
 0002:00000f20       ??_C@_0CD@FLDBPLKD@Couldn?8t?5find?5door?5?8?$CFs?8?5to?5targe@ 03082f20     MQ2Commands.obj
 0002:00000f44       ??_C@_0BH@LMEMPMP@Door?5?$CFd?5?8?$CFs?8?5targeted?4?$AA@ 03082f44     MQ2Commands.obj
 0002:00000f5c       ??_C@_0DB@BINHDJPL@DoorTarget?3?5id?5specified?5but?5no?5@ 03082f5c     MQ2Commands.obj
 0002:00000f90       ??_C@_02EGCJHIOB@id?$AA@   03082f90     MQ2Commands.obj
 0002:00000f94       ??_C@_0DC@GAHHIPAG@The?5location?5of?5your?5bind?5is?3?5?$CF1@ 03082f94     MQ2Commands.obj
 0002:00000fc8       ??_C@_06FKNHHIAI@?$CFd?7?$CFs?6?$AA@ 03082fc8     MQ2Commands.obj
 0002:00000fd0       ??_C@_02BKFDOEMK@wt?$AA@   03082fd0     MQ2Commands.obj
 0002:00000fd4       ??_C@_0BO@BDHIICDM@?5?5?5?5?5?5New?5Item?5found?5?9?5?$CFd?3?5?$CFs?$AA@ 03082fd4     MQ2Commands.obj
 0002:00000ff4       ??_C@_0BA@BKMNCINB@?5?5?5Opening?5Pack?$AA@ 03082ff4     MQ2Commands.obj
 0002:00001004       ??_C@_0BL@IIBCJNF@?5?5?5New?5Item?5found?5?9?5?$CFd?3?5?$CFs?$AA@ 03083004     MQ2Commands.obj
 0002:00001020       ??_C@_0M@IJMEKKGG@Mem?5a?5Spell?$AA@ 03083020     MQ2Commands.obj
 0002:0000102c       ??_C@_04GCLKCGOG@?5?5?$CFs?$AA@ 0308302c     MQ2Commands.obj
 0002:00001034       ??_C@_0CL@KBHDLLHO@?9?9?9?9?9?9?9?9?9?9?9?9?9?9?9?9?9?9?9?9?9?9?9?9?9?9?9?9?9?9?9?9@ 03083034     MQ2Commands.obj
 0002:00001060       ??_C@_0BB@OGFLECMB@List?5of?5commands?$AA@ 03083060     MQ2Commands.obj
 0002:00001074       ??_C@_0BA@JOGAALFN@MacroQuest?5?9?5?$CFs?$AA@ 03083074     MQ2Commands.obj
 0002:00001084       ??_C@_0CC@PNLGMHMM@Help?5?9?5Displaying?5MacroQuest?5hel@ 03083084     MQ2Commands.obj
 0002:000010a8       ??_C@_05MCIGIPJO@macro?$AA@ 030830a8     MQ2Commands.obj
 0002:000010b0       ??_C@_0DC@BIFHEIOG@Macro?5will?5display?5a?5list?5of?5Mac@ 030830b0     MQ2Commands.obj
 0002:000010e8       ??_C@_0JL@EJLJLBKJ@Usage?3?5?1whofilter?5?$DMlastname?$HMclas@ 030830e8     MQ2Commands.obj
 0002:00001184       ??_C@_09EPJGIIIJ@Invisible?$AA@ 03083184     MQ2Commands.obj
 0002:00001190       ??_C@_09MLILFJ@invisible?$AA@ 03083190     MQ2Commands.obj
 0002:0000119c       ??_C@_08JBHHBGLA@ConColor?$AA@ 0308319c     MQ2Commands.obj
 0002:000011a8       ??_C@_07CAAEHIKN@Holding?$AA@ 030831a8     MQ2Commands.obj
 0002:000011b0       ??_C@_05JODGIKH@Light?$AA@ 030831b0     MQ2Commands.obj
 0002:000011b8       ??_C@_08DFKPLDPN@Distance?$AA@ 030831b8     MQ2Commands.obj
 0002:000011c4       ??_C@_04DPECDDBP@Anon?$AA@ 030831c4     MQ2Commands.obj
 0002:000011cc       ??_C@_03JKIJHIAH@AFK?$AA@  030831cc     MQ2Commands.obj
 0002:000011d0       ??_C@_06LAOAGNPJ@Trader?$AA@ 030831d0     MQ2Commands.obj
 0002:000011d8       ??_C@_07BFOBFIMG@SpawnID?$AA@ 030831d8     MQ2Commands.obj
 0002:000011e0       ??_C@_06ECLMMAEJ@NPCTag?$AA@ 030831e0     MQ2Commands.obj
 0002:000011e8       ??_C@_03MEFGOPNG@LFG?$AA@  030831e8     MQ2Commands.obj
 0002:000011ec       ??_C@_05CBMBPJGD@Sneak?$AA@ 030831ec     MQ2Commands.obj
 0002:000011f4       ??_C@_02ONCLNIEI@LD?$AA@   030831f4     MQ2Commands.obj
 0002:000011f8       ??_C@_05GLCACPFJ@Guild?$AA@ 030831f8     MQ2Commands.obj
 0002:00001200       ??_C@_02DALMIMOA@GM?$AA@   03083200     MQ2Commands.obj
 0002:00001204       ??_C@_05KOHFLOFG@Level?$AA@ 03083204     MQ2Commands.obj
 0002:0000120c       ??_C@_04MJIIEFNN@Body?$AA@ 0308320c     MQ2Commands.obj
 0002:00001214       ??_C@_04KKIPOOLE@Race?$AA@ 03083214     MQ2Commands.obj
 0002:0000121c       ??_C@_05EKAMNAII@Class?$AA@ 0308321c     MQ2Commands.obj
 0002:00001224       ??_C@_08INDPKANN@Lastname?$AA@ 03083224     MQ2Commands.obj
 0002:00001230       ??_C@_0BJ@PBCBDOJ@Z?5range?5is?5set?5to?3?5?$CF1?42f?$AA@ 03083230     MQ2Commands.obj
 0002:0000124c       ??_C@_0BO@NAFOPLOK@Z?5range?5is?5not?5currently?5set?4?$AA@ 0308324c     MQ2Commands.obj
 0002:0000126c       ??_C@_0N@OCAOBFDM@FilterCustom?$AA@ 0308326c     MQ2Commands.obj
 0002:0000127c       ??_C@_0CM@OJOOMKPP@Filtering?5of?5custom?5messages?5cha@ 0308327c     MQ2Commands.obj
 0002:000012a8       ??_C@_0CN@JEOJNDHH@Usage?3?5?1filter?5name?5on?$HMoff?$HMadd?$HMr@ 030832a8     MQ2Commands.obj
 0002:000012d8       ??_C@_0CF@JFJDDNIN@Name?5?8?$CFs?8?5is?5already?5being?5filte@ 030832d8     MQ2Commands.obj
 0002:00001300       ??_C@_0BJ@LCAIIGFG@Started?5filtering?5on?3?5?$CFs?$AA@ 03083300     MQ2Commands.obj
 0002:0000131c       ??_C@_09MAEHMHEB@Add?5what?$DP?$AA@ 0308331c     MQ2Commands.obj
 0002:00001328       ??_C@_03BDGOHNNK@add?$AA@  03083328     MQ2Commands.obj
 0002:0000132c       ??_C@_0BJ@GDNCHKDB@Stopped?5filtering?5on?3?5?$CFs?$AA@ 0308332c     MQ2Commands.obj
 0002:00001348       ??_C@_0BK@DPKBLONL@Cleared?5all?5name?5filters?4?$AA@ 03083348     MQ2Commands.obj
 0002:00001364       ??_C@_0N@HBNGPCKC@Remove?5what?$DP?$AA@ 03083364     MQ2Commands.obj
 0002:00001374       ??_C@_06LEMKAMD@remove?$AA@ 03083374     MQ2Commands.obj
 0002:0000137c       ??_C@_05BCPGHFGO@?5?5?5?$CFs?$AA@ 0308337c     MQ2Commands.obj
 0002:00001384       ??_C@_0BK@GLIHLOGP@Names?5currently?5filtered?3?$AA@ 03083384     MQ2Commands.obj
 0002:000013a0       ??_C@_0L@HMLCPIFF@FilterFood?$AA@ 030833a0     MQ2Commands.obj
 0002:000013ac       ??_C@_0CK@GDOBPLGI@Filtering?5of?5food?5messages?5chang@ 030833ac     MQ2Commands.obj
 0002:000013d8       ??_C@_0BN@PEAAINHK@Usage?3?5?1filter?5food?5?$FLon?$HMoff?$FN?$AA@ 030833d8     MQ2Commands.obj
 0002:000013f8       ??_C@_0CJ@OIKJJKLH@Filtering?5of?5food?5messages?5is?5se@ 030833f8     MQ2Commands.obj
 0002:00001424       ??_C@_0P@JBNBDFAP@FilterEncumber?$AA@ 03083424     MQ2Commands.obj
 0002:00001434       ??_C@_0CO@EDNOBCBO@Filtering?5of?5encumber?5messages?5c@ 03083434     MQ2Commands.obj
 0002:00001464       ??_C@_0CB@COJFAJGP@Usage?3?5?1filter?5encumber?5?$FLon?$HMoff?$FN@ 03083464     MQ2Commands.obj
 0002:00001488       ??_C@_0CN@LIMFFPMC@Filtering?5of?5encumber?5messages?5i@ 03083488     MQ2Commands.obj
 0002:000014b8       ??_C@_0M@DGDJCIKN@FilterMoney?$AA@ 030834b8     MQ2Commands.obj
 0002:000014c4       ??_C@_0CL@HNFOGIDO@Filtering?5of?5money?5messages?5chan@ 030834c4     MQ2Commands.obj
 0002:000014f0       ??_C@_0BO@MFPGBBPO@Usage?3?5?1filter?5money?5?$FLon?$HMoff?$FN?$AA@ 030834f0     MQ2Commands.obj
 0002:00001510       ??_C@_0CK@FGMIKECF@Filtering?5of?5money?5messages?5is?5s@ 03083510     MQ2Commands.obj
 0002:0000153c       ??_C@_0M@NJDHECND@FilterDebug?$AA@ 0308353c     MQ2Commands.obj
 0002:00001548       ??_C@_0CL@IEDCPOGB@Filtering?5of?5debug?5messages?5chan@ 03083548     MQ2Commands.obj
 0002:00001574       ??_C@_0BO@LJBGHMA@Usage?3?5?1filter?5debug?5?$FLon?$HMoff?$FN?$AA@ 03083574     MQ2Commands.obj
 0002:00001594       ??_C@_0CK@IDIBJELJ@Filtering?5of?5debug?5messages?5is?5s@ 03083594     MQ2Commands.obj
 0002:000015c0       ??_C@_0N@DBGLAKPO@FilterTarget?$AA@ 030835c0     MQ2Commands.obj
 0002:000015d0       ??_C@_0DB@KFLNAMMN@Filtering?5of?5target?5lost?5message@ 030835d0     MQ2Commands.obj
 0002:00001604       ??_C@_0BP@IPGHEOAK@Usage?3?5?1filter?5target?5?$FLon?$HMoff?$FN?$AA@ 03083604     MQ2Commands.obj
 0002:00001624       ??_C@_0DA@LIIHININ@Filtering?5of?5target?5lost?5message@ 03083624     MQ2Commands.obj
 0002:00001654       ??_C@_0O@OLBOKJEK@FilterMQ2Data?$AA@ 03083654     MQ2Commands.obj
 0002:00001664       ??_C@_0CA@PPJJAGJF@Usage?3?5?1filter?5mq2data?5?$FLon?$HMoff?$FN?$AA@ 03083664     MQ2Commands.obj
 0002:00001684       ??_C@_0CK@IIHIOBIA@Filtering?5of?5MQ2Data?5Errors?5is?5s@ 03083684     MQ2Commands.obj
 0002:000016b0       ??_C@_07BCKIDDEE@mq2data?$AA@ 030836b0     MQ2Commands.obj
 0002:000016b8       ??_C@_08OMHJKBKG@FilterMQ?$AA@ 030836b8     MQ2Commands.obj
 0002:000016c4       ??_C@_0BP@JAKGNMIM@Filtering?5of?5MQ?5changed?5to?3?5?$CFs?$AA@ 030836c4     MQ2Commands.obj
 0002:000016e4       ??_C@_0BL@IKOCEIMD@Usage?3?5?1filter?5mq?5?$FLon?$HMoff?$FN?$AA@ 030836e4     MQ2Commands.obj
 0002:00001700       ??_C@_0BO@BGPPDGKF@Filtering?5of?5MQ?5is?5set?5to?3?5?$CFs?$AA@ 03083700     MQ2Commands.obj
 0002:00001720       ??_C@_0M@HOJCEODD@FilterMacro?$AA@ 03083720     MQ2Commands.obj
 0002:0000172c       ??_C@_0CD@OOGPFGOM@Filtering?5of?5macros?5changed?5to?3?5@ 0308372c     MQ2Commands.obj
 0002:00001750       ??_C@_0CK@OAIMHNEE@Usage?3?5?1filter?5macros?5?$FLall?$HMenhan@ 03083750     MQ2Commands.obj
 0002:0000177c       ??_C@_0CC@GOAJOLKI@Filtering?5of?5macros?5is?5set?5to?3?5?$CF@ 0308377c     MQ2Commands.obj
 0002:000017a0       ??_C@_0L@KGBILLBC@MacroQuest?$AA@ 030837a0     MQ2Commands.obj
 0002:000017ac       ??_C@_0N@NFPGJLMM@FilterSkills?$AA@ 030837ac     MQ2Commands.obj
 0002:000017bc       ??_C@_0CD@HHLADIOG@Filtering?5of?5skills?5changed?5to?3?5@ 030837bc     MQ2Commands.obj
 0002:000017e0       ??_C@_0CK@LKINODNM@Usage?3?5?1filter?5skills?5?$FLall?$HMincre@ 030837e0     MQ2Commands.obj
 0002:0000180c       ??_C@_0CC@LIDGFLKL@Filtering?5of?5skills?5is?5set?5to?3?5?$CF@ 0308380c     MQ2Commands.obj
 0002:00001830       ??_C@_03HFJGAJFE@All?$AA@  03083830     MQ2Commands.obj
 0002:00001834       ??_C@_08MOGHDHIG@Increase?$AA@ 03083834     MQ2Commands.obj
 0002:00001840       ??_C@_04OHJIHAFH@None?$AA@ 03083840     MQ2Commands.obj
 0002:00001848       ??_C@_06EGNIJPKE@zrange?$AA@ 03083848     MQ2Commands.obj
 0002:00001850       ??_C@_05GFCDIDHO@debug?$AA@ 03083850     MQ2Commands.obj
 0002:00001858       ??_C@_02HGJFDGCJ@mq?$AA@   03083858     MQ2Commands.obj
 0002:0000185c       ??_C@_08IIEKMJPC@encumber?$AA@ 0308385c     MQ2Commands.obj
 0002:00001868       ??_C@_05IKCNOJAA@money?$AA@ 03083868     MQ2Commands.obj
 0002:00001870       ??_C@_04OPAEPOE@food?$AA@  03083870     MQ2Commands.obj
 0002:00001878       ??_C@_04MEMAJGDJ@name?$AA@ 03083878     MQ2Commands.obj
 0002:00001880       ??_C@_06JJLAMBGK@target?$AA@ 03083880     MQ2Commands.obj
 0002:00001888       ??_C@_06BDGHBCPJ@macros?$AA@ 03083888     MQ2Commands.obj
 0002:00001890       ??_C@_06HNCNFAFI@skills?$AA@ 03083890     MQ2Commands.obj
 0002:00001898       ??_C@_0EH@FBJHCHMA@skills?0?5target?0?5money?0?5encumber?0@ 03083898     MQ2Commands.obj
 0002:000018e0       ??_C@_08PBIOHFOH@enhanced?$AA@ 030838e0     MQ2Commands.obj
 0002:000018ec       ??_C@_08EMJGLFCF@increase?$AA@ 030838ec     MQ2Commands.obj
 0002:000018f8       ??_C@_02LIELOMNJ@on?$AA@   030838f8     MQ2Commands.obj
 0002:000018fc       ??_C@_03NFKEKGGK@all?$AA@  030838fc     MQ2Commands.obj
 0002:00001900       ??_C@_03MCADLMAF@off?$AA@  03083900     MQ2Commands.obj
 0002:00001904       ??_C@_04CGFJFPFD@none?$AA@ 03083904     MQ2Commands.obj
 0002:0000190c       ??_C@_0BL@OIPKKAEC@Syntax?3?5?1spewfile?5?$FLon?$HMoff?$FN?$AA@ 0308390c     MQ2Commands.obj
 0002:00001928       ??_C@_0CG@HJGMFMHF@Debug?5Spew?5is?5being?5logged?5to?5a?5@ 03083928     MQ2Commands.obj
 0002:00001950       ??_C@_0CK@OBPLIJKD@Debug?5Spew?5is?5not?5being?5logged?5t@ 03083950     MQ2Commands.obj
 0002:0000197c       ??_C@_0BB@JCCCDKEI@Stack?5size?5?$DN?5?$CFd?5?$AA@ 0308397c     MQ2Commands.obj
 0002:00001990       ??_C@_0BA@OHOCPGLP@?$CFdSvCorruption?5?$AA@ 03083990     MQ2Commands.obj
 0002:000019a0       ??_C@_06LKMMCGJG@?$CFdSvC?5?$AA@ 030839a0     MQ2Commands.obj
 0002:000019a8       ??_C@_06LMAHOEHN@?$CFdSvF?5?$AA@ 030839a8     MQ2Commands.obj
 0002:000019b0       ??_C@_06KEKMDLLP@?$CFdSvP?5?$AA@ 030839b0     MQ2Commands.obj
 0002:000019b8       ??_C@_06LPIDDABD@?$CFdSvD?5?$AA@ 030839b8     MQ2Commands.obj
 0002:000019c0       ??_C@_06LAFCALJM@?$CFdSvM?5?$AA@ 030839c0     MQ2Commands.obj
 0002:000019c8       ??_C@_06MJFMOKOI@?$CFdCHA?5?$AA@ 030839c8     MQ2Commands.obj
 0002:000019d0       ??_C@_06LMGKMMAO@?$CFdINT?5?$AA@ 030839d0     MQ2Commands.obj
 0002:000019d8       ??_C@_06PLCCMLNB@?$CFdWIS?5?$AA@ 030839d8     MQ2Commands.obj
 0002:000019e0       ??_C@_06OFOMPIGG@?$CFdAGI?5?$AA@ 030839e0     MQ2Commands.obj
 0002:000019e8       ??_C@_06JKOBHGNK@?$CFdDEX?5?$AA@ 030839e8     MQ2Commands.obj
 0002:000019f0       ??_C@_06LDHDJFEN@?$CFdSTA?5?$AA@ 030839f0     MQ2Commands.obj
 0002:000019f8       ??_C@_06KNBDIIGE@?$CFdSTR?5?$AA@ 030839f8     MQ2Commands.obj
 0002:00001a00       ??_C@_07EEEOGGJI@?$CFdMana?5?$AA@ 03083a00     MQ2Commands.obj
 0002:00001a08       ??_C@_05NCHGGBJE@?$CFdHP?5?$AA@ 03083a08     MQ2Commands.obj
 0002:00001a10       ??_C@_06CNEFJOGK@?$CFdRng?5?$AA@ 03083a10     MQ2Commands.obj
 0002:00001a18       ??_C@_06HOFELKLJ@?$CFdDly?5?$AA@ 03083a18     MQ2Commands.obj
 0002:00001a20       ??_C@_06JHBBGJMI@?$CFdDam?5?$AA@ 03083a20     MQ2Commands.obj
 0002:00001a28       ??_C@_05NINMLNFO@AC?$CFd?5?$AA@ 03083a28     MQ2Commands.obj
 0002:00001a30       ??_C@_06HFFMMPL@Item?3?5?$AA@ 03083a30     MQ2Commands.obj
 0002:00001a38       ??_C@_0DC@GHNOAFHL@Container?3?5?$CFd?5Slot?5?$CFs?0?5?$CFd?$CF?$CF?5Redu@ 03083a38     MQ2Commands.obj
 0002:00001a6c       ??_C@_0L@DLGBCOOH@?$CKUnknown?$CFd?$AA@ 03083a6c     MQ2Commands.obj
 0002:00001a78       ??_C@_02KCKGHPCA@?$CJ?5?$AA@ 03083a78     MQ2Commands.obj
 0002:00001a7c       ??_C@_08KEFFGFDP@?$CILight?3?5?$AA@ 03083a7c     MQ2Commands.obj
 0002:00001a88       ??_C@_06GINMGJCE@MAGIC?5?$AA@ 03083a88     MQ2Commands.obj
 0002:00001a90       ??_C@_07EACGAGNM@NORENT?5?$AA@ 03083a90     MQ2Commands.obj
 0002:00001a98       ??_C@_07PINMGDHB@NODROP?5?$AA@ 03083a98     MQ2Commands.obj
 0002:00001aa0       ??_C@_05GONFPHHD@LORE?5?$AA@ 03083aa0     MQ2Commands.obj
 0002:00001aa8       ??_C@_07BEHBPBFJ@Flags?3?5?$AA@ 03083aa8     MQ2Commands.obj
 0002:00001ab0       ??_C@_0O@DFKKDBF@Lore?5Name?3?5?$CFs?$AA@ 03083ab0     MQ2Commands.obj
 0002:00001ac0       ??_C@_0DA@EEFPEBD@Item?3?5?$CFs?5?$CISlot?3?5?$CFs?0?5Weight?3?5?$CFd?4?$CF@ 03083ac0     MQ2Commands.obj
 0002:00001af0       ??_C@_0DK@PEJCAEGP@Item?3?5?$CFs?5?$CISlot?3?5?$CFs?0?5Weight?3?5?$CFd?4?$CF@ 03083af0     MQ2Commands.obj
 0002:00001b2c       ??_C@_0O@HJPPFJDN@Identify?5?9?5?$CFs?$AA@ 03083b2c     MQ2Commands.obj
 0002:00001b3c       ??_C@_0CM@OHMELLLC@You?5must?5be?5holding?5an?5item?5to?5i@ 03083b3c     MQ2Commands.obj
 0002:00001b68       ??_C@_0DK@ENGGHEJG@Your?5Location?5is?5?$CF3?42f?0?5?$CF3?42f?0?5?$CF@ 03083b68     MQ2Commands.obj
 0002:00001ba8       __real@4021000000000000    03083ba8     MQ2Commands.obj
 0002:00001bb0       __real@3fa0000000000000    03083bb0     MQ2Commands.obj
 0002:00001bb8       ??_C@_0HE@GONPHLIA@Usage?3?5?1alert?5?$FLclear?5?$CD?$FN?5?$FLlist?5?$CD?$FN@ 03083bb8     MQ2Commands.obj
 0002:00001c2c       ??_C@_0DB@BGCIDDPE@Alert?5?9?5Unable?5to?5allocate?5memor@ 03083c2c     MQ2Commands.obj
 0002:00001c60       ??_C@_0BH@EJDFMDCK@Couldn?8t?5create?5alert?4?$AA@ 03083c60     MQ2Commands.obj
 0002:00001c78       ??_C@_0L@MJICFHP@Alert?5?9?5?$CFs?$AA@ 03083c78     MQ2Commands.obj
 0002:00001c84       ??_C@_0BE@JOBMPBPK@Added?5alert?5for?3?5?$CFs?$AA@ 03083c84     MQ2Commands.obj
 0002:00001c98       ??_C@_0CF@IKCPJGKL@Alert?5would?5have?5cause?5recursion@ 03083c98     MQ2Commands.obj
 0002:00001cc0       ??_C@_0BC@DBBBGBPK@?$CFd?5alerts?5listed?4?$AA@ 03083cc0     MQ2Commands.obj
 0002:00001cd4       ??_C@_0BA@CDLPLJIM@Current?5alerts?3?$AA@ 03083cd4     MQ2Commands.obj
 0002:00001ce4       ??_C@_0BC@GHOJHFIM@No?5alerts?5active?4?$AA@ 03083ce4     MQ2Commands.obj
 0002:00001cf8       ??_C@_04DONFEANM@list?$AA@ 03083cf8     MQ2Commands.obj
 0002:00001d00       ??_C@_05MEHLAELG@clear?$AA@ 03083d00     MQ2Commands.obj
 0002:00001d08       ??_C@_0BE@BJGNOGMM@SuperWhoTarget?5?9?5?$CFs?$AA@ 03083d08     MQ2Commands.obj
 0002:00001d1c       ??_C@_0DA@NEDKEOPI@You?5must?5have?5a?5target?5selected?5@ 03083d1c     MQ2Commands.obj
 0002:00001d4c       ??_C@_0BI@OELIAELI@SuperWho?5?9?5filtering?5?$CFs?$AA@ 03083d4c     MQ2Commands.obj
 0002:00001d64       ??_C@_08BECKJBCF@concolor?$AA@ 03083d64     MQ2Commands.obj
 0002:00001d70       ??_C@_05GMIMCKGP@guild?$AA@ 03083d70     MQ2Commands.obj
 0002:00001d78       ??_C@_08LHFODBFO@distance?$AA@ 03083d78     MQ2Commands.obj
 0002:00001d84       ??_C@_05ENKANFLO@class?$AA@ 03083d84     MQ2Commands.obj
 0002:00001d8c       ??_C@_04GLEOMBLA@race?$AA@ 03083d8c     MQ2Commands.obj
 0002:00001d94       ??_C@_05KJNJLLGA@level?$AA@ 03083d94     MQ2Commands.obj
 0002:00001d9c       ??_C@_04PIMMHFGE@sort?$AA@ 03083d9c     MQ2Commands.obj
 0002:00001da4       ??_C@_05EIHKFLMK@?5all?5?$AA@ 03083da4     MQ2Commands.obj
 0002:00001dac       ??_C@_04PDADKBGP@?5all?$AA@ 03083dac     MQ2Commands.obj
 0002:00001db4       ??_C@_04DIDGAIEC@all?5?$AA@ 03083db4     MQ2Commands.obj
 0002:00001dbc       ??_C@_0BJ@DKANKBPF@$?$HLTime?4Date?$HN?5$?$HLTime?$HN?$AN?6?$CFs?$AA@ 03083dbc     MQ2Commands.obj
 0002:00001dd8       ??_C@_0O@JCLNHJC@MacroLog?5?9?5?$CFs?$AA@ 03083dd8     MQ2Commands.obj
 0002:00001de8       ??_C@_03OFAPEBGM@?$CFs?6?$AA@ 03083de8     MQ2Commands.obj
 0002:00001dec       ??_C@_0CB@CHMPCDMF@?$FL$?$HLTime?4Date?$HN?5$?$HLTime?4Time24?$HN?$FN?5?$CFs@ 03083dec     MQ2Commands.obj
 0002:00001e10       ??_C@_02CPIDLAI@at?$AA@    03083e10     MQ2Commands.obj
 0002:00001e14       ??_C@_0N@IFCBLBHJ@Cleared?5log?4?$AA@ 03083e14     MQ2Commands.obj
 0002:00001e24       ??_C@_0CC@MOKMJMDH@Log?5path?5doesn?8t?5appear?5valid?3?5?$CF@ 03083e24     MQ2Commands.obj
 0002:00001e48       ??_C@_0BL@KCCJKFIK@Couldn?8t?5open?5log?5file?3?5?$CFs?$AA@ 03083e48     MQ2Commands.obj
 0002:00001e64       ??_C@_09IKDIHHD@?$CFs?2?$CFs?4log?$AA@ 03083e64     MQ2Commands.obj
 0002:00001e70       ??_C@_0BC@LJKCCDOE@?$CFs?2MacroQuest?4log?$AA@ 03083e70     MQ2Commands.obj
 0002:00001e84       ??_C@_09OHHIFOBA@Face?5?9?5?$CFs?$AA@ 03083e84     MQ2Commands.obj
 0002:00001e90       ??_C@_0BB@INMCDPKF@Facing?5?$CFs?8?$CFs?8?4?4?4?$AA@ 03083e90     MQ2Commands.obj
 0002:00001ea4       ??_C@_0L@MNHMHLKG@away?5from?5?$AA@ 03083ea4     MQ2Commands.obj
 0002:00001eb0       __real@4070000000000000    03083eb0     MQ2Commands.obj
 0002:00001eb8       ??_C@_0BO@CDCKNGEL@There?5were?5no?5matches?5for?3?5?$CFs?$AA@ 03083eb8     MQ2Commands.obj
 0002:00001ed8       ??_C@_0FJ@FNJIBPIF@Usage?3?5?1face?5?$FLspawn?$FN?5?$FLitem?$FN?5?$FLdoo@ 03083ed8     MQ2Commands.obj
 0002:00001f38       __real@0000000000000000    03083f38     MQ2Commands.obj
 0002:00001f40       __real@4080000000000000    03083f40     MQ2Commands.obj
 0002:00001f48       __real@3fe6800000000000    03083f48     MQ2Commands.obj
 0002:00001f50       ??_C@_0CN@EHNCLEIB@Face?3?5heading?5specified?5but?5angl@ 03083f50     MQ2Commands.obj
 0002:00001f80       ??_C@_0CM@DCHEBBEB@Face?3?5door?5specified?5but?5no?5door@ 03083f80     MQ2Commands.obj
 0002:00001fac       ??_C@_0CM@GCIMGBPB@Face?3?5item?5specified?5but?5no?5item@ 03083fac     MQ2Commands.obj
 0002:00001fd8       ??_C@_0CL@KMLKLKFG@Face?3?5loc?5specified?5but?5?$DMy?$DO?0?$DMx?$DO?5@ 03083fd8     MQ2Commands.obj
 0002:00002004       ??_C@_04PCJFHION@help?$AA@ 03084004     MQ2Commands.obj
 0002:0000200c       ??_C@_07MBJMFGGL@heading?$AA@ 0308400c     MQ2Commands.obj
 0002:00002014       ??_C@_04GIKIKJFD@door?$AA@ 03084014     MQ2Commands.obj
 0002:0000201c       ??_C@_04NHONDGDE@item?$AA@ 0308401c     MQ2Commands.obj
 0002:00002024       ??_C@_01IHBHIGKO@?0?$AA@   03084024     MQ2Commands.obj
 0002:00002028       ??_C@_08CBBFJFMD@location?$AA@ 03084028     MQ2Commands.obj
 0002:00002034       ??_C@_03KCBANMCB@loc?$AA@  03084034     MQ2Commands.obj
 0002:00002038       ??_C@_06LKLNOJNO@nolook?$AA@ 03084038     MQ2Commands.obj
 0002:00002040       ??_C@_04NMIPKNJC@away?$AA@ 03084040     MQ2Commands.obj
 0002:00002048       ??_C@_04LBNBHAJC@fast?$AA@ 03084048     MQ2Commands.obj
 0002:00002050       ??_C@_07DOBNEOGC@predict?$AA@ 03084050     MQ2Commands.obj
 0002:00002058       ??_C@_0CA@ONEOHDL@?1look?5?9?9?5Angle?5?$CFf?5out?5of?5range?4?$AA@ 03084058     MQ2Commands.obj
 0002:00002078       __real@c3000000            03084078     MQ2Commands.obj
 0002:0000207c       __real@43000000            0308407c     MQ2Commands.obj
 0002:00002080       ??_C@_0L@ICJJBMPH@Where?5?9?5?$CFs?$AA@ 03084080     MQ2Commands.obj
 0002:00002090       ??_C@_0FE@NDADHGEB@The?5closest?5?8?$CFs?8?5is?5a?5level?5?$CFd?5?$CF@ 03084090     MQ2Commands.obj
 0002:000020e4       ??_C@_0CP@BIPPOJGB@You?5do?5not?5seem?5to?5have?5that?5abi@ 030840e4     MQ2Commands.obj
 0002:00002114       ??_C@_0BC@EJMKNIH@Combat?5Abilities?3?$AA@ 03084114     MQ2Commands.obj
 0002:00002128       ??_C@_08PKMELHFD@?$DM?$AHg?$CFs?$AHx?$DO?$AA@ 03084128     MQ2Commands.obj
 0002:00002134       ??_C@_0BL@DLEJGCFB@Abilities?5?$CG?5Combat?5Skills?3?$AA@ 03084134     MQ2Commands.obj
 0002:00002150       ??_C@_0CC@IEDPNJIK@Unable?5to?5find?5favorite?5list?5?8?$CFs@ 03084150     MQ2Commands.obj
 0002:00002174       ??_C@_0BE@DAFECDOJ@Favorite?5list?5?8?$CFs?8?3?$AA@ 03084174     MQ2Commands.obj
 0002:00002188       ??_C@_06DKAEDHID@?$CFd?$CJ?5?$CFs?$AA@ 03084188     MQ2Commands.obj
 0002:00002190       ??_C@_0BL@JMBEPNBE@?9?9?9?9?9?9?9?9?9?9?9?9?9?9?9?9?9?9?9?9?9?9?9?9?9?9?$AA@ 03084190     MQ2Commands.obj
 0002:000021ac       ??_C@_0BG@NGKIGGLP@Spell?5favorites?5list?3?$AA@ 030841ac     MQ2Commands.obj
 0002:000021c4       ??_C@_0BN@OMBCKOL@pChar?5?$DN?5?$CFx?5SpellName?5?$DN?5?$CFs?5?$CFs?$AA@ 030841c4     MQ2Commands.obj
 0002:000021e4       ??_C@_0P@KEFNIBPA@SpellName?5?$DN?5?$CFs?$AA@ 030841e4     MQ2Commands.obj
 0002:000021f4       ??_C@_0CO@KDHBGKGJ@You?5do?5not?5seem?5to?5have?5that?5spe@ 030841f4     MQ2Commands.obj
 0002:00002224       ??_C@_0BH@DBLIKMDA@cast?5test?5slot?5?$CFd?5?$DN?5?$CFs?$AA@ 03084224     MQ2Commands.obj
 0002:0000223c       ??_C@_0BF@MGMPDPFO@Item?5?8?$CFs?8?5not?5found?4?$AA@ 0308423c     MQ2Commands.obj
 0002:00002254       ??_C@_0BO@MBCFHOJL@Cast?3?5szArg1?5?$DN?5?$CFs?5szArg2?5?$DN?5?$CFs?$AA@ 03084254     MQ2Commands.obj
 0002:00002274       ??_C@_06IICEOLJD@?$CFd?4?5?$CFs?$AA@ 03084274     MQ2Commands.obj
 0002:0000227c       ??_C@_0M@EAIBFOMM@?$CFd?4?5?$DMEmpty?$DO?$AA@ 0308427c     MQ2Commands.obj
 0002:00002288       ??_C@_07KLAJEAPG@Spells?3?$AA@ 03084288     MQ2Commands.obj
 0002:00002290       ??_C@_0BO@EMGFHPMD@Unable?5to?5target?0?5address?5?$DN?50?$AA@ 03084290     MQ2Commands.obj
 0002:000022b0       ??_C@_0BF@GIFBJMN@Target?5?9?5?$CFs?5selected?$AA@ 030842b0     MQ2Commands.obj
 0002:000022c8       ??_C@_0CB@NGPCHBAF@There?5are?5no?5spawns?5matching?3?5?$CFs@ 030842c8     MQ2Commands.obj
 0002:000022ec       ??_C@_0BA@OIAFFHD@Target?5cleared?4?$AA@ 030842ec     MQ2Commands.obj
 0002:000022fc       ??_C@_0M@NEPAKMNG@?$CFs?8s?5Corpse?$AA@ 030842fc     MQ2Commands.obj
 0002:00002308       ??_C@_08OCCJLGDG@mycorpse?$AA@ 03084308     MQ2Commands.obj
 0002:00002314       ??_C@_06GEDPDCOG@myself?$AA@ 03084314     MQ2Commands.obj
 0002:0000231c       ??_C@_0BF@MHPGPELO@?$CFd?5skills?5displayed?4?$AA@ 0308431c     MQ2Commands.obj
 0002:00002334       ??_C@_0BK@FCEBLDDM@Skills?5?9?5?$CFd?5skills?5listed?$AA@ 03084334     MQ2Commands.obj
 0002:00002350       ??_C@_0BI@GMELLMNN@No?5skills?5matched?5?8?$CFs?8?4?$AA@ 03084350     MQ2Commands.obj
 0002:00002368       ??_C@_0BB@HOCECMED@?$CFs?3?5Unknown?$CI253?$CJ?$AA@ 03084368     MQ2Commands.obj
 0002:0000237c       ??_C@_0O@CKDOBHPO@?$CFs?3?5Trainable?$AA@ 0308437c     MQ2Commands.obj
 0002:0000238c       ??_C@_06GBEGMGE@?$CFs?3?5?$CFd?$AA@ 0308438c     MQ2Commands.obj
 0002:00002394       ??_C@_0BI@IBGPDPHJ@?9?9?9?9?9?9?9?9?9?9?9?9?9?9?9?9?9?9?9?9?9?9?9?$AA@ 03084394     MQ2Commands.obj
 0002:000023ac       ??_C@_06LCJAGJME@Skills?$AA@ 030843ac     MQ2Commands.obj
 0002:000023b4       ??_C@_0N@GAPODIAE@Macro?5is?5?$CFs?4?$AA@ 030843b4     MQ2Commands.obj
 0002:000023c4       ??_C@_0O@DKMHIIJP@running?5again?$AA@ 030843c4     MQ2Commands.obj
 0002:000023d4       ??_C@_0BF@FGNDMPLD@Macro?5is?5already?5?$CFs?4?$AA@ 030843d4     MQ2Commands.obj
 0002:000023ec       ??_C@_07PANPENDC@running?$AA@ 030843ec     MQ2Commands.obj
 0002:000023f4       ??_C@_06EKGGOLPA@paused?$AA@ 030843f4     MQ2Commands.obj
 0002:000023fc       ??_C@_0CK@DFDPICBN@Syntax?3?5?1mqpause?5?$FLon?$HMoff?$FN?5?$FLchat?5@ 030843fc     MQ2Commands.obj
 0002:00002428       ??_C@_0DB@MMANOKII@You?5cannot?5pause?5a?5macro?5when?5on@ 03084428     MQ2Commands.obj
 0002:0000245c       ??_C@_0CI@HAONENIG@Macros?5will?5?$CFspause?5while?5in?5cha@ 0308445c     MQ2Commands.obj
 0002:00002484       ??_C@_04LKOGMCLF@not?5?$AA@ 03084484     MQ2Commands.obj
 0002:0000248c       ??_C@_0O@IDEFGIKL@MQPauseOnChat?$AA@ 0308448c     MQ2Commands.obj
 0002:0000249c       ??_C@_01GBGANLPD@0?$AA@    0308449c     MQ2Commands.obj
 0002:000024a0       ??_C@_01HIHLOKLC@1?$AA@    030844a0     MQ2Commands.obj
 0002:000024a4       ??_C@_04BLJLMHHG@chat?$AA@ 030844a4     MQ2Commands.obj
 0002:000024ac       ??_C@_0BF@FJGBDDGL@Set?5autorun?5to?3?5?8?$CFs?8?$AA@ 030844ac     MQ2Commands.obj
 0002:000024c4       ??_C@_07ICCLJJJJ@AutoRun?$AA@ 030844c4     MQ2Commands.obj
 0002:000024cc       ??_C@_05NNFHCGPF@?$CFs?4?$CFs?$AA@ 030844cc     MQ2Commands.obj
 0002:000024d4       ??_C@_0DE@LEDPEEIB@Usage?3?5?1alias?5name?5?$FLdelete?$HMcomma@ 030844d4     MQ2Commands.obj
 0002:00002508       ??_C@_0BB@BKMDJFKD@Alias?5?8?$CFs?8?5?$CFsed?4?$AA@ 03084508     MQ2Commands.obj
 0002:0000251c       ??_C@_05FKACFPFA@updat?$AA@ 0308451c     MQ2Commands.obj
 0002:00002524       ??_C@_0BG@GABOEADE@Alias?5?8?$CFs?8?5not?5found?4?$AA@ 03084524     MQ2Commands.obj
 0002:0000253c       ??_C@_0BE@MCBOANGD@Alias?5?8?$CFs?8?5deleted?4?$AA@ 0308453c     MQ2Commands.obj
 0002:00002550       ??_C@_06FOBLBEIN@delete?$AA@ 03084550     MQ2Commands.obj
 0002:00002558       ??_C@_0BG@OHPPKPBN@?$CFd?5alias?$CFs?5displayed?4?$AA@ 03084558     MQ2Commands.obj
 0002:00002570       ??_C@_02EKLAAFBD@es?$AA@   03084570     MQ2Commands.obj
 0002:00002574       ??_C@_0BE@EJKJAEJH@No?5aliases?5defined?4?$AA@ 03084574     MQ2Commands.obj
 0002:00002588       ??_C@_06DJHOIPC@?$CFs?3?5?$CFs?$AA@ 03084588     MQ2Commands.obj
 0002:00002590       ??_C@_0FA@BKPDKJOJ@Usage?3?5?1substitute?5?$DMorig?$DO?5?$DMnew?$DO?0@ 03084590     MQ2Commands.obj
 0002:000025e0       ??_C@_0BM@BGKKAACE@Substitution?5for?5?8?$CFs?8?5?$CFsed?4?$AA@ 030845e0     MQ2Commands.obj
 0002:000025fc       ??_C@_0CB@CPFICID@Substitution?5for?5?8?$CFs?8?5not?5found?4@ 030845fc     MQ2Commands.obj
 0002:00002620       ??_C@_0BP@BODMKHMJ@Substitution?5for?5?8?$CFs?8?5deleted?4?$AA@ 03084620     MQ2Commands.obj
 0002:00002640       ??_C@_0BN@DEPBKNIF@?$CFd?5substitution?$CFs?5displayed?4?$AA@ 03084640     MQ2Commands.obj
 0002:00002660       ??_C@_0BK@LOMFAJBF@No?5Substitutions?5defined?4?$AA@ 03084660     MQ2Commands.obj
 0002:0000267c       ??_C@_0L@NLIINGHE@?$CFs?7?9?9?9?9?7?$CFs?$AA@ 0308467c     MQ2Commands.obj
 0002:00002688       ??_C@_0BM@LMNGACBB@IniOutput?5Write?5Successful?$CB?$AA@ 03084688     MQ2Commands.obj
 0002:000026a4       ??_C@_0DI@JAALPNLP@IniOutput?5ERROR?5?9?9?5during?5WriteP@ 030846a4     MQ2Commands.obj
 0002:000026dc       ??_C@_04PHHEBHMK@?4ini?$AA@ 030846dc     MQ2Commands.obj
 0002:000026e4       ??_C@_01LFCBOECM@?4?$AA@   030846e4     MQ2Commands.obj
 0002:000026e8       ??_C@_05BMGBEOOC@?$CFs?2?$CFs?$AA@ 030846e8     MQ2Commands.obj
 0002:000026f0       ??_C@_0BK@IHFIFJJG@?1ini?5input?5?9?9?5?$CFs?5?$CFs?5?$CFs?5?$CFs?$AA@ 030846f0     MQ2Commands.obj
 0002:0000270c       ??_C@_0BH@BHLHKMPK@?9?5Slot?5?$CFd?3?5?$CFdx?5?$CFs?5?$CI?$CFs?$CJ?$AA@ 0308470c     MQ2Commands.obj
 0002:00002724       ??_C@_0BF@DFPPNLAP@Slot?5?$CFd?3?5?$CFdx?5?$CFs?5?$CI?$CFs?$CJ?$AA@ 03084724     MQ2Commands.obj
 0002:0000273c       ??_C@_0BK@FICEOBLB@?9?9?9?9?9?9?9?9?9?9?9?9?9?9?9?9?9?9?9?9?9?9?9?9?9?$AA@ 0308473c     MQ2Commands.obj
 0002:00002758       ??_C@_0BK@BPHDOCEN@Listing?5of?5Bank?5Inventory?$AA@ 03084758     MQ2Commands.obj
 0002:00002774       ??_C@_0CC@KCBEHBLE@?1banklist?5?9?9?5Bad?5offset?3?5CharInf@ 03084774     MQ2Commands.obj
 0002:00002798       ??_C@_0CK@OIJPAMFD@Usage?3?5?1windowstate?5?$DMwindow?$DO?5?$FLop@ 03084798     MQ2Commands.obj
 0002:000027c4       ??_C@_0BL@OGLJNNEP@Window?5?8?$CFs?8?5is?5now?5closed?4?$AA@ 030847c4     MQ2Commands.obj
 0002:000027e0       ??_C@_0BJ@BBDFMGHF@Window?5?8?$CFs?8?5is?5now?5open?4?$AA@ 030847e0     MQ2Commands.obj
 0002:000027fc       ??_C@_0BM@JEHHAMLI@Window?5?8?$CFs?8?5is?5currently?5?$CFs?$AA@ 030847fc     MQ2Commands.obj
 0002:00002818       ??_C@_06IKJOPBFO@closed?$AA@ 03084818     MQ2Commands.obj
 0002:00002820       ??_C@_05LBOHBHFK@close?$AA@ 03084820     MQ2Commands.obj
 0002:00002828       ??_C@_04PMOCAHAA@open?$AA@ 03084828     MQ2Commands.obj
 0002:00002830       ??_C@_08HDHPKBFE@KeepKeys?$AA@ 03084830     MQ2Commands.obj
 0002:0000283c       ??_C@_0BO@HPNLFKGC@Auto?9Keep?5Keys?5changed?5to?3?5?$CFs?$AA@ 0308483c     MQ2Commands.obj
 0002:0000285c       ??_C@_0BK@FHGGLMDK@Usage?3?5?1keepkeys?5?$FLon?$HMoff?$FN?$AA@ 0308485c     MQ2Commands.obj
 0002:00002878       ??_C@_0BD@BLDNHHAD@Auto?9Keep?5Keys?3?5?$CFs?$AA@ 03084878     MQ2Commands.obj
 0002:0000288c       ??_C@_0BD@JOGLMJNH@Login?5name?3?5?$AHy?$CFs?$AHx?$AA@ 0308488c     MQ2Commands.obj
 0002:000028a0       ??_C@_0BP@ELBGBCFN@Unable?5to?5retrieve?5login?5name?4?$AA@ 030848a0     MQ2Commands.obj
 0002:000028c0       ??_C@_0CB@KBBCHEIM@Plugin?5?8?$CFs?8?5could?5not?5be?5loaded?4@ 030848c0     MQ2Commands.obj
 0002:000028e4       ??_C@_0BE@ENAJDLDB@Plugin?5?8?$CFs?8?5loaded?4?$AA@ 030848e4     MQ2Commands.obj
 0002:000028f8       ??_C@_0BH@PIOHFEPK@Plugin?5?8?$CFs?8?5not?5found?4?$AA@ 030848f8     MQ2Commands.obj
 0002:00002910       ??_C@_06JJGBDAB@noauto?$AA@ 03084910     MQ2Commands.obj
 0002:00002918       ??_C@_0BG@LBMJKLCP@Plugin?5?8?$CFs?8?5unloaded?4?$AA@ 03084918     MQ2Commands.obj
 0002:00002930       ??_C@_06JJDOMDIK@unload?$AA@ 03084930     MQ2Commands.obj
 0002:00002938       ??_C@_0DH@FIHILDHA@Usage?3?5?1Plugin?5name?5?$FLunload?$FN?5?$FLno@ 03084938     MQ2Commands.obj
 0002:00002970       ??_C@_0BH@DLNAHGED@?$CFd?5Plugin?$CFs?5displayed?4?$AA@ 03084970     MQ2Commands.obj
 0002:00002988       ??_C@_0BE@PBGCHNLM@No?5Plugins?5defined?4?$AA@ 03084988     MQ2Commands.obj
 0002:0000299c       ??_C@_0P@KODGPFDN@Active?5Plugins?$AA@ 0308499c     MQ2Commands.obj
 0002:000029ac       ??_C@_0BO@EOPMDMHC@?1exec?5?$FLapplication?$FN?5?$FLfg?5?$HM?5bg?$FN?$AA@ 030849ac     MQ2Commands.obj
 0002:000029cc       ??_C@_02GGFIGMBP@fg?$AA@   030849cc     MQ2Commands.obj
 0002:000029d0       ??_C@_02GBFBMEMD@bg?$AA@   030849d0     MQ2Commands.obj
 0002:000029d4       ??_C@_0BC@LHDPJLAH@Application?5Paths?$AA@ 030849d4     MQ2Commands.obj
 0002:000029e8       ??_C@_0O@OOLLPFLF@Opening?5?$CFs?5?$CFs?$AA@ 030849e8     MQ2Commands.obj
 0002:000029f8       ??_C@_0CL@LFKKCMFA@Invalid?5mappable?5command?5or?5key?5@ 030849f8     MQ2Commands.obj
 0002:00002a24       ??_C@_04LDIGEPNM@hold?$AA@ 03084a24     MQ2Commands.obj
 0002:00002a2c       ??_C@_0DC@CHDGLEMG@Usage?3?5?1keypress?5?$DMeqcommand?$HMkeyc@ 03084a2c     MQ2Commands.obj
 0002:00002a60       ??_C@_0FH@OJINLJCG@Usage?3?5?1multiline?5?$DMdelimiter?$DO?5?$DMc@ 03084a60     MQ2Commands.obj
 0002:00002ab8       ??_C@_0BM@DCOBFPNO@No?5target?5for?5ranged?5attack?$AA@ 03084ab8     MQ2Commands.obj
 0002:00002ad8       ??_C@_0EG@EDFLHKI@Invalid?5spawn?5ID?4?5?5Use?5?1ranged?5w@ 03084ad8     MQ2Commands.obj
 0002:00002b20       ??_C@_0BI@GGKBMJCF@Could?5not?5?1loadcfg?5?8?$CFs?8?$AA@ 03084b20     MQ2Commands.obj
 0002:00002b38       ??_C@_0BL@FGEKLAFJ@Usage?3?5?1loadcfg?5?$DMfilename?$DO?$AA@ 03084b38     MQ2Commands.obj
 0002:00002b54       ??_C@_0BG@IABIGCDL@Binds?5dumped?5to?5file?4?$AA@ 03084b54     MQ2Commands.obj
 0002:00002b6c       ??_C@_0BL@GDLCJMMP@Could?5not?5dump?5binds?5to?5?$CFs?$AA@ 03084b6c     MQ2Commands.obj
 0002:00002b88       ??_C@_0BM@JENCKHIA@Usage?5?1dumpbinds?5?$DMfilename?$DO?$AA@ 03084b88     MQ2Commands.obj
 0002:00002ba4       ??_C@_0BK@EOAPDCOG@Usage?3?5?1squelch?5?$DMcommand?$DO?$AA@ 03084ba4     MQ2Commands.obj
 0002:00002bc0       ??_C@_0BM@BPEAONIF@Usage?3?5?1docommand?5?$DMcommand?$DO?$AA@ 03084bc0     MQ2Commands.obj
 0002:00002bdc       ??_C@_0BG@JBGDGLMP@Usage?3?5?1alt?5?$DMcommand?$DO?$AA@ 03084bdc     MQ2Commands.obj
 0002:00002bf4       ??_C@_0BI@FMBKCBCA@Usage?3?5?1shift?5?$DMcommand?$DO?$AA@ 03084bf4     MQ2Commands.obj
 0002:00002c0c       ??_C@_0BH@JBIIHCFI@Usage?3?5?1ctrl?5?$DMcommand?$DO?$AA@ 03084c0c     MQ2Commands.obj
 0002:00002c24       ??_C@_0BL@LHDPGLDD@Usage?3?5?1nomodkey?5?$DMcommand?$DO?$AA@ 03084c24     MQ2Commands.obj
 0002:00002c40       ??_C@_0CG@EMDNKCPO@Usage?3?5?1dosocial?5?$DMlist?$HM?$CCsocial?5n@ 03084c40     MQ2Commands.obj
 0002:00002c68       ??_C@_0BI@BOBAEOOM@Invalid?5Argument?$CIs?$CJ?3?5?$CFs?$AA@ 03084c68     MQ2Commands.obj
 0002:00002c80       ??_C@_08BNKGPBPE@?5?5?$CFd?3?5?$CFs?$AA@ 03084c80     MQ2Commands.obj
 0002:00002c8c       ??_C@_0O@PGJMJLAI@?$CI?$CF2d?0?$CF2d?$CJ?5?$CFs?5?$AA@ 03084c8c     MQ2Commands.obj
 0002:00002c9c       ??_C@_0BM@KLMPKJAH@Socials?3?5?$CIpage?0number?$CJ?5name?$AA@ 03084c9c     MQ2Commands.obj
 0002:00002cb8       ??_C@_0CG@CJOOHEOH@Usage?3?5?1timed?5?$DMdeciseconds?$DO?5?$DMcom@ 03084cb8     MQ2Commands.obj
 0002:00002ce0       ??_C@_0CB@JIJECFDA@Window?5?8?$CFs?8?5not?5container?5window@ 03084ce0     MQ2Commands.obj
 0002:00002d04       ??_C@_0BF@EBAGIKLO@Window?5?8?$CFs?8?5not?5open?$AA@ 03084d04     MQ2Commands.obj
 0002:00002d1c       ??_C@_0BH@JCNLGBFK@Usage?3?5?1combine?5?$DMpack?$DO?$AA@ 03084d1c     MQ2Commands.obj
 0002:00002d34       ??_C@_06GIIDEEDO@Always?$AA@ 03084d34     MQ2Commands.obj
 0002:00002d3c       ??_C@_06KHDOHNKC@always?$AA@ 03084d3c     MQ2Commands.obj
 0002:00002d44       ??_C@_07BENPCPPN@UnderUI?$AA@ 03084d44     MQ2Commands.obj
 0002:00002d4c       ??_C@_07EAGACPOJ@underui?$AA@ 03084d4c     MQ2Commands.obj
 0002:00002d54       ??_C@_07BBPDPABH@HUDMode?$AA@ 03084d54     MQ2Commands.obj
 0002:00002d5c       ??_C@_06EFAGIKOH@Normal?$AA@ 03084d5c     MQ2Commands.obj
 0002:00002d64       ??_C@_06IKLLLDHL@normal?$AA@ 03084d64     MQ2Commands.obj
 0002:00002d70       ??_C@_0HC@MGDJKDDI@Note?3?5?8always?8?5forces?5?8underui?8?5@ 03084d70     MQ2Commands.obj
 0002:00002de4       ??_C@_0CE@MELCIJPJ@Usage?3?5?1hud?5?$DMnormal?$HMunderui?$HMalwa@ 03084de4     MQ2Commands.obj
 0002:00002e08       ??_C@_0BK@IHGBHPCM@Invalid?5caption?5type?5?8?$CFs?8?$AA@ 03084e08     MQ2Commands.obj
 0002:00002e24       ??_C@_0BL@FNCDJOEJ@MQCaptions?5are?5now?5?$AHy?$CFs?$AHx?4?$AA@ 03084e24     MQ2Commands.obj
 0002:00002e40       ??_C@_03GCDBBDDL@Off?$AA@  03084e40     MQ2Commands.obj
 0002:00002e44       ??_C@_02IAAGKKDJ@On?$AA@   03084e44     MQ2Commands.obj
 0002:00002e48       ??_C@_0L@OJMLMJOA@MQCaptions?$AA@ 03084e48     MQ2Commands.obj
 0002:00002e58       ??_C@_0EB@KCMECHKD@?$AHy?$CFd?$AHx?5nearest?5spawns?5will?5have?5@ 03084e58     MQ2Commands.obj
 0002:00002e9c       ??_C@_06LMAGPFNF@Update?$AA@ 03084e9c     MQ2Commands.obj
 0002:00002ea4       ??_C@_0BE@OCMCGKC@?$AHy?$CFs?$AHx?5caption?5set?4?$AA@ 03084ea4     MQ2Commands.obj
 0002:00002eb8       ??_C@_08CPEPNFDM@Captions?$AA@ 03084eb8     MQ2Commands.obj
 0002:00002ec4       ??_C@_06EIMCKIDC@Corpse?$AA@ 03084ec4     MQ2Commands.obj
 0002:00002ecc       ??_C@_03BCJIDNJL@NPC?$AA@  03084ecc     MQ2Commands.obj
 0002:00002ed0       ??_C@_03BAPJJKHI@Pet?$AA@  03084ed0     MQ2Commands.obj
 0002:00002ed4       ??_C@_07FECAODHI@Player4?$AA@ 03084ed4     MQ2Commands.obj
 0002:00002edc       ??_C@_07BLGBHFLP@Player3?$AA@ 03084edc     MQ2Commands.obj
 0002:00002ee4       ??_C@_07CHKEEPO@Player2?$AA@ 03084ee4     MQ2Commands.obj
 0002:00002eec       ??_C@_07CJFHBHDN@Player1?$AA@ 03084eec     MQ2Commands.obj
 0002:00002ef4       ??_C@_0BD@NIDHIFHN@?$AHyCorpse?$AHx?3?5?$AHg?$CFs?$AHx?$AA@ 03084ef4     MQ2Commands.obj
 0002:00002f08       ??_C@_0BA@EBJACKKD@?$AHyPet?$AHx?3?5?$AHg?$CFs?$AHx?$AA@ 03084f08     MQ2Commands.obj
 0002:00002f18       ??_C@_0BA@JGFOMCPI@?$AHyNPC?$AHx?3?5?$AHg?$CFs?$AHx?$AA@ 03084f18     MQ2Commands.obj
 0002:00002f28       ??_C@_0BE@CLFGKKOM@?$AHyPlayer4?$AHx?3?5?$AHg?$CFs?$AHx?$AA@ 03084f28     MQ2Commands.obj
 0002:00002f3c       ??_C@_0BE@FPMOEDGD@?$AHyPlayer3?$AHx?3?5?$AHg?$CFs?$AHx?$AA@ 03084f3c     MQ2Commands.obj
 0002:00002f50       ??_C@_0BE@MEGLAPAM@?$AHyPlayer2?$AHx?3?5?$AHg?$CFs?$AHx?$AA@ 03084f50     MQ2Commands.obj
 0002:00002f64       ??_C@_0BE@LDPFNNPM@?$AHyPlayer1?$AHx?3?5?$AHg?$CFs?$AHx?$AA@ 03084f64     MQ2Commands.obj
 0002:00002f78       ??_C@_0EB@DFLMAJLI@Usage?3?5?1caption?5?$DMlist?$HMtype?5?$DMvalu@ 03084f78     MQ2Commands.obj
 0002:00002fbc       ??_C@_0BK@LCNGLGFD@Usage?3?5?1noparse?5?$DMcommand?$DO?$AA@ 03084fbc     MQ2Commands.obj
 0002:00002fd8       ??_C@_09NLKDIOIN@Echo?5?9?5?$CFs?$AA@ 03084fd8     MQ2Commands.obj
 0002:00002fe4       ??_C@_05NDFMEALA@?$FLMQ2?$FN?$AA@ 03084fe4     MQ2Commands.obj
 0002:00002ff0       ??_7length_error@std@@6B@  03084ff0     MQ2Commands.obj
 0002:00002ff8       ??_C@_0BE@JONHPENG@map?1set?$DMT?$DO?5too?5long?$AA@ 03084ff8     MQ2Commands.obj
 0002:00003010       ??_7MQ2Type@MQ2Internal@@6B@ 03085010     MQ2Commands.obj
 0002:00003028       ??_C@_07HFDFAPD@TimeHMS?$AA@ 03085028     MQ2Commands.obj
 0002:00003030       ??_C@_05CEADFHJI@Ticks?$AA@ 03085030     MQ2Commands.obj
 0002:00003038       ??_C@_0N@KOOHOIJK@TotalSeconds?$AA@ 03085038     MQ2Commands.obj
 0002:00003048       ??_C@_0N@KINOOAMG@TotalMinutes?$AA@ 03085048     MQ2Commands.obj
 0002:00003058       ??_C@_04OKOFBOPB@Time?$AA@ 03085058     MQ2Commands.obj
 0002:00003060       ??_C@_07JNMNODGA@Seconds?$AA@ 03085060     MQ2Commands.obj
 0002:00003068       ??_C@_07JLPEOLDM@Minutes?$AA@ 03085068     MQ2Commands.obj
 0002:00003074       ??_7MQ2TicksType@@6B@      03085074     MQ2Commands.obj
 0002:0000308c       ??_C@_05LJNCPAGE@Hours?$AA@ 0308508c     MQ2Commands.obj
 0002:00003094       ??_C@_05CDKPFCKO@ticks?$AA@ 03085094     MQ2Commands.obj
 0002:000030a0       ??_C@_0FH@PBNKDAAC@Usage?3?5?1aa?5list?5?$FLall?$HMtimers?$HMread@ 030850a0     MQ2Commands.obj
 0002:000030f8       ??_C@_0M@NAOBNJKM@?1alt?5act?5?$CFd?$AA@ 030850f8     MQ2Commands.obj
 0002:00003104       ??_C@_03FMODHJAO@act?$AA@  03085104     MQ2Commands.obj
 0002:00003108       ??_C@_0DA@NJOADDBB@Min?5Level?3?5?$CFd?0?5Cost?3?5?$CFd?0?5Max?5Ran@ 03085108     MQ2Commands.obj
 0002:00003138       ??_C@_0L@HNAGCDIF@Ready?3?5Yes?$AA@ 03085138     MQ2Commands.obj
 0002:00003144       ??_C@_0BF@BKFNOJAK@Ready?3?5Not?5Purchased?$AA@ 03085144     MQ2Commands.obj
 0002:0000315c       ??_C@_0CF@LHLKLLBN@Ready?3?5No?5?$CI?$CFd?5seconds?5until?5refr@ 0308515c     MQ2Commands.obj
 0002:00003184       ??_C@_0BA@KOKACMCA@Casts?5Spell?3?5?$CFs?$AA@ 03085184     MQ2Commands.obj
 0002:00003198       ??_C@_0EI@BIEPEMKI@Min?5Level?3?5?$CFd?0?5Cost?3?5?$CFd?0?5Max?5Ran@ 03085198     MQ2Commands.obj
 0002:000031e0       ??_C@_0O@FJCJENHF@?$FL?5?$CFd?3?5?$CFs?5?$FN?5?$CFs?$AA@ 030851e0     MQ2Commands.obj
 0002:000031f0       ??_C@_0CM@JHDGHFGP@?9?9?9?9?9?9?9?9?9?9?9?9?9?9?9?9?9?9?9?9?9?9?9?9?9?9?9?9?9?9?9?9@ 030851f0     MQ2Commands.obj
 0002:0000321c       ??_C@_0CM@MPEOFIDA@Alternative?5Advancement?5Ability?5@ 0308521c     MQ2Commands.obj
 0002:00003248       ??_C@_04NIDJFNBE@info?$AA@ 03085248     MQ2Commands.obj
 0002:00003250       ??_C@_0FB@NLHFBHKI@Usage?3?5?1aa?5list?5?$FLall?$HMtimers?$FN?0?5?1a@ 03085250     MQ2Commands.obj
 0002:000032a4       ??_C@_0DK@KHLAIDJK@?$FL?5?$CFd?3?5?$CFs?5?$FN?5?$CIReuse?5Time?3?5?$CFd?5secon@ 030852a4     MQ2Commands.obj
 0002:000032e0       ??_C@_0CM@KFMBGFEA@?$FL?5?$CFd?3?5?$CFs?5?$FN?5?$CIReuse?5Time?3?5?$CFd?5secon@ 030852e0     MQ2Commands.obj
 0002:0000330c       ??_C@_0CC@FEPGPHHN@?9?9?9?9?9?9?9?9?9?9?9?9?9?9?9?9?9?9?9?9?9?9?9?9?9?9?9?9?9?9?9?9@ 0308530c     MQ2Commands.obj
 0002:00003330       ??_C@_0CC@GIKFDL@Alternative?5Abilities?5With?5Timer@ 03085330     MQ2Commands.obj
 0002:00003354       ??_C@_06GLHCKION@timers?$AA@ 03085354     MQ2Commands.obj
 0002:0000335c       ??_C@_0L@FADBELNL@?$FL?5?$CFd?3?5?$CFs?5?$FN?$AA@ 0308535c     MQ2Commands.obj
 0002:00003368       ??_C@_0CG@HMIINNMI@?9?9?9?9?9?9?9?9?9?9?9?9?9?9?9?9?9?9?9?9?9?9?9?9?9?9?9?9?9?9?9?9@ 03085368     MQ2Commands.obj
 0002:00003390       ??_C@_0CG@NAKDMOID@Alternative?5Abilities?5?$CIComplete?5@ 03085390     MQ2Commands.obj
 0002:000033b8       ??_C@_0EM@CNFDJJLH@Due?5to?5complete?5misuse?5of?5the?5St@ 030853b8     MQ2Data.obj
 0002:00003404       __real@43b40000            03085404     MQ2Data.obj
 0002:00003408       __real@4056800000000000    03085408     MQ2Data.obj
 0002:00003410       ??_C@_05MAJJAKPI@FALSE?$AA@ 03085410     MQ2Data.obj
 0002:00003418       ??_C@_04HIBGFPH@NULL?$AA@  03085418     MQ2Data.obj
 0002:00003420       __real@412e847e00000000    03085420     MQ2Data.obj
 0002:00003428       ??_C@_02NONPIBCD@?$HM?$HM?$AA@ 03085428     MQ2Data.obj
 0002:0000342c       ??_C@_01EGHLPGGP@?$KG?$AA@ 0308542c     MQ2Data.obj
 0002:00003430       ??_C@_02PGHGPEOM@?91?$AA@  03085430     MQ2Data.obj
 0002:00003434       ??_C@_05GNKDCGJG@charm?$AA@ 03085434     MQ2Data.obj
 0002:0000343c       ??_C@_0BE@KJPCFCJA@Bug?5in?5array?5logic?6?$AA@ 0308543c     MQ2DataAPI.obj
 0002:00003450       ??_C@_07OAMEEFKI@Friends?$AA@ 03085450     MQ2DataAPI.obj
 0002:00003458       ??_C@_0M@CGJDPABC@DynamicZone?$AA@ 03085458     MQ2DataAPI.obj
 0002:00003464       ??_C@_0L@KPFLOFGN@ItemTarget?$AA@ 03085464     MQ2DataAPI.obj
 0002:00003470       ??_C@_0L@ILDEHLGM@DoorTarget?$AA@ 03085470     MQ2DataAPI.obj
 0002:0000347c       ??_C@_06HJGPBJLE@Select?$AA@ 0308547c     MQ2DataAPI.obj
 0002:00003484       ??_C@_06BFMLBAJE@Plugin?$AA@ 03085484     MQ2DataAPI.obj
 0002:0000348c       ??_C@_0M@OOIFLEFP@LineOfSight?$AA@ 0308548c     MQ2DataAPI.obj
 0002:00003498       ??_C@_0L@HCDMNIFA@SpawnCount?$AA@ 03085498     MQ2DataAPI.obj
 0002:000034a4       ??_C@_0M@MJBJFOFH@NamingSpawn?$AA@ 030854a4     MQ2DataAPI.obj
 0002:000034b0       ??_C@_04LOADFKCD@Raid?$AA@ 030854b0     MQ2DataAPI.obj
 0002:000034b8       ??_C@_0L@IECGBPMA@AltAbility?$AA@ 030854b8     MQ2DataAPI.obj
 0002:000034c4       ??_C@_05OEGOMMDP@Skill?$AA@ 030854c4     MQ2DataAPI.obj
 0002:000034cc       ??_C@_0BC@LAGNAGI@FindItemBankCount?$AA@ 030854cc     MQ2DataAPI.obj
 0002:000034e0       ??_C@_0O@EFOIBPAE@FindItemCount?$AA@ 030854e0     MQ2DataAPI.obj
 0002:000034f0       ??_C@_0N@LBNECPMG@SelectedItem?$AA@ 030854f0     MQ2DataAPI.obj
 0002:00003500       ??_C@_07KMGGONHL@InvSlot?$AA@ 03085500     MQ2DataAPI.obj
 0002:00003508       ??_C@_0N@NAJACCFP@FindItemBank?$AA@ 03085508     MQ2DataAPI.obj
 0002:00003518       ??_C@_08BMMHEBGK@FindItem?$AA@ 03085518     MQ2DataAPI.obj
 0002:00003524       ??_C@_09LDIBLFAH@LastSpawn?$AA@ 03085524     MQ2DataAPI.obj
 0002:00003530       ??_C@_07DAHPFBOA@Defined?$AA@ 03085530     MQ2DataAPI.obj
 0002:00003538       ??_C@_07DIOKDEDN@Heading?$AA@ 03085538     MQ2DataAPI.obj
 0002:00003540       ??_C@_03MONBABJA@Ini?$AA@  03085540     MQ2DataAPI.obj
 0002:00003544       ??_C@_08NOCEIAGF@GameTime?$AA@ 03085544     MQ2DataAPI.obj
 0002:00003550       ??_C@_04KOACHJEN@Type?$AA@ 03085550     MQ2DataAPI.obj
 0002:00003558       ??_C@_0N@BCGJLHIP@NearestSpawn?$AA@ 03085558     MQ2DataAPI.obj
 0002:00003568       ??_C@_06OIIFPIKD@Cursor?$AA@ 03085568     MQ2DataAPI.obj
 0002:00003570       ??_C@_02EMFCFMID@If?$AA@   03085570     MQ2DataAPI.obj
 0002:00003574       ??_C@_05KKPNNHNB@Float?$AA@ 03085574     MQ2DataAPI.obj
 0002:0000357c       ??_C@_04PCGIEMCI@Bool?$AA@ 0308557c     MQ2DataAPI.obj
 0002:00003584       ??_C@_03DBLNGNIM@Int?$AA@  03085584     MQ2DataAPI.obj
 0002:00003588       ??_C@_06ENNEIMBA@String?$AA@ 03085588     MQ2DataAPI.obj
 0002:00003590       ??_C@_05MBDCODDP@Group?$AA@ 03085590     MQ2DataAPI.obj
 0002:00003598       ??_C@_04HCPIEBBF@Zone?$AA@ 03085598     MQ2DataAPI.obj
 0002:000035a0       ??_C@_04OEPICFFP@Math?$AA@ 030855a0     MQ2DataAPI.obj
 0002:000035a8       ??_C@_05MFCKIKKI@Macro?$AA@ 030855a8     MQ2DataAPI.obj
 0002:000035b0       ??_C@_06BKKJGDHO@Window?$AA@ 030855b0     MQ2DataAPI.obj
 0002:000035b8       ??_C@_08HIHFOLBK@Merchant?$AA@ 030855b8     MQ2DataAPI.obj
 0002:000035c4       ??_C@_06KBIODPAH@Ground?$AA@ 030855c4     MQ2DataAPI.obj
 0002:000035cc       ??_C@_06PBEDFIPD@Switch?$AA@ 030855cc     MQ2DataAPI.obj
 0002:000035d4       ??_C@_05LJIINFBE@Spell?$AA@ 030855d4     MQ2DataAPI.obj
 0002:000035dc       ??_C@_02GAHGKHJM@Me?$AA@   030855dc     MQ2DataAPI.obj
 0002:000035e0       ??_C@_06FGANPIPG@Target?$AA@ 030855e0     MQ2DataAPI.obj
 0002:000035e8       ??_C@_05BEKPGMFA@Spawn?$AA@ 030855e8     MQ2DataAPI.obj
 0002:000035f0       ??_C@_0BJ@DJDNKNLO@No?5such?5?8?$CFs?8?5member?5?8?$CFs?8?$AA@ 030855f0     MQ2DataAPI.obj
 0002:0000360c       ??_C@_0CJ@OLFBHDGI@Encountered?5member?5access?5withou@ 0308560c     MQ2DataAPI.obj
 0002:00003638       ??_C@_0EO@CHMHKKGF@Unmatched?5bracket?5or?5invalid?5cha@ 03085638     MQ2DataAPI.obj
 0002:00003688       ??_C@_0CN@LCFNAGDH@Invalid?5character?5found?5after?5ty@ 03085688     MQ2DataAPI.obj
 0002:000036b8       ??_C@_0BC@PFLIDHCH@Unknown?5type?5?8?$CFs?8?$AA@ 030856b8     MQ2DataAPI.obj
 0002:000036cc       ??_C@_0CC@HLMILIOG@Encountered?5unmatched?5parenthesi@ 030856cc     MQ2DataAPI.obj
 0002:000036f0       ??_C@_0CM@IFFFOIOA@Encountered?5typecast?5without?5obj@ 030856f0     MQ2DataAPI.obj
 0002:0000371c       ??_C@_0BB@JLIINDBE@Nothing?5to?5parse?$AA@ 0308571c     MQ2DataAPI.obj
 0002:00003730       ??_C@_02PDDBGIOM@$?$HL?$AA@ 03085730     MQ2DataAPI.obj
 0002:00003734       ??_C@_0BC@OBAKKLMJ@?$CKUNKNOWN?5BODYTYPE?$AA@ 03085734     MQ2DataTypes.obj
 0002:00003748       ??_C@_0BB@MFFACEBI@Earthen_Strength?$AA@ 03085748     MQ2DataTypes.obj
 0002:0000375c       ??_C@_0BA@LBPDCFNI@Guardian_Circle?$AA@ 0308575c     MQ2DataTypes.obj
 0002:0000376c       ??_C@_09LFLEJE@Circle_of?$AA@ 0308576c     MQ2DataTypes.obj
 0002:00003778       ??_C@_04HNCMLNCP@Rune?$AA@ 03085778     MQ2DataTypes.obj
 0002:00003780       ??_C@_06ONLJKEMD@Poison?$AA@ 03085780     MQ2DataTypes.obj
 0002:00003788       ??_C@_04FCLJPKDI@Idol?$AA@ 03085788     MQ2DataTypes.obj
 0002:00003790       ??_C@_07JAMANMOD@s_Mount?$AA@ 03085790     MQ2DataTypes.obj
 0002:00003798       __real@405e000000000000    03085798     MQ2DataTypes.obj
 0002:000037a0       ??_C@_04HGGMHPIM@?$CF?4?$CKf?$AA@ 030857a0     MQ2DataTypes.obj
 0002:000037a8       ??_C@_04GFJLOHHD@?$CF?43f?$AA@ 030857a8     MQ2DataTypes.obj
 0002:000037b0       ??_C@_04GEFJINEE@?$CF?42f?$AA@ 030857b0     MQ2DataTypes.obj
 0002:000037b8       ??_C@_04GGBPDDBN@?$CF?41f?$AA@ 030857b8     MQ2DataTypes.obj
 0002:000037c0       ??_C@_02NJNOFBBI@?$CFx?$AA@ 030857c0     MQ2DataTypes.obj
 0002:000037c4       ??_C@_0DD@ENFDLBG@GetDistance3D?$CI?$CF1?40f?0?$CF1?40f?0?$CF1?40f?0@ 030857c4     MQ2DataTypes.obj
 0002:000037f8       __real@bff0000000000000    030857f8     MQ2DataTypes.obj
 0002:00003800       ??_C@_07COCHMHBB@?$CFd?3?$CF02d?$AA@ 03085800     MQ2DataTypes.obj
 0002:00003808       ??_C@_0N@PKIKNCIH@?$CFd?3?$CF02d?3?$CF02d?$AA@ 03085808     MQ2DataTypes.obj
 0002:00003818       ??_C@_04IKBAGJMM@Perm?$AA@ 03085818     MQ2DataTypes.obj
 0002:00003820       ??_C@_0L@FLCDDABN@?$CF?40f?0?5?$CF?40f?$AA@ 03085820     MQ2DataTypes.obj
 0002:0000382c       ??_C@_0L@HGFBMMPF@?$CF?42f?0?5?$CF?42f?$AA@ 0308582c     MQ2DataTypes.obj
 0002:00003838       ??_C@_03FNPLCCOA@RED?$AA@  03085838     MQ2DataTypes.obj
 0002:0000383c       ??_C@_06EJLGEEJJ@YELLOW?$AA@ 0308583c     MQ2DataTypes.obj
 0002:00003844       ??_C@_05DHJCFPAA@WHITE?$AA@ 03085844     MQ2DataTypes.obj
 0002:0000384c       ??_C@_04CNFFLDFF@BLUE?$AA@ 0308584c     MQ2DataTypes.obj
 0002:00003854       ??_C@_0L@KOLACNOC@LIGHT?5BLUE?$AA@ 03085854     MQ2DataTypes.obj
 0002:00003860       ??_C@_05KKNCHNIM@GREEN?$AA@ 03085860     MQ2DataTypes.obj
 0002:00003868       ??_C@_04KPCCOCKE@GREY?$AA@ 03085868     MQ2DataTypes.obj
 0002:00003870       ??_C@_07NFANNNEC@UNKNOWN?$AA@ 03085870     MQ2DataTypes.obj
 0002:00003878       ??_C@_04NNCJDDJC@DEAD?$AA@ 03085878     MQ2DataTypes.obj
 0002:00003880       ??_C@_05PKBMIOGN@FEIGN?$AA@ 03085880     MQ2DataTypes.obj
 0002:00003888       ??_C@_04BDODDOLH@BIND?$AA@ 03085888     MQ2DataTypes.obj
 0002:00003890       ??_C@_04JCMKMKM@DUCK?$AA@  03085890     MQ2DataTypes.obj
 0002:00003898       ??_C@_03KGJPKOLA@SIT?$AA@  03085898     MQ2DataTypes.obj
 0002:0000389c       ??_C@_05MEANFIJN@STAND?$AA@ 0308589c     MQ2DataTypes.obj
 0002:000038a4       ??_C@_05HPFIEPHM@MOUNT?$AA@ 030858a4     MQ2DataTypes.obj
 0002:000038ac       ??_C@_05GHCPDJEG@HOVER?$AA@ 030858ac     MQ2DataTypes.obj
 0002:000038b4       ??_C@_04GIMKLNM@STUN?$AA@  030858b4     MQ2DataTypes.obj
 0002:000038bc       ??_C@_05IONMNAMI@Flyer?$AA@ 030858bc     MQ2DataTypes.obj
 0002:000038c4       ??_C@_09GBMHKGMF@Mercenary?$AA@ 030858c4     MQ2DataTypes.obj
 0002:000038d0       ??_C@_06ELFECKBG@Object?$AA@ 030858d0     MQ2DataTypes.obj
 0002:000038d8       ??_C@_04BGCMBJDA@Item?$AA@ 030858d8     MQ2DataTypes.obj
 0002:000038e0       ??_C@_05NHFJDMOA@Timer?$AA@ 030858e0     MQ2DataTypes.obj
 0002:000038e8       ??_C@_07MBELDEGC@Trigger?$AA@ 030858e8     MQ2DataTypes.obj
 0002:000038f0       ??_C@_04FDFCNBBP@Trap?$AA@ 030858f0     MQ2DataTypes.obj
 0002:000038f8       ??_C@_05HPKPHHNI@Chest?$AA@ 030858f8     MQ2DataTypes.obj
 0002:00003900       ??_C@_02LHFGBEJL@PC?$AA@   03085900     MQ2DataTypes.obj
 0002:00003904       ??_C@_0N@HEOPGOIB@Untargetable?$AA@ 03085904     MQ2DataTypes.obj
 0002:00003914       ??_C@_05LDGCKNAE@Mount?$AA@ 03085914     MQ2DataTypes.obj
 0002:0000391c       __real@3f800000            0308591c     MQ2DataTypes.obj
 0002:00003920       __real@4024000000000000    03085920     MQ2DataTypes.obj
 0002:00003928       ??_C@_07PPEEPDBO@RESTING?$AA@ 03085928     MQ2DataTypes.obj
 0002:00003930       ??_C@_06MHJDLBHA@ACTIVE?$AA@ 03085930     MQ2DataTypes.obj
 0002:00003938       ??_C@_08KNIACHAJ@COOLDOWN?$AA@ 03085938     MQ2DataTypes.obj
 0002:00003944       ??_C@_08PPKKOHOF@DEBUFFED?$AA@ 03085944     MQ2DataTypes.obj
 0002:00003950       ??_C@_06NHIPIEDF@COMBAT?$AA@ 03085950     MQ2DataTypes.obj
 0002:00003958       ??_C@_0BD@LBKACMBP@PW_CombatStateAnim?$AA@ 03085958     MQ2DataTypes.obj
 0002:0000396c       ??_C@_0BA@FFPIDLGK@Disciple?8s?5Aura?$AA@ 0308596c     MQ2DataTypes.obj
 0002:0000397c       ??_C@_0P@CFJDMFJI@Disciples?5Aura?$AA@ 0308597c     MQ2DataTypes.obj
 0002:0000398c       ??_C@_0BH@PKKJLJNB@Embrace?5of?5the?5Keepers?$AA@ 0308598c     MQ2DataTypes.obj
 0002:000039a4       ??_C@_0BK@GLNCBJPG@Embrace?5of?5the?5Dark?5Reign?$AA@ 030859a4     MQ2DataTypes.obj
 0002:000039c0       ??_C@_0BC@OMMNCMBK@mystical?5attuning?$AA@ 030859c0     MQ2DataTypes.obj
 0002:000039d4       ??_C@_04HCDDPBNL@TRUE?$AA@ 030859d4     MQ2DataTypes.obj
 0002:000039e0       __real@400a666660000000    030859e0     MQ2DataTypes.obj
 0002:000039e8       ??_C@_05HJMIGINN@Curse?$AA@ 030859e8     MQ2DataTypes.obj
 0002:000039f0       __real@41f0000000000000    030859f0     MQ2DataTypes.obj
 0002:000039f8       ??_C@_0O@IMGOOOIO@Line?5of?5Sight?$AA@ 030859f8     MQ2DataTypes.obj
 0002:00003a08       ??_C@_08FLBBJPAA@AE?5PC?5v1?$AA@ 03085a08     MQ2DataTypes.obj
 0002:00003a14       ??_C@_08KEKAOPKN@Group?5v1?$AA@ 03085a14     MQ2DataTypes.obj
 0002:00003a20       ??_C@_05DMOEKOAL@PB?5AE?$AA@ 03085a20     MQ2DataTypes.obj
 0002:00003a28       ??_C@_06IGOBCGAJ@Single?$AA@ 03085a28     MQ2DataTypes.obj
 0002:00003a30       ??_C@_04DIPMEEKN@Self?$AA@ 03085a30     MQ2DataTypes.obj
 0002:00003a38       ??_C@_0M@IHAEONJ@Targeted?5AE?$AA@ 03085a38     MQ2DataTypes.obj
 0002:00003a44       ??_C@_06GPCCIPDI@Animal?$AA@ 03085a44     MQ2DataTypes.obj
 0002:00003a4c       ??_C@_06JEOFBLD@Undead?$AA@ 03085a4c     MQ2DataTypes.obj
 0002:00003a54       ??_C@_08GHIEPPHD@Summoned?$AA@ 03085a54     MQ2DataTypes.obj
 0002:00003a60       ??_C@_07FHPLKKGM@LifeTap?$AA@ 03085a60     MQ2DataTypes.obj
 0002:00003a68       ??_C@_05JEPBAGFJ@Plant?$AA@ 03085a68     MQ2DataTypes.obj
 0002:00003a70       ??_C@_0M@LOLBFMFF@Uber?5Giants?$AA@ 03085a70     MQ2DataTypes.obj
 0002:00003a7c       ??_C@_0N@GKANHDAJ@Uber?5Dragons?$AA@ 03085a7c     MQ2DataTypes.obj
 0002:00003a8c       ??_C@_0BA@ODDIMIAN@Targeted?5AE?5Tap?$AA@ 03085a8c     MQ2DataTypes.obj
 0002:00003a9c       ??_C@_09GLKDKODL@AE?5Undead?$AA@ 03085a9c     MQ2DataTypes.obj
 0002:00003aa8       ??_C@_0M@LJNMGAFA@AE?5Summoned?$AA@ 03085aa8     MQ2DataTypes.obj
 0002:00003ab4       ??_C@_08HADMMMMD@AE?5PC?5v2?$AA@ 03085ab4     MQ2DataTypes.obj
 0002:00003ac0       ??_C@_08IPINLMGO@Group?5v2?$AA@ 03085ac0     MQ2DataTypes.obj
 0002:00003acc       ??_C@_0M@IIMFDCND@Detrimental?$AA@ 03085acc     MQ2DataTypes.obj
 0002:00003ad8       ??_C@_0L@POEEMCAF@Beneficial?$AA@ 03085ad8     MQ2DataTypes.obj
 0002:00003ae4       ??_C@_0BC@HPDDNGFC@Beneficial?$CIGroup?$CJ?$AA@ 03085ae4     MQ2DataTypes.obj
 0002:00003af8       ??_C@_07NBCGADJA@Unknown?$AA@ 03085af8     MQ2DataTypes.obj
 0002:00003b00       ??_C@_0N@JDEOKLDN@Unresistable?$AA@ 03085b00     MQ2DataTypes.obj
 0002:00003b10       ??_C@_05PGIOBOGC@Magic?$AA@ 03085b10     MQ2DataTypes.obj
 0002:00003b18       ??_C@_04OHLPDOFO@Fire?$AA@ 03085b18     MQ2DataTypes.obj
 0002:00003b20       ??_C@_04FJHFBMJ@Cold?$AA@  03085b20     MQ2DataTypes.obj
 0002:00003b28       ??_C@_07DIOHLLGI@Disease?$AA@ 03085b28     MQ2DataTypes.obj
 0002:00003b30       ??_C@_09OAHLBPAO@Chromatic?$AA@ 03085b30     MQ2DataTypes.obj
 0002:00003b3c       ??_C@_09JEKDDGMN@Prismatic?$AA@ 03085b3c     MQ2DataTypes.obj
 0002:00003b48       ??_C@_0L@IMOFNFEB@Corruption?$AA@ 03085b48     MQ2DataTypes.obj
 0002:00003b54       ??_C@_04HMKAAGHL@Worn?$AA@ 03085b54     MQ2DataTypes.obj
 0002:00003b5c       ??_C@_06BMBJGDHL@Combat?$AA@ 03085b5c     MQ2DataTypes.obj
 0002:00003b64       ??_C@_0BA@OMAJKHHF@Click?5Inventory?$AA@ 03085b64     MQ2DataTypes.obj
 0002:00003b74       ??_C@_0L@HFMNFGBE@Click?5Worn?$AA@ 03085b74     MQ2DataTypes.obj
 0002:00003b80       ??_C@_0O@BLBFMPDF@Click?5Unknown?$AA@ 03085b80     MQ2DataTypes.obj
 0002:00003b90       ??_C@_0N@DNHHGBJP@Spell?5Scroll?$AA@ 03085b90     MQ2DataTypes.obj
 0002:00003ba0       __real@3ff0000000000000    03085ba0     MQ2DataTypes.obj
 0002:00003ba8       ??_C@_04LNCJNKOP@Book?$AA@ 03085ba8     MQ2DataTypes.obj
 0002:00003bb0       ??_C@_0BC@ELKEGFOJ@?$CKUnknownCombine?$CFd?$AA@ 03085bb0     MQ2DataTypes.obj
 0002:00003bc4       ??_C@_0P@ILPMKGCF@?$CKUnknownType?$CFd?$AA@ 03085bc4     MQ2DataTypes.obj
 0002:00003bd4       ??_C@_0BD@JAAEBPIG@List?3?5index?5is?5?$CFd?6?$AA@ 03085bd4     MQ2DataTypes.obj
 0002:00003be8       ??_C@_06OOABJBHO@?$CFd?$CFd?$CFd?$AA@ 03085be8     MQ2DataTypes.obj
 0002:00003bf0       ??_C@_0P@LANGEGFB@?$CFs?2MQ2Main?4dll?$AA@ 03085bf0     MQ2DataTypes.obj
 0002:00003c00       ??_C@_06LKGFGFOF@INGAME?$AA@ 03085c00     MQ2DataTypes.obj
 0002:00003c08       ??_C@_0L@FIDPELCN@CHARSELECT?$AA@ 03085c08     MQ2DataTypes.obj
 0002:00003c14       ??_C@_0P@HDPKHENC@?$CF02d?1?$CF02d?1?$CF04d?$AA@ 03085c14     MQ2DataTypes.obj
 0002:00003c24       ??_C@_0P@PLMNPDMB@?$CF02d?3?$CF02d?3?$CF02d?$AA@ 03085c24     MQ2DataTypes.obj
 0002:00003c34       ??_C@_09DGHACKEK@inspect?$CFd?$AA@ 03085c34     MQ2DataTypes.obj
 0002:00003c40       ??_C@_08KGOBKNIO@bazaar?$CFd?$AA@ 03085c40     MQ2DataTypes.obj
 0002:00003c4c       ??_C@_0L@DOHOBMCB@merchant?$CFd?$AA@ 03085c4c     MQ2DataTypes.obj
 0002:00003c58       ??_C@_08LFGAFIOC@enviro?$CFd?$AA@ 03085c58     MQ2DataTypes.obj
 0002:00003c64       ??_C@_07FFMFFOBF@trade?$CFd?$AA@ 03085c64     MQ2DataTypes.obj
 0002:00003c6c       ??_C@_06BHAPEGGA@loot?$CFd?$AA@ 03085c6c     MQ2DataTypes.obj
 0002:00003c74       ??_C@_0N@NCOLNHID@sharedbank?$CFd?$AA@ 03085c74     MQ2DataTypes.obj
 0002:00003c84       ??_C@_06EICADCDE@bank?$CFd?$AA@ 03085c84     MQ2DataTypes.obj
 0002:00003c8c       ??_C@_06EAPBHLGC@pack?$CFd?$AA@ 03085c8c     MQ2DataTypes.obj
 0002:00003c94       ??_C@_09MKEABOPE@Link?5Dead?$AA@ 03085c94     MQ2DataTypes.obj
 0002:00003ca0       ??_C@_0BA@OOGHDMDC@In?5Dynamic?5Zone?$AA@ 03085ca0     MQ2DataTypes.obj
 0002:00003cb0       ??_C@_07BMIEDOEC@Offline?$AA@ 03085cb0     MQ2DataTypes.obj
 0002:00003cb8       ??_C@_06KCABBADG@Online?$AA@ 03085cb8     MQ2DataTypes.obj
 0002:00003cc4       ??_7MQ2BoolType@@6B@       03085cc4     MQ2DataTypes.obj
 0002:00003cdc       ??_C@_04DDKJGDCM@bool?$AA@ 03085cdc     MQ2DataTypes.obj
 0002:00003ce4       ??_C@_07FHPCIAHC@Reverse?$AA@ 03085ce4     MQ2DataTypes.obj
 0002:00003cec       ??_C@_03CJOBKKAE@Hex?$AA@  03085cec     MQ2DataTypes.obj
 0002:00003cf4       ??_7MQ2IntType@@6B@        03085cf4     MQ2DataTypes.obj
 0002:00003d0c       ??_C@_03JBIPMCLC@int?$AA@  03085d0c     MQ2DataTypes.obj
 0002:00003d10       ??_C@_01HMGJMAIH@B?$AA@    03085d10     MQ2DataTypes.obj
 0002:00003d14       ??_C@_01BBODEMC@G?$AA@     03085d14     MQ2DataTypes.obj
 0002:00003d18       ??_C@_01DGKLNCNG@R?$AA@    03085d18     MQ2DataTypes.obj
 0002:00003d20       ??_7MQ2ArgbType@@6B@       03085d20     MQ2DataTypes.obj
 0002:00003d38       ??_C@_01FHEEJDEE@A?$AA@    03085d38     MQ2DataTypes.obj
 0002:00003d3c       ??_C@_04EGOKOKII@argb?$AA@ 03085d3c     MQ2DataTypes.obj
 0002:00003d48       ??_7MQ2ByteType@@6B@       03085d48     MQ2DataTypes.obj
 0002:00003d60       ??_C@_04IHGKJMLH@byte?$AA@ 03085d60     MQ2DataTypes.obj
 0002:00003d68       ??_C@_07NCDBFKBP@Replace?$AA@ 03085d68     MQ2DataTypes.obj
 0002:00003d70       ??_C@_05JLAFMLMB@Token?$AA@ 03085d70     MQ2DataTypes.obj
 0002:00003d78       ??_C@_05IJGIMMHE@Count?$AA@ 03085d78     MQ2DataTypes.obj
 0002:00003d80       ??_C@_0L@NLIABBPC@NotEqualCS?$AA@ 03085d80     MQ2DataTypes.obj
 0002:00003d8c       ??_C@_07NMLIIALK@EqualCS?$AA@ 03085d8c     MQ2DataTypes.obj
 0002:00003d94       ??_C@_08FJNBPCFJ@NotEqual?$AA@ 03085d94     MQ2DataTypes.obj
 0002:00003da0       ??_C@_05JKGNJOO@Equal?$AA@ 03085da0     MQ2DataTypes.obj
 0002:00003da8       ??_C@_09OCKMFFHB@CompareCS?$AA@ 03085da8     MQ2DataTypes.obj
 0002:00003db4       ??_C@_07MBOMJGGF@Compare?$AA@ 03085db4     MQ2DataTypes.obj
 0002:00003dbc       ??_C@_05IIDIPOEN@Lower?$AA@ 03085dbc     MQ2DataTypes.obj
 0002:00003dc4       ??_C@_05NDIGJFPE@Upper?$AA@ 03085dc4     MQ2DataTypes.obj
 0002:00003dcc       ??_C@_06MHCOIGNA@Length?$AA@ 03085dcc     MQ2DataTypes.obj
 0002:00003dd4       ??_C@_04OLJIFFAL@Find?$AA@ 03085dd4     MQ2DataTypes.obj
 0002:00003ddc       ??_C@_05DADPALEM@Right?$AA@ 03085ddc     MQ2DataTypes.obj
 0002:00003de4       ??_C@_04KPCPLBPL@Left?$AA@ 03085de4     MQ2DataTypes.obj
 0002:00003dec       ??_C@_03PBFCPOAP@Mid?$AA@  03085dec     MQ2DataTypes.obj
 0002:00003df4       ??_7MQ2StringType@@6B@     03085df4     MQ2DataTypes.obj
 0002:00003e0c       ??_C@_03IANKFOOF@Arg?$AA@  03085e0c     MQ2DataTypes.obj
 0002:00003e10       ??_C@_06ICGJLFIM@string?$AA@ 03085e10     MQ2DataTypes.obj
 0002:00003e18       ??_C@_09DGDDLEAF@Precision?$AA@ 03085e18     MQ2DataTypes.obj
 0002:00003e24       ??_C@_05ONNLPIMD@Milli?$AA@ 03085e24     MQ2DataTypes.obj
 0002:00003e2c       ??_C@_05KKBNEOPB@Centi?$AA@ 03085e2c     MQ2DataTypes.obj
 0002:00003e38       ??_7MQ2FloatType@@6B@      03085e38     MQ2DataTypes.obj
 0002:00003e50       ??_C@_04GGPIFEMN@Deci?$AA@ 03085e50     MQ2DataTypes.obj
 0002:00003e58       ??_C@_05KNFBNCOH@float?$AA@ 03085e58     MQ2DataTypes.obj
 0002:00003e60       ??_C@_05BFFJOOFJ@LocYX?$AA@ 03085e60     MQ2DataTypes.obj
 0002:00003e68       ??_C@_03CCCHDBP@Loc?$AA@   03085e68     MQ2DataTypes.obj
 0002:00003e6c       ??_C@_0N@JAKFIEPK@MaxEndurance?$AA@ 03085e6c     MQ2DataTypes.obj
 0002:00003e7c       ??_C@_0BB@MJPFOKEB@CurrentEndurance?$AA@ 03085e7c     MQ2DataTypes.obj
 0002:00003e90       ??_C@_07PPKDIPAF@MaxMana?$AA@ 03085e90     MQ2DataTypes.obj
 0002:00003e98       ??_C@_0M@KOCMHKDF@CurrentMana?$AA@ 03085e98     MQ2DataTypes.obj
 0002:00003ea4       ??_C@_08PDPJDMN@Hovering?$AA@ 03085ea4     MQ2DataTypes.obj
 0002:00003eb0       ??_C@_07LAMKFCIN@Stunned?$AA@ 03085eb0     MQ2DataTypes.obj
 0002:00003eb8       ??_C@_04NANCPOOO@Dead?$AA@ 03085eb8     MQ2DataTypes.obj
 0002:00003ec0       ??_C@_0L@DFKGGMBC@StandState?$AA@ 03085ec0     MQ2DataTypes.obj
 0002:00003ecc       ??_C@_06OGKEDPBL@Moving?$AA@ 03085ecc     MQ2DataTypes.obj
 0002:00003ed4       ??_C@_05HILNGHCN@Buyer?$AA@ 03085ed4     MQ2DataTypes.obj
 0002:00003edc       ??_C@_05FJPMODAL@Named?$AA@ 03085edc     MQ2DataTypes.obj
 0002:00003ee4       ??_C@_07BOAJAIHK@Fleeing?$AA@ 03085ee4     MQ2DataTypes.obj
 0002:00003eec       ??_C@_06IDJOGGLK@Suffix?$AA@ 03085eec     MQ2DataTypes.obj
 0002:00003ef4       ??_C@_05PABKJLOM@Title?$AA@ 03085ef4     MQ2DataTypes.obj
 0002:00003efc       ??_C@_0N@MFPGADMN@HeadingToLoc?$AA@ 03085efc     MQ2DataTypes.obj
 0002:00003f0c       ??_C@_0M@LDJOPFGL@Roleplaying?$AA@ 03085f0c     MQ2DataTypes.obj
 0002:00003f18       ??_C@_09FDAMKMKA@Anonymous?$AA@ 03085f18     MQ2DataTypes.obj
 0002:00003f24       ??_C@_06OIOBGJEO@Assist?$AA@ 03085f24     MQ2DataTypes.obj
 0002:00003f2c       ??_C@_04MLFIAKCO@Mark?$AA@ 03085f2c     MQ2DataTypes.obj
 0002:00003f34       ??_C@_0M@MIIGGJNI@GroupLeader?$AA@ 03085f34     MQ2DataTypes.obj
 0002:00003f40       ??_C@_07CDLBFJJI@AATitle?$AA@ 03085f40     MQ2DataTypes.obj
 0002:00003f48       ??_C@_0M@MLHPPPJP@DisplayName?$AA@ 03085f48     MQ2DataTypes.obj
 0002:00003f54       ??_C@_0L@FKPMJENA@MaxRangeTo?$AA@ 03085f54     MQ2DataTypes.obj
 0002:00003f60       ??_C@_07JFAPKFKL@Invited?$AA@ 03085f60     MQ2DataTypes.obj
 0002:00003f68       ??_C@_07JPNMPAFE@Binding?$AA@ 03085f68     MQ2DataTypes.obj
 0002:00003f70       ??_C@_08CPHDGDDI@Feigning?$AA@ 03085f70     MQ2DataTypes.obj
 0002:00003f7c       ??_C@_07MHADILGG@Ducking?$AA@ 03085f7c     MQ2DataTypes.obj
 0002:00003f84       ??_C@_07ONGAHHJO@Sitting?$AA@ 03085f84     MQ2DataTypes.obj
 0002:00003f8c       ??_C@_08CHGFFCLN@Standing?$AA@ 03085f8c     MQ2DataTypes.obj
 0002:00003f98       ??_C@_08HPIALBPL@Linkdead?$AA@ 03085f98     MQ2DataTypes.obj
 0002:00003fa4       ??_C@_05ENCIOJAO@Invis?$AA@ 03085fa4     MQ2DataTypes.obj
 0002:00003fac       ??_C@_09EPFIIAD@DistanceU?$AA@ 03085fac     MQ2DataTypes.obj
 0002:00003fb8       ??_C@_09DGMDOKIB@DistanceW?$AA@ 03085fb8     MQ2DataTypes.obj
 0002:00003fc4       ??_C@_09KNMDEDJJ@DistanceN?$AA@ 03085fc4     MQ2DataTypes.obj
 0002:00003fd0       ??_C@_01CKDDGHAB@D?$AA@    03085fd0     MQ2DataTypes.obj
 0002:00003fd4       ??_C@_01DDCIFGEA@E?$AA@    03085fd4     MQ2DataTypes.obj
 0002:00003fd8       ??_C@_01CPLAODJH@S?$AA@    03085fd8     MQ2DataTypes.obj
 0002:00003fdc       ??_C@_01HJOKEEBB@U?$AA@    03085fdc     MQ2DataTypes.obj
 0002:00003fe0       ??_C@_01ELNMCGJD@W?$AA@    03085fe0     MQ2DataTypes.obj
 0002:00003fe4       ??_C@_01NANMIPIL@N?$AA@    03085fe4     MQ2DataTypes.obj
 0002:00003fe8       ??_C@_04CBJGEIO@Look?$AA@  03085fe8     MQ2DataTypes.obj
 0002:00003ff0       ??_C@_09ONEINPNJ@Animation?$AA@ 03085ff0     MQ2DataTypes.obj
 0002:00003ffc       ??_C@_0L@LFPBPCDD@Underwater?$AA@ 03085ffc     MQ2DataTypes.obj
 0002:00004008       ??_C@_07KLFPNCHK@FeetWet?$AA@ 03086008     MQ2DataTypes.obj
 0002:00004010       ??_C@_07LPDBDIGK@Casting?$AA@ 03086010     MQ2DataTypes.obj
 0002:00004018       ??_C@_06EBOCNPAO@AARank?$AA@ 03086018     MQ2DataTypes.obj
 0002:00004020       ??_C@_08JOBCAEBO@MaxRange?$AA@ 03086020     MQ2DataTypes.obj
 0002:0000402c       ??_C@_06HCAKHJJK@Height?$AA@ 0308602c     MQ2DataTypes.obj
 0002:00004034       ??_C@_06HKFFEOFI@Gender?$AA@ 03086034     MQ2DataTypes.obj
 0002:0000403c       ??_C@_06INNNFHKM@Master?$AA@ 0308603c     MQ2DataTypes.obj
 0002:00004044       ??_C@_0M@BIAJDPFA@GuildStatus?$AA@ 03086044     MQ2DataTypes.obj
 0002:00004050       ??_C@_07EENDBJCO@Surname?$AA@ 03086050     MQ2DataTypes.obj
 0002:00004058       ??_C@_09GIEHGPOB@CleanName?$AA@ 03086058     MQ2DataTypes.obj
 0002:00004064       ??_C@_05GAANFEKB@Deity?$AA@ 03086064     MQ2DataTypes.obj
 0002:0000406c       ??_C@_06PFHKIGJK@PctHPs?$AA@ 0308606c     MQ2DataTypes.obj
 0002:00004074       ??_C@_06HLELDHJO@MaxHPs?$AA@ 03086074     MQ2DataTypes.obj
 0002:0000407c       ??_C@_0L@CKLODNKP@CurrentHPs?$AA@ 0308607c     MQ2DataTypes.obj
 0002:00004088       ??_C@_05JNKNAC@State?$AA@  03086088     MQ2DataTypes.obj
 0002:00004090       ??_C@_09MCIMHFOF@HeadingTo?$AA@ 03086090     MQ2DataTypes.obj
 0002:0000409c       ??_C@_08ENFHHOEJ@Sneaking?$AA@ 0308609c     MQ2DataTypes.obj
 0002:000040a8       ??_C@_0L@MKPPMGML@Levitating?$AA@ 030860a8     MQ2DataTypes.obj
 0002:000040b4       ??_C@_05HOIAGEJD@Speed?$AA@ 030860b4     MQ2DataTypes.obj
 0002:000040bc       ??_C@_04PHIBHIIF@Prev?$AA@ 030860bc     MQ2DataTypes.obj
 0002:000040c4       ??_C@_04MDFHGMOB@Next?$AA@ 030860c4     MQ2DataTypes.obj
 0002:000040cc       ??_C@_0BA@PBMDDGLE@DistancePredict?$AA@ 030860cc     MQ2DataTypes.obj
 0002:000040dc       ??_C@_0L@EBECJJKB@Distance3D?$AA@ 030860dc     MQ2DataTypes.obj
 0002:000040e8       ??_C@_09IDGNJEMM@DistanceZ?$AA@ 030860e8     MQ2DataTypes.obj
 0002:000040f4       ??_C@_09KIEAMHAP@DistanceY?$AA@ 030860f4     MQ2DataTypes.obj
 0002:00004100       ??_C@_09LBFLPGEO@DistanceX?$AA@ 03086100     MQ2DataTypes.obj
 0002:0000410c       ??_C@_01POHCFINO@Z?$AA@    0308610c     MQ2DataTypes.obj
 0002:00004110       ??_C@_01NFFPALBN@Y?$AA@    03086110     MQ2DataTypes.obj
 0002:00004114       ??_C@_01MMEEDKFM@X?$AA@    03086114     MQ2DataTypes.obj
 0002:00004118       ??_C@_04FABLJDN@Name?$AA@  03086118     MQ2DataTypes.obj
 0002:00004124       ??_7MQ2SpawnType@@6B@      03086124     MQ2DataTypes.obj
 0002:0000413c       ??_C@_02OLOABKKD@ID?$AA@   0308613c     MQ2DataTypes.obj
 0002:00004140       ??_C@_05BDADGJGG@spawn?$AA@ 03086140     MQ2DataTypes.obj
 0002:00004148       ??_C@_08MJLOKDKD@Silenced?$AA@ 03086148     MQ2DataTypes.obj
 0002:00004154       ??_C@_08CIEBCABH@Counters?$AA@ 03086154     MQ2DataTypes.obj
 0002:00004160       ??_C@_0BE@DCOCEPLG@EnduranceRegenBonus?$AA@ 03086160     MQ2DataTypes.obj
 0002:00004174       ??_C@_0BC@LKIDBNOM@ClairvoyanceBonus?$AA@ 03086174     MQ2DataTypes.obj
 0002:00004188       ??_C@_0BB@KJJOMCGK@SpellDamageBonus?$AA@ 03086188     MQ2DataTypes.obj
 0002:0000419c       ??_C@_0BA@BJDANPLO@HealAmountBonus?$AA@ 0308619c     MQ2DataTypes.obj
 0002:000041ac       ??_C@_0P@JPDPFEMM@HeroicCHABonus?$AA@ 030861ac     MQ2DataTypes.obj
 0002:000041bc       ??_C@_0P@BIOLDCNJ@HeroicSTABonus?$AA@ 030861bc     MQ2DataTypes.obj
 0002:000041cc       ??_C@_0P@JCBNPFMJ@HeroicDEXBonus?$AA@ 030861cc     MQ2DataTypes.obj
 0002:000041dc       ??_C@_0P@FLAGCAIB@HeroicAGIBonus?$AA@ 030861dc     MQ2DataTypes.obj
 0002:000041ec       ??_C@_0P@FCPIMKMI@HeroicWISBonus?$AA@ 030861ec     MQ2DataTypes.obj
 0002:000041fc       ??_C@_0P@PJJIGELM@HeroicINTBonus?$AA@ 030861fc     MQ2DataTypes.obj
 0002:0000420c       ??_C@_0P@EONNLEIK@HeroicSTRBonus?$AA@ 0308620c     MQ2DataTypes.obj
 0002:0000421c       ??_C@_0BM@KEOBELOF@DamageShieldMitigationBonus?$AA@ 0308621c     MQ2DataTypes.obj
 0002:00004238       ??_C@_08JKILLCNF@Downtime?$AA@ 03086238     MQ2DataTypes.obj
 0002:00004244       ??_C@_0L@ODFIFIBA@Fellowship?$AA@ 03086244     MQ2DataTypes.obj
 0002:00004250       ??_C@_0L@LNENFDKA@Phosphites?$AA@ 03086250     MQ2DataTypes.obj
 0002:0000425c       ??_C@_0L@EHBJAJFK@Phosphenes?$AA@ 0308625c     MQ2DataTypes.obj
 0002:00004268       ??_C@_04JHJEPGCI@Orux?$AA@ 03086268     MQ2DataTypes.obj
 0002:00004270       ??_C@_09LBCNLIOJ@Doubloons?$AA@ 03086270     MQ2DataTypes.obj
 0002:0000427c       ??_C@_0M@DNGHHKKD@svChromatic?$AA@ 0308627c     MQ2DataTypes.obj
 0002:00004288       ??_C@_0M@EJLPFDGA@svPrismatic?$AA@ 03086288     MQ2DataTypes.obj
 0002:00004294       ??_C@_0N@CEFPBGHB@svCorruption?$AA@ 03086294     MQ2DataTypes.obj
 0002:000042a4       ??_C@_0M@BMLBLPMP@CombatState?$AA@ 030862a4     MQ2DataTypes.obj
 0002:000042b0       ??_C@_0BA@LICFELDL@ActiveFavorCost?$AA@ 030862b0     MQ2DataTypes.obj
 0002:000042c0       ??_C@_06JLJIAMKE@LAHoTT?$AA@ 030862c0     MQ2DataTypes.obj
 0002:000042c8       ??_C@_0N@KCAPMAO@LAFindPathPC?$AA@ 030862c8     MQ2DataTypes.obj
 0002:000042d8       ??_C@_0O@CFMJACDB@LAHealthRegen?$AA@ 030862d8     MQ2DataTypes.obj
 0002:000042e8       ??_C@_0BE@PBEEANNN@LAHealthEnhancement?$AA@ 030862e8     MQ2DataTypes.obj
 0002:000042fc       ??_C@_0BC@MMKOFMAF@LAManaEnhancement?$AA@ 030862fc     MQ2DataTypes.obj
 0002:00004310       ??_C@_0BF@BHPEMFEJ@LAOffenseEnhancement?$AA@ 03086310     MQ2DataTypes.obj
 0002:00004328       ??_C@_0BB@MNPDBKNE@LASpellAwareness?$AA@ 03086328     MQ2DataTypes.obj
 0002:0000433c       ??_C@_0P@GEHGMLBC@LAInspectBuffs?$AA@ 0308633c     MQ2DataTypes.obj
 0002:0000434c       ??_C@_0BC@FMGOLMG@LADelegateMarkNPC?$AA@ 0308634c     MQ2DataTypes.obj
 0002:00004360       ??_C@_0N@BDEKJMPJ@LADelegateMA?$AA@ 03086360     MQ2DataTypes.obj
 0002:00004370       ??_C@_0M@PHBFCEDH@LANPCHealth?$AA@ 03086370     MQ2DataTypes.obj
 0002:0000437c       ??_C@_09KKGIAAGA@LAMarkNPC?$AA@ 0308637c     MQ2DataTypes.obj
 0002:00004388       ??_C@_08BENDAOKD@Language?$AA@ 03086388     MQ2DataTypes.obj
 0002:00004394       ??_C@_08LEIBMOK@AutoFire?$AA@ 03086394     MQ2DataTypes.obj
 0002:000043a0       ??_C@_08BJIJPJOC@Shrouded?$AA@ 030863a0     MQ2DataTypes.obj
 0002:000043ac       ??_C@_0N@KPHJLCMP@EbonCrystals?$AA@ 030863ac     MQ2DataTypes.obj
 0002:000043bc       ??_C@_0BA@MCKDCCDJ@RadiantCrystals?$AA@ 030863bc     MQ2DataTypes.obj
 0002:000043cc       ??_C@_0N@NNIGJPAP@TributeTimer?$AA@ 030863cc     MQ2DataTypes.obj
 0002:000043dc       ??_C@_09HKIOFPKP@GroupSize?$AA@ 030863dc     MQ2DataTypes.obj
 0002:000043e8       ??_C@_07JKJCPGE@Running?$AA@ 030863e8     MQ2DataTypes.obj
 0002:000043f0       ??_C@_0BD@MKJGGFPH@CombatAbilityReady?$AA@ 030863f0     MQ2DataTypes.obj
 0002:00004404       ??_C@_0O@DMLKHGHE@TributeActive?$AA@ 03086404     MQ2DataTypes.obj
 0002:00004414       ??_C@_0O@MJAKNIDJ@AAPointsTotal?$AA@ 03086414     MQ2DataTypes.obj
 0002:00004424       ??_C@_0O@FHFNAHEM@AAPointsSpent?$AA@ 03086424     MQ2DataTypes.obj
 0002:00004434       ??_C@_0O@NAACNAII@CurrentWeight?$AA@ 03086434     MQ2DataTypes.obj
 0002:00004444       ??_C@_0O@OAALLOMP@FreeBuffSlots?$AA@ 03086444     MQ2DataTypes.obj
 0002:00004454       ??_C@_0P@GMJCGOKC@EnduranceRegen?$AA@ 03086454     MQ2DataTypes.obj
 0002:00004464       ??_C@_0P@BGLPGIPE@AmIGroupLeader?$AA@ 03086464     MQ2DataTypes.obj
 0002:00004474       ??_C@_09MEDGEHGD@GroupList?$AA@ 03086474     MQ2DataTypes.obj
 0002:00004480       ??_C@_0M@DCMFNGPD@AttackSpeed?$AA@ 03086480     MQ2DataTypes.obj
 0002:0000448c       ??_C@_0P@MNLLAGKJ@DoTShieldBonus?$AA@ 0308648c     MQ2DataTypes.obj
 0002:0000449c       ??_C@_0BC@FKOKJEHP@DamageShieldBonus?$AA@ 0308649c     MQ2DataTypes.obj
 0002:000044b0       ??_C@_0P@PAFGPICB@ManaRegenBonus?$AA@ 030864b0     MQ2DataTypes.obj
 0002:000044c0       ??_C@_0N@JDMBDECJ@HPRegenBonus?$AA@ 030864c0     MQ2DataTypes.obj
 0002:000044d0       ??_C@_0M@NGFLKHHJ@AttackBonus?$AA@ 030864d0     MQ2DataTypes.obj
 0002:000044dc       ??_C@_0BD@LHICGOMA@StrikeThroughBonus?$AA@ 030864dc     MQ2DataTypes.obj
 0002:000044f0       ??_C@_0BA@BGIKKCLG@StunResistBonus?$AA@ 030864f0     MQ2DataTypes.obj
 0002:00004500       ??_C@_0O@NLGBNPMB@AccuracyBonus?$AA@ 03086500     MQ2DataTypes.obj
 0002:00004510       ??_C@_0P@MMLJKCBB@AvoidanceBonus?$AA@ 03086510     MQ2DataTypes.obj
 0002:00004520       ??_C@_0BB@FEJBOAI@SpellShieldBonus?$AA@ 03086520     MQ2DataTypes.obj
 0002:00004534       ??_C@_0P@BMIKDEEP@ShieldingBonus?$AA@ 03086534     MQ2DataTypes.obj
 0002:00004544       ??_C@_0BD@KBJEBFGD@CombatEffectsBonus?$AA@ 03086544     MQ2DataTypes.obj
 0002:00004558       ??_C@_0P@LLLGPEHO@EnduranceBonus?$AA@ 03086558     MQ2DataTypes.obj
 0002:00004568       ??_C@_0O@NMGKFMCK@LanguageSkill?$AA@ 03086568     MQ2DataTypes.obj
 0002:00004578       ??_C@_0L@LJOLFPIL@CountBuffs?$AA@ 03086578     MQ2DataTypes.obj
 0002:00004584       ??_C@_0N@CAJJLJJB@GroupMarkNPC?$AA@ 03086584     MQ2DataTypes.obj
 0002:00004594       ??_C@_0M@BCDPCMGK@RaidMarkNPC?$AA@ 03086594     MQ2DataTypes.obj
 0002:000045a0       ??_C@_0BC@LHIHJBLC@GroupAssistTarget?$AA@ 030865a0     MQ2DataTypes.obj
 0002:000045b4       ??_C@_0BB@DCHIJEML@RaidAssistTarget?$AA@ 030865b4     MQ2DataTypes.obj
 0002:000045c8       ??_C@_0P@EGGJPNFL@TargetOfTarget?$AA@ 030865c8     MQ2DataTypes.obj
 0002:000045d8       ??_C@_0BF@IDFHLPFE@LargestFreeInventory?$AA@ 030865d8     MQ2DataTypes.obj
 0002:000045f0       ??_C@_0BD@HBNPGHKP@CombatAbilityTimer?$AA@ 030865f0     MQ2DataTypes.obj
 0002:00004604       ??_C@_0O@HGDMAFCK@CombatAbility?$AA@ 03086604     MQ2DataTypes.obj
 0002:00004614       ??_C@_0BA@BLCEKKLD@AltAbilityTimer?$AA@ 03086614     MQ2DataTypes.obj
 0002:00004624       ??_C@_0BA@KAGNKIOL@AltAbilityReady?$AA@ 03086624     MQ2DataTypes.obj
 0002:00004634       ??_C@_0N@IFKPEOAG@PctEndurance?$AA@ 03086634     MQ2DataTypes.obj
 0002:00004644       ??_C@_0O@MIJPKBEH@AltTimerReady?$AA@ 03086644     MQ2DataTypes.obj
 0002:00004654       ??_C@_0M@PHMDMKJI@RangedReady?$AA@ 03086654     MQ2DataTypes.obj
 0002:00004660       ??_C@_0BB@FDKOOFPI@PctRaidLeaderExp?$AA@ 03086660     MQ2DataTypes.obj
 0002:00004674       ??_C@_0BC@OFKHGJGM@PctGroupLeaderExp?$AA@ 03086674     MQ2DataTypes.obj
 0002:00004688       ??_C@_0L@FNEADMME@CopperBank?$AA@ 03086688     MQ2DataTypes.obj
 0002:00004694       ??_C@_0L@HCDDDAKK@SilverBank?$AA@ 03086694     MQ2DataTypes.obj
 0002:000046a0       ??_C@_08BAFEJDFM@GoldBank?$AA@ 030866a0     MQ2DataTypes.obj
 0002:000046ac       ??_C@_0N@OANDGKOI@PlatinumBank?$AA@ 030866ac     MQ2DataTypes.obj
 0002:000046bc       ??_C@_06CPCKKAAG@Copper?$AA@ 030866bc     MQ2DataTypes.obj
 0002:000046c4       ??_C@_06BONGPKIK@Silver?$AA@ 030866c4     MQ2DataTypes.obj
 0002:000046cc       ??_C@_04PABHPHAJ@Gold?$AA@ 030866cc     MQ2DataTypes.obj
 0002:000046d4       ??_C@_08JMCADNAI@Platinum?$AA@ 030866d4     MQ2DataTypes.obj
 0002:000046e0       ??_C@_07IHOJNPPB@PetBuff?$AA@ 030866e0     MQ2DataTypes.obj
 0002:000046e8       ??_C@_0N@DHLMBCAO@AbilityReady?$AA@ 030866e8     MQ2DataTypes.obj
 0002:000046f8       ??_C@_08FFGHLJGG@PctAAExp?$AA@ 030866f8     MQ2DataTypes.obj
 0002:00004704       ??_C@_06BKGDBKNM@PctExp?$AA@ 03086704     MQ2DataTypes.obj
 0002:0000470c       ??_C@_0P@HNLHOEBJ@PracticePoints?$AA@ 0308670c     MQ2DataTypes.obj
 0002:0000471c       ??_C@_07LIMHKKMG@BaseWIS?$AA@ 0308671c     MQ2DataTypes.obj
 0002:00004724       ??_C@_07HHAGHFFE@BaseAGI?$AA@ 03086724     MQ2DataTypes.obj
 0002:0000472c       ??_C@_07ECAPAKCI@BaseINT?$AA@ 0308672c     MQ2DataTypes.obj
 0002:00004734       ??_C@_07BAIFHCBI@BaseDEX?$AA@ 03086734     MQ2DataTypes.obj
 0002:0000473c       ??_C@_07BOIKHAOK@BaseCHA?$AA@ 0308673c     MQ2DataTypes.obj
 0002:00004744       ??_C@_07FLKPHNGB@BaseSTA?$AA@ 03086744     MQ2DataTypes.obj
 0002:0000474c       ??_C@_07DKEADMPD@BaseSTR?$AA@ 0308674c     MQ2DataTypes.obj
 0002:00004754       ??_C@_06BJFOHHMC@Thirst?$AA@ 03086754     MQ2DataTypes.obj
 0002:0000475c       ??_C@_06JNHOJDME@Hunger?$AA@ 0308675c     MQ2DataTypes.obj
 0002:00004764       ??_C@_09CAIIIILD@svDisease?$AA@ 03086764     MQ2DataTypes.obj
 0002:00004770       ??_C@_08DFMNAIBE@svPoison?$AA@ 03086770     MQ2DataTypes.obj
 0002:0000477c       ??_C@_06FOCCFNMA@svCold?$AA@ 0308677c     MQ2DataTypes.obj
 0002:00004784       ??_C@_06LMAKDCFH@svFire?$AA@ 03086784     MQ2DataTypes.obj
 0002:0000478c       ??_C@_07IPAJBDMK@svMagic?$AA@ 0308678c     MQ2DataTypes.obj
 0002:00004794       ??_C@_03GGLMKPCA@WIS?$AA@  03086794     MQ2DataTypes.obj
 0002:00004798       ??_C@_03KJHNHALC@AGI?$AA@  03086798     MQ2DataTypes.obj
 0002:0000479c       ??_C@_03JMHEAPMO@INT?$AA@  0308679c     MQ2DataTypes.obj
 0002:000047a0       ??_C@_03MOPOHHPO@DEX?$AA@  030867a0     MQ2DataTypes.obj
 0002:000047a4       ??_C@_03MAPBHFAM@CHA?$AA@  030867a4     MQ2DataTypes.obj
 0002:000047a8       ??_C@_03IFNEHIIH@STA?$AA@  030867a8     MQ2DataTypes.obj
 0002:000047ac       ??_C@_03OEDLDJBF@STR?$AA@  030867ac     MQ2DataTypes.obj
 0002:000047b0       ??_C@_05MBEHKBGB@Drunk?$AA@ 030867b0     MQ2DataTypes.obj
 0002:000047b8       ??_C@_0BB@HKHIILJF@RaidLeaderPoints?$AA@ 030867b8     MQ2DataTypes.obj
 0002:000047cc       ??_C@_0BC@PPIHIOOM@GroupLeaderPoints?$AA@ 030867cc     MQ2DataTypes.obj
 0002:000047e0       ??_C@_0O@JNEEBHLB@RaidLeaderExp?$AA@ 030867e0     MQ2DataTypes.obj
 0002:000047f0       ??_C@_0P@OKGJHKKK@GroupLeaderExp?$AA@ 030867f0     MQ2DataTypes.obj
 0002:00004800       ??_C@_0L@HMOGEHME@SpellReady?$AA@ 03086800     MQ2DataTypes.obj
 0002:0000480c       ??_C@_03EGDHFMEG@Gem?$AA@  0308680c     MQ2DataTypes.obj
 0002:00004810       ??_C@_0O@GNDLOOCK@FreeInventory?$AA@ 03086810     MQ2DataTypes.obj
 0002:00004820       ??_C@_04FMDEMHOL@Bank?$AA@ 03086820     MQ2DataTypes.obj
 0002:00004828       ??_C@_09KNKLKLHB@Inventory?$AA@ 03086828     MQ2DataTypes.obj
 0002:00004834       ??_C@_09HBOMMIAK@Endurance?$AA@ 03086834     MQ2DataTypes.obj
 0002:00004840       ??_C@_0M@DILMDEFO@CareerFavor?$AA@ 03086840     MQ2DataTypes.obj
 0002:0000484c       ??_C@_0N@LOOAFBJE@CurrentFavor?$AA@ 0308684c     MQ2DataTypes.obj
 0002:0000485c       ??_C@_0L@KCPANHMG@LDoNPoints?$AA@ 0308685c     MQ2DataTypes.obj
 0002:00004868       ??_C@_09KLHJKIFN@MirEarned?$AA@ 03086868     MQ2DataTypes.obj
 0002:00004874       ??_C@_09KIOOIKGH@TakEarned?$AA@ 03086874     MQ2DataTypes.obj
 0002:00004880       ??_C@_09JIHGOJMD@RujEarned?$AA@ 03086880     MQ2DataTypes.obj
 0002:0000488c       ??_C@_08EGEOMKOL@MMEarned?$AA@ 0308688c     MQ2DataTypes.obj
 0002:00004898       ??_C@_09JFFLKDPB@GukEarned?$AA@ 03086898     MQ2DataTypes.obj
 0002:000048a4       ??_C@_09KKDAOD@ManaBonus?$AA@ 030868a4     MQ2DataTypes.obj
 0002:000048b0       ??_C@_07JHFDFLDM@HPBonus?$AA@ 030868b0     MQ2DataTypes.obj
 0002:000048b8       ??_C@_07COFAPPKE@Grouped?$AA@ 030868b8     MQ2DataTypes.obj
 0002:000048c0       ??_C@_0P@DNKKPPGP@PlatinumShared?$AA@ 030868c0     MQ2DataTypes.obj
 0002:000048d0       ??_C@_08LOGGPMDO@CashBank?$AA@ 030868d0     MQ2DataTypes.obj
 0002:000048dc       ??_C@_04FOIHINLL@Cash?$AA@ 030868dc     MQ2DataTypes.obj
 0002:000048e4       ??_C@_07PLNBMBEN@Ability?$AA@ 030868e4     MQ2DataTypes.obj
 0002:000048ec       ??_C@_04ENNOEBOG@Song?$AA@ 030868ec     MQ2DataTypes.obj
 0002:000048f4       ??_C@_04DIPCCING@Buff?$AA@ 030868f4     MQ2DataTypes.obj
 0002:000048fc       ??_C@_07PIEAHKKN@PctMana?$AA@ 030868fc     MQ2DataTypes.obj
 0002:00004904       ??_C@_09NHIOKKDP@ManaRegen?$AA@ 03086904     MQ2DataTypes.obj
 0002:00004910       ??_C@_07EAHHMBOA@HPRegen?$AA@ 03086910     MQ2DataTypes.obj
 0002:00004918       ??_C@_08PHGOBFOL@AAPoints?$AA@ 03086918     MQ2DataTypes.obj
 0002:00004924       ??_C@_05DGLNBOHN@AAExp?$AA@ 03086924     MQ2DataTypes.obj
 0002:0000492c       ??_C@_03JONBFFOK@Dar?$AA@  0308692c     MQ2DataTypes.obj
 0002:00004930       ??_C@_03HKMMIPC@Exp?$AA@   03086930     MQ2DataTypes.obj
 0002:00004938       ??_7MQ2CharacterType@@6B@  03086938     MQ2DataTypes.obj
 0002:00004950       ??_C@_09MNKJOHH@character?$AA@ 03086950     MQ2DataTypes.obj
 0002:0000495c       ??_C@_07DKEKFHCE@MyRange?$AA@ 0308695c     MQ2DataTypes.obj
 0002:00004964       ??_C@_09LFGFMFAH@WillStack?$AA@ 03086964     MQ2DataTypes.obj
 0002:00004970       ??_C@_09FHAFBBFL@StacksPet?$AA@ 03086970     MQ2DataTypes.obj
 0002:0000497c       ??_C@_06CNEMJEJI@Stacks?$AA@ 0308697c     MQ2DataTypes.obj
 0002:00004984       ??_C@_0O@GPDEGLNK@CounterNumber?$AA@ 03086984     MQ2DataTypes.obj
 0002:00004994       ??_C@_0M@KEJLALMJ@CounterType?$AA@ 03086994     MQ2DataTypes.obj
 0002:000049a0       ??_C@_07OAIAOFID@WearOff?$AA@ 030869a0     MQ2DataTypes.obj
 0002:000049a8       ??_C@_0O@EAAPOALP@CastOnAnother?$AA@ 030869a8     MQ2DataTypes.obj
 0002:000049b8       ??_C@_09GHNCOMJF@CastOnYou?$AA@ 030869b8     MQ2DataTypes.obj
 0002:000049c4       ??_C@_0L@FPACFFIM@ResistType?$AA@ 030869c4     MQ2DataTypes.obj
 0002:000049d0       ??_C@_0L@LIKDJADA@TargetType?$AA@ 030869d0     MQ2DataTypes.obj
 0002:000049dc       ??_C@_09ICABFPNH@SpellType?$AA@ 030869dc     MQ2DataTypes.obj
 0002:000049e8       ??_C@_08DEOOAPOB@Duration?$AA@ 030869e8     MQ2DataTypes.obj
 0002:000049f4       ??_C@_0L@GEMAGLPE@RecastTime?$AA@ 030869f4     MQ2DataTypes.obj
 0002:00004a00       ??_C@_0N@FPCGBAAD@RecoveryTime?$AA@ 03086a00     MQ2DataTypes.obj
 0002:00004a10       ??_C@_0L@OGKNLIDM@MyCastTime?$AA@ 03086a10     MQ2DataTypes.obj
 0002:00004a1c       ??_C@_0L@BIHNNIHN@FizzleTime?$AA@ 03086a1c     MQ2DataTypes.obj
 0002:00004a28       ??_C@_08HMKDOHME@CastTime?$AA@ 03086a28     MQ2DataTypes.obj
 0002:00004a34       ??_C@_08NLACCOAI@PushBack?$AA@ 03086a34     MQ2DataTypes.obj
 0002:00004a40       ??_C@_07CCGINEN@AERange?$AA@ 03086a40     MQ2DataTypes.obj
 0002:00004a48       ??_C@_05CFMCGLCK@Range?$AA@ 03086a48     MQ2DataTypes.obj
 0002:00004a50       ??_C@_09PJBBHMLL@ResistAdj?$AA@ 03086a50     MQ2DataTypes.obj
 0002:00004a5c       ??_C@_04CEILLILA@Mana?$AA@ 03086a5c     MQ2DataTypes.obj
 0002:00004a68       ??_7MQ2SpellType@@6B@      03086a68     MQ2DataTypes.obj
 0002:00004a80       ??_C@_05LOCENACC@spell?$AA@ 03086a80     MQ2DataTypes.obj
 0002:00004a88       ??_C@_03PFNPICLN@Mod?$AA@  03086a88     MQ2DataTypes.obj
 0002:00004a90       ??_7MQ2BuffType@@6B@       03086a90     MQ2DataTypes.obj
 0002:00004aa8       ??_C@_04PJDDAHNC@buff?$AA@ 03086aa8     MQ2DataTypes.obj
 0002:00004ab0       ??_C@_0M@KFAGNCDB@Tradeskills?$AA@ 03086ab0     MQ2DataTypes.obj
 0002:00004abc       ??_C@_04EJCFNOCF@Augs?$AA@ 03086abc     MQ2DataTypes.obj
 0002:00004ac4       ??_C@_0M@PPPGAHKH@SpellDamage?$AA@ 03086ac4     MQ2DataTypes.obj
 0002:00004ad0       ??_C@_0BH@IDCNNJNP@DamageShieldMitigation?$AA@ 03086ad0     MQ2DataTypes.obj
 0002:00004ae8       ??_C@_0N@KJDFCEME@Clairvoyance?$AA@ 03086ae8     MQ2DataTypes.obj
 0002:00004af8       ??_C@_0L@BLOONBDN@HealAmount?$AA@ 03086af8     MQ2DataTypes.obj
 0002:00004b04       ??_C@_0BD@MGBGMGAE@HeroicSvCorruption?$AA@ 03086b04     MQ2DataTypes.obj
 0002:00004b18       ??_C@_0P@BKMNOGDI@HeroicSvPoison?$AA@ 03086b18     MQ2DataTypes.obj
 0002:00004b28       ??_C@_0BA@BCHPOELO@HeroicSvDisease?$AA@ 03086b28     MQ2DataTypes.obj
 0002:00004b38       ??_C@_0N@HMPOIABG@HeroicSvCold?$AA@ 03086b38     MQ2DataTypes.obj
 0002:00004b48       ??_C@_0N@JONGOPIB@HeroicSvFire?$AA@ 03086b48     MQ2DataTypes.obj
 0002:00004b58       ??_C@_0O@OAJLLIPG@HeroicSvMagic?$AA@ 03086b58     MQ2DataTypes.obj
 0002:00004b68       ??_C@_09PLEELIDH@HeroicCHA?$AA@ 03086b68     MQ2DataTypes.obj
 0002:00004b74       ??_C@_09LOGBLFLM@HeroicSTA?$AA@ 03086b74     MQ2DataTypes.obj
 0002:00004b80       ??_C@_09PFELLKMF@HeroicDEX?$AA@ 03086b80     MQ2DataTypes.obj
 0002:00004b8c       ??_C@_09JCMILNIJ@HeroicAGI?$AA@ 03086b8c     MQ2DataTypes.obj
 0002:00004b98       ??_C@_09FNAJGCBL@HeroicWIS?$AA@ 03086b98     MQ2DataTypes.obj
 0002:00004ba4       ??_C@_09KHMBMCPF@HeroicINT?$AA@ 03086ba4     MQ2DataTypes.obj
 0002:00004bb0       ??_C@_09NPIOPECO@HeroicSTR?$AA@ 03086bb0     MQ2DataTypes.obj
 0002:00004bbc       ??_C@_0N@IBPDGENF@DoTShielding?$AA@ 03086bbc     MQ2DataTypes.obj
 0002:00004bcc       ??_C@_0O@GPCNPHIJ@CombatEffects?$AA@ 03086bcc     MQ2DataTypes.obj
 0002:00004bdc       ??_C@_08NLCOAFEI@Accuracy?$AA@ 03086bdc     MQ2DataTypes.obj
 0002:00004be8       ??_C@_06HCJAFMFB@Purity?$AA@ 03086be8     MQ2DataTypes.obj
 0002:00004bf0       ??_C@_08EHPMFDJJ@MaxPower?$AA@ 03086bf0     MQ2DataTypes.obj
 0002:00004bfc       ??_C@_05PMCMDMKN@Power?$AA@ 03086bfc     MQ2DataTypes.obj
 0002:00004c04       ??_C@_08LNENHAIP@Evolving?$AA@ 03086c04     MQ2DataTypes.obj
 0002:00004c10       ??_C@_07MBANAMCJ@Deities?$AA@ 03086c10     MQ2DataTypes.obj
 0002:00004c18       ??_C@_05MILENCEO@Races?$AA@ 03086c18     MQ2DataTypes.obj
 0002:00004c20       ??_C@_07DPIHKJGF@Classes?$AA@ 03086c20     MQ2DataTypes.obj
 0002:00004c28       ??_C@_0O@HBHDNMAG@MerchQuantity?$AA@ 03086c28     MQ2DataTypes.obj
 0002:00004c38       ??_C@_09NJELKNIF@FreeStack?$AA@ 03086c38     MQ2DataTypes.obj
 0002:00004c44       ??_C@_0L@NBBOGIFM@StackCount?$AA@ 03086c44     MQ2DataTypes.obj
 0002:00004c50       ??_C@_09FPEEEOCJ@StackSize?$AA@ 03086c50     MQ2DataTypes.obj
 0002:00004c5c       ??_C@_0L@BNBAKGMF@TimerReady?$AA@ 03086c5c     MQ2DataTypes.obj
 0002:00004c68       ??_C@_09KCPMDBJE@ItemDelay?$AA@ 03086c68     MQ2DataTypes.obj
 0002:00004c74       ??_C@_0L@NKGJMFHB@Attuneable?$AA@ 03086c74     MQ2DataTypes.obj
 0002:00004c80       ??_C@_07OLNMGJNH@Tribute?$AA@ 03086c80     MQ2DataTypes.obj
 0002:00004c88       ??_C@_0L@OFNOLBHI@EffectType?$AA@ 03086c88     MQ2DataTypes.obj
 0002:00004c94       ??_C@_09BDOMAIGB@WornSlots?$AA@ 03086c94     MQ2DataTypes.obj
 0002:00004ca0       ??_C@_08EJJMBHJO@WornSlot?$AA@ 03086ca0     MQ2DataTypes.obj
 0002:00004cac       ??_C@_09IFJBEAG@SellPrice?$AA@ 03086cac     MQ2DataTypes.obj
 0002:00004cb8       ??_C@_09ELAPPNAM@Stackable?$AA@ 03086cb8     MQ2DataTypes.obj
 0002:00004cc4       ??_C@_09OIACHIKC@Container?$AA@ 03086cc4     MQ2DataTypes.obj
 0002:00004cd0       ??_C@_05CCNNDGIA@Items?$AA@ 03086cd0     MQ2DataTypes.obj
 0002:00004cd8       ??_C@_08NLIPBNJO@LoreText?$AA@ 03086cd8     MQ2DataTypes.obj
 0002:00004ce4       ??_C@_0M@OHBGHPIG@PendingLore?$AA@ 03086ce4     MQ2DataTypes.obj
 0002:00004cf0       ??_C@_08JNJMBLFC@Artifact?$AA@ 03086cf0     MQ2DataTypes.obj
 0002:00004cfc       ??_C@_02MEIMKHMB@HP?$AA@   03086cfc     MQ2DataTypes.obj
 0002:00004d00       ??_C@_02KKLCNNNM@AC?$AA@   03086d00     MQ2DataTypes.obj
 0002:00004d04       ??_C@_0M@BNHLDKPK@BaneDMGType?$AA@ 03086d04     MQ2DataTypes.obj
 0002:00004d10       ??_C@_0O@DPHKDBKF@RequiredLevel?$AA@ 03086d10     MQ2DataTypes.obj
 0002:00004d20       ??_C@_0O@OHLBKFHO@InstrumentMod?$AA@ 03086d20     MQ2DataTypes.obj
 0002:00004d30       ??_C@_0P@KMHNIEGA@InstrumentType?$AA@ 03086d30     MQ2DataTypes.obj
 0002:00004d40       ??_C@_0O@KENAENFP@SkillModValue?$AA@ 03086d40     MQ2DataTypes.obj
 0002:00004d50       ??_C@_04MNKDBLEH@Proc?$AA@ 03086d50     MQ2DataTypes.obj
 0002:00004d58       ??_C@_07GMIEDMHL@BaneDMG?$AA@ 03086d58     MQ2DataTypes.obj
 0002:00004d60       ??_C@_05ENDOMFAI@Delay?$AA@ 03086d60     MQ2DataTypes.obj
 0002:00004d68       ??_C@_0BB@DPIIHLEF@RecommendedSkill?$AA@ 03086d68     MQ2DataTypes.obj
 0002:00004d7c       ??_C@_0BB@HFJDAJCM@RecommendedLevel?$AA@ 03086d7c     MQ2DataTypes.obj
 0002:00004d90       ??_C@_08HNJPGONE@DMGBonus?$AA@ 03086d90     MQ2DataTypes.obj
 0002:00004d9c       ??_C@_06KGFFMMMJ@Damage?$AA@ 03086d9c     MQ2DataTypes.obj
 0002:00004da4       ??_C@_08DOOKBEPA@AugSlot5?$AA@ 03086da4     MQ2DataTypes.obj
 0002:00004db0       ??_C@_08CHPBCFLB@AugSlot4?$AA@ 03086db0     MQ2DataTypes.obj
 0002:00004dbc       ??_C@_08GILALDHG@AugSlot3?$AA@ 03086dbc     MQ2DataTypes.obj
 0002:00004dc8       ??_C@_08HBKLICDH@AugSlot2?$AA@ 03086dc8     MQ2DataTypes.obj
 0002:00004dd4       ??_C@_08FKIGNBPE@AugSlot1?$AA@ 03086dd4     MQ2DataTypes.obj
 0002:00004de0       ??_C@_07EDJEFDCE@AugType?$AA@ 03086de0     MQ2DataTypes.obj
 0002:00004de8       ??_C@_0BA@IEPMGNCH@AugRestrictions?$AA@ 03086de8     MQ2DataTypes.obj
 0002:00004df8       ??_C@_08KFNJCPHC@LDoNCost?$AA@ 03086df8     MQ2DataTypes.obj
 0002:00004e04       ??_C@_07MJEANAEL@Quality?$AA@ 03086e04     MQ2DataTypes.obj
 0002:00004e0c       ??_C@_08PMHECOJB@ProcRate?$AA@ 03086e0c     MQ2DataTypes.obj
 0002:00004e18       ??_C@_07CFFHPGIH@FocusID?$AA@ 03086e18     MQ2DataTypes.obj
 0002:00004e20       ??_C@_09ICJIOMMD@Shielding?$AA@ 03086e20     MQ2DataTypes.obj
 0002:00004e2c       ??_C@_0L@PMBIMKNN@StunResist?$AA@ 03086e2c     MQ2DataTypes.obj
 0002:00004e38       ??_C@_0O@FLJICNJK@StrikeThrough?$AA@ 03086e38     MQ2DataTypes.obj
 0002:00004e48       ??_C@_0M@BFCMBLBI@SpellShield?$AA@ 03086e48     MQ2DataTypes.obj
 0002:00004e54       ??_C@_09EHIEIDHD@Avoidance?$AA@ 03086e54     MQ2DataTypes.obj
 0002:00004e60       ??_C@_0L@IEDGAEPK@Combinable?$AA@ 03086e60     MQ2DataTypes.obj
 0002:00004e6c       ??_C@_0N@DLFEFFAM@SizeCapacity?$AA@ 03086e6c     MQ2DataTypes.obj
 0002:00004e7c       ??_C@_0BA@FLPOGCCO@WeightReduction?$AA@ 03086e7c     MQ2DataTypes.obj
 0002:00004e8c       ??_C@_09KFMOOACJ@DamShield?$AA@ 03086e8c     MQ2DataTypes.obj
 0002:00004e98       ??_C@_06FDAMAAOH@Attack?$AA@ 03086e98     MQ2DataTypes.obj
 0002:00004ea0       ??_C@_05DLJMNILM@Haste?$AA@ 03086ea0     MQ2DataTypes.obj
 0002:00004ea8       ??_C@_08OPHLCDJG@BuyPrice?$AA@ 03086ea8     MQ2DataTypes.obj
 0002:00004eb4       ??_C@_0N@KEMNCCBP@DMGBonusType?$AA@ 03086eb4     MQ2DataTypes.obj
 0002:00004ec4       ??_C@_09GMFCCIFC@LDoNTheme?$AA@ 03086ec4     MQ2DataTypes.obj
 0002:00004ed0       ??_C@_07CJNDGEAO@Charges?$AA@ 03086ed0     MQ2DataTypes.obj
 0002:00004ed8       ??_C@_05IHHHDFHJ@Stack?$AA@ 03086ed8     MQ2DataTypes.obj
 0002:00004ee0       ??_C@_06ODJMJFLN@Weight?$AA@ 03086ee0     MQ2DataTypes.obj
 0002:00004ee8       ??_C@_04EBKMHHBE@Size?$AA@ 03086ee8     MQ2DataTypes.obj
 0002:00004ef0       ??_C@_05LPIJGKJ@Value?$AA@ 03086ef0     MQ2DataTypes.obj
 0002:00004ef8       ??_C@_06MIDEFCGI@NoRent?$AA@ 03086ef8     MQ2DataTypes.obj
 0002:00004f00       ??_C@_06IPPEPAFP@NoDrop?$AA@ 03086f00     MQ2DataTypes.obj
 0002:00004f08       ??_C@_04IIGEHJCD@Lore?$AA@ 03086f08     MQ2DataTypes.obj
 0002:00004f14       ??_7MQ2ItemType@@6B@       03086f14     MQ2DataTypes.obj
 0002:00004f2c       ??_C@_04DNCDCIAE@Open?$AA@ 03086f2c     MQ2DataTypes.obj
 0002:00004f34       ??_C@_0P@DGOCLKJL@DefaultHeading?$AA@ 03086f34     MQ2DataTypes.obj
 0002:00004f44       ??_C@_08HKCDOAPD@DefaultZ?$AA@ 03086f44     MQ2DataTypes.obj
 0002:00004f50       ??_C@_08FBAOLDDA@DefaultY?$AA@ 03086f50     MQ2DataTypes.obj
 0002:00004f5c       ??_C@_08EIBFICHB@DefaultX?$AA@ 03086f5c     MQ2DataTypes.obj
 0002:00004f6c       ??_7MQ2SwitchType@@6B@     03086f6c     MQ2DataTypes.obj
 0002:00004f84       ??_C@_06DOPOGBGP@switch?$AA@ 03086f84     MQ2DataTypes.obj
 0002:00004f90       ??_7MQ2GroundType@@6B@     03086f90     MQ2DataTypes.obj
 0002:00004fa8       ??_C@_06GODDAGJL@ground?$AA@ 03086fa8     MQ2DataTypes.obj
 0002:00004fb4       ??_7MQ2CorpseType@@6B@     03086fb4     MQ2DataTypes.obj
 0002:00004fcc       ??_C@_06IHHPJBKO@corpse?$AA@ 03086fcc     MQ2DataTypes.obj
 0002:00004fd4       ??_C@_04DKAKODEK@Full?$AA@ 03086fd4     MQ2DataTypes.obj
 0002:00004fe0       ??_7MQ2MerchantType@@6B@   03086fe0     MQ2DataTypes.obj
 0002:00004ff8       ??_C@_06JGNHPICH@Markup?$AA@ 03086ff8     MQ2DataTypes.obj
 0002:00005000       ??_C@_08PKIEGJLJ@merchant?$AA@ 03087000     MQ2DataTypes.obj
 0002:0000500c       ??_C@_0N@GNAIDAMO@MyTradeReady?$AA@ 0308700c     MQ2DataTypes.obj
 0002:0000501c       ??_C@_0O@FINHCPEO@HisTradeReady?$AA@ 0308701c     MQ2DataTypes.obj
 0002:0000502c       ??_C@_08EOPGCKBC@ScreenID?$AA@ 0308702c     MQ2DataTypes.obj
 0002:00005038       ??_C@_0M@MDFFEDJJ@Highlighted?$AA@ 03087038     MQ2DataTypes.obj
 0002:00005044       ??_C@_07DOAOMMKG@Enabled?$AA@ 03087044     MQ2DataTypes.obj
 0002:0000504c       ??_C@_05IHAFCALK@Style?$AA@ 0308704c     MQ2DataTypes.obj
 0002:00005054       ??_C@_07KAJHKDAE@Checked?$AA@ 03087054     MQ2DataTypes.obj
 0002:0000505c       ??_C@_04PPBEGPNI@List?$AA@ 0308705c     MQ2DataTypes.obj
 0002:00005064       ??_C@_07BPELHIPH@Tooltip?$AA@ 03087064     MQ2DataTypes.obj
 0002:0000506c       ??_C@_04OJAHODMC@Text?$AA@ 0308706c     MQ2DataTypes.obj
 0002:00005074       ??_C@_07MNBFOJHN@BGColor?$AA@ 03087074     MQ2DataTypes.obj
 0002:0000507c       ??_C@_09FCAALMCA@MouseOver?$AA@ 0308707c     MQ2DataTypes.obj
 0002:00005088       ??_C@_05IBAMDCFI@Width?$AA@ 03087088     MQ2DataTypes.obj
 0002:00005090       ??_C@_09DHPJHJPB@Minimized?$AA@ 03087090     MQ2DataTypes.obj
 0002:0000509c       ??_C@_0L@EFCGFLDN@FirstChild?$AA@ 0308709c     MQ2DataTypes.obj
 0002:000050a8       ??_C@_08PIMDNNAD@Siblings?$AA@ 030870a8     MQ2DataTypes.obj
 0002:000050b4       ??_C@_08IEBJFPPC@Children?$AA@ 030870b4     MQ2DataTypes.obj
 0002:000050c0       ??_C@_0L@LFIOAPDG@HScrollPct?$AA@ 030870c0     MQ2DataTypes.obj
 0002:000050cc       ??_C@_0L@PDNFGAJF@HScrollPos?$AA@ 030870cc     MQ2DataTypes.obj
 0002:000050d8       ??_C@_0L@LIMMBLBG@HScrollMax?$AA@ 030870d8     MQ2DataTypes.obj
 0002:000050e4       ??_C@_0L@EJAOOAPL@VScrollPct?$AA@ 030870e4     MQ2DataTypes.obj
 0002:000050f0       ??_C@_0L@PFFIPFI@VScrollPos?$AA@ 030870f0     MQ2DataTypes.obj
 0002:000050fc       ??_C@_0L@EEEMPENL@VScrollMax?$AA@ 030870fc     MQ2DataTypes.obj
 0002:00005108       ??_C@_05GIMBDOHM@Child?$AA@ 03087108     MQ2DataTypes.obj
 0002:00005114       ??_7MQ2WindowType@@6B@     03087114     MQ2DataTypes.obj
 0002:0000512c       ??_C@_06NFBEFKOC@window?$AA@ 0308712c     MQ2DataTypes.obj
 0002:00005134       ??_C@_05LOJBNELM@Param?$AA@ 03087134     MQ2DataTypes.obj
 0002:0000513c       ??_C@_06MGHLEEEG@Params?$AA@ 0308713c     MQ2DataTypes.obj
 0002:00005144       ??_C@_06HCFIKKEA@Return?$AA@ 03087144     MQ2DataTypes.obj
 0002:0000514c       ??_C@_06IFNLNCGM@Paused?$AA@ 0308714c     MQ2DataTypes.obj
 0002:00005154       ??_C@_07NCEIFDJI@RunTime?$AA@ 03087154     MQ2DataTypes.obj
 0002:00005160       ??_7MQ2MacroType@@6B@      03087160     MQ2DataTypes.obj
 0002:00005178       ??_C@_09HHLOAEGD@ShortName?$AA@ 03087178     MQ2DataTypes.obj
 0002:00005188       ??_7MQ2ZoneType@@6B@       03087188     MQ2DataTypes.obj
 0002:000051a0       ??_C@_04LDDJGOBB@zone?$AA@ 030871a0     MQ2DataTypes.obj
 0002:000051a8       ??_C@_05PHOIHCPN@SafeU?$AA@ 030871a8     MQ2DataTypes.obj
 0002:000051b0       ??_C@_05MFNOBAHP@SafeW?$AA@ 030871b0     MQ2DataTypes.obj
 0002:000051b8       ??_C@_05FONOLJGH@SafeN?$AA@ 030871b8     MQ2DataTypes.obj
 0002:000051c0       ??_C@_07OEGPNMCM@MaxClip?$AA@ 030871c0     MQ2DataTypes.obj
 0002:000051c8       ??_C@_07CAPHDMN@MinClip?$AA@ 030871c8     MQ2DataTypes.obj
 0002:000051d0       ??_C@_05HAHAGODC@SafeZ?$AA@ 030871d0     MQ2DataTypes.obj
 0002:000051d8       ??_C@_05ECEGAMLA@SafeX?$AA@ 030871d8     MQ2DataTypes.obj
 0002:000051e0       ??_C@_05FLFNDNPB@SafeY?$AA@ 030871e0     MQ2DataTypes.obj
 0002:000051e8       ??_C@_07HDDHOBAK@SkyType?$AA@ 030871e8     MQ2DataTypes.obj
 0002:000051f0       ??_C@_07JMGDFJEK@Gravity?$AA@ 030871f0     MQ2DataTypes.obj
 0002:000051fc       ??_7MQ2CurrentZoneType@@6B@ 030871fc     MQ2DataTypes.obj
 0002:00005214       ??_C@_0M@CBKPHHGM@currentzone?$AA@ 03087214     MQ2DataTypes.obj
 0002:00005220       ??_C@_0P@DAOLKGBE@LClickedObject?$AA@ 03087220     MQ2DataTypes.obj
 0002:00005230       ??_C@_0BA@DNFFANPA@ViewportYCenter?$AA@ 03087230     MQ2DataTypes.obj
 0002:00005240       ??_C@_0BA@PBPPANGO@ViewportXCenter?$AA@ 03087240     MQ2DataTypes.obj
 0002:00005250       ??_C@_0N@DJKLCDHH@ViewportYMax?$AA@ 03087250     MQ2DataTypes.obj
 0002:00005260       ??_C@_0N@EMLAKMH@ViewportXMax?$AA@ 03087260     MQ2DataTypes.obj
 0002:00005270       ??_C@_09IMLFNI@ViewportY?$AA@ 03087270     MQ2DataTypes.obj
 0002:0000527c       ??_C@_09BJJHIEJJ@ViewportX?$AA@ 0308727c     MQ2DataTypes.obj
 0002:00005288       ??_C@_0M@BMOGKJHF@ChatChannel?$AA@ 03087288     MQ2DataTypes.obj
 0002:00005294       ??_C@_0N@CEGBEJCP@ChatChannels?$AA@ 03087294     MQ2DataTypes.obj
 0002:000052a4       ??_C@_04CPBFGEOK@Ping?$AA@ 030872a4     MQ2DataTypes.obj
 0002:000052ac       ??_C@_09EJECCHEC@BuildDate?$AA@ 030872ac     MQ2DataTypes.obj
 0002:000052b8       ??_C@_06NDDAAGKM@MouseY?$AA@ 030872b8     MQ2DataTypes.obj
 0002:000052c0       ??_C@_06MKCLDHON@MouseX?$AA@ 030872c0     MQ2DataTypes.obj
 0002:000052c8       ??_C@_0N@EHFDJBBO@MQ2DataError?$AA@ 030872c8     MQ2DataTypes.obj
 0002:000052d8       ??_C@_0M@KIDEJCGH@SyntaxError?$AA@ 030872d8     MQ2DataTypes.obj
 0002:000052e4       ??_C@_05NAOIJFC@Error?$AA@ 030872e4     MQ2DataTypes.obj
 0002:000052ec       ??_C@_08DJMMEGND@LastTell?$AA@ 030872ec     MQ2DataTypes.obj
 0002:000052f8       ??_C@_0M@FPEOKIMO@LastCommand?$AA@ 030872f8     MQ2DataTypes.obj
 0002:00005304       ??_C@_06LGMEBDBC@Server?$AA@ 03087304     MQ2DataTypes.obj
 0002:0000530c       ??_C@_09NBALEBLD@LoginName?$AA@ 0308730c     MQ2DataTypes.obj
 0002:0000531c       ??_7MQ2MacroQuestType@@6B@ 0308731c     MQ2DataTypes.obj
 0002:00005334       ??_C@_09PHMLDLMB@GameState?$AA@ 03087334     MQ2DataTypes.obj
 0002:00005340       ??_C@_0L@CHCIDBPD@macroquest?$AA@ 03087340     MQ2DataTypes.obj
 0002:0000534c       ??_C@_04IJMLHKMM@Sqrt?$AA@ 0308734c     MQ2DataTypes.obj
 0002:00005354       ??_C@_03KNKIDPAC@Not?$AA@  03087354     MQ2DataTypes.obj
 0002:00005358       ??_C@_03MKABNOCG@Dec?$AA@  03087358     MQ2DataTypes.obj
 0002:0000535c       ??_C@_04KHIKJOO@Atan?$AA@  0308735c     MQ2DataTypes.obj
 0002:00005364       ??_C@_04DCEEIHNO@Acos?$AA@ 03087364     MQ2DataTypes.obj
 0002:0000536c       ??_C@_04JJLMMAOP@Asin?$AA@ 0308736c     MQ2DataTypes.obj
 0002:00005374       ??_C@_03CILPFPCI@Tan?$AA@  03087374     MQ2DataTypes.obj
 0002:00005378       ??_C@_03BAIDHBBI@Cos?$AA@  03087378     MQ2DataTypes.obj
 0002:0000537c       ??_C@_03LLHLDGCJ@Sin?$AA@  0308737c     MQ2DataTypes.obj
 0002:00005380       ??_C@_04KKAJLADN@Calc?$AA@ 03087380     MQ2DataTypes.obj
 0002:00005388       ??_C@_04LLEMEMKG@Rand?$AA@ 03087388     MQ2DataTypes.obj
 0002:00005394       ??_7MQ2MathType@@6B@       03087394     MQ2DataTypes.obj
 0002:000053ac       ??_C@_03LCFCCKMA@Abs?$AA@  030873ac     MQ2DataTypes.obj
 0002:000053b0       ??_C@_04CFDJAKFL@math?$AA@ 030873b0     MQ2DataTypes.obj
 0002:000053bc       ??_7MQ2RaceType@@6B@       030873bc     MQ2DataTypes.obj
 0002:000053d4       ??_C@_0L@LNKOHLJ@HealerType?$AA@ 030873d4     MQ2DataTypes.obj
 0002:000053e0       ??_C@_08OPLJHOBE@PetClass?$AA@ 030873e0     MQ2DataTypes.obj
 0002:000053ec       ??_C@_0L@OPBJICGI@ClericType?$AA@ 030873ec     MQ2DataTypes.obj
 0002:000053f8       ??_C@_0L@DPACMJOL@ShamanType?$AA@ 030873f8     MQ2DataTypes.obj
 0002:00005404       ??_C@_0BA@HLMICIOP@NecromancerType?$AA@ 03087404     MQ2DataTypes.obj
 0002:00005414       ??_C@_09KLFFHBCB@DruidType?$AA@ 03087414     MQ2DataTypes.obj
 0002:00005420       ??_C@_07KDNNBEOH@CanCast?$AA@ 03087420     MQ2DataTypes.obj
 0002:00005428       ??_C@_0L@FIJJEBH@PureCaster?$AA@ 03087428     MQ2DataTypes.obj
 0002:00005438       ??_7MQ2ClassType@@6B@      03087438     MQ2DataTypes.obj
 0002:00005454       ??_7MQ2BodyType@@6B@       03087454     MQ2DataTypes.obj
 0002:0000546c       ??_C@_04IEJGKNJ@body?$AA@  0308746c     MQ2DataTypes.obj
 0002:00005474       ??_C@_04GBPANCCF@Team?$AA@ 03087474     MQ2DataTypes.obj
 0002:00005480       ??_7MQ2DeityType@@6B@      03087480     MQ2DataTypes.obj
 0002:00005498       ??_C@_0BF@BADNHCHD@SecondsSinceMidnight?$AA@ 03087498     MQ2DataTypes.obj
 0002:000054b0       ??_C@_05EECLMJKM@Night?$AA@ 030874b0     MQ2DataTypes.obj
 0002:000054b8       ??_C@_04FMEGDJGD@Date?$AA@ 030874b8     MQ2DataTypes.obj
 0002:000054c0       ??_C@_06GLGNMFHD@Time24?$AA@ 030874c0     MQ2DataTypes.obj
 0002:000054c8       ??_C@_06DPHBNMKM@Time12?$AA@ 030874c8     MQ2DataTypes.obj
 0002:000054d0       ??_C@_04FEDKBIAK@Year?$AA@ 030874d0     MQ2DataTypes.obj
 0002:000054d8       ??_C@_05MDLMAGGB@Month?$AA@ 030874d8     MQ2DataTypes.obj
 0002:000054e0       ??_C@_03HNCFIMCB@Day?$AA@  030874e0     MQ2DataTypes.obj
 0002:000054e4       ??_C@_09FBBDGJJF@DayOfWeek?$AA@ 030874e4     MQ2DataTypes.obj
 0002:000054f0       ??_C@_06NGJIOPAD@Second?$AA@ 030874f0     MQ2DataTypes.obj
 0002:000054f8       ??_C@_06FJCFKMEG@Minute?$AA@ 030874f8     MQ2DataTypes.obj
 0002:00005504       ??_7MQ2TimeType@@6B@       03087504     MQ2DataTypes.obj
 0002:0000551c       ??_C@_04HNCIENPA@Hour?$AA@ 0308751c     MQ2DataTypes.obj
 0002:00005524       ??_C@_04CLCEDBPF@time?$AA@ 03087524     MQ2DataTypes.obj
 0002:0000552c       ??_C@_06LMOODEBK@Member?$AA@ 0308752c     MQ2DataTypes.obj
 0002:00005538       ??_7MQ2TypeType@@6B@       03087538     MQ2DataTypes.obj
 0002:00005550       ??_C@_04GPMDFGEJ@type?$AA@ 03087550     MQ2DataTypes.obj
 0002:00005558       ??_C@_0L@CCBCPJKH@DegreesCCW?$AA@ 03087558     MQ2DataTypes.obj
 0002:00005564       ??_C@_05DEOOJMJC@Clock?$AA@ 03087564     MQ2DataTypes.obj
 0002:0000556c       ??_C@_07DOJBCHEB@Degrees?$AA@ 0308756c     MQ2DataTypes.obj
 0002:00005578       ??_7MQ2HeadingType@@6B@    03087578     MQ2DataTypes.obj
 0002:00005590       ??_C@_04DPEGMFKN@Slot?$AA@ 03087590     MQ2DataTypes.obj
 0002:0000559c       ??_7MQ2InvSlotType@@6B@    0308759c     MQ2DataTypes.obj
 0002:000055b4       ??_C@_04EOMMJAFK@Pack?$AA@ 030875b4     MQ2DataTypes.obj
 0002:000055bc       ??_C@_07JENBKACJ@invslot?$AA@ 030875bc     MQ2DataTypes.obj
 0002:000055c4       ??_C@_07NGFJPNPN@Version?$AA@ 030875c4     MQ2DataTypes.obj
 0002:000055d0       ??_7MQ2PluginType@@6B@     030875d0     MQ2DataTypes.obj
 0002:000055e8       ??_C@_06NKHGCJAI@plugin?$AA@ 030875e8     MQ2DataTypes.obj
 0002:000055f0       ??_C@_09OMCOPAKI@Activated?$AA@ 030875f0     MQ2DataTypes.obj
 0002:000055fc       ??_C@_08NGBINPGF@AltTimer?$AA@ 030875fc     MQ2DataTypes.obj
 0002:00005608       ??_C@_08NPJFJGG@SkillCap?$AA@ 03087608     MQ2DataTypes.obj
 0002:00005614       ??_C@_08MCEOGDCD@MinLevel?$AA@ 03087614     MQ2DataTypes.obj
 0002:00005620       ??_C@_09FFBNIKP@ReuseTime?$AA@ 03087620     MQ2DataTypes.obj
 0002:00005630       ??_7MQ2SkillType@@6B@      03087630     MQ2DataTypes.obj
 0002:00005648       ??_C@_05ODMCMJAJ@skill?$AA@ 03087648     MQ2DataTypes.obj
 0002:00005650       ??_C@_0M@LGKNKMNO@MyReuseTime?$AA@ 03087650     MQ2DataTypes.obj
 0002:0000565c       ??_C@_0P@LJNIPAGP@AARankRequired?$AA@ 0308765c     MQ2DataTypes.obj
 0002:0000566c       ??_C@_07OHPMGHNM@MaxRank?$AA@ 0308766c     MQ2DataTypes.obj
 0002:00005674       ??_C@_0BG@EPGFBEAL@RequiresAbilityPoints?$AA@ 03087674     MQ2DataTypes.obj
 0002:0000568c       ??_C@_0BA@HBOGFDDF@RequiresAbility?$AA@ 0308768c     MQ2DataTypes.obj
 0002:0000569c       ??_C@_04FICPKHNF@Cost?$AA@ 0308769c     MQ2DataTypes.obj
 0002:000056a4       ??_C@_0M@OHKMKKDH@Description?$AA@ 030876a4     MQ2DataTypes.obj
 0002:000056b4       ??_7MQ2AltAbilityType@@6B@ 030876b4     MQ2DataTypes.obj
 0002:000056cc       ??_C@_0L@PLMMPCEB@altability?$AA@ 030876cc     MQ2DataTypes.obj
 0002:000056d8       ??_C@_0O@IDBEOCBP@OriginalValue?$AA@ 030876d8     MQ2DataTypes.obj
 0002:000056ec       ??_7MQ2TimerType@@6B@      030876ec     MQ2DataTypes.obj
 0002:00005704       ??_C@_05NAPFDJNG@timer?$AA@ 03087704     MQ2DataTypes.obj
 0002:00005710       __real@404e000000000000    03087710     MQ2DataTypes.obj
 0002:0000571c       ??_7MQ2ArrayType@@6B@      0308771c     MQ2DataTypes.obj
 0002:00005734       ??_C@_0L@NDPLFEJ@Dimensions?$AA@ 03087734     MQ2DataTypes.obj
 0002:00005740       ??_C@_05HIFJDKLD@array?$AA@ 03087740     MQ2DataTypes.obj
 0002:00005748       ??_C@_06GEIOJFAM@Puller?$AA@ 03087748     MQ2DataTypes.obj
 0002:00005750       ??_C@_0L@IFCLJAM@MainAssist?$AA@ 03087750     MQ2DataTypes.obj
 0002:0000575c       ??_C@_08IMPDGFBD@MainTank?$AA@ 0308775c     MQ2DataTypes.obj
 0002:00005768       ??_C@_06PKACINHD@Leader?$AA@ 03087768     MQ2DataTypes.obj
 0002:00005770       ??_C@_07PJMMDNHL@Members?$AA@ 03087770     MQ2DataTypes.obj
 0002:0000577c       ??_7MQ2GroupType@@6B@      0308777c     MQ2DataTypes.obj
 0002:00005794       ??_C@_05MGJOOGAJ@group?$AA@ 03087794     MQ2DataTypes.obj
 0002:000057a0       ??_7MQ2GroupMemberType@@6B@ 030877a0     MQ2DataTypes.obj
 0002:000057b8       ??_C@_0M@FJOGDCNF@groupmember?$AA@ 030877b8     MQ2DataTypes.obj
 0002:000057c4       ??_C@_06GFKCFIPE@Locked?$AA@ 030877c4     MQ2DataTypes.obj
 0002:000057cc       ??_C@_07DDHOKBIC@Looters?$AA@ 030877cc     MQ2DataTypes.obj
 0002:000057d4       ??_C@_06LELAEHOL@Looter?$AA@ 030877d4     MQ2DataTypes.obj
 0002:000057dc       ??_C@_08FCAJKLCB@LootType?$AA@ 030877dc     MQ2DataTypes.obj
 0002:000057e8       ??_C@_0N@CACIAFJF@AverageLevel?$AA@ 030877e8     MQ2DataTypes.obj
 0002:000057f8       ??_C@_0M@KPKCLECH@TotalLevels?$AA@ 030877f8     MQ2DataTypes.obj
 0002:00005808       ??_7MQ2RaidType@@6B@       03087808     MQ2DataTypes.obj
 0002:00005820       ??_C@_04HPMCHFCH@raid?$AA@ 03087820     MQ2DataTypes.obj
 0002:00005828       ??_C@_0L@LGHPHBPE@RaidLeader?$AA@ 03087828     MQ2DataTypes.obj
 0002:00005838       ??_7MQ2RaidMemberType@@6B@ 03087838     MQ2DataTypes.obj
 0002:00005850       ??_C@_0L@LJLCHONG@raidmember?$AA@ 03087850     MQ2DataTypes.obj
 0002:0000585c       ??_C@_08BFKFNBGC@MaxLevel?$AA@ 0308785c     MQ2DataTypes.obj
 0002:00005868       ??_C@_05DDINECMF@ExpOn?$AA@ 03087868     MQ2DataTypes.obj
 0002:00005874       ??_7MQ2EvolvingItemType@@6B@ 03087874     MQ2DataTypes.obj
 0002:0000588c       ??_C@_06KAMMNDBF@ExpPct?$AA@ 0308788c     MQ2DataTypes.obj
 0002:00005894       ??_C@_0L@JPOLAJJF@MaxMembers?$AA@ 03087894     MQ2DataTypes.obj
 0002:000058a4       ??_7MQ2DynamicZoneType@@6B@ 030878a4     MQ2DataTypes.obj
 0002:000058bc       ??_C@_0M@PPGDAEOO@dynamiczone?$AA@ 030878bc     MQ2DataTypes.obj
 0002:000058c8       ??_C@_06PGDKHFME@Status?$AA@ 030878c8     MQ2DataTypes.obj
 0002:000058d4       ??_7MQ2DZMemberType@@6B@   030878d4     MQ2DataTypes.obj
 0002:000058ec       ??_C@_08DECJJLKG@dzmember?$AA@ 030878ec     MQ2DataTypes.obj
 0002:000058f8       ??_C@_0N@KGAEGPHK@CampfireZone?$AA@ 030878f8     MQ2DataTypes.obj
 0002:00005908       ??_C@_09JHPGPF@CampfireZ?$AA@ 03087908     MQ2DataTypes.obj
 0002:00005914       ??_C@_09DCKBJEHH@CampfireX?$AA@ 03087914     MQ2DataTypes.obj
 0002:00005920       ??_C@_09CLLKKFDG@CampfireY?$AA@ 03087920     MQ2DataTypes.obj
 0002:0000592c       ??_C@_0BB@FMMPDLCC@CampfireDuration?$AA@ 0308792c     MQ2DataTypes.obj
 0002:00005940       ??_C@_04DNBGDJMC@MotD?$AA@ 03087940     MQ2DataTypes.obj
 0002:0000594c       ??_7MQ2FellowshipType@@6B@ 0308794c     MQ2DataTypes.obj
 0002:00005964       ??_C@_0L@GFMENHMH@fellowship?$AA@ 03087964     MQ2DataTypes.obj
 0002:00005970       ??_C@_06PIAHMCHD@LastOn?$AA@ 03087970     MQ2DataTypes.obj
 0002:0000597c       ??_7MQ2FellowshipMemberType@@6B@ 0308797c     MQ2DataTypes.obj
 0002:00005994       ??_C@_0BB@JBMLNANI@fellowshipmember?$AA@ 03087994     MQ2DataTypes.obj
 0002:000059ac       ??_7MQ2FriendsType@@6B@    030879ac     MQ2DataTypes.obj
 0002:000059c4       ??_C@_06NIKAJGIM@Friend?$AA@ 030879c4     MQ2DataTypes.obj
 0002:000059cc       ??_C@_06BHBNKPBA@friend?$AA@ 030879cc     MQ2DataTypes.obj
 0002:000059d4       ??_C@_02DPKJAMEF@?$CFd?$AA@ 030879d4     MQ2DataTypes.obj
 0002:000059d8       ??_C@_0N@NIDDKHIF@BuffDuration?$AA@ 030879d8     MQ2DataTypes.obj
 0002:000059e8       ??_C@_09FLJIEEF@BuffCount?$AA@ 030879e8     MQ2DataTypes.obj
 0002:000059f8       ??_7MQ2TargetType@@6B@     030879f8     MQ2DataTypes.obj
 0002:00005a10       ??_C@_05IDKHKMLA@local?$AA@ 03087a10     MQ2DataVars.obj
 0002:00005a18       ??_C@_05DBOFKJBI@outer?$AA@ 03087a18     MQ2DataVars.obj
 0002:00005a20       ??_C@_06FJKEMHGD@global?$AA@ 03087a20     MQ2DataVars.obj
 0002:00005a28       ??_C@_0CM@JPPIAOJD@?1declare?5?8?$CFs?8?5failed?4?5?5Name?5alre@ 03087a28     MQ2DataVars.obj
 0002:00005a54       ??_C@_0CD@GEPJAMCB@Cannot?5?1declare?5an?5array?5of?5time@ 03087a54     MQ2DataVars.obj
 0002:00005a78       ??_C@_0EJ@EBMJMLCH@?1declare?5?8?$CFs?8?5failed?4?5?5No?5macro?5@ 03087a78     MQ2DataVars.obj
 0002:00005ac8       ??_C@_0EJ@JOJGFBBH@Example?3?5?1declare?5MyStringArray?$FL@ 03087ac8     MQ2DataVars.obj
 0002:00005b18       ??_C@_0GM@OMOJLEGO@?1declare?5array?5failed?4?5?5To?5decla@ 03087b18     MQ2DataVars.obj
 0002:00005b88       ??_C@_0FN@NDGEKPIA@Usage?3?5?1declare?5?$DMvarname?$HMvarname@ 03087b88     MQ2DataVars.obj
 0002:00005be8       ??_C@_0BN@PBPDIBJA@Variable?5?8?$CFs?8?5does?5not?5exist?$AA@ 03087be8     MQ2DataVars.obj
 0002:00005c08       ??_C@_08MMGIGGNI@?$CK?5global?$AA@ 03087c08     MQ2DataVars.obj
 0002:00005c14       ??_C@_0CF@EGIMJFCE@Usage?3?5?1deletevar?5?$DMvarname?$HM?$CK?5glo@ 03087c14     MQ2DataVars.obj
 0002:00005c3c       ??_C@_0DG@GAJEBAD@?1varset?5?8?$CFs?8?5failed?0?5variable?5ty@ 03087c3c     MQ2DataVars.obj
 0002:00005c74       ??_C@_0DP@CMJAGBEE@?1varset?5?8?$CFs?$FL?$CFd?$FN?8?5failed?0?5array?5e@ 03087c74     MQ2DataVars.obj
 0002:00005cb4       ??_C@_0DA@JBPADJGO@?1varset?5?8?$CFs?$FL?$CFd?$FN?8?5failed?0?5out?5of?5@ 03087cb4     MQ2DataVars.obj
 0002:00005ce4       ??_C@_0CN@LGJCJOEC@?1varset?5?8?$CFs?8?5failed?0?5array?5form?5@ 03087ce4     MQ2DataVars.obj
 0002:00005d14       ??_C@_0CI@NCCLDLED@?1varset?5failed?0?5variable?5?8?$CFs?8?5no@ 03087d14     MQ2DataVars.obj
 0002:00005d3c       ??_C@_0CF@MKCGKHHE@Usage?3?5?1varset?5?$DMvarname?$DO?5?$DMnew?5va@ 03087d3c     MQ2DataVars.obj
 0002:00005d64       ??_C@_0DH@IBKGKNLD@?1varcalc?5?8?$CFs?8?5failed?0?5variable?5t@ 03087d64     MQ2DataVars.obj
 0002:00005da0       ??_C@_0EA@CNNBGBA@?1varcalc?5?8?$CFs?$FL?$CFd?$FN?8?5failed?0?5array?5@ 03087da0     MQ2DataVars.obj
 0002:00005de0       ??_C@_0DB@EOBOICGL@?1varcalc?5?8?$CFs?$FL?$CFd?$FN?8?5failed?0?5out?5of@ 03087de0     MQ2DataVars.obj
 0002:00005e14       ??_C@_0CO@EKIADKMG@?1varcalc?5?8?$CFs?8?5failed?0?5array?5form@ 03087e14     MQ2DataVars.obj
 0002:00005e44       ??_C@_0CJ@KIFGHGIH@?1varcalc?5failed?0?5variable?5?8?$CFs?8?5n@ 03087e44     MQ2DataVars.obj
 0002:00005e70       ??_C@_02NJPGOMH@?$CFf?$AA@ 03087e70     MQ2DataVars.obj
 0002:00005e74       ??_C@_0DA@GMOELMEO@?1varcalc?5?8?$CFs?8?5failed?4?5?5Could?5not@ 03087e74     MQ2DataVars.obj
 0002:00005ea4       ??_C@_0CE@OJFDAKNF@Usage?3?5?1varcalc?5?$DMvarname?$DO?5?$DMformu@ 03087ea4     MQ2DataVars.obj
 0002:00005ec8       ??_C@_0DH@NILGBFFC@?1vardata?5?8?$CFs?8?5failed?0?5variable?5t@ 03087ec8     MQ2DataVars.obj
 0002:00005f00       ??_C@_0DP@DDGJLODC@?1vardata?5?8?$CFs?$FL?$CFd?$FN?8failed?0?5array?5e@ 03087f00     MQ2DataVars.obj
 0002:00005f40       ??_C@_0DB@PEAJJPLN@?1vardata?5?8?$CFs?$FL?$CFd?$FN?8?5failed?0?5out?5of@ 03087f40     MQ2DataVars.obj
 0002:00005f74       ??_C@_0CO@IIEIDNJN@?1vardata?5?8?$CFs?8?5failed?0?5array?5form@ 03087f74     MQ2DataVars.obj
 0002:00005fa4       ??_C@_0DG@JJJFFAJM@?1vardata?5?8?$CFs?8?5failed?0?5MQ2Data?5po@ 03087fa4     MQ2DataVars.obj
 0002:00005fdc       ??_C@_0CJ@LMEMLALA@?1vardata?5?8?$CFs?8?5failed?0?5variable?5n@ 03087fdc     MQ2DataVars.obj
 0002:00006008       ??_C@_0CO@IAEIDHKO@Usage?3?5?1vardata?5?$DMvarname?$DO?5?$DMnew?5m@ 03088008     MQ2DataVars.obj
 0002:00006038       ??_C@_0EC@OIBOKLFF@EventBlechCallback?$CI?$CJ?5?9?9?5pEventFu@ 03088038     MQ2DataVars.obj
 0002:0000607c       ??_C@_0CG@CMLOOKBD@EventBlechCallback?$CI?$CFd?0?$CFX?0?$CFX?$CJ?5msg@ 0308807c     MQ2DataVars.obj
 0002:000060a4       ??_C@_03NGNHMEOA@?0?5?8?$AA@ 030880a4     MQ2DataVars.obj
 0002:000060a8       ??_C@_01JLIPDDHJ@?3?$AA@   030880a8     MQ2DataVars.obj
 0002:000060ac       ??_C@_07MNLEAIEN@?5tells?5?$AA@ 030880ac     MQ2DataVars.obj
 0002:000060b4       ??_C@_08OCKJKMF@?5says?0?5?8?$AA@ 030880b4     MQ2DataVars.obj
 0002:000060c0       ??_C@_03BANJEMDJ@say?$AA@  030880c0     MQ2DataVars.obj
 0002:000060c4       ??_C@_07BCEDCNMA@?5says?5?8?$AA@ 030880c4     MQ2DataVars.obj
 0002:000060cc       ??_C@_03EBMLCCFK@auc?$AA@  030880cc     MQ2DataVars.obj
 0002:000060d0       ??_C@_0N@NOFCJGFO@?5auctions?0?5?8?$AA@ 030880d0     MQ2DataVars.obj
 0002:000060e0       ??_C@_05BAOFOMKD@shout?$AA@ 030880e0     MQ2DataVars.obj
 0002:000060e8       ??_C@_0L@HJBHKALD@?5shouts?0?5?8?$AA@ 030880e8     MQ2DataVars.obj
 0002:000060f4       ??_C@_03LAKFHDMP@ooc?$AA@  030880f4     MQ2DataVars.obj
 0002:000060f8       ??_C@_0BK@PLDLPMMO@?5says?5out?5of?5character?0?5?8?$AA@ 030880f8     MQ2DataVars.obj
 0002:00006114       ??_C@_04LBPCFPDD@tell?$AA@ 03088114     MQ2DataVars.obj
 0002:0000611c       ??_C@_0O@DBNNCNGG@?5tells?5you?0?5?8?$AA@ 0308811c     MQ2DataVars.obj
 0002:0000612c       ??_C@_0BE@OBIPHDHL@?5tells?5the?5group?0?5?8?$AA@ 0308812c     MQ2DataVars.obj
 0002:00006140       ??_C@_0BE@DJCDCNEJ@?5tells?5the?5guild?0?5?8?$AA@ 03088140     MQ2DataVars.obj
 0002:00006154       ??_C@_0BA@HLEALLIO@Detour?5success?4?$AA@ 03088154     MQ2DetourAPI.obj
 0002:00006164       ??_C@_0P@LPDLIIMM@Detour?5failed?4?$AA@ 03088164     MQ2DetourAPI.obj
 0002:00006174       ??_C@_0BP@KCECBBCN@Address?50x?$CFx?5already?5detoured?4?$AA@ 03088174     MQ2DetourAPI.obj
 0002:00006194       ??_C@_0BP@MDJBGECF@AddDetour?$CI0x?$CFX?00x?$CFX?00x?$CFX?00x?$CFX?$CJ?$AA@ 03088194     MQ2DetourAPI.obj
 0002:000061b4       ??_C@_0BI@NAHHHLFG@Illegal?5AddDetourf?5call?$AA@ 030881b4     MQ2DetourAPI.obj
 0002:000061cc       ??_C@_0BA@HMCGHFCE@Detour?5removed?4?$AA@ 030881cc     MQ2DetourAPI.obj
 0002:000061dc       ??_C@_0CD@JMOMBHED@Detour?5not?5found?5in?5RemoveDetour@ 030881dc     MQ2DetourAPI.obj
 0002:00006200       ??_C@_0BB@GIGPILBH@RemoveDetour?$CI?$CFX?$CJ?$AA@ 03088200     MQ2DetourAPI.obj
 0002:00006214       ??_C@_0CC@MLHMPGFC@RemoveOurDetours?$CI?$CJ?5?9?9?5Removing?5?$CF@ 03088214     MQ2DetourAPI.obj
 0002:00006238       ??_C@_0BD@HBGEIOEM@RemoveOurDetours?$CI?$CJ?$AA@ 03088238     MQ2DetourAPI.obj
 0002:00006250       ??_C@_0BKE@FODHBDII@MacroQuest2?5is?5blocking?5the?5?8sen@ 03088250     MQ2DetourAPI.obj
 0002:000063f4       ??_C@_0BJ@NEKICHJI@EverQuest?5Crash?5Detected?$AA@ 030883f4     MQ2DetourAPI.obj
 0002:00006410       ??_C@_0BL@LIFFLBKD@HookMemChecker?5?9?5?$CFsatching?$AA@ 03088410     MQ2DetourAPI.obj
 0002:0000642c       ??_C@_03EPBOEAKP@Unp?$AA@  0308842c     MQ2DetourAPI.obj
 0002:00006430       ??_C@_01EJNLAFE@P?$AA@     03088430     MQ2DetourAPI.obj
 0002:00006434       ??_C@_0BO@GBGABMPJ@Trying?5to?5click?5right?5button?4?$AA@ 03088434     MQ2DInput.obj
 0002:00006454       ??_C@_0BN@DLECCPPP@Trying?5to?5click?5left?5button?4?$AA@ 03088454     MQ2DInput.obj
 0002:00006474       ??_C@_0CF@JDFBCNNB@Mouse?5and?5Keyboard?5have?5same?5Acq@ 03088474     MQ2DInput.obj
 0002:0000649c       ??_C@_0CM@HIBEBGPJ@Mouse?5and?5Keyboard?5have?5same?5Get@ 0308849c     MQ2DInput.obj
 0002:000064c8       ??_C@_0CL@LGFIKFCP@Mouse?5and?5Keyboard?5have?5same?5Get@ 030884c8     MQ2DInput.obj
 0002:000064f4       ??_C@_0BE@NNKDEBDM@Initializing?5DInput?$AA@ 030884f4     MQ2DInput.obj
 0002:00006508       ??_C@_0BP@EJDELEIF@Failed?5to?5unhook?5DInputAcquire?$AA@ 03088508     MQ2DInput.obj
 0002:00006528       ??_C@_0BN@EEGIGOCJ@Failed?5to?5unhook?5DInputState?$AA@ 03088528     MQ2DInput.obj
 0002:00006548       ??_C@_0BM@MJMEKEAL@Failed?5to?5unhook?5DInputData?$AA@ 03088548     MQ2DInput.obj
 0002:00006564       ??_C@_0DC@JDGNKELL@?$CFe?$CFaread?5the?5?$CFareference?$CFy?0?5unti@ 03088564     MQ2Globals.obj
 0002:00006598       ??_C@_0BL@MLMHLDJ@?$CFe?$CFaread?5the?5?$CFareference?$CFy?$AA@ 03088598     MQ2Globals.obj
 0002:000065b4       ??_C@_0BB@COMBHMHA@?$CFeget?5a?5?$CFaclue?$CFy?$AA@ 030885b4     MQ2Globals.obj
 0002:000065c8       ??_C@_0CI@GJJPMJLN@?$CFewhy?5dont?5you?5?$CFaread?5the?5?$CFarefe@ 030885c8     MQ2Globals.obj
 0002:000065f0       ??_C@_0EB@KOHGOIGA@?$CFegood?5job?$CFy?4?5what?8s?5next?$DP?5your?5@ 030885f0     MQ2Globals.obj
 0002:00006634       ??_C@_0BJ@GOCKGPEP@?$CFeyou?5fucking?5broke?5it?$CFy?$AA@ 03088634     MQ2Globals.obj
 0002:00006650       ??_C@_0BC@CBJJDAJG@?$CFeget?5a?5?$CFabrain?$CFy?$AA@ 03088650     MQ2Globals.obj
 0002:00006664       ??_C@_0CC@OJHKOOOD@?$CFe?$CFaRTFM?$CFy?0?5until?5then?5fuck?5off?$CF@ 03088664     MQ2Globals.obj
 0002:00006688       ??_C@_0L@NNLJBMLJ@?$CFe?$CFaRTFM?$CFy?$AA@ 03088688     MQ2Globals.obj
 0002:00006694       ??_C@_0CP@LABJNGLJ@?$CFewhatever?5you?8re?5?$CFasmoking?0?5pas@ 03088694     MQ2Globals.obj
 0002:000066c8       ??_C@_0FC@OCJLBKNP@?$CFei?8m?5pretty?5sure?5you?8re?5on?5?$CFacr@ 030886c8     MQ2Globals.obj
 0002:0000671c       ??_C@_0DA@MKCHGDIN@?$CFedont?5you?5know?5how?5to?5use?5a?5sim@ 0308871c     MQ2Globals.obj
 0002:0000674c       ??_C@_0BB@NKGKPHKE@GKFJDGJKFDGJKDF?5?$AA@ 0308874c     MQ2Globals.obj
 0002:00006760       ??_C@_0BA@IAJAMDIL@FUCKING?5CHRIST?5?$AA@ 03088760     MQ2Globals.obj
 0002:00006770       ??_C@_0BG@KKMBOACM@JESUS?5FUCKING?5CHRIST?5?$AA@ 03088770     MQ2Globals.obj
 0002:00006788       ??_C@_04PCGOMFGO@GOD?5?$AA@ 03088788     MQ2Globals.obj
 0002:00006790       ??_C@_0M@MOILDPPN@JESUS?5FUCK?5?$AA@ 03088790     MQ2Globals.obj
 0002:0000679c       ??_C@_07HJAHEPMA@CHRIST?5?$AA@ 0308879c     MQ2Globals.obj
 0002:000067a4       ??_C@_0N@CGBDKCBM@?5STUPID?5FUCK?$AA@ 030887a4     MQ2Globals.obj
 0002:000067b4       ??_C@_0BB@PJLGJNHF@?5FUCKING?5DUMBASS?$AA@ 030887b4     MQ2Globals.obj
 0002:000067c8       ??_C@_08KAMNAEI@?5DUMBASS?$AA@ 030887c8     MQ2Globals.obj
 0002:000067d4       ??_C@_0P@CAHDMJHH@?5STUPID?5FUCKER?$AA@ 030887d4     MQ2Globals.obj
 0002:000067e4       ??_C@_0P@OBJAOHKI@?5FUCKING?5IDIOT?$AA@ 030887e4     MQ2Globals.obj
 0002:000067f4       ??_C@_05MFODBBAO@?5PEEN?$AA@ 030887f4     MQ2Globals.obj
 0002:000067fc       ??_C@_0L@CMJLGNHL@?5PIGFUCKER?$AA@ 030887fc     MQ2Globals.obj
 0002:00006808       ??_C@_0L@JOMGBIOO@?5ASSMONKEY?$AA@ 03088808     MQ2Globals.obj
 0002:00006814       ??_C@_0BO@KFHKHJJH@?5GOD?5DAMN?5SHORT?5BUS?5PASSENGER?$AA@ 03088814     MQ2Globals.obj
 0002:00006834       ??_C@_0BJ@KGDNDOAP@?5FUCKING?5RETARDED?5MONKEY?$AA@ 03088834     MQ2Globals.obj
 0002:00006850       ??_C@_09OGAMKALB@?5FUCKTARD?$AA@ 03088850     MQ2Globals.obj
 0002:0000685c       ??_C@_08LJGNLGPF@?5ASSHOLE?$AA@ 0308885c     MQ2Globals.obj
 0002:00006868       ??_C@_0P@JEOCALHG@?5MOTHER?5FUCKER?$AA@ 03088868     MQ2Globals.obj
 0002:00006878       ??_C@_07LFKJBGJP@?5FUCKER?$AA@ 03088878     MQ2Globals.obj
 0002:00006880       ??_C@_0BA@NKCOKBMJ@MOTHER?5FUCKING?5?$AA@ 03088880     MQ2Globals.obj
 0002:00006890       ??_C@_08HHLNFDOE@FUCKING?5?$AA@ 03088890     MQ2Globals.obj
 0002:0000689c       ??_C@_09HEPGIPAG@GOD?5DAMN?5?$AA@ 0308889c     MQ2Globals.obj
 0002:000068a8       ??_C@_05JLMDMNLH@pack8?$AA@ 030888a8     MQ2Globals.obj
 0002:000068b0       ??_C@_05BMFLNBHI@pack7?$AA@ 030888b0     MQ2Globals.obj
 0002:000068b8       ??_C@_05FEAOADJ@pack6?$AA@ 030888b8     MQ2Globals.obj
 0002:000068c0       ??_C@_05COGNLDPK@pack5?$AA@ 030888c0     MQ2Globals.obj
 0002:000068c8       ??_C@_05DHHGICLL@pack4?$AA@ 030888c8     MQ2Globals.obj
 0002:000068d0       ??_C@_05HIDHBEHM@pack3?$AA@ 030888d0     MQ2Globals.obj
 0002:000068d8       ??_C@_05GBCMCFDN@pack2?$AA@ 030888d8     MQ2Globals.obj
 0002:000068e0       ??_C@_05EKABHGPO@pack1?$AA@ 030888e0     MQ2Globals.obj
 0002:000068e8       ??_C@_04PGKJFGNK@ammo?$AA@ 030888e8     MQ2Globals.obj
 0002:000068f0       ??_C@_0M@JGFIMHH@powersource?$AA@ 030888f0     MQ2Globals.obj
 0002:000068fc       ??_C@_05KHICOPKK@waist?$AA@ 030888fc     MQ2Globals.obj
 0002:00006904       ??_C@_04CGBIDIAH@feet?$AA@ 03088904     MQ2Globals.obj
 0002:0000690c       ??_C@_04CAGNGCAP@legs?$AA@ 0308890c     MQ2Globals.obj
 0002:00006914       ??_C@_05HIADHCOO@chest?$AA@ 03088914     MQ2Globals.obj
 0002:0000691c       ??_C@_0M@IPCDBOPN@rightfinger?$AA@ 0308891c     MQ2Globals.obj
 0002:00006928       ??_C@_0L@OKGANBPI@leftfinger?$AA@ 03088928     MQ2Globals.obj
 0002:00006934       ??_C@_07MMNNODHK@offhand?$AA@ 03088934     MQ2Globals.obj
 0002:0000693c       ??_C@_08ONELKOPI@mainhand?$AA@ 0308893c     MQ2Globals.obj
 0002:00006948       ??_C@_05JOPNEEGP@hands?$AA@ 03088948     MQ2Globals.obj
 0002:00006950       ??_C@_06BFLCJMIC@ranged?$AA@ 03088950     MQ2Globals.obj
 0002:00006958       ??_C@_0L@PCBAHFGE@rightwrist?$AA@ 03088958     MQ2Globals.obj
 0002:00006964       ??_C@_09BAGLGDM@leftwrist?$AA@ 03088964     MQ2Globals.obj
 0002:00006970       ??_C@_04JFCNHLLM@back?$AA@ 03088970     MQ2Globals.obj
 0002:00006978       ??_C@_04BIKEEMEO@arms?$AA@ 03088978     MQ2Globals.obj
 0002:00006980       ??_C@_08EOFEOHJG@shoulder?$AA@ 03088980     MQ2Globals.obj
 0002:0000698c       ??_C@_04NPLPABOK@neck?$AA@ 0308898c     MQ2Globals.obj
 0002:00006994       ??_C@_08PGAHLPJD@rightear?$AA@ 03088994     MQ2Globals.obj
 0002:000069a0       ??_C@_04POCOPAPC@face?$AA@ 030889a0     MQ2Globals.obj
 0002:000069a8       ??_C@_04NEODDMOL@head?$AA@ 030889a8     MQ2Globals.obj
 0002:000069b0       ??_C@_07EOAMOBDK@leftear?$AA@ 030889b0     MQ2Globals.obj
 0002:000069b8       ??_C@_0N@PMHCDDJP@Shields?5Only?$AA@ 030889b8     MQ2Globals.obj
 0002:000069c8       ??_C@_09MHDDOGDL@Bows?5Only?$AA@ 030889c8     MQ2Globals.obj
 0002:000069d4       ??_C@_0P@ENMGOGMD@2H?5Pierce?5Only?$AA@ 030889d4     MQ2Globals.obj
 0002:000069e4       ??_C@_0O@IKBIB@2H?5Blunt?5Only?$AA@ 030889e4     MQ2Globals.obj
 0002:000069f4       ??_C@_0O@NJJMHLLH@2H?5Slash?5Only?$AA@ 030889f4     MQ2Globals.obj
 0002:00006a04       ??_C@_0BC@LOKCIJPC@Hand?5to?5Hand?5Only?$AA@ 03088a04     MQ2Globals.obj
 0002:00006a18       ??_C@_0O@GODAJPDC@Piercing?5Only?$AA@ 03088a18     MQ2Globals.obj
 0002:00006a28       ??_C@_0O@HMGJIEFK@1H?5Blunt?5Only?$AA@ 03088a28     MQ2Globals.obj
 0002:00006a38       ??_C@_0O@KFPNFOGM@1H?5Slash?5Only?$AA@ 03088a38     MQ2Globals.obj
 0002:00006a48       ??_C@_0BA@CMAMHBHG@2H?5Weapons?5Only?$AA@ 03088a48     MQ2Globals.obj
 0002:00006a58       ??_C@_0BA@FMEMFIE@1H?5Weapons?5Only?$AA@ 03088a58     MQ2Globals.obj
 0002:00006a68       ??_C@_0N@HBGNNDAD@Weapons?5Only?$AA@ 03088a68     MQ2Globals.obj
 0002:00006a78       ??_C@_0L@BHNEHCBK@Armor?5Only?$AA@ 03088a78     MQ2Globals.obj
 0002:00006a84       ??_C@_0BF@LGFENNIJ@?$CKUNKNOWN?5BODYTYPE?599?$AA@ 03088a84     MQ2Globals.obj
 0002:00006a9c       ??_C@_0BF@KPEPOMMI@?$CKUNKNOWN?5BODYTYPE?598?$AA@ 03088a9c     MQ2Globals.obj
 0002:00006ab4       ??_C@_0BF@CINHPAAH@?$CKUNKNOWN?5BODYTYPE?597?$AA@ 03088ab4     MQ2Globals.obj
 0002:00006acc       ??_C@_0BF@DBMMMBEG@?$CKUNKNOWN?5BODYTYPE?596?$AA@ 03088acc     MQ2Globals.obj
 0002:00006ae4       ??_C@_0BF@BKOBJCIF@?$CKUNKNOWN?5BODYTYPE?595?$AA@ 03088ae4     MQ2Globals.obj
 0002:00006afc       ??_C@_0BF@DPKKDME@?$CKUNKNOWN?5BODYTYPE?594?$AA@ 03088afc     MQ2Globals.obj
 0002:00006b14       ??_C@_0BF@EMLLDFAD@?$CKUNKNOWN?5BODYTYPE?593?$AA@ 03088b14     MQ2Globals.obj
 0002:00006b2c       ??_C@_0BF@FFKAAEEC@?$CKUNKNOWN?5BODYTYPE?592?$AA@ 03088b2c     MQ2Globals.obj
 0002:00006b44       ??_C@_0BF@HOINFHIB@?$CKUNKNOWN?5BODYTYPE?591?$AA@ 03088b44     MQ2Globals.obj
 0002:00006b5c       ??_C@_0BF@GHJGGGMA@?$CKUNKNOWN?5BODYTYPE?590?$AA@ 03088b5c     MQ2Globals.obj
 0002:00006b74       ??_C@_0BF@LHJGLHLO@?$CKUNKNOWN?5BODYTYPE?589?$AA@ 03088b74     MQ2Globals.obj
 0002:00006b8c       ??_C@_0BF@KOINIGPP@?$CKUNKNOWN?5BODYTYPE?588?$AA@ 03088b8c     MQ2Globals.obj
 0002:00006ba4       ??_C@_0BF@CJBFJKDA@?$CKUNKNOWN?5BODYTYPE?587?$AA@ 03088ba4     MQ2Globals.obj
 0002:00006bbc       ??_C@_0BF@DAAOKLHB@?$CKUNKNOWN?5BODYTYPE?586?$AA@ 03088bbc     MQ2Globals.obj
 0002:00006bd4       ??_C@_0BF@BLCDPILC@?$CKUNKNOWN?5BODYTYPE?585?$AA@ 03088bd4     MQ2Globals.obj
 0002:00006bec       ??_C@_0BF@CDIMJPD@?$CKUNKNOWN?5BODYTYPE?584?$AA@ 03088bec     MQ2Globals.obj
 0002:00006c04       ??_C@_0BF@ENHJFPDE@?$CKUNKNOWN?5BODYTYPE?583?$AA@ 03088c04     MQ2Globals.obj
 0002:00006c1c       ??_C@_0BF@FEGCGOHF@?$CKUNKNOWN?5BODYTYPE?582?$AA@ 03088c1c     MQ2Globals.obj
 0002:00006c34       ??_C@_0BF@HPEPDNLG@?$CKUNKNOWN?5BODYTYPE?581?$AA@ 03088c34     MQ2Globals.obj
 0002:00006c4c       ??_C@_0BF@GGFEAMPH@?$CKUNKNOWN?5BODYTYPE?580?$AA@ 03088c4c     MQ2Globals.obj
 0002:00006c64       ??_C@_0BF@LMMKPAID@?$CKUNKNOWN?5BODYTYPE?579?$AA@ 03088c64     MQ2Globals.obj
 0002:00006c7c       ??_C@_0BF@KFNBMBMC@?$CKUNKNOWN?5BODYTYPE?578?$AA@ 03088c7c     MQ2Globals.obj
 0002:00006c94       ??_C@_0BF@CCEJNNAN@?$CKUNKNOWN?5BODYTYPE?577?$AA@ 03088c94     MQ2Globals.obj
 0002:00006cac       ??_C@_0BF@DLFCOMEM@?$CKUNKNOWN?5BODYTYPE?576?$AA@ 03088cac     MQ2Globals.obj
 0002:00006cc4       ??_C@_0BF@BAHPLPIP@?$CKUNKNOWN?5BODYTYPE?575?$AA@ 03088cc4     MQ2Globals.obj
 0002:00006cdc       ??_C@_0BF@JGEIOMO@?$CKUNKNOWN?5BODYTYPE?574?$AA@ 03088cdc     MQ2Globals.obj
 0002:00006cf4       ??_C@_0BF@EGCFBIAJ@?$CKUNKNOWN?5BODYTYPE?573?$AA@ 03088cf4     MQ2Globals.obj
 0002:00006d0c       ??_C@_0BF@FPDOCJEI@?$CKUNKNOWN?5BODYTYPE?572?$AA@ 03088d0c     MQ2Globals.obj
 0002:00006d24       ??_C@_0BF@HEBDHKIL@?$CKUNKNOWN?5BODYTYPE?571?$AA@ 03088d24     MQ2Globals.obj
 0002:00006d3c       ??_C@_0BF@GNAIELMK@?$CKUNKNOWN?5BODYTYPE?570?$AA@ 03088d3c     MQ2Globals.obj
 0002:00006d54       ??_C@_0BF@LNAIJKLE@?$CKUNKNOWN?5BODYTYPE?569?$AA@ 03088d54     MQ2Globals.obj
 0002:00006d6c       ??_C@_0BF@KEBDKLPF@?$CKUNKNOWN?5BODYTYPE?568?$AA@ 03088d6c     MQ2Globals.obj
 0002:00006d84       ??_C@_0BF@IKGOEPJ@?$CKUNKNOWN?5BODYTYPE?564?$AA@ 03088d84     MQ2Globals.obj
 0002:00006d9c       ??_C@_0BF@EHOHHCDO@?$CKUNKNOWN?5BODYTYPE?563?$AA@ 03088d9c     MQ2Globals.obj
 0002:00006db4       ??_C@_0BF@FOPMEDHP@?$CKUNKNOWN?5BODYTYPE?562?$AA@ 03088db4     MQ2Globals.obj
 0002:00006dcc       ??_C@_0BF@HFNBBALM@?$CKUNKNOWN?5BODYTYPE?561?$AA@ 03088dcc     MQ2Globals.obj
 0002:00006de4       ??_C@_0BF@GMMKCBPN@?$CKUNKNOWN?5BODYTYPE?560?$AA@ 03088de4     MQ2Globals.obj
 0002:00006dfc       ??_C@_0BF@LPEOCEON@?$CKUNKNOWN?5BODYTYPE?559?$AA@ 03088dfc     MQ2Globals.obj
 0002:00006e14       ??_C@_0BF@KGFFBFKM@?$CKUNKNOWN?5BODYTYPE?558?$AA@ 03088e14     MQ2Globals.obj
 0002:00006e2c       ??_C@_0BF@CBMNAJGD@?$CKUNKNOWN?5BODYTYPE?557?$AA@ 03088e2c     MQ2Globals.obj
 0002:00006e44       ??_C@_0BF@DINGDICC@?$CKUNKNOWN?5BODYTYPE?556?$AA@ 03088e44     MQ2Globals.obj
 0002:00006e5c       ??_C@_0BF@BDPLGLOB@?$CKUNKNOWN?5BODYTYPE?555?$AA@ 03088e5c     MQ2Globals.obj
 0002:00006e74       ??_C@_0BF@KOAFKKA@?$CKUNKNOWN?5BODYTYPE?554?$AA@ 03088e74     MQ2Globals.obj
 0002:00006e8c       ??_C@_0BF@EFKBMMGH@?$CKUNKNOWN?5BODYTYPE?553?$AA@ 03088e8c     MQ2Globals.obj
 0002:00006ea4       ??_C@_0BF@FMLKPNCG@?$CKUNKNOWN?5BODYTYPE?552?$AA@ 03088ea4     MQ2Globals.obj
 0002:00006ebc       ??_C@_0BF@HHJHKOOF@?$CKUNKNOWN?5BODYTYPE?551?$AA@ 03088ebc     MQ2Globals.obj
 0002:00006ed4       ??_C@_0BF@GOIMJPKE@?$CKUNKNOWN?5BODYTYPE?550?$AA@ 03088ed4     MQ2Globals.obj
 0002:00006eec       ??_C@_0BF@LOIMEONK@?$CKUNKNOWN?5BODYTYPE?549?$AA@ 03088eec     MQ2Globals.obj
 0002:00006f04       ??_C@_0BF@KHJHHPJL@?$CKUNKNOWN?5BODYTYPE?548?$AA@ 03088f04     MQ2Globals.obj
 0002:00006f1c       ??_C@_0BF@CAAPGDFE@?$CKUNKNOWN?5BODYTYPE?547?$AA@ 03088f1c     MQ2Globals.obj
 0002:00006f34       ??_C@_0BF@DJBEFCBF@?$CKUNKNOWN?5BODYTYPE?546?$AA@ 03088f34     MQ2Globals.obj
 0002:00006f4c       ??_C@_0BF@BCDJABNG@?$CKUNKNOWN?5BODYTYPE?545?$AA@ 03088f4c     MQ2Globals.obj
 0002:00006f64       ??_C@_0BF@LCCDAJH@?$CKUNKNOWN?5BODYTYPE?544?$AA@ 03088f64     MQ2Globals.obj
 0002:00006f7c       ??_C@_0BF@EEGDKGFA@?$CKUNKNOWN?5BODYTYPE?543?$AA@ 03088f7c     MQ2Globals.obj
 0002:00006f94       ??_C@_0BF@FNHIJHBB@?$CKUNKNOWN?5BODYTYPE?542?$AA@ 03088f94     MQ2Globals.obj
 0002:00006fac       ??_C@_0BF@HGFFMENC@?$CKUNKNOWN?5BODYTYPE?541?$AA@ 03088fac     MQ2Globals.obj
 0002:00006fc4       ??_C@_0BF@GPEOPFJD@?$CKUNKNOWN?5BODYTYPE?540?$AA@ 03088fc4     MQ2Globals.obj
 0002:00006fdc       ??_C@_0BF@LLMDFIFP@?$CKUNKNOWN?5BODYTYPE?539?$AA@ 03088fdc     MQ2Globals.obj
 0002:00006ff4       ??_C@_0BF@KCNIGJBO@?$CKUNKNOWN?5BODYTYPE?538?$AA@ 03088ff4     MQ2Globals.obj
 0002:0000700c       ??_C@_0BF@CFEAHFNB@?$CKUNKNOWN?5BODYTYPE?537?$AA@ 0308900c     MQ2Globals.obj
 0002:00007024       ??_C@_0BF@DMFLEEJA@?$CKUNKNOWN?5BODYTYPE?536?$AA@ 03089024     MQ2Globals.obj
 0002:0000703c       ??_C@_0BF@BHHGBHFD@?$CKUNKNOWN?5BODYTYPE?535?$AA@ 0308903c     MQ2Globals.obj
 0002:00007054       ??_C@_08GDKNJBD@Muramite?$AA@ 03089054     MQ2Globals.obj
 0002:00007060       ??_C@_08HJMMOIKN@Proc?5Pet?$AA@ 03089060     MQ2Globals.obj
 0002:0000706c       ??_C@_08CDFFNKOI@Familiar?$AA@ 0308906c     MQ2Globals.obj
 0002:00007078       ??_C@_0M@KFHMGNKK@Bane?5Dragon?$AA@ 03089078     MQ2Globals.obj
 0002:00007084       ??_C@_0BC@MFJACIMK@Summoned?5Creature?$AA@ 03089084     MQ2Globals.obj
 0002:00007098       ??_C@_06COGLIGFC@Dragon?$AA@ 03089098     MQ2Globals.obj
 0002:000070a0       ??_C@_09LGOAEPJF@Elemental?$AA@ 030890a0     MQ2Globals.obj
 0002:000070ac       ??_C@_07GOHPBKOH@Monster?$AA@ 030890ac     MQ2Globals.obj
 0002:000070b4       ??_C@_06DCLGCKKE@Insect?$AA@ 030890b4     MQ2Globals.obj
 0002:000070bc       ??_C@_07KHJKJAIG@Luggald?$AA@ 030890bc     MQ2Globals.obj
 0002:000070c4       ??_C@_03LCBOHEIC@Zek?$AA@  030890c4     MQ2Globals.obj
 0002:000070c8       ??_C@_0M@DOAHDNEM@Draz?5Nurakk?$AA@ 030890c8     MQ2Globals.obj
 0002:000070d4       ??_C@_0BF@CGMEKBLP@?$CKUNKNOWN?5BODYTYPE?517?$AA@ 030890d4     MQ2Globals.obj
 0002:000070ec       ??_C@_04EPKLILEF@Seru?$AA@ 030890ec     MQ2Globals.obj
 0002:000070f4       ??_C@_09JEFCANNL@Khati?5Sha?$AA@ 030890f4     MQ2Globals.obj
 0002:00007100       ??_C@_0P@IFIFCFBA@Greater?5Akheva?$AA@ 03089100     MQ2Globals.obj
 0002:00007110       ??_C@_09HANJCMGF@Atenha?5Ra?$AA@ 03089110     MQ2Globals.obj
 0002:0000711c       ??_C@_07DACFKNAH@Vampyre?$AA@ 0308911c     MQ2Globals.obj
 0002:00007124       ??_C@_04KLEMNAIL@Dain?$AA@ 03089124     MQ2Globals.obj
 0002:0000712c       ??_C@_0L@OLJBKJFA@Bane?5Giant?$AA@ 0308912c     MQ2Globals.obj
 0002:00007138       ??_C@_0L@HKBMOKED@Undead?5Pet?$AA@ 03089138     MQ2Globals.obj
 0002:00007144       ??_C@_07CNJJEHHE@Magical?$AA@ 03089144     MQ2Globals.obj
 0002:0000714c       ??_C@_0M@ONFEFPPG@Extraplanar?$AA@ 0308914c     MQ2Globals.obj
 0002:00007158       ??_C@_09LMEBHIDN@Construct?$AA@ 03089158     MQ2Globals.obj
 0002:00007164       ??_C@_0M@NACJONMN@Lycanthrope?$AA@ 03089164     MQ2Globals.obj
 0002:00007170       ??_C@_08LCBFFEBF@Humanoid?$AA@ 03089170     MQ2Globals.obj
 0002:0000717c       ??_C@_0BA@PKIMPIAC@Vah?5Shir?5Shield?$AA@ 0308917c     MQ2Globals.obj
 0002:0000718c       ??_C@_0BE@GOJFFPJL@Velium?5Round?5Shield?$AA@ 0308918c     MQ2Globals.obj
 0002:000071a0       ??_C@_0M@NKDLKEMG@Grey?5Shield?$AA@ 030891a0     MQ2Globals.obj
 0002:000071ac       ??_C@_0BE@DOKOGNOF@Ornate?5Runed?5Shield?$AA@ 030891ac     MQ2Globals.obj
 0002:000071c0       ??_C@_0O@FLOBCLGG@Sarnak?5Shield?$AA@ 030891c0     MQ2Globals.obj
 0002:000071d0       ??_C@_0O@EMEMDHMJ@Shell?5Shield2?$AA@ 030891d0     MQ2Globals.obj
 0002:000071e0       ??_C@_0N@IABIKHHG@Scale?5Shield?$AA@ 030891e0     MQ2Globals.obj
 0002:000071f0       ??_C@_0BA@CHKAACAF@Frogskin?5Shield?$AA@ 030891f0     MQ2Globals.obj
 0002:00007200       ??_C@_0BA@OKAIHBBK@Iks?5Targ?5Shield?$AA@ 03089200     MQ2Globals.obj
 0002:00007210       ??_C@_0M@ENONAHEG@Fear?5Shield?$AA@ 03089210     MQ2Globals.obj
 0002:0000721c       ??_C@_0O@NCFFMNOE@Chitin?5Shield?$AA@ 0308921c     MQ2Globals.obj
 0002:0000722c       ??_C@_0BB@JKCHOPDO@Mistmoore?5Shield?$AA@ 0308922c     MQ2Globals.obj
 0002:00007240       ??_C@_0BA@BDONJAMB@Nautilus?5Shield?$AA@ 03089240     MQ2Globals.obj
 0002:00007250       ??_C@_0P@HGIFONIK@Unicorn?5Shield?$AA@ 03089250     MQ2Globals.obj
 0002:00007260       ??_C@_0M@HDIECHMO@Shimmer?5Orb?$AA@ 03089260     MQ2Globals.obj
 0002:0000726c       ??_C@_0O@GHGBGEAK@Shell?5Shield1?$AA@ 0308926c     MQ2Globals.obj
 0002:0000727c       ??_C@_0O@EEBAIHPN@Marrs?5Promise?$AA@ 0308927c     MQ2Globals.obj
 0002:0000728c       ??_C@_0M@NNPFCEJK@Dark?5Shield?$AA@ 0308928c     MQ2Globals.obj
 0002:00007298       ??_C@_0M@JFOOBAII@Bone?5Shield?$AA@ 03089298     MQ2Globals.obj
 0002:000072a4       ??_C@_0BA@JFACJFLI@Darkwood?5Shield?$AA@ 030892a4     MQ2Globals.obj
 0002:000072b4       ??_C@_0BA@CECPHODD@Sm?5Round?5Shield?$AA@ 030892b4     MQ2Globals.obj
 0002:000072c4       ??_C@_0M@NAHOPBHL@Kite?5Shield?$AA@ 030892c4     MQ2Globals.obj
 0002:000072d0       ??_C@_0O@ILMPPJGO@Wooden?5Shield?$AA@ 030892d0     MQ2Globals.obj
 0002:000072e0       ??_C@_0O@CHFPBIJ@Qeynos?5Shield?$AA@ 030892e0     MQ2Globals.obj
 0002:000072f0       ??_C@_08OMHMMHKG@Crossbow?$AA@ 030892f0     MQ2Globals.obj
 0002:000072fc       ??_C@_03CEIJJIOF@BFG?$AA@  030892fc     MQ2Globals.obj
 0002:00007300       ??_C@_0N@PFGEJFKB@Velium?5Lance?$AA@ 03089300     MQ2Globals.obj
 0002:00007310       ??_C@_0O@DLKBMCIL@Velium?5Rapier?$AA@ 03089310     MQ2Globals.obj
 0002:00007320       ??_C@_0O@NLAFHNO@Velium?5Dagger?$AA@ 03089320     MQ2Globals.obj
 0002:00007330       ??_C@_0BB@FEHOGKEB@Velium?5Warhammer?$AA@ 03089330     MQ2Globals.obj
 0002:00007344       ??_C@_0BA@CFBDFJDG@Velium?5Scimitar?$AA@ 03089344     MQ2Globals.obj
 0002:00007354       ??_C@_0BD@BGLAHBCH@Velium?5Short?5Sword?$AA@ 03089354     MQ2Globals.obj
 0002:00007368       ??_C@_0BA@HPMELFCF@Velium?52H?5Sword?$AA@ 03089368     MQ2Globals.obj
 0002:00007378       ??_C@_0BE@LBNCLBGG@Velium?5Morning?5Star?$AA@ 03089378     MQ2Globals.obj
 0002:0000738c       ??_C@_0BC@JJDFAGGN@Velium?5Long?5Sword?$AA@ 0308938c     MQ2Globals.obj
 0002:000073a0       ??_C@_0BD@FJPOLBFL@Velium?5Great?5Staff?$AA@ 030893a0     MQ2Globals.obj
 0002:000073b4       ??_C@_0M@HPGIDKGN@Gold?5Hammer?$AA@ 030893b4     MQ2Globals.obj
 0002:000073c0       ??_C@_0O@BPBNJNGJ@Crystal?5Sword?$AA@ 030893c0     MQ2Globals.obj
 0002:000073d0       ??_C@_0O@OPBNMFGP@Velium?5Hammer?$AA@ 030893d0     MQ2Globals.obj
 0002:000073e0       ??_C@_0BC@NHGDBANM@Velium?5Alt?5Hammer?$AA@ 030893e0     MQ2Globals.obj
 0002:000073f4       ??_C@_0N@ILGCEMCE@Velium?5Spear?$AA@ 030893f4     MQ2Globals.obj
 0002:00007404       ??_C@_0L@OMHFAKDO@Velium?5Axe?$AA@ 03089404     MQ2Globals.obj
 0002:00007410       ??_C@_0O@NMFMCGDP@Velium?52H?5Axe?$AA@ 03089410     MQ2Globals.obj
 0002:00007420       ??_C@_0N@FEAHNIKO@Velium?5Sword?$AA@ 03089420     MQ2Globals.obj
 0002:00007430       ??_C@_0N@EHFHCEFB@Jeweled?5Dirk?$AA@ 03089430     MQ2Globals.obj
 0002:00007440       ??_C@_0BE@HOOJIABH@Green?5Jeweled?5Sword?$AA@ 03089440     MQ2Globals.obj
 0002:00007454       ??_C@_0BD@PPMHDDED@Blue?5Jeweled?5Sword?$AA@ 03089454     MQ2Globals.obj
 0002:00007468       ??_C@_0BC@KIJJCBPF@Red?5Jeweled?5Sword?$AA@ 03089468     MQ2Globals.obj
 0002:0000747c       ??_C@_0N@MOOJCDAC@Paladin?5Epic?$AA@ 0308947c     MQ2Globals.obj
 0002:0000748c       ??_C@_09ENGNEFCC@Monk?5Epic?$AA@ 0308948c     MQ2Globals.obj
 0002:00007498       ??_C@_08HJKPDLA@Enc?5Epic?$AA@ 03089498     MQ2Globals.obj
 0002:000074a4       ??_C@_0M@PACOCLLI@Cleric?5Epic?$AA@ 030894a4     MQ2Globals.obj
 0002:000074b0       ??_C@_0M@CJPJOGFL@Wizard?5Epic?$AA@ 030894b0     MQ2Globals.obj
 0002:000074bc       ??_C@_0M@IEEPOCGJ@Shaman?5Epic?$AA@ 030894bc     MQ2Globals.obj
 0002:000074c8       ??_C@_0L@CELLBOBG@Necro?5Epic?$AA@ 030894c8     MQ2Globals.obj
 0002:000074d4       ??_C@_09MKNPPOMG@Mage?5Epic?$AA@ 030894d4     MQ2Globals.obj
 0002:000074e0       ??_C@_0L@PPGKJOHP@Druid?5Epic?$AA@ 030894e0     MQ2Globals.obj
 0002:000074ec       ??_C@_0M@CELGLJNA@Ranger?5Epic?$AA@ 030894ec     MQ2Globals.obj
 0002:000074f8       ??_C@_09KJPIJBLA@Bard?5Epic?$AA@ 030894f8     MQ2Globals.obj
 0002:00007504       ??_C@_0BA@IAIBCNJB@War?5Epic?51H?5Red?$AA@ 03089504     MQ2Globals.obj
 0002:00007514       ??_C@_0BB@JPAOKMFC@War?5Epic?51H?5Blue?$AA@ 03089514     MQ2Globals.obj
 0002:00007528       ??_C@_0M@PFNLEDGG@Ragebringer?$AA@ 03089528     MQ2Globals.obj
 0002:00007534       ??_C@_04HOBFCMOG@Claw?$AA@ 03089534     MQ2Globals.obj
 0002:0000753c       ??_C@_04OAFNLOOA@Bowl?$AA@ 0308953c     MQ2Globals.obj
 0002:00007544       ??_C@_07CJOMNPPL@Harpoon?$AA@ 03089544     MQ2Globals.obj
 0002:0000754c       ??_C@_08OIKOAEJO@Defiance?$AA@ 0308954c     MQ2Globals.obj
 0002:00007558       ??_C@_04FEEDMDAI@Loom?$AA@ 03089558     MQ2Globals.obj
 0002:00007560       ??_C@_0L@IHPINHGC@Wood?5Staff?$AA@ 03089560     MQ2Globals.obj
 0002:0000756c       ??_C@_0BD@FCJGKDAP@Sarnak?5Skull?5Staff?$AA@ 0308956c     MQ2Globals.obj
 0002:00007580       ??_C@_0BA@PBKCNBOI@Velium?52H?5Staff?$AA@ 03089580     MQ2Globals.obj
 0002:00007590       ??_C@_0BI@CJCFHDAJ@White?5Translucent?5Blade?$AA@ 03089590     MQ2Globals.obj
 0002:000075a8       ??_C@_0BI@DMIJKPAM@Black?5Translucent?5Blade?$AA@ 030895a8     MQ2Globals.obj
 0002:000075c0       ??_C@_0O@GALGGPIJ@Lupine?5Dagger?$AA@ 030895c0     MQ2Globals.obj
 0002:000075d0       ??_C@_04NMLGIJLG@Envy?$AA@ 030895d0     MQ2Globals.obj
 0002:000075d8       ??_C@_06KMJKIPAJ@Mallet?$AA@ 030895d8     MQ2Globals.obj
 0002:000075e0       ??_C@_0L@JJIBKMNL@Legchopper?$AA@ 030895e0     MQ2Globals.obj
 0002:000075ec       ??_C@_08LMBEFBAH@Shan?8Tok?$AA@ 030895ec     MQ2Globals.obj
 0002:000075f8       ??_C@_0O@CFIALOC@KunzarKu?8juch?$AA@ 030895f8     MQ2Globals.obj
 0002:00007608       ??_C@_0P@BGIMKKCB@Partisan?5Spear?$AA@ 03089608     MQ2Globals.obj
 0002:00007618       ??_C@_08EOLLGHBI@Ketchata?$AA@ 03089618     MQ2Globals.obj
 0002:00007624       ??_C@_0M@OPLGDPOM@Sheer?5Blade?$AA@ 03089624     MQ2Globals.obj
 0002:00007630       ??_C@_0N@MPKDPKBN@Bladecatcher?$AA@ 03089630     MQ2Globals.obj
 0002:00007640       ??_C@_05FPNJDCFH@Tooth?$AA@ 03089640     MQ2Globals.obj
 0002:00007648       ??_C@_09ILPEJGAE@Ykesha?5TB?$AA@ 03089648     MQ2Globals.obj
 0002:00007654       ??_C@_0O@BFAFGKJE@Duster?1Sapper?$AA@ 03089654     MQ2Globals.obj
 0002:00007664       ??_C@_0L@DOADAJC@Wurmslayer?$AA@ 03089664     MQ2Globals.obj
 0002:00007670       ??_C@_04HHMCBDJJ@Ulak?$AA@ 03089670     MQ2Globals.obj
 0002:00007678       ??_C@_0O@IJHHKPIG@Sword?5Passage?$AA@ 03089678     MQ2Globals.obj
 0002:00007688       ??_C@_0M@LEJJINKE@Swarmcaller?$AA@ 03089688     MQ2Globals.obj
 0002:00007694       ??_C@_09NNGCKDJB@Ykesha?5SS?$AA@ 03089694     MQ2Globals.obj
 0002:000076a0       ??_C@_0P@LKDGMJNB@Serrated?5Sword?$AA@ 030896a0     MQ2Globals.obj
 0002:000076b0       ??_C@_0O@IGEOCJBD@Great?5Cleaver?$AA@ 030896b0     MQ2Globals.obj
 0002:000076c0       ??_C@_0O@KLJMMNOM@Silver?52H?5Axe?$AA@ 030896c0     MQ2Globals.obj
 0002:000076d0       ??_C@_07MOPDEIMJ@Fer?8Esh?$AA@ 030896d0     MQ2Globals.obj
 0002:000076d8       ??_C@_0M@POJDGPMO@Lamentation?$AA@ 030896d8     MQ2Globals.obj
 0002:000076e4       ??_C@_0BA@JDMPKDLE@Executioner?5Axe?$AA@ 030896e4     MQ2Globals.obj
 0002:000076f4       ??_C@_0P@NPHBKECN@Vah?5Shir?5Sword?$AA@ 030896f4     MQ2Globals.obj
 0002:00007704       ??_C@_0N@HFKFOAGO@Wooden?5Crook?$AA@ 03089704     MQ2Globals.obj
 0002:00007714       ??_C@_0O@OPCHGAOG@Pottery?5Wheel?$AA@ 03089714     MQ2Globals.obj
 0002:00007724       ??_C@_04OKGDKNFO@Kiln?$AA@ 03089724     MQ2Globals.obj
 0002:0000772c       ??_C@_05PBPDPMJH@Stone?$AA@ 0308972c     MQ2Globals.obj
 0002:00007734       ??_C@_05ENAFHIFE@Claws?$AA@ 03089734     MQ2Globals.obj
 0002:0000773c       ??_C@_0M@HBAKLGME@Brew?5Barrel?$AA@ 0308973c     MQ2Globals.obj
 0002:00007748       ??_C@_04BIEIHHNI@Oven?$AA@ 03089748     MQ2Globals.obj
 0002:00007750       ??_C@_09GMOLNMFL@Manastone?$AA@ 03089750     MQ2Globals.obj
 0002:0000775c       ??_C@_04HPGOAHNB@Doll?$AA@ 0308975c     MQ2Globals.obj
 0002:00007764       ??_C@_05BIHKHNOB@Forge?$AA@ 03089764     MQ2Globals.obj
 0002:0000776c       ??_C@_06CBLMCBO@Letter?$AA@ 0308976c     MQ2Globals.obj
 0002:00007774       ??_C@_0N@JAHECKCB@Generic?5?$CIlg?$CJ?$AA@ 03089774     MQ2Globals.obj
 0002:00007784       ??_C@_0N@JFJJOIDO@Generic?5?$CIsm?$CJ?$AA@ 03089784     MQ2Globals.obj
 0002:00007794       ??_C@_0M@DBEMACMP@Flame?5Sword?$AA@ 03089794     MQ2Globals.obj
 0002:000077a0       ??_C@_04CFEFENIM@Whip?$AA@ 030897a0     MQ2Globals.obj
 0002:000077a8       ??_C@_0L@BFACICOO@Battle?5Axe?$AA@ 030897a8     MQ2Globals.obj
 0002:000077b4       ??_C@_0M@OIFBIM@Mining?5Pick?$AA@ 030897b4     MQ2Globals.obj
 0002:000077c0       ??_C@_0O@MPPMGEEE@Bastard?5Sword?$AA@ 030897c0     MQ2Globals.obj
 0002:000077d0       ??_C@_0M@PKJNBFEE@Broad?5Sword?$AA@ 030897d0     MQ2Globals.obj
 0002:000077dc       ??_C@_05HIPFNDLN@Stein?$AA@ 030897dc     MQ2Globals.obj
 0002:000077e4       ??_C@_09EDGMGDOC@Flamberge?$AA@ 030897e4     MQ2Globals.obj
 0002:000077f0       ??_C@_06EGGLGMCA@Shovel?$AA@ 030897f0     MQ2Globals.obj
 0002:000077f8       ??_C@_0N@BNNEAGKO@Gold?5Scepter?$AA@ 030897f8     MQ2Globals.obj
 0002:00007808       ??_C@_04DPMEALA@Dirk?$AA@  03089808     MQ2Globals.obj
 0002:00007810       ??_C@_04IBFGIKGM@Maul?$AA@ 03089810     MQ2Globals.obj
 0002:00007818       ??_C@_07FHHBGFGG@Lantern?$AA@ 03089818     MQ2Globals.obj
 0002:00007820       ??_C@_04HDKMMDNG@Wand?$AA@ 03089820     MQ2Globals.obj
 0002:00007828       ??_C@_09FENCBBKI@Bone?5Wand?$AA@ 03089828     MQ2Globals.obj
 0002:00007834       ??_C@_0O@JBHLPJKE@Crystal?5Staff?$AA@ 03089834     MQ2Globals.obj
 0002:00007844       ??_C@_04ILHILILF@Pick?$AA@ 03089844     MQ2Globals.obj
 0002:0000784c       ??_C@_08DNNACEKN@Falchion?$AA@ 0308984c     MQ2Globals.obj
 0002:00007858       ??_C@_08ICGKLMJM@Scimitar?$AA@ 03089858     MQ2Globals.obj
 0002:00007864       ??_C@_09OKMOBHEE@Harvester?$AA@ 03089864     MQ2Globals.obj
 0002:00007870       ??_C@_06LABPBOFA@Scythe?$AA@ 03089870     MQ2Globals.obj
 0002:00007878       ??_C@_06BIIOAEA@Cudgel?$AA@ 03089878     MQ2Globals.obj
 0002:00007880       ??_C@_05OEMDAIOA@Torch?$AA@ 03089880     MQ2Globals.obj
 0002:00007888       ??_C@_07ONIJNJJJ@Scepter?$AA@ 03089888     MQ2Globals.obj
 0002:00007890       ??_C@_0L@DBHJCLGK@Shortsword?$AA@ 03089890     MQ2Globals.obj
 0002:0000789c       ??_C@_09NICGCAPE@Hamm?5Flat?$AA@ 0308989c     MQ2Globals.obj
 0002:000078a8       ??_C@_05HPCCDIDG@Broom?$AA@ 030898a8     MQ2Globals.obj
 0002:000078b0       ??_C@_0L@ELFMFEHE@Spike?5Club?$AA@ 030898b0     MQ2Globals.obj
 0002:000078bc       ??_C@_0P@KEGHEPKJ@Writhing?5Staff?$AA@ 030898bc     MQ2Globals.obj
 0002:000078cc       ??_C@_09CEKAPMHN@Dark?5Book?$AA@ 030898cc     MQ2Globals.obj
 0002:000078d8       ??_C@_0N@IKEHKJLP@Icy?5Blade?$CIP?$CJ?$AA@ 030898d8     MQ2Globals.obj
 0002:000078e8       ??_C@_0O@BKDJFDOC@2H?5Battle?5Axe?$AA@ 030898e8     MQ2Globals.obj
 0002:000078f8       ??_C@_09KDPIGPLJ@2H?5Hammer?$AA@ 030898f8     MQ2Globals.obj
 0002:00007904       ??_C@_07ILLMEADP@Halberd?$AA@ 03089904     MQ2Globals.obj
 0002:0000790c       ??_C@_04LDENLCGK@Lute?$AA@ 0308990c     MQ2Globals.obj
 0002:00007914       ??_C@_06PJJIEOBJ@Rapier?$AA@ 03089914     MQ2Globals.obj
 0002:0000791c       ??_C@_0N@IKGCKOLI@Morning?5Star?$AA@ 0308991c     MQ2Globals.obj
 0002:0000792c       ??_C@_04FCIPMBFO@Club?$AA@ 0308992c     MQ2Globals.obj
 0002:00007934       ??_C@_0M@BHOKPDIN@Short?5Spear?$AA@ 03089934     MQ2Globals.obj
 0002:00007940       ??_C@_05GFBBHJJI@Spear?$AA@ 03089940     MQ2Globals.obj
 0002:00007948       ??_C@_07GEHLCGID@Trumpet?$AA@ 03089948     MQ2Globals.obj
 0002:00007950       ??_C@_0L@JDEMAJID@War?5Hammer?$AA@ 03089950     MQ2Globals.obj
 0002:0000795c       ??_C@_0M@KBGIFFFL@Dwarven?5Axe?$AA@ 0308995c     MQ2Globals.obj
 0002:00007968       ??_C@_08FGNLDEEC@2H?5Staff?$AA@ 03089968     MQ2Globals.obj
 0002:00007974       ??_C@_04EIDPOOOH@Mace?$AA@ 03089974     MQ2Globals.obj
 0002:0000797c       ??_C@_05NMGNCCKB@Flute?$AA@ 0308997c     MQ2Globals.obj
 0002:00007984       ??_C@_06MPIJNLEM@Dagger?$AA@ 03089984     MQ2Globals.obj
 0002:0000798c       ??_C@_03MMFDNDHJ@Bow?$AA@  0308998c     MQ2Globals.obj
 0002:00007990       ??_C@_03LPHLLJLB@Axe?$AA@  03089990     MQ2Globals.obj
 0002:00007994       ??_C@_08NILNFAIP@2H?5Sword?$AA@ 03089994     MQ2Globals.obj
 0002:000079a0       ??_C@_08OBDAGMEK@1H?5Sword?$AA@ 030899a0     MQ2Globals.obj
 0002:000079ac       ??_C@_09EIMGOCAH@Something?$AA@ 030899ac     MQ2Globals.obj
 0002:000079b8       ??_C@_0M@MCHANEDF@?$CKGreen?5Leaf?$AA@ 030899b8     MQ2Globals.obj
 0002:000079c4       ??_C@_0P@KAIKNBAP@?$CKBlue?5Mushroom?$AA@ 030899c4     MQ2Globals.obj
 0002:000079d4       ??_C@_0O@MGKFKKBL@?$CKRed?5Mushroom?$AA@ 030899d4     MQ2Globals.obj
 0002:000079e4       ??_C@_0L@JCIJINBC@?$CKLava?5Rock?$AA@ 030899e4     MQ2Globals.obj
 0002:000079f0       ??_C@_0N@GCCKHBMN@Omens?5of?5War?$AA@ 030899f0     MQ2Globals.obj
 0002:00007a00       ??_C@_0BB@POEEIKD@Gates?5of?5Discord?$AA@ 03089a00     MQ2Globals.obj
 0002:00007a14       ??_C@_0BJ@OIBHNMLF@Lost?5Dungeons?5of?5Norrath?$AA@ 03089a14     MQ2Globals.obj
 0002:00007a30       ??_C@_0BB@MJBKFELL@Legacy?5of?5Ykesha?$AA@ 03089a30     MQ2Globals.obj
 0002:00007a44       ??_C@_0BA@EJIPLIGG@Planes?5of?5Power?$AA@ 03089a44     MQ2Globals.obj
 0002:00007a54       ??_C@_06KJMNFAFO@Luclin?$AA@ 03089a54     MQ2Globals.obj
 0002:00007a5c       ??_C@_07OGDAEFD@Velious?$AA@ 03089a5c     MQ2Globals.obj
 0002:00007a64       ??_C@_06LJEMKGI@Kunark?$AA@ 03089a64     MQ2Globals.obj
 0002:00007a6c       ??_C@_0M@ILOHHPGP@Original?5EQ?$AA@ 03089a6c     MQ2Globals.obj
 0002:00007a78       ??_C@_0N@ILBMGBNL@Augmentation?$AA@ 03089a78     MQ2Globals.obj
 0002:00007a88       ??_C@_05GKAPCDKA@Charm?$AA@ 03089a88     MQ2Globals.obj
 0002:00007a90       ??_C@_0BA@KHBIBBHL@All?5Instruments?$AA@ 03089a90     MQ2Globals.obj
 0002:00007aa0       ??_C@_07IJEPGHAL@Martial?$AA@ 03089aa0     MQ2Globals.obj
 0002:00007aa8       ??_C@_07NMLGEJIF@Compass?$AA@ 03089aa8     MQ2Globals.obj
 0002:00007ab0       ??_C@_05NBELPDEL@Keyv2?$AA@ 03089ab0     MQ2Globals.obj
 0002:00007ab8       ??_C@_07NCKPCOEG@Alcohol?$AA@ 03089ab8     MQ2Globals.obj
 0002:00007ac0       ??_C@_0N@CMAIPENN@Fishing?5Bait?$AA@ 03089ac0     MQ2Globals.obj
 0002:00007ad0       ??_C@_0N@IDOFKGPH@Fishing?5Pole?$AA@ 03089ad0     MQ2Globals.obj
 0002:00007ae0       ??_C@_0M@INDFPBEB@2H?5Piercing?$AA@ 03089ae0     MQ2Globals.obj
 0002:00007aec       ??_C@_04PJLDHLKI@Coin?$AA@ 03089aec     MQ2Globals.obj
 0002:00007af4       ??_C@_05PKGGKAII@Keyv1?$AA@ 03089af4     MQ2Globals.obj
 0002:00007afc       ??_C@_04MPIOEBCN@Tome?$AA@ 03089afc     MQ2Globals.obj
 0002:00007b04       ??_C@_05POKBCEBI@Skull?$AA@ 03089b04     MQ2Globals.obj
 0002:00007b0c       ??_C@_07GEIDGOIP@Jewelry?$AA@ 03089b0c     MQ2Globals.obj
 0002:00007b14       ??_C@_05OLOIDPAB@Arrow?$AA@ 03089b14     MQ2Globals.obj
 0002:00007b1c       ??_C@_0BG@DOMHDKPE@Percussion?5Instrument?$AA@ 03089b1c     MQ2Globals.obj
 0002:00007b34       ??_C@_0BB@FCCPGOJK@Brass?5Instrument?$AA@ 03089b34     MQ2Globals.obj
 0002:00007b48       ??_C@_0BE@BMEKNJFA@Stringed?5Instrument?$AA@ 03089b48     MQ2Globals.obj
 0002:00007b5c       ??_C@_0BA@EENCKHBI@Wind?5Instrument?$AA@ 03089b5c     MQ2Globals.obj
 0002:00007b6c       ??_C@_06EKGNEAAL@Potion?$AA@ 03089b6c     MQ2Globals.obj
 0002:00007b74       ??_C@_06JGBMOMEK@Scroll?$AA@ 03089b74     MQ2Globals.obj
 0002:00007b7c       ??_C@_0L@HCHKALEH@Throwingv2?$AA@ 03089b7c     MQ2Globals.obj
 0002:00007b88       ??_C@_08PFJCKILI@Bandages?$AA@ 03089b88     MQ2Globals.obj
 0002:00007b94       ??_C@_05NLIIEJEG@Drink?$AA@ 03089b94     MQ2Globals.obj
 0002:00007b9c       ??_C@_04MPDBGAOA@Food?$AA@ 03089b9c     MQ2Globals.obj
 0002:00007ba4       ??_C@_09DKPPMPHB@Lockpicks?$AA@ 03089ba4     MQ2Globals.obj
 0002:00007bb0       ??_C@_04MHPHMCPO@Misc?$AA@ 03089bb0     MQ2Globals.obj
 0002:00007bb8       ??_C@_05JOOFIMIN@Armor?$AA@ 03089bb8     MQ2Globals.obj
 0002:00007bc0       ??_C@_06EMIPNAHG@Shield?$AA@ 03089bc0     MQ2Globals.obj
 0002:00007bc8       ??_C@_0L@FJFHFIIE@Throwingv1?$AA@ 03089bc8     MQ2Globals.obj
 0002:00007bd4       ??_C@_0BC@MOKCAFCB@Fletching?5WoodElf?$AA@ 03089bd4     MQ2Globals.obj
 0002:00007be8       ??_C@_0BD@OMNFPDED@Tailoring?5Halfling?$AA@ 03089be8     MQ2Globals.obj
 0002:00007bfc       ??_C@_0BC@BPFPKEKO@Research?5Practice?$AA@ 03089bfc     MQ2Globals.obj
 0002:00007c10       ??_C@_0N@EOGNDINL@Research?5ENC?$AA@ 03089c10     MQ2Globals.obj
 0002:00007c20       ??_C@_0N@JFDJFADL@Research?5NEC?$AA@ 03089c20     MQ2Globals.obj
 0002:00007c30       ??_C@_0N@OEOJJCAN@Research?5MAG?$AA@ 03089c30     MQ2Globals.obj
 0002:00007c40       ??_C@_0N@CKDCBIFC@Research?5WIZ?$AA@ 03089c40     MQ2Globals.obj
 0002:00007c50       ??_C@_06MHHKCODM@Firing?$AA@ 03089c50     MQ2Globals.obj
 0002:00007c58       ??_C@_06IPMNGCGH@Mixing?$AA@ 03089c58     MQ2Globals.obj
 0002:00007c60       ??_C@_05KJMBIHHL@Quest?$AA@ 03089c60     MQ2Globals.obj
 0002:00007c68       ??_C@_0N@JMFGEMLO@Research?5?$DP?$DP?$DP?$AA@ 03089c68     MQ2Globals.obj
 0002:00007c78       ??_C@_08DMFNFLGG@Medicine?$AA@ 03089c78     MQ2Globals.obj
 0002:00007c84       ??_C@_07FFHPBFOK@Regular?$AA@ 03089c84     MQ2Globals.obj
 0002:00007c8c       ??_C@_0M@KHGACNMG@Ultravision?$AA@ 03089c8c     MQ2Globals.obj
 0002:00007c98       ??_C@_08ENENIHBI@Surprise?$AA@ 03089c98     MQ2Globals.obj
 0002:00007ca4       ??_C@_0N@CBPBLBHG@Regeneration?$AA@ 03089ca4     MQ2Globals.obj
 0002:00007cb4       ??_C@_07IGKCGFJK@No?5Bash?$AA@ 03089cb4     MQ2Globals.obj
 0002:00007cbc       ??_C@_0M@NFEFGFKP@Infravision?$AA@ 03089cbc     MQ2Globals.obj
 0002:00007cc8       ??_C@_07LFNNGCGJ@Harmony?$AA@ 03089cc8     MQ2Globals.obj
 0002:00007cd0       ??_C@_0N@FEIMKONN@Breathe?5Fire?$AA@ 03089cd0     MQ2Globals.obj
 0002:00007ce0       ??_C@_09MALMMKIB@Bash?5Door?$AA@ 03089ce0     MQ2Globals.obj
 0002:00007cec       ??_C@_09LOBPJIOE@Awareness?$AA@ 03089cec     MQ2Globals.obj
 0002:00007cf8       ??_C@_0M@PGMADHJA@Throw?5Stone?$AA@ 03089cf8     MQ2Globals.obj
 0002:00007d04       ??_C@_03HGFMODFM@131?$AA@  03089d04     MQ2Globals.obj
 0002:00007d08       ??_C@_03GPEHNCBN@130?$AA@  03089d08     MQ2Globals.obj
 0002:00007d0c       ??_C@_03LPEHADGD@129?$AA@  03089d0c     MQ2Globals.obj
 0002:00007d10       ??_C@_03KGFMDCCC@128?$AA@  03089d10     MQ2Globals.obj
 0002:00007d14       ??_C@_03CBMECOON@127?$AA@  03089d14     MQ2Globals.obj
 0002:00007d18       ??_C@_03DINPBPKM@126?$AA@  03089d18     MQ2Globals.obj
 0002:00007d1c       ??_C@_03BDPCEMGP@125?$AA@  03089d1c     MQ2Globals.obj
 0002:00007d20       ??_C@_03KOJHNCO@124?$AA@   03089d20     MQ2Globals.obj
 0002:00007d24       ??_C@_03EFKIOLOJ@123?$AA@  03089d24     MQ2Globals.obj
 0002:00007d28       ??_C@_03FMLDNKKI@122?$AA@  03089d28     MQ2Globals.obj
 0002:00007d2c       ??_C@_03HHJOIJGL@121?$AA@  03089d2c     MQ2Globals.obj
 0002:00007d30       ??_C@_03GOIFLICK@120?$AA@  03089d30     MQ2Globals.obj
 0002:00007d34       ??_C@_03LNABLNDK@119?$AA@  03089d34     MQ2Globals.obj
 0002:00007d38       ??_C@_03KEBKIMHL@118?$AA@  03089d38     MQ2Globals.obj
 0002:00007d3c       ??_C@_03CDICJALE@117?$AA@  03089d3c     MQ2Globals.obj
 0002:00007d40       ??_C@_0M@KFDOKMDC@Reveal?5Trap?$AA@ 03089d40     MQ2Globals.obj
 0002:00007d4c       ??_C@_07ONIJPPC@Inspect?$AA@ 03089d4c     MQ2Globals.obj
 0002:00007d54       ??_C@_03EHOOFFLA@113?$AA@  03089d54     MQ2Globals.obj
 0002:00007d58       ??_C@_03FOPFGEPB@112?$AA@  03089d58     MQ2Globals.obj
 0002:00007d5c       ??_C@_04KONIEBLP@Slam?$AA@ 03089d5c     MQ2Globals.obj
 0002:00007d64       ??_C@_03GMMDAGHD@110?$AA@  03089d64     MQ2Globals.obj
 0002:00007d68       ??_C@_03LMMDNHAN@109?$AA@  03089d68     MQ2Globals.obj
 0002:00007d6c       ??_C@_03KFNIOGEM@108?$AA@  03089d6c     MQ2Globals.obj
 0002:00007d70       ??_C@_09HICFEJGC@Lay?5Hands?$AA@ 03089d70     MQ2Globals.obj
 0002:00007d7c       ??_C@_03DLFLMLMC@106?$AA@  03089d7c     MQ2Globals.obj
 0002:00007d80       ??_C@_0L@KLPJNAFH@Harm?5Touch?$AA@ 03089d80     MQ2Globals.obj
 0002:00007d8c       ??_C@_03JGNKJEA@104?$AA@   03089d8c     MQ2Globals.obj
 0002:00007d90       ??_C@_03EGCMDPIH@103?$AA@  03089d90     MQ2Globals.obj
 0002:00007d94       ??_C@_03FPDHAOMG@102?$AA@  03089d94     MQ2Globals.obj
 0002:00007d98       ??_C@_03HEBKFNAF@101?$AA@  03089d98     MQ2Globals.obj
 0002:00007d9c       ??_C@_03GNABGMEE@100?$AA@  03089d9c     MQ2Globals.obj
 0002:00007da0       ??_C@_02CFIAHFEI@99?$AA@   03089da0     MQ2Globals.obj
 0002:00007da4       ??_C@_02DMJLEEAJ@98?$AA@   03089da4     MQ2Globals.obj
 0002:00007da8       ??_C@_02LLADFIMG@97?$AA@   03089da8     MQ2Globals.obj
 0002:00007dac       ??_C@_02KCBIGJIH@96?$AA@   03089dac     MQ2Globals.obj
 0002:00007db0       ??_C@_02IJDFDKEE@95?$AA@   03089db0     MQ2Globals.obj
 0002:00007db4       ??_C@_02JACOALAF@94?$AA@   03089db4     MQ2Globals.obj
 0002:00007db8       ??_C@_02NPGPJNMC@93?$AA@   03089db8     MQ2Globals.obj
 0002:00007dbc       ??_C@_02MGHEKMID@92?$AA@   03089dbc     MQ2Globals.obj
 0002:00007dc0       ??_C@_02ONFJPPEA@91?$AA@   03089dc0     MQ2Globals.obj
 0002:00007dc4       ??_C@_02PEECMOAB@90?$AA@   03089dc4     MQ2Globals.obj
 0002:00007dc8       ??_C@_02CEECBPHP@89?$AA@   03089dc8     MQ2Globals.obj
 0002:00007dcc       ??_C@_02DNFJCODO@88?$AA@   03089dcc     MQ2Globals.obj
 0002:00007dd0       ??_C@_02LKMBDCPB@87?$AA@   03089dd0     MQ2Globals.obj
 0002:00007dd4       ??_C@_02KDNKADLA@86?$AA@   03089dd4     MQ2Globals.obj
 0002:00007dd8       ??_C@_02IIPHFAHD@85?$AA@   03089dd8     MQ2Globals.obj
 0002:00007ddc       ??_C@_02JBOMGBDC@84?$AA@   03089ddc     MQ2Globals.obj
 0002:00007de0       ??_C@_02NOKNPHPF@83?$AA@   03089de0     MQ2Globals.obj
 0002:00007de4       ??_C@_02MHLGMGLE@82?$AA@   03089de4     MQ2Globals.obj
 0002:00007de8       ??_C@_02OMJLJFHH@81?$AA@   03089de8     MQ2Globals.obj
 0002:00007dec       ??_C@_02PFIAKEDG@80?$AA@   03089dec     MQ2Globals.obj
 0002:00007df0       ??_C@_02CPBOFIEC@79?$AA@   03089df0     MQ2Globals.obj
 0002:00007df4       ??_C@_02DGAFGJAD@78?$AA@   03089df4     MQ2Globals.obj
 0002:00007df8       ??_C@_02LBJNHFMM@77?$AA@   03089df8     MQ2Globals.obj
 0002:00007dfc       ??_C@_0O@JEFEGNDO@Triple?5Attack?$AA@ 03089dfc     MQ2Globals.obj
 0002:00007e0c       ??_C@_0M@MLICBFC@Remove?5Trap?$AA@ 03089e0c     MQ2Globals.obj
 0002:00007e18       ??_C@_06COBCJLDM@Frenzy?$AA@ 03089e18     MQ2Globals.obj
 0002:00007e20       ??_C@_05CIILEADG@Taunt?$AA@ 03089e20     MQ2Globals.obj
 0002:00007e28       ??_C@_0L@IOEFHGDO@Berserking?$AA@ 03089e28     MQ2Globals.obj
 0002:00007e34       ??_C@_0N@EEKJMODL@Intimidation?$AA@ 03089e34     MQ2Globals.obj
 0002:00007e44       ??_C@_0BH@LOPMNLAK@Percussion?5Instruments?$AA@ 03089e44     MQ2Globals.obj
 0002:00007e5c       ??_C@_07ILJEJPDE@Pottery?$AA@ 03089e5c     MQ2Globals.obj
 0002:00007e64       ??_C@_0P@NBJJBBKI@Jewelry?5Making?$AA@ 03089e64     MQ2Globals.obj
 0002:00007e74       ??_C@_07DINDLBDI@Begging?$AA@ 03089e74     MQ2Globals.obj
 0002:00007e7c       ??_C@_0BC@BGIPGACA@Alcohol?5Tolerance?$AA@ 03089e7c     MQ2Globals.obj
 0002:00007e90       ??_C@_07LHICCFPB@Brewing?$AA@ 03089e90     MQ2Globals.obj
 0002:00007e98       ??_C@_09LMFDCKIC@Fletching?$AA@ 03089e98     MQ2Globals.obj
 0002:00007ea4       ??_C@_0O@MCNIGKMM@Blacksmithing?$AA@ 03089ea4     MQ2Globals.obj
 0002:00007eb4       ??_C@_0M@HIIOPMML@Sense?5Traps?$AA@ 03089eb4     MQ2Globals.obj
 0002:00007ec0       ??_C@_09DAELBELO@Tailoring?$AA@ 03089ec0     MQ2Globals.obj
 0002:00007ecc       ??_C@_06LCJGHNLB@Baking?$AA@ 03089ecc     MQ2Globals.obj
 0002:00007ed4       ??_C@_07KGNEBIPB@Alchemy?$AA@ 03089ed4     MQ2Globals.obj
 0002:00007edc       ??_C@_08NKDBNKBN@Research?$AA@ 03089edc     MQ2Globals.obj
 0002:00007ee8       ??_C@_09OFGKKCFH@Tinkering?$AA@ 03089ee8     MQ2Globals.obj
 0002:00007ef4       ??_C@_0M@PCBDBLAO@Make?5Poison?$AA@ 03089ef4     MQ2Globals.obj
 0002:00007f00       ??_C@_07GBCOACOK@Fishing?$AA@ 03089f00     MQ2Globals.obj
 0002:00007f08       ??_C@_0BB@BHDKGAME@Wind?5Instruments?$AA@ 03089f08     MQ2Globals.obj
 0002:00007f1c       ??_C@_08LLKFLCPM@Tracking?$AA@ 03089f1c     MQ2Globals.obj
 0002:00007f28       ??_C@_0L@OKHHGNIN@Tiger?5Claw?$AA@ 03089f28     MQ2Globals.obj
 0002:00007f34       ??_C@_08NCDKKDLE@Throwing?$AA@ 03089f34     MQ2Globals.obj
 0002:00007f40       ??_C@_08BBIBALOG@Swimming?$AA@ 03089f40     MQ2Globals.obj
 0002:00007f4c       ??_C@_0BF@GPGFDBBI@Stringed?5Instruments?$AA@ 03089f4c     MQ2Globals.obj
 0002:00007f64       ??_C@_0N@DNHCEMGC@Pick?5Pockets?$AA@ 03089f64     MQ2Globals.obj
 0002:00007f74       ??_C@_0BF@ICALBJFJ@Specialize?5Evocation?$AA@ 03089f74     MQ2Globals.obj
 0002:00007f8c       ??_C@_0BG@HGEJMMDO@Specialize?5Divination?$AA@ 03089f8c     MQ2Globals.obj
 0002:00007fa4       ??_C@_0BH@DDJFJCIF@Specialize?5Conjuration?$AA@ 03089fa4     MQ2Globals.obj
 0002:00007fbc       ??_C@_0BG@DIBAGAEL@Specialize?5Alteration?$AA@ 03089fbc     MQ2Globals.obj
 0002:00007fd4       ??_C@_0BC@MLJPFLI@Specialize?5Abjure?$AA@ 03089fd4     MQ2Globals.obj
 0002:00007fe8       ??_C@_04GILFBODK@Sing?$AA@ 03089fe8     MQ2Globals.obj
 0002:00007ff0       ??_C@_0O@NHFJNDOL@Sense?5Heading?$AA@ 03089ff0     MQ2Globals.obj
 0002:00008000       ??_C@_09BBEENLAN@Safe?5Fall?$AA@ 0308a000     MQ2Globals.obj
 0002:0000800c       ??_C@_0L@DGNDDKBM@Round?5Kick?$AA@ 0308a00c     MQ2Globals.obj
 0002:00008018       ??_C@_07LBEIGAFK@Riposte?$AA@ 0308a018     MQ2Globals.obj
 0002:00008020       ??_C@_08MLCNHAGB@Piercing?$AA@ 0308a020     MQ2Globals.obj
 0002:0000802c       ??_C@_09LHAGAJEH@Pick?5Lock?$AA@ 0308a02c     MQ2Globals.obj
 0002:00008038       ??_C@_05IOFPBOMA@Parry?$AA@ 0308a038     MQ2Globals.obj
 0002:00008040       ??_C@_07JILNFEKJ@Offense?$AA@ 0308a040     MQ2Globals.obj
 0002:00008048       ??_C@_04NGJONLKC@Mend?$AA@ 0308a048     MQ2Globals.obj
 0002:00008050       ??_C@_08DKJIBOLN@Meditate?$AA@ 0308a050     MQ2Globals.obj
 0002:0000805c       ??_C@_04JMEIBOCG@Kick?$AA@ 0308a05c     MQ2Globals.obj
 0002:00008064       ??_C@_04EACEFPPN@Hide?$AA@ 0308a064     MQ2Globals.obj
 0002:0000806c       ??_C@_0N@PPFCEPCK@Hand?5To?5Hand?$AA@ 0308a06c     MQ2Globals.obj
 0002:0000807c       ??_C@_06OJHALMMD@Forage?$AA@ 0308a07c     MQ2Globals.obj
 0002:00008084       ??_C@_0M@NCGPGFMC@Flying?5Kick?$AA@ 0308a084     MQ2Globals.obj
 0002:00008090       ??_C@_0M@NNIGFIDK@Feign?5Death?$AA@ 0308a090     MQ2Globals.obj
 0002:0000809c       ??_C@_09GFOLONBA@Evocation?$AA@ 0308a09c     MQ2Globals.obj
 0002:000080a8       ??_C@_0N@KFNCHGKC@Eagle?5Strike?$AA@ 0308a0a8     MQ2Globals.obj
 0002:000080b8       ??_C@_0L@CIGFMFII@Dual?5Wield?$AA@ 0308a0b8     MQ2Globals.obj
 0002:000080c4       ??_C@_0N@GPFJLNBE@Dragon?5Punch?$AA@ 0308a0c4     MQ2Globals.obj
 0002:000080d4       ??_C@_0O@POEFEKIB@Double?5Attack?$AA@ 0308a0d4     MQ2Globals.obj
 0002:000080e4       ??_C@_05CAMANEKJ@Dodge?$AA@ 0308a0e4     MQ2Globals.obj
 0002:000080ec       ??_C@_0L@HJKONFPO@Divination?$AA@ 0308a0ec     MQ2Globals.obj
 0002:000080f8       ??_C@_0N@PMNDADIN@Disarm?5Traps?$AA@ 0308a0f8     MQ2Globals.obj
 0002:00008108       ??_C@_06EHOCIMNE@Disarm?$AA@ 0308a108     MQ2Globals.obj
 0002:00008110       ??_C@_07PEDPFCGC@Defense?$AA@ 0308a110     MQ2Globals.obj
 0002:00008118       ??_C@_0M@KIPOLHCM@Conjuration?$AA@ 0308a118     MQ2Globals.obj
 0002:00008124       ??_C@_0L@GGDCMCMJ@Channeling?$AA@ 0308a124     MQ2Globals.obj
 0002:00008130       ??_C@_0BC@BEJKHPAB@Brass?5Instruments?$AA@ 0308a130     MQ2Globals.obj
 0002:00008144       ??_C@_05PPLCEPDH@Block?$AA@ 0308a144     MQ2Globals.obj
 0002:0000814c       ??_C@_04GDOHKEAL@Bash?$AA@ 0308a14c     MQ2Globals.obj
 0002:00008154       ??_C@_0L@CNMDMMJI@Bind?5Wound?$AA@ 0308a154     MQ2Globals.obj
 0002:00008160       ??_C@_08GJEPMMPC@Backstab?$AA@ 0308a160     MQ2Globals.obj
 0002:0000816c       ??_C@_07IGEPBLCP@Archery?$AA@ 0308a16c     MQ2Globals.obj
 0002:00008174       ??_C@_0N@KLHPFFDA@Apply?5Poison?$AA@ 0308a174     MQ2Globals.obj
 0002:00008184       ??_C@_0L@DHPHHJIL@Alteration?$AA@ 0308a184     MQ2Globals.obj
 0002:00008190       ??_C@_0L@DBIHOBPA@Abjuration?$AA@ 0308a190     MQ2Globals.obj
 0002:0000819c       ??_C@_0M@LEJLAFEH@2H?5Slashing?$AA@ 0308a19c     MQ2Globals.obj
 0002:000081a8       ??_C@_08GHFNNIJM@2H?5Blunt?$AA@ 0308a1a8     MQ2Globals.obj
 0002:000081b4       ??_C@_0M@MDAFNHLH@1H?5Slashing?$AA@ 0308a1b4     MQ2Globals.obj
 0002:000081c0       ??_C@_08FONAOEFJ@1H?5Blunt?$AA@ 0308a1c0     MQ2Globals.obj
 0002:000081cc       ??_C@_02COKOBFHN@CL?$AA@   0308a1cc     MQ2Globals.obj
 0002:000081d0       ??_C@_03JONEMFOM@FBE?$AA@  0308a1d0     MQ2Globals.obj
 0002:000081d4       ??_C@_03DAGODKFE@GLS?$AA@  0308a1d4     MQ2Globals.obj
 0002:000081d8       ??_C@_02OIKIFMNO@LS?$AA@   0308a1d8     MQ2Globals.obj
 0002:000081dc       ??_C@_02MGAGILIL@LG?$AA@   0308a1dc     MQ2Globals.obj
 0002:000081e0       ??_C@_03DCCIIEAN@GOS?$AA@  0308a1e0     MQ2Globals.obj
 0002:000081e4       ??_C@_02CIGFNHJG@FL?$AA@   0308a1e4     MQ2Globals.obj
 0002:000081e8       ??_C@_02CFPCFCEA@LL?$AA@   0308a1e8     MQ2Globals.obj
 0002:000081ec       ??_C@_03BFPDNPK@SoM?$AA@   0308a1ec     MQ2Globals.obj
 0002:000081f0       ??_C@_02DCIILGAN@SL?$AA@   0308a1f0     MQ2Globals.obj
 0002:000081f4       ??_C@_03HOJHCNME@TGS?$AA@  0308a1f4     MQ2Globals.obj
 0002:000081f8       ??_C@_02ODIGJPFH@TR?$AA@   0308a1f8     MQ2Globals.obj
 0002:000081fc       ??_C@_03HMEFPCCF@CDL?$AA@  0308a1fc     MQ2Globals.obj
 0002:00008200       ??_C@_04OKGDLNCL@NONE?$AA@ 0308a200     MQ2Globals.obj
 0002:00008208       ??_C@_04KIBFNLJL@evil?$AA@ 0308a208     MQ2Globals.obj
 0002:00008210       ??_C@_07JAOEMGIL@neutral?$AA@ 0308a210     MQ2Globals.obj
 0002:00008218       ??_C@_04DDJAGGFE@good?$AA@ 0308a218     MQ2Globals.obj
 0002:00008220       ??_C@_07CIFAGBMG@unknown?$AA@ 0308a220     MQ2Globals.obj
 0002:00008228       ??_C@_06GHFJMDBL@neuter?$AA@ 0308a228     MQ2Globals.obj
 0002:00008230       ??_C@_06GJLDEJIL@female?$AA@ 0308a230     MQ2Globals.obj
 0002:00008238       ??_C@_04ICKCIGNO@male?$AA@ 0308a238     MQ2Globals.obj
 0002:00008240       ??_C@_07LCAPDKCB@Officer?$AA@ 0308a240     MQ2Globals.obj
 0002:00008248       ??_C@_03LAMLDFEG@pet?$AA@  0308a248     MQ2Globals.obj
 0002:0000824c       ??_C@_03OBJFJEBA@any?$AA@  0308a24c     MQ2Globals.obj
 0002:00008250       ??_C@_06BALNJMNP@player?$AA@ 0308a250     MQ2Globals.obj
 0002:00008258       ??_C@_04FIKNAJID@Huge?$AA@ 0308a258     MQ2Globals.obj
 0002:00008260       ??_C@_05ECMCLLAK@Giant?$AA@ 0308a260     MQ2Globals.obj
 0002:00008268       ??_C@_05GNBOAOG@Large?$AA@ 0308a268     MQ2Globals.obj
 0002:00008270       ??_C@_05KOJKBBHA@Small?$AA@ 0308a270     MQ2Globals.obj
 0002:00008278       ??_C@_04ONEPNPF@Tiny?$AA@  0308a278     MQ2Globals.obj
 0002:00008280       ??_C@_03JMADNLNF@SSW?$AA@  0308a280     MQ2Globals.obj
 0002:00008284       ??_C@_02JLLOHNJH@SW?$AA@   0308a284     MQ2Globals.obj
 0002:00008288       ??_C@_03BDGBEMIC@WSW?$AA@  0308a288     MQ2Globals.obj
 0002:0000828c       ??_C@_03HJPHMKB@WNW?$AA@   0308a28c     MQ2Globals.obj
 0002:00008290       ??_C@_02IPEAENLE@NW?$AA@   0308a290     MQ2Globals.obj
 0002:00008294       ??_C@_03CKIOGELE@NNW?$AA@  0308a294     MQ2Globals.obj
 0002:00008298       ??_C@_03FCHKBEGH@NNE?$AA@  0308a298     MQ2Globals.obj
 0002:0000829c       ??_C@_02PHLEDNGH@NE?$AA@   0308a29c     MQ2Globals.obj
 0002:000082a0       ??_C@_03IFHLJDGG@ENE?$AA@  0308a2a0     MQ2Globals.obj
 0002:000082a4       ??_C@_03JBIFKDEF@ESE?$AA@  0308a2a4     MQ2Globals.obj
 0002:000082a8       ??_C@_02ODEKANEE@SE?$AA@   0308a2a8     MQ2Globals.obj
 0002:000082ac       ??_C@_03OEPHKLAG@SSE?$AA@  0308a2ac     MQ2Globals.obj
 0002:000082b0       ??_C@_0BD@LJOPMNEN@south?5by?5southwest?$AA@ 0308a2b0     MQ2Globals.obj
 0002:000082c4       ??_C@_09MAAPFAIJ@southwest?$AA@ 0308a2c4     MQ2Globals.obj
 0002:000082d0       ??_C@_0BC@NKJEJEH@west?5by?5southwest?$AA@ 0308a2d0     MQ2Globals.obj
 0002:000082e4       ??_C@_04GDDDFJPH@west?$AA@ 0308a2e4     MQ2Globals.obj
 0002:000082ec       ??_C@_0BC@NFDMEKAG@west?5by?5northwest?$AA@ 0308a2ec     MQ2Globals.obj
 0002:00008300       ??_C@_09BIJKFDMI@northwest?$AA@ 0308a300     MQ2Globals.obj
 0002:0000830c       ??_C@_0BD@GFIBBJHC@north?5by?5northwest?$AA@ 0308a30c     MQ2Globals.obj
 0002:00008320       ??_C@_05FIELJJNO@north?$AA@ 0308a320     MQ2Globals.obj
 0002:00008328       ??_C@_0BD@PAMDEKMH@north?5by?5northeast?$AA@ 0308a328     MQ2Globals.obj
 0002:0000833c       ??_C@_09INNIAAHN@northeast?$AA@ 0308a33c     MQ2Globals.obj
 0002:00008348       ??_C@_0BC@BIABAJOH@east?5by?5northeast?$AA@ 0308a348     MQ2Globals.obj
 0002:0000835c       ??_C@_04PGHBAKEC@east?$AA@ 0308a35c     MQ2Globals.obj
 0002:00008364       ??_C@_0BC@MAJEAKKG@east?5by?5southeast?$AA@ 0308a364     MQ2Globals.obj
 0002:00008378       ??_C@_09FFENADDM@southeast?$AA@ 0308a378     MQ2Globals.obj
 0002:00008384       ??_C@_0BD@CMKNJOPI@south?5by?5southeast?$AA@ 0308a384     MQ2Globals.obj
 0002:00008398       ??_C@_05HKNELACC@south?$AA@ 0308a398     MQ2Globals.obj
 0002:000083a0       ??_C@_0O@GFCDEMHA@?1bind?5?$HO?$CFs?5?$CFs?6?$AA@ 0308a3a0     MQ2KeyBinds.obj
 0002:000083b0       ??_C@_0N@FGOENMHF@?1bind?5?$CFs?5?$CFs?6?$AA@ 0308a3b0     MQ2KeyBinds.obj
 0002:000083c0       ??_C@_04IFJILJI@?4cfg?$AA@ 0308a3c0     MQ2KeyBinds.obj
 0002:000083c8       ??_C@_0O@LKENPGLM@?$CFs?2Configs?2?$CFs?$AA@ 0308a3c8     MQ2KeyBinds.obj
 0002:000083d8       ??_C@_03PHINJBAN@Alt?$AA@  0308a3d8     MQ2KeyBinds.obj
 0002:000083dc       ??_C@_09FGPOGLLA@Key?5Binds?$AA@ 0308a3dc     MQ2KeyBinds.obj
 0002:000083e8       ??_C@_05ONEOBAM@?$CFs_?$CFs?$AA@ 0308a3e8     MQ2KeyBinds.obj
 0002:000083f0       ??_C@_03CCFGKGDJ@Nrm?$AA@  0308a3f0     MQ2KeyBinds.obj
 0002:000083f4       ??_C@_0CI@GDADAFIG@AddMQ2KeyBind?$CI?$CFs?$CJ?5?9?5Name?5already@ 0308a3f4     MQ2KeyBinds.obj
 0002:0000841c       ??_C@_0BC@KCNMCDBE@AddMQ2KeyBind?$CI?$CFs?$CJ?$AA@ 0308a41c     MQ2KeyBinds.obj
 0002:00008430       ??_C@_0BF@KOEFGPCB@RemoveMQ2KeyBind?$CI?$CFs?$CJ?$AA@ 0308a430     MQ2KeyBinds.obj
 0002:00008448       ??_C@_06OBNFKACB@?$CFs_Alt?$AA@ 0308a448     MQ2KeyBinds.obj
 0002:00008450       ??_C@_06DEAOJHBF@?$CFs_Nrm?$AA@ 0308a450     MQ2KeyBinds.obj
 0002:00008458       ??_C@_0BK@HJKDNMOG@Unknown?5bind?5command?5name?$AA@ 0308a458     MQ2KeyBinds.obj
 0002:00008474       ??_C@_0BG@EOBPIND@?$CFs?5?$CFs?5now?5bound?5as?5?$CFs?$AA@ 0308a474     MQ2KeyBinds.obj
 0002:0000848c       ??_C@_09IOMONPGB@Alternate?$AA@ 0308a48c     MQ2KeyBinds.obj
 0002:00008498       ??_C@_0BC@PNJJFABI@Normal?5?$CFs?5cleared?$AA@ 0308a498     MQ2KeyBinds.obj
 0002:000084ac       ??_C@_0BF@BJCDBIPJ@Alternate?5?$CFs?5cleared?$AA@ 0308a4ac     MQ2KeyBinds.obj
 0002:000084c4       ??_C@_0L@BCKPCFII@clearcombo?$AA@ 0308a4c4     MQ2KeyBinds.obj
 0002:000084d0       ??_C@_0BI@CHILNLON@Invalid?5key?5combination?$AA@ 0308a4d0     MQ2KeyBinds.obj
 0002:000084e8       ??_C@_0N@LKKJDJJH@End?5EQ?5Binds?$AA@ 0308a4e8     MQ2KeyBinds.obj
 0002:000084f8       ??_C@_08JNEFBAHP@EQ?5Binds?$AA@ 0308a4f8     MQ2KeyBinds.obj
 0002:00008504       ??_C@_06HMGLNFJJ@eqlist?$AA@ 0308a504     MQ2KeyBinds.obj
 0002:0000850c       ??_C@_0O@PCDMNCPB@End?5MQ2?5Binds?$AA@ 0308a50c     MQ2KeyBinds.obj
 0002:0000851c       ??_C@_0BP@OGNEGNKG@?$FL?$AHy?$CFs?$AHx?$FN?5Nrm?3?$AHt?$CFs?$AHx?5Alt?3?$AHt?$CFs?$AHx?$AA@ 0308a51c     MQ2KeyBinds.obj
 0002:0000853c       ??_C@_09FMMKFEJC@MQ2?5Binds?$AA@ 0308a53c     MQ2KeyBinds.obj
 0002:00008548       ??_C@_0DB@FMJNFAMI@Usage?3?5?1bind?5?$DMlist?$HMeqlist?$HM?$FL?$HO?$FNnam@ 0308a548     MQ2KeyBinds.obj
 0002:0000857c       ??_C@_06BBJJECFA@RANGED?$AA@ 0308a57c     MQ2KeyBinds.obj
 0002:00008584       ??_C@_0BK@PIOFFPHJ@Unable?5to?5add?5macro?5line?4?$AA@ 0308a584     MQ2MacroCommands.obj
 0002:000085a0       ??_C@_03KHGEJKHF@?$CK?$CK?$HM?$AA@ 0308a5a0     MQ2MacroCommands.obj
 0002:000085a4       ??_C@_0BJ@PMFBMODD@Macro?5?9?5BlockComment?3?5?$CFs?$AA@ 0308a5a4     MQ2MacroCommands.obj
 0002:000085c0       ??_C@_03KFODDANJ@?$HM?$CK?$CK?$AA@ 0308a5c0     MQ2MacroCommands.obj
 0002:000085c4       ??_C@_0BI@EOGPKDGI@Include?5?9?5Including?3?5?$CFs?$AA@ 0308a5c4     MQ2MacroCommands.obj
 0002:000085dc       ??_C@_0BP@NJBMMIGN@Couldn?8t?5open?5include?5file?3?5?$CFs?$AA@ 0308a5dc     MQ2MacroCommands.obj
 0002:000085fc       ??_C@_02BMJICGCB@rt?$AA@   0308a5fc     MQ2MacroCommands.obj
 0002:00008600       ??_C@_09OCPGKIKB@inventory?$AA@ 0308a600     MQ2MacroCommands.obj
 0002:0000860c       ??_C@_03GKBGGGIB@Esc?$AA@  0308a60c     MQ2MacroCommands.obj
 0002:00008610       ??_C@_0BN@LENPBFNG@Cleanup?5?9?5Cleaning?5up?5screen?$AA@ 0308a610     MQ2MacroCommands.obj
 0002:00008630       ??_C@_0CO@KDONIKG@Usage?3?5?1delay?5?$DMtime?$DO?5?$FLcondition?5@ 0308a630     MQ2MacroCommands.obj
 0002:00008660       ??_C@_0BH@HPGOGHPL@Couldn?8t?5find?5label?5?$CFs?$AA@ 0308a660     MQ2MacroCommands.obj
 0002:00008678       ??_C@_04MEFINGLL@Sub?5?$AA@ 0308a678     MQ2MacroCommands.obj
 0002:00008680       ??_C@_0CI@LLKFKHEK@Cannot?5goto?5when?5a?5macro?5isn?8t?5r@ 0308a680     MQ2MacroCommands.obj
 0002:000086a8       ??_C@_0P@JDIEECFM@?$CFs?$EA?$CFd?5?$CI?$CFs?$CJ?3?5?$CFs?$AA@ 0308a6a8     MQ2MacroCommands.obj
 0002:000086b8       ??_C@_0BK@BMKPNMBP@?$HN?5else?5lacks?5command?5or?5?$HL?$AA@ 0308a6b8     MQ2MacroCommands.obj
 0002:000086d4       ??_C@_06IGJPGNDB@?$HN?5else?$AA@ 0308a6d4     MQ2MacroCommands.obj
 0002:000086dc       ??_C@_0BF@HGJHEJIA@Bad?5?$HL?$HN?5block?5pairing?$AA@ 0308a6dc     MQ2MacroCommands.obj
 0002:000086f4       ??_C@_0CG@JGFCOPDH@?$HL?$HN?5pairing?5ran?5into?5anther?5subro@ 0308a6f4     MQ2MacroCommands.obj
 0002:0000871c       ??_C@_07MENMLLPF@?$HN?5else?5?$AA@ 0308a71c     MQ2MacroCommands.obj
 0002:00008728       ??_C@_0EF@COHLMIME@FailIf?5?9?5Macro?5was?5ended?5before?5@ 0308a728     MQ2MacroCommands.obj
 0002:00008770       ??_C@_0EB@NBEFCGM@Failed?5to?5parse?5?1if?5command?4?5?5Co@ 0308a770     MQ2MacroCommands.obj
 0002:000087b4       ??_C@_0DM@KLEDIAA@Failed?5to?5parse?5?1if?5condition?5?8?$CF@ 0308a7b4     MQ2MacroCommands.obj
 0002:000087f0       ??_C@_0CE@HEDAMHEA@Usage?3?5?1if?5?$CI?$DMconditions?$DO?$CJ?5?$DMcomma@ 0308a7f0     MQ2MacroCommands.obj
 0002:00008814       ??_C@_0DN@IBDINNO@Failed?5to?5parse?5?1if?5command?4?5?5Ex@ 0308a814     MQ2MacroCommands.obj
 0002:00008854       ??_C@_0BM@NDOBLJFC@DoEvents?5?9?5Called?5event?3?5?$CFs?$AA@ 0308a854     MQ2MacroCommands.obj
 0002:00008870       ??_C@_0CM@FPCIHDPG@DoEvents?3?5Running?5event?5type?5?$CFd?5@ 0308a870     MQ2MacroCommands.obj
 0002:0000889c       ??_C@_0BA@GABIAFLA@Sub?5Event_Timer?$AA@ 0308a89c     MQ2MacroCommands.obj
 0002:000088ac       ??_C@_0P@CGDPIDAM@Sub?5Event_Chat?$AA@ 0308a8ac     MQ2MacroCommands.obj
 0002:000088bc       ??_C@_0N@PCFBMPN@Sub?5Event_?$CFs?$AA@ 0308a8bc     MQ2MacroCommands.obj
 0002:000088cc       ??_C@_05GLCAEPFP@flush?$AA@ 0308a8cc     MQ2MacroCommands.obj
 0002:000088d4       ??_C@_0DK@FMIKICLA@Usage?3?5?1for?5?$DMvariable?$DO?5?$DMstart?$DO?5?$DM@ 0308a8d4     MQ2MacroCommands.obj
 0002:00008910       ??_C@_0DC@IBGDLGOL@?1for?5loop?5could?5not?5assign?5value@ 0308a910     MQ2MacroCommands.obj
 0002:00008944       ??_C@_0CC@MNFBPKLN@Can?5only?5use?5?1for?5during?5a?5macro@ 0308a944     MQ2MacroCommands.obj
 0002:00008968       ??_C@_06MFFOPOPD@downto?$AA@ 0308a968     MQ2MacroCommands.obj
 0002:00008970       ??_C@_02LBCDJBAJ@to?$AA@   0308a970     MQ2MacroCommands.obj
 0002:00008974       ??_C@_0CE@GCCKHAEA@?1for?5loops?5must?5use?5an?5int?5varia@ 0308a974     MQ2MacroCommands.obj
 0002:00008998       ??_C@_0CB@IJGDGCCL@?1for?5loop?5using?5invalid?5variable@ 0308a998     MQ2MacroCommands.obj
 0002:000089bc       ??_C@_0BM@BMPBPMFC@Next?5?9?5End?5of?5loop?5?$CFd?5to?5?$CFd?$AA@ 0308a9bc     MQ2MacroCommands.obj
 0002:000089d8       ??_C@_0CA@HNKMPMAL@Next?5?9?5End?5of?5loop?5?$CFd?5downto?5?$CFd?$AA@ 0308a9d8     MQ2MacroCommands.obj
 0002:000089f8       ??_C@_0CC@JILAEEGO@?1next?5without?5badly?5matching?5?1fo@ 0308a9f8     MQ2MacroCommands.obj
 0002:00008a1c       ??_C@_04CNBNFAL@step?$AA@  0308aa1c     MQ2MacroCommands.obj
 0002:00008a24       ??_C@_0BM@BIJGDBOB@?1next?5without?5matching?5?1for?$AA@ 0308aa24     MQ2MacroCommands.obj
 0002:00008a40       ??_C@_05PABBEJL@?1for?5?$AA@ 0308aa40     MQ2MacroCommands.obj
 0002:00008a48       ??_C@_08PMDABNHK@?1for?5?$CFs?5?$AA@ 0308aa48     MQ2MacroCommands.obj
 0002:00008a54       ??_C@_0CD@OLIHLKLB@Can?5only?5use?5?1next?5during?5a?5macr@ 0308aa54     MQ2MacroCommands.obj
 0002:00008a78       ??_C@_0BN@BFEDKOCH@?1next?5using?5invalid?5variable?$AA@ 0308aa78     MQ2MacroCommands.obj
 0002:00008a98       ??_C@_07PGNJGDEA@Param?$CFd?$AA@ 0308aa98     MQ2MacroCommands.obj
 0002:00008aa0       ??_C@_0BH@KIBONCLE@GetFuncParam?$CI?$CFd?$CJ?3?5?8?$CFs?8?$AA@ 0308aaa0     MQ2MacroCommands.obj
 0002:00008ab8       ??_C@_0BN@GEINFLOE@The?5current?5macro?5has?5ended?4?$AA@ 0308aab8     MQ2MacroCommands.obj
 0002:00008ad8       ??_C@_0BB@BPFAALKH@EndMacro?5?9?5Ended?$AA@ 0308aad8     MQ2MacroCommands.obj
 0002:00008aec       ??_C@_07DMKABHIO@?3OnExit?$AA@ 0308aaec     MQ2MacroCommands.obj
 0002:00008af4       ??_C@_0CL@KCDAHGIJ@Cannot?5end?5a?5macro?5when?5one?5isn?8@ 0308aaf4     MQ2MacroCommands.obj
 0002:00008b20       ??_C@_04IEPFDAGF@keys?$AA@ 0308ab20     MQ2MacroCommands.obj
 0002:00008b28       ??_C@_0BN@HFEEJJKN@Usage?3?5?1endmacro?5?$FLkeep?5keys?$FN?$AA@ 0308ab28     MQ2MacroCommands.obj
 0002:00008b48       ??_C@_04LKOEDJLC@keep?$AA@ 0308ab48     MQ2MacroCommands.obj
 0002:00008b50       ??_C@_0BI@MDHIDCDE@Return?5?9?5Returned?5to?5?$CFs?$AA@ 0308ab50     MQ2MacroCommands.obj
 0002:00008b68       ??_C@_0CK@HHAMOGCP@Cannot?5return?5when?5a?5macro?5isn?8t@ 0308ab68     MQ2MacroCommands.obj
 0002:00008b94       ??_C@_0BG@NLCHJAII@Unknown?5?$CD?5command?3?5?$CFs?$AA@ 0308ab94     MQ2MacroCommands.obj
 0002:00008bac       ??_C@_06POACDGLA@?$CDchat?5?$AA@ 0308abac     MQ2MacroCommands.obj
 0002:00008bb4       ??_C@_0P@IEPHNILB@Bad?5?$CDevent?3?5?$CFs?$AA@ 0308abb4     MQ2MacroCommands.obj
 0002:00008bc4       ??_C@_07KFIGFEJO@?$CDevent?5?$AA@ 0308abc4     MQ2MacroCommands.obj
 0002:00008bcc       ??_C@_03ECLNAHEM@?$CFs?$CI?$AA@ 0308abcc     MQ2MacroCommands.obj
 0002:00008bd0       ??_C@_0BB@JGFMAFCD@Sub?5Event_Timer?$CI?$AA@ 0308abd0     MQ2MacroCommands.obj
 0002:00008be4       ??_C@_0BA@FEMNNNAC@Sub?5Event_Chat?$CI?$AA@ 0308abe4     MQ2MacroCommands.obj
 0002:00008bf4       ??_C@_0BA@MNGGNKLB@Bad?5?$CDdefine?3?5?$CFs?$AA@ 0308abf4     MQ2MacroCommands.obj
 0002:00008c04       ??_C@_08GFELMMBG@?$CDdefine?5?$AA@ 0308ac04     MQ2MacroCommands.obj
 0002:00008c10       ??_C@_0CP@LJBCKDLL@?$CDturbo?5?$CFd?5is?5too?5high?0?5setting?5a@ 0308ac10     MQ2MacroCommands.obj
 0002:00008c40       ??_C@_06FFEHCDNJ@?$CDturbo?$AA@ 0308ac40     MQ2MacroCommands.obj
 0002:00008c48       ??_C@_04IJKFCPCK@?4mac?$AA@ 0308ac48     MQ2MacroCommands.obj
 0002:00008c50       ??_C@_09BGDIBBPH@?$CDinclude?5?$AA@ 0308ac50     MQ2MacroCommands.obj
 0002:00008c5c       ??_C@_0CM@KNMGANLF@Call?5?9?5Calling?5subroutine?5?$CFs?5wit@ 0308ac5c     MQ2MacroCommands.obj
 0002:00008c88       ??_C@_0BL@DNDOKHLA@Subroutine?5?$CFs?5wasn?8t?5found?$AA@ 0308ac88     MQ2MacroCommands.obj
 0002:00008ca4       ??_C@_07BOKJOPJD@sub?5?$CFs?$CI?$AA@ 0308aca4     MQ2MacroCommands.obj
 0002:00008cac       ??_C@_06JNKIFDGI@sub?5?$CFs?$AA@ 0308acac     MQ2MacroCommands.obj
 0002:00008cb4       ??_C@_0CI@BHNECJGN@Cannot?5call?5when?5a?5macro?5isn?8t?5r@ 0308acb4     MQ2MacroCommands.obj
 0002:00008cdc       ??_C@_0CN@LBMPLNCM@Usage?3?5?1call?5?$DMsubroutine?$DO?5?$FLparam@ 0308acdc     MQ2MacroCommands.obj
 0002:00008d0c       ??_C@_0CH@POOOGHPM@Macro?5?9?5Starting?5macro?5with?5?8?1ca@ 0308ad0c     MQ2MacroCommands.obj
 0002:00008d34       ??_C@_04KGFMLCPK@Main?$AA@ 0308ad34     MQ2MacroCommands.obj
 0002:00008d3c       ??_C@_0BK@MICDKCNB@Macro?5?9?5Loading?5macro?3?5?$CFs?$AA@ 0308ad3c     MQ2MacroCommands.obj
 0002:00008d58       ??_C@_0BN@MACGGBKP@Couldn?8t?5open?5macro?5file?3?5?$CFs?$AA@ 0308ad58     MQ2MacroCommands.obj
 0002:00008d78       ??_C@_0CM@JPIICPEE@Usage?3?5?1macro?5?$DMfilename?$DO?5?$FLparam?5@ 0308ad78     MQ2MacroCommands.obj
 0002:00008da4       ??_C@_0BJ@OGBEBPML@Incorrect?5client?5version?$AA@ 0308ada4     MQ2Main.obj
 0002:00008dc0       ??_C@_01EEMJAFIK@?6?$AA@   0308adc0     MQ2Main.obj
 0002:00008dc4       ??_C@_01GPOEFGEJ@?7?$AA@   0308adc4     MQ2Main.obj
 0002:00008dc8       ??_C@_0O@CPLIDNPK@?$CFs?2ItemDB?4txt?$AA@ 0308adc8     MQ2Main.obj
 0002:00008dd8       ??_C@_06HFAHBGFP@NOBODY?$AA@ 0308add8     MQ2Main.obj
 0002:00008de0       ??_C@_0N@NIAKNCNE@Filter?5Names?$AA@ 0308ade0     MQ2Main.obj
 0002:00008df0       ??_C@_07MJLFIKFE@LogPath?$AA@ 0308adf0     MQ2Main.obj
 0002:00008df8       ??_C@_09KFENCLCF@MacroPath?$AA@ 0308adf8     MQ2Main.obj
 0002:00008e04       ??_C@_0M@MFHMLAIF@SWho?5Filter?$AA@ 0308ae04     MQ2Main.obj
 0002:00008e10       ??_C@_0O@FLJMPEG@MQ2LoadingMsg?$AA@ 0308ae10     MQ2Main.obj
 0002:00008e20       ??_C@_0P@DMADEIIO@AllErrorsFatal?$AA@ 0308ae20     MQ2Main.obj
 0002:00008e30       ??_C@_0BD@JGLFOIAK@AllErrorsDumpStack?$AA@ 0308ae30     MQ2Main.obj
 0002:00008e44       ??_C@_08FPEKGCKH@LaxColor?$AA@ 0308ae44     MQ2Main.obj
 0002:00008e50       ??_C@_0BA@EPIGFOBJ@DebugSpewToFile?$AA@ 0308ae50     MQ2Main.obj
 0002:00008e60       ??_C@_0BP@LBGCLOEF@?5?5?5?5Real?5Client?5version?3?5?$CFs?5?$CFs?$AA@ 0308ae60     MQ2Main.obj
 0002:00008e80       ??_C@_0BP@KOFPJFNG@Expected?5Client?5version?3?5?$CFs?5?$CFs?$AA@ 0308ae80     MQ2Main.obj
 0002:00008ea0       ??_C@_0M@EFODEOMN@Dec?519?52008?$AA@ 0308aea0     MQ2Main.obj
 0002:00008eac       ??_C@_08MBKBANLG@15?322?349?$AA@ 0308aeac     MQ2Main.obj
 0002:00008eb8       ??_C@_0O@DJHGKDDK@?$CFs?2eqgame?4ini?$AA@ 0308aeb8     MQ2Main.obj
 0002:00008ec8       ??_C@_0BC@BBDNJEGP@?$CFs?2MacroQuest?4ini?$AA@ 0308aec8     MQ2Main.obj
 0002:00008edc       ??_C@_0N@HPHMPMAO@UNKNOWN0x120?$AA@ 0308aedc     MQ2Main.obj
 0002:00008eec       ??_C@_0N@JBNLLIIF@UNKNOWN0x11f?$AA@ 0308aeec     MQ2Main.obj
 0002:00008efc       ??_C@_0N@LKPGOLEG@UNKNOWN0x11e?$AA@ 0308aefc     MQ2Main.obj
 0002:00008f0c       ??_C@_0N@KDONNKAH@UNKNOWN0x11d?$AA@ 0308af0c     MQ2Main.obj
 0002:00008f1c       ??_C@_0N@OMKMEMMA@UNKNOWN0x11c?$AA@ 0308af1c     MQ2Main.obj
 0002:00008f2c       ??_C@_0N@PFLHHNIB@UNKNOWN0x11b?$AA@ 0308af2c     MQ2Main.obj
 0002:00008f3c       ??_C@_0N@NOJKCOEC@UNKNOWN0x11a?$AA@ 0308af3c     MQ2Main.obj
 0002:00008f4c       ??_C@_0L@HGLBHLHC@CHANGEFACE?$AA@ 0308af4c     MQ2Main.obj
 0002:00008f58       ??_C@_0N@LFODMIFP@UNKNOWN0x118?$AA@ 0308af58     MQ2Main.obj
 0002:00008f68       ??_C@_0N@DCHLNEJA@UNKNOWN0x117?$AA@ 0308af68     MQ2Main.obj
 0002:00008f78       ??_C@_0BC@CJDGOBED@TOGGLE_WINDOWMODE?$AA@ 0308af78     MQ2Main.obj
 0002:00008f8c       ??_C@_0L@KPJAGNHL@CHAT_EMPTY?$AA@ 0308af8c     MQ2Main.obj
 0002:00008f98       ??_C@_0N@BJFGIHFD@UNKNOWN0x114?$AA@ 0308af98     MQ2Main.obj
 0002:00008fa8       ??_C@_0N@FGBHBBJE@UNKNOWN0x113?$AA@ 0308afa8     MQ2Main.obj
 0002:00008fb8       ??_C@_0N@GDNMDFNM@INSTANT_CAMP?$AA@ 0308afb8     MQ2Main.obj
 0002:00008fc8       ??_C@_0N@GECBHDBG@UNKNOWN0x111?$AA@ 0308afc8     MQ2Main.obj
 0002:00008fd8       ??_C@_0N@HNDKECFH@UNKNOWN0x110?$AA@ 0308afd8     MQ2Main.obj
 0002:00008fe8       ??_C@_0L@PJEMKACC@CHAT_SLASH?$AA@ 0308afe8     MQ2Main.obj
 0002:00008ff4       ??_C@_0P@HNGGAFI@CHAT_SEMICOLON?$AA@ 0308aff4     MQ2Main.obj
 0002:00009004       ??_C@_0N@KCCPLADA@UNKNOWN0x10d?$AA@ 0308b004     MQ2Main.obj
 0002:00009014       ??_C@_0N@ONGOCGPH@UNKNOWN0x10c?$AA@ 0308b014     MQ2Main.obj
 0002:00009024       ??_C@_0N@PEHFBHLG@UNKNOWN0x10b?$AA@ 0308b024     MQ2Main.obj
 0002:00009034       ??_C@_0N@NPFIEEHF@UNKNOWN0x10a?$AA@ 0308b034     MQ2Main.obj
 0002:00009044       ??_C@_0CO@NLEEBFNE@ParseINIFile?5returned?5false?5?9?5th@ 0308b044     MQ2Main.obj
 0002:00009074       ??_C@_0BI@LOFFJBAN@ShutdownMQ2Benchmarks?$CI?$CJ?$AA@ 0308b074     MQ2Main.obj
 0002:0000908c       ??_C@_0BF@LLBEGKE@ShutdownMQ2Detours?$CI?$CJ?$AA@ 0308b08c     MQ2Main.obj
 0002:000090a4       ??_C@_0BG@MBCCOMHK@ShutdownMQ2Commands?$CI?$CJ?$AA@ 0308b0a4     MQ2Main.obj
 0002:000090bc       ??_C@_0BB@FFMCJEFL@ShutdownParser?$CI?$CJ?$AA@ 0308b0bc     MQ2Main.obj
 0002:000090d0       ??_C@_0BF@KEMNFIMP@ShutdownMQ2Windows?$CI?$CJ?$AA@ 0308b0d0     MQ2Main.obj
 0002:000090e8       ??_C@_0BF@KHBGCHPH@ShutdownMQ2Plugins?$CI?$CJ?$AA@ 0308b0e8     MQ2Main.obj
 0002:00009100       ??_C@_0BD@LIMMIFIP@ShutdownMQ2Pulse?$CI?$CJ?$AA@ 0308b100     MQ2Main.obj
 0002:00009114       ??_C@_0BD@ECFAKNOI@ShutdownChatHook?$CI?$CJ?$AA@ 0308b114     MQ2Main.obj
 0002:00009128       ??_C@_0BE@OLEFLGLI@ShutdownMQ2DInput?$CI?$CJ?$AA@ 0308b128     MQ2Main.obj
 0002:0000913c       ??_C@_0BG@KOLGGNLH@ShutdownDisplayHook?$CI?$CJ?$AA@ 0308b13c     MQ2Main.obj
 0002:00009154       ??_C@_0BE@NIMMAPCN@ShutdownMQ2Spawns?$CI?$CJ?$AA@ 0308b154     MQ2Main.obj
 0002:00009168       ??_C@_0M@LKALEPNL@?$CFs?5complete?$AA@ 0308b168     MQ2Main.obj
 0002:00009174       ??_C@_09FMKEBNBC@Trying?5?$CFs?$AA@ 0308b174     MQ2Main.obj
 0002:00009180       ??_C@_0BG@IOFGLABG@ShutdownMQ2KeyBinds?$CI?$CJ?$AA@ 0308b180     MQ2Main.obj
 0002:00009198       ??_C@_0BD@LKPHLOJM@Shutdown?5completed?$AA@ 0308b198     MQ2Main.obj
 0002:000091ac       ??_C@_0O@KEIIDGHL@MQ2?5Unloaded?4?$AA@ 0308b1ac     MQ2Main.obj
 0002:000091bc       ??_C@_0M@JJNGNGPB@MQ2?5Loaded?4?$AA@ 0308b1bc     MQ2Main.obj
 0002:000091c8       ??_C@_04NKJDMFKO@?$DMbr?$DO?$AA@ 0308b1c8     MQ2Main.obj
 0002:000091d0       ??_C@_06ILGOGBAN@eqgame?$AA@ 0308b1d0     MQ2Main.obj
 0002:000091d8       ??_C@_0M@NNOBBKGN@?2eqgame?4ini?$AA@ 0308b1d8     MQ2Main.obj
 0002:000091e4       ??_C@_0N@MBBPKPEE@CWChatOutput?$AA@ 0308b1e4     MQ2Main.obj
 0002:000091f4       ??_C@_0M@HIABHLGI@CWChatInput?$AA@ 0308b1f4     MQ2Main.obj
 0002:00009200       ??_C@_0BO@DFLDAPF@?4?4?4read?5changes?4txt?5for?5more?4?$AA@ 0308b200     MQ2Main.obj
 0002:00009220       ??_C@_04KHJHGPBD@?5by?5?$AA@ 0308b220     MQ2Main.obj
 0002:00009228       ??_C@_02PCIJFNDE@?$AN?6?$AA@ 0308b228     MQ2Main.obj
 0002:0000922c       ??_C@_0BC@JOEDEGBA@Recent?5changes?4?4?4?$AA@ 0308b22c     MQ2Main.obj
 0002:00009240       ??_C@_0DP@BCHGCPAM@If?5you?5need?5help?0?5refer?5to?5READM@ 0308b240     MQ2Main.obj
 0002:00009280       ??_C@_02JDPG@rb?$AA@       0308b280     MQ2Main.obj
 0002:00009284       ??_C@_0P@IMAEAONP@?$CFs?2changes?4txt?$AA@ 0308b284     MQ2Main.obj
 0002:00009294       ??_C@_0BL@GFPOACDK@MacroQuest2?5Recent?5Changes?$AA@ 0308b294     MQ2Main.obj
 0002:000092b0       ??_C@_0L@CNKDMAL@ChatWindow?$AA@ 0308b2b0     MQ2Main.obj
 0002:000092bc       ??_C@_0BO@FPALIGNH@Value?5extracted?5for?5?$CFs?5was?5?$CFs?$AA@ 0308b2bc     MQ2Mouse.obj
 0002:000092dc       ??_C@_04GOOOJOPP@left?$AA@ 0308b2dc     MQ2Mouse.obj
 0002:000092e4       ??_C@_0CC@IBHDFGIH@Clicking?5mouse?5by?5relative?5offse@ 0308b2e4     MQ2Mouse.obj
 0002:00009308       ??_C@_0CE@HBHKBPCP@Clicking?5mouse?5at?5absolute?5posit@ 0308b308     MQ2Mouse.obj
 0002:00009330       ??_C@_0ED@HLEGNLNK@?8?$CFs?8?5mouse?5click?5is?5either?5inval@ 0308b330     MQ2Mouse.obj
 0002:00009374       ??_C@_0BA@FHBPPMDM@Bad?5command?3?5?$CFs?$AA@ 0308b374     MQ2Mouse.obj
 0002:00009384       ??_C@_0BL@HBKDGHPM@Usage?3?5?1click?5?$DMleft?$HMright?$DO?$AA@ 0308b384     MQ2Mouse.obj
 0002:000093a0       ??_C@_05OKMLJOMC@?$CFd?5?$CFd?$AA@ 0308b3a0     MQ2Mouse.obj
 0002:000093a8       ??_C@_06BBLOAEEI@center?$AA@ 0308b3a8     MQ2Mouse.obj
 0002:000093b0       ??_C@_05DHJDAOHK@right?$AA@ 0308b3b0     MQ2Mouse.obj
 0002:000093b8       ??_C@_0DF@EFACHELO@You?5must?5have?5a?5target?5selected?5@ 0308b3b8     MQ2Mouse.obj
 0002:000093f0       ??_C@_0BE@NNPLOAHN@ParseMacroParameter?$AA@ 0308b3f0     MQ2ParseAPI.obj
 0002:00009404       ??_C@_0BD@EJPDKPK@InitializeParser?$CI?$CJ?$AA@ 0308b404     MQ2ParseAPI.obj
 0002:00009418       ??_C@_0M@CLFDIGAI@?$CFs?9AutoExec?$AA@ 0308b418     MQ2PluginHandler.obj
 0002:00009424       ??_C@_0CB@FICKJCFM@LoadMQ2Plugin?$CI?$CFs?$CJ?5already?5loaded@ 0308b424     MQ2PluginHandler.obj
 0002:00009448       ??_C@_0BB@DHLHGMIA@?$DPMQ2Version?$EA?$EA3MA?$AA@ 0308b448     MQ2PluginHandler.obj
 0002:0000945c       ??_C@_09IFNBGOBI@OnEndZone?$AA@ 0308b45c     MQ2PluginHandler.obj
 0002:00009468       ??_C@_0M@PFBPDIBA@OnBeginZone?$AA@ 0308b468     MQ2PluginHandler.obj
 0002:00009474       ??_C@_0BD@MLJEPNGP@OnRemoveGroundItem?$AA@ 0308b474     MQ2PluginHandler.obj
 0002:00009488       ??_C@_0BA@CIINGKKK@OnAddGroundItem?$AA@ 0308b488     MQ2PluginHandler.obj
 0002:00009498       ??_C@_0O@HCFPOFNE@OnRemoveSpawn?$AA@ 0308b498     MQ2PluginHandler.obj
 0002:000094a8       ??_C@_0L@KGMFHEAG@OnAddSpawn?$AA@ 0308b4a8     MQ2PluginHandler.obj
 0002:000094b4       ??_C@_0N@FBHPHEOD@SetGameState?$AA@ 0308b4b4     MQ2PluginHandler.obj
 0002:000094c4       ??_C@_09BJNNGKCP@OnDrawHUD?$AA@ 0308b4c4     MQ2PluginHandler.obj
 0002:000094d0       ??_C@_0L@DECHONHG@OnReloadUI?$AA@ 0308b4d0     MQ2PluginHandler.obj
 0002:000094dc       ??_C@_09GADPCKDO@OnCleanUI?$AA@ 0308b4dc     MQ2PluginHandler.obj
 0002:000094e8       ??_C@_07JDOKCLDK@OnZoned?$AA@ 0308b4e8     MQ2PluginHandler.obj
 0002:000094f0       ??_C@_0BB@OKLGDEG@OnWriteChatColor?$AA@ 0308b4f0     MQ2PluginHandler.obj
 0002:00009504       ??_C@_07LDJIKBHH@OnPulse?$AA@ 0308b504     MQ2PluginHandler.obj
 0002:0000950c       ??_C@_0P@KMMPCAGJ@OnIncomingChat?$AA@ 0308b50c     MQ2PluginHandler.obj
 0002:0000951c       ??_C@_0P@GOMBAAJH@ShutdownPlugin?$AA@ 0308b51c     MQ2PluginHandler.obj
 0002:0000952c       ??_C@_0BB@BDNPPGIA@InitializePlugin?$AA@ 0308b52c     MQ2PluginHandler.obj
 0002:00009540       ??_C@_0BD@GKOMOHFJ@Plugin?5Load?5Failed?$AA@ 0308b540     MQ2PluginHandler.obj
 0002:00009558       ??_C@_0EJ@EKFOEDIC@Please?5recompile?5?$CFs?5?9?9?5it?5is?5out@ 0308b558     MQ2PluginHandler.obj
 0002:000095a4       ??_C@_0BJ@NLEOMICA@LoadMQ2Plugin?$CI?$CFs?$CJ?5Failed?$AA@ 0308b5a4     MQ2PluginHandler.obj
 0002:000095c0       ??_C@_0M@LOPAMNFE@mq2main?4dll?$AA@ 0308b5c0     MQ2PluginHandler.obj
 0002:000095cc       ??_C@_09CMKFMIAO@?$CFs?2?$CFs?4dll?$AA@ 0308b5cc     MQ2PluginHandler.obj
 0002:000095d8       ??_C@_0BC@IFNCKDIF@LoadMQ2Plugin?$CI?$CFs?$CJ?$AA@ 0308b5d8     MQ2PluginHandler.obj
 0002:000095ec       ??_C@_07GCLMIBLE@mq2warp?$AA@ 0308b5ec     MQ2PluginHandler.obj
 0002:000095f4       ??_C@_04HLONOPDM@?4dll?$AA@ 0308b5f4     MQ2PluginHandler.obj
 0002:000095fc       ??_C@_0BA@GMIFJFMM@UnloadMQ2Plugin?$AA@ 0308b5fc     MQ2PluginHandler.obj
 0002:0000960c       ??_C@_07PDGFLGHI@Plugins?$AA@ 0308b60c     MQ2PluginHandler.obj
 0002:00009614       ??_C@_07PIGJNPBM@EndZone?$AA@ 0308b614     MQ2PluginHandler.obj
 0002:0000961c       ??_C@_09CNBFADLG@BeginZone?$AA@ 0308b61c     MQ2PluginHandler.obj
 0002:00009628       ??_C@_09NADPJEHH@Calculate?$AA@ 0308b628     MQ2PluginHandler.obj
 0002:00009634       ??_C@_0BE@KMDJLODP@PluginsSetGameState?$AA@ 0308b634     MQ2PluginHandler.obj
 0002:00009648       ??_C@_0P@CIKNNEON@PluginsDrawHUD?$AA@ 0308b648     MQ2PluginHandler.obj
 0002:00009658       ??_C@_0BA@EBHMDOFE@PluginsReloadUI?$AA@ 0308b658     MQ2PluginHandler.obj
 0002:00009668       ??_C@_0P@FBEPJEPM@PluginsCleanUI?$AA@ 0308b668     MQ2PluginHandler.obj
 0002:00009678       ??_C@_0P@NPCCCEPM@PluginsOnZoned?$AA@ 0308b678     MQ2PluginHandler.obj
 0002:00009688       ??_C@_0N@ICEHGHOF@PluginsPulse?$AA@ 0308b688     MQ2PluginHandler.obj
 0002:00009698       ??_C@_0BE@FABLMNJJ@PluginsIncomingChat?$AA@ 0308b698     MQ2PluginHandler.obj
 0002:000096ac       ??_C@_0P@JCJALMBB@WriteChatColor?$AA@ 0308b6ac     MQ2PluginHandler.obj
 0002:000096bc       ??_C@_0BF@HANMJAE@Initializing?5plugins?$AA@ 0308b6bc     MQ2PluginHandler.obj
 0002:000096d4       ??_C@_0N@BMCCPJHA@?$CFs?9?$DOUnload?$CI?$CJ?$AA@ 0308b6d4     MQ2PluginHandler.obj
 0002:000096e4       ??_C@_0BD@DPANDNNH@WriteChatColor?$CI?$CFs?$CJ?$AA@ 0308b6e4     MQ2PluginHandler.obj
 0002:000096f8       ??_C@_0M@CDEAJPFI@?$CFs?9?$DOZoned?$CI?$CJ?$AA@ 0308b6f8     MQ2PluginHandler.obj
 0002:00009704       ??_C@_0O@LACGKMMD@?$CFs?9?$DOCleanUI?$CI?$CJ?$AA@ 0308b704     MQ2PluginHandler.obj
 0002:00009714       ??_C@_0P@HCPJJKNG@?$CFs?9?$DOReloadUI?$CI?$CJ?$AA@ 0308b714     MQ2PluginHandler.obj
 0002:00009724       ??_C@_0BF@MHDAHNGM@?$CFs?9?$DOSetGameState?$CI?$CFd?$CJ?$AA@ 0308b724     MQ2PluginHandler.obj
 0002:0000973c       ??_C@_0BI@NLKJJOEK@PluginsSetGameState?$CI?$CFd?$CJ?$AA@ 0308b73c     MQ2PluginHandler.obj
 0002:00009754       ??_C@_0L@KHHDEPEG@CharSelect?$AA@ 0308b754     MQ2PluginHandler.obj
 0002:00009760       ??_C@_08OLHOEELD@AutoExec?$AA@ 0308b760     MQ2PluginHandler.obj
 0002:0000976c       ??_C@_0CD@NLIPBLCF@Spawn?5?8?$CFs?8?5has?5unknown?5bodytype?5@ 0308b76c     MQ2PluginHandler.obj
 0002:00009790       ??_C@_0CI@EFCEHMAG@PluginsAddGroundItem?$CI?$CFs?$CJ?5?$CF?41f?0?$CF?4@ 0308b790     MQ2PluginHandler.obj
 0002:000097b8       ??_C@_0BA@DDKGIPLK@?$CFs?9?$DOBeginZone?$CI?$CJ?$AA@ 0308b7b8     MQ2PluginHandler.obj
 0002:000097c8       ??_C@_05GLJCLHDP@zoned?$AA@ 0308b7c8     MQ2PluginHandler.obj
 0002:000097d0       ??_C@_0O@CEJEPIA@?$CFs?9?$DOEndZone?$CI?$CJ?$AA@ 0308b7d0     MQ2PluginHandler.obj
 0002:000097e0       ??_C@_0BG@LNEJMPHF@Reached?5end?5of?5macro?4?$AA@ 0308b7e0     MQ2Pulse.obj
 0002:000097f8       ??_C@_0CE@NGPGMPGJ@?1delay?5ending?5early?0?5conditions?5@ 0308b7f8     MQ2Pulse.obj
 0002:0000981c       ??_C@_0DP@CGMHFGPG@Failed?5to?5parse?5?1delay?5condition@ 0308b81c     MQ2Pulse.obj
 0002:00009860       __real@4060000000000000    0308b860     MQ2Pulse.obj
 0002:00009868       __real@4034000000000000    0308b868     MQ2Pulse.obj
 0002:00009870       __real@40a00000            0308b870     MQ2Pulse.obj
 0002:00009874       __real@c1400000            0308b874     MQ2Pulse.obj
 0002:00009878       __real@44000000            0308b878     MQ2Pulse.obj
 0002:0000987c       __real@41400000            0308b87c     MQ2Pulse.obj
 0002:00009880       __real@41200000            0308b880     MQ2Pulse.obj
 0002:00009884       ??_C@_06LAGHEJKD@rallos?$AA@ 0308b884     MQ2Pulse.obj
 0002:0000988c       ??_C@_06HBDLGOIG@sullon?$AA@ 0308b88c     MQ2Pulse.obj
 0002:00009894       ??_C@_06LLEEABKM@vallon?$AA@ 0308b894     MQ2Pulse.obj
 0002:0000989c       ??_C@_06CMNLBAIF@tallon?$AA@ 0308b89c     MQ2Pulse.obj
 0002:000098a4       ??_C@_0BE@IIKPALG@Compat_ProcessFrame?$AA@ 0308b8a4     MQ2Pulse.obj
 0002:000098b8       ??_C@_0BI@DADJEKMC@GetGameState?$CI?$CJ?$DN?$CFd?5vs?5?$CFd?$AA@ 0308b8b8     MQ2Pulse.obj
 0002:000098d0       ??_C@_0BD@OHEODBMD@Initializing?5Pulse?$AA@ 0308b8d0     MQ2Pulse.obj
 0002:000098e4       ??_C@_0CG@JNHPDJBP@Corpse?5by?5class?5color?5?$CIraid?5sett@ 0308b8e4     MQ2Spawns.obj
 0002:0000990c       ??_C@_0M@PNIENDPL@CorpseClass?$AA@ 0308b90c     MQ2Spawns.obj
 0002:00009918       ??_C@_07MMINLJBN@Corpses?$AA@ 0308b918     MQ2Spawns.obj
 0002:00009920       ??_C@_0CD@DBBBFFBJ@Pet?5by?5class?5color?5?$CIraid?5setting@ 0308b920     MQ2Spawns.obj
 0002:00009944       ??_C@_0BC@KMJAMPGG@Pet?5with?5PC?5owner?$AA@ 0308b944     MQ2Spawns.obj
 0002:00009958       ??_C@_05EANEKLCL@PetPC?$AA@ 0308b958     MQ2Spawns.obj
 0002:00009960       ??_C@_0BD@LFGEGFAA@Pet?5with?5NPC?5owner?$AA@ 0308b960     MQ2Spawns.obj
 0002:00009974       ??_C@_06NJAOAMKI@PetNPC?$AA@ 0308b974     MQ2Spawns.obj
 0002:0000997c       ??_C@_0M@CNGILPJD@Marked?5NPCs?$AA@ 0308b97c     MQ2Spawns.obj
 0002:00009988       ??_C@_07POFGGDPA@NPCMark?$AA@ 0308b988     MQ2Spawns.obj
 0002:00009990       ??_C@_0BG@MFBFDLCE@NPCs?5from?5main?5assist?$AA@ 0308b990     MQ2Spawns.obj
 0002:000099a8       ??_C@_09MDDEGNCN@NPCAssist?$AA@ 0308b9a8     MQ2Spawns.obj
 0002:000099b4       ??_C@_0M@BHEAIFNH@NPC?5Bankers?$AA@ 0308b9b4     MQ2Spawns.obj
 0002:000099c0       ??_C@_09MAEKDHNM@NPCBanker?$AA@ 0308b9c0     MQ2Spawns.obj
 0002:000099cc       ??_C@_0O@IJPAMIMC@NPC?5Merchants?$AA@ 0308b9cc     MQ2Spawns.obj
 0002:000099dc       ??_C@_0M@DBMIDMLC@NPCMerchant?$AA@ 0308b9dc     MQ2Spawns.obj
 0002:000099e8       ??_C@_0CE@MIGEFEPA@NPCs?5by?5class?5color?5?$CIraid?5settin@ 0308b9e8     MQ2Spawns.obj
 0002:00009a0c       ??_C@_08CLFCCBDC@NPCClass?$AA@ 0308ba0c     MQ2Spawns.obj
 0002:00009a18       ??_C@_0BC@PENGEHNJ@NPCs?5by?5con?5color?$AA@ 0308ba18     MQ2Spawns.obj
 0002:00009a2c       ??_C@_06FECODJCM@NPCCon?$AA@ 0308ba2c     MQ2Spawns.obj
 0002:00009a34       ??_C@_0BC@NJFIODAL@NPC?5default?5color?$AA@ 0308ba34     MQ2Spawns.obj
 0002:00009a48       ??_C@_07MAMDIAOA@Traders?$AA@ 0308ba48     MQ2Spawns.obj
 0002:00009a50       ??_C@_08BOMFCCFB@PCTrader?$AA@ 0308ba50     MQ2Spawns.obj
 0002:00009a5c       ??_C@_0O@OLPEGHIO@Group?5members?$AA@ 0308ba5c     MQ2Spawns.obj
 0002:00009a6c       ??_C@_07DFBHABNH@PCGroup?$AA@ 0308ba6c     MQ2Spawns.obj
 0002:00009a74       ??_C@_0CC@GPKMLDMC@PCs?5by?5class?5color?$CIraid?5settings@ 0308ba74     MQ2Spawns.obj
 0002:00009a98       ??_C@_07LOCJDCGA@PCClass?$AA@ 0308ba98     MQ2Spawns.obj
 0002:00009aa0       ??_C@_0N@MBKJOKIP@Raid?5members?$AA@ 0308baa0     MQ2Spawns.obj
 0002:00009ab0       ??_C@_06EPFEODDF@PCRaid?$AA@ 0308bab0     MQ2Spawns.obj
 0002:00009ab8       ??_C@_0BG@EBLICHBD@PCs?5by?5PVP?5team?5color?$AA@ 0308bab8     MQ2Spawns.obj
 0002:00009ad0       ??_C@_09DPONDHI@PCPVPTeam?$AA@ 0308bad0     MQ2Spawns.obj
 0002:00009adc       ??_C@_0BB@PJICBLMA@PCs?5by?5con?5color?$AA@ 0308badc     MQ2Spawns.obj
 0002:00009af0       ??_C@_05GMLEEJNF@PCCon?$AA@ 0308baf0     MQ2Spawns.obj
 0002:00009af8       ??_C@_0BG@GGBDFMJA@Default?5color?5for?5PCs?$AA@ 0308baf8     MQ2Spawns.obj
 0002:00009b10       ??_C@_0CC@IEGDCJJD@Shutting?5Down?5Spawn?9related?5Hook@ 0308bb10     MQ2Spawns.obj
 0002:00009b34       ??_C@_08OAPJKFBO@?$CFs?9Color?$AA@ 0308bb34     MQ2Spawns.obj
 0002:00009b40       ??_C@_0P@PJMDLDBF@Caption?5Colors?$AA@ 0308bb40     MQ2Spawns.obj
 0002:00009b50       ??_C@_0CH@PMHJOHOC@Invalid?5option?5?8?$CFs?8?5while?5?8?$CFs?8?5i@ 0308bb50     MQ2Spawns.obj
 0002:00009b78       ??_C@_0L@ODCKAACH@?$CFs?5?$CFs?5?$CI?$CFs?$CJ?$AA@ 0308bb78     MQ2Spawns.obj
 0002:00009b84       ??_C@_03MPPIHBHJ@OFF?$AA@  0308bb84     MQ2Spawns.obj
 0002:00009b88       ??_C@_02BFICIOJL@ON?$AA@   0308bb88     MQ2Spawns.obj
 0002:00009b8c       ??_C@_0BM@DHOOAAKP@?$CFs?5ON?5Color?3?5?$CFd?5?$CFd?5?$CFd?4?5?$CI?$CFs?$CJ?$AA@ 0308bb8c     MQ2Spawns.obj
 0002:00009ba8       ??_C@_0BH@JEPGOIKB@?9?9?9?9?9?9?9?9?9?9?9?9?9?9?9?9?9?9?9?9?9?9?$AA@ 0308bba8     MQ2Spawns.obj
 0002:00009bc0       ??_C@_0BH@PIKMADBA@Caption?5Color?5Settings?$AA@ 0308bbc0     MQ2Spawns.obj
 0002:00009bd8       ??_C@_0CM@GFLECGNC@Usage?3?5?1captioncolor?5?$DMlist?$HM?$DMname@ 0308bbd8     MQ2Spawns.obj
 0002:00009c04       __real@42a00000            0308bc04     MQ2Spawns.obj
 0002:00009c08       ??_C@_0BE@GIHJGGPO@UpdateSpawnCaptions?$AA@ 0308bc08     MQ2Spawns.obj
 0002:00009c1c       ??_C@_0BA@ECODHENK@UpdateSpawnSort?$AA@ 0308bc1c     MQ2Spawns.obj
 0002:00009c2c       ??_C@_0CB@IBKBBFOP@Initializing?5Spawn?9related?5Hooks@ 0308bc2c     MQ2Spawns.obj
 0002:00009c50       ??_C@_04LLEBNMDN@?$CFs?$AN?6?$AA@ 0308bc50     MQ2Utilities.obj
 0002:00009c58       ??_C@_0BB@KMCBICDK@?$CFs?2DebugSpew?4log?$AA@ 0308bc58     MQ2Utilities.obj
 0002:00009c6c       ??_C@_02JOGGLHBA@?2n?$AA@  0308bc6c     MQ2Utilities.obj
 0002:00009c70       ??_C@_02MAMFGAFJ@?$CFy?$AA@ 0308bc70     MQ2Utilities.obj
 0002:00009c74       ??_C@_02ECNOPIAA@?$CFa?$AA@ 0308bc74     MQ2Utilities.obj
 0002:00009c78       ??_C@_02CGLCDNAE@?$CFe?$AA@ 0308bc78     MQ2Utilities.obj
 0002:00009c7c       ??_C@_0M@NKHMMOND@Macro?5Error?$AA@ 0308bc7c     MQ2Utilities.obj
 0002:00009c88       ??_C@_0M@HFFOIJBL@Fatal?5Error?$AA@ 0308bc88     MQ2Utilities.obj
 0002:00009c94       ??_C@_0L@PBEMJHFO@Data?5Error?$AA@ 0308bc94     MQ2Utilities.obj
 0002:00009ca0       ??_C@_0DH@ICBMMIBM@GetNextArg?5?9?5No?5matching?5quote?0?5@ 0308bca0     MQ2Utilities.obj
 0002:00009cd8       ??_C@_09GDJDOOPC@Dest?5?$DN?5?$CFs?$AA@ 0308bcd8     MQ2Utilities.obj
 0002:00009ce4       ??_C@_0M@IBIHMKAG@Source?5?$DN?5?$CFs?$AA@ 0308bce4     MQ2Utilities.obj
 0002:00009cf0       ??_C@_0DE@MONFELNI@GetArg?5?9?5No?5matching?5quote?0?5retu@ 0308bcf0     MQ2Utilities.obj
 0002:00009d24       ??_C@_0M@CDCJDFBL@?2eqgame?4exe?$AA@ 0308bd24     MQ2Utilities.obj
 0002:00009d30       ??_C@_0BA@EGGBEAEK@?2testeqgame?4exe?$AA@ 0308bd30     MQ2Utilities.obj
 0002:00009d40       ??_C@_07PHKHKIAK@?2wineq?2?$AA@ 0308bd40     MQ2Utilities.obj
 0002:00009d48       ??_C@_09CBJPFDNA@?$DMc?5?$CC?$CD?$CFs?$CC?$DO?$AA@ 0308bd48     MQ2Utilities.obj
 0002:00009d54       ??_C@_04KOAJIMAJ@?$DM?1c?$DO?$AA@ 0308bd54     MQ2Utilities.obj
 0002:00009d5c       ??_C@_0M@LLHIMGC@?$DMc?5?$CC?$CD?$CF06X?$CC?$DO?$AA@ 0308bd5c     MQ2Utilities.obj
 0002:00009d68       ??_C@_01KICIPPFI@?2?$AA@   0308bd68     MQ2Utilities.obj
 0002:00009d70       ??_C@_0EI@NAPGGJOD@You?5could?5not?5possibly?5consume?5m@ 0308bd70     MQ2Utilities.obj
 0002:00009db8       ??_C@_0DK@MEKGHKIL@You?5could?5not?5possibly?5drink?5any@ 0308bdb8     MQ2Utilities.obj
 0002:00009df4       ??_C@_0DI@DHEIDKFO@You?5could?5not?5possibly?5eat?5any?5m@ 0308bdf4     MQ2Utilities.obj
 0002:00009e2c       ??_C@_0BE@BJNNPAFE@Glug?0?5glug?0?5glug?4?4?4?$AA@ 0308be2c     MQ2Utilities.obj
 0002:00009e40       ??_C@_0BH@GCPPPNMK@Chomp?0?5chomp?0?5chomp?4?4?4?$AA@ 0308be40     MQ2Utilities.obj
 0002:00009e58       ??_C@_0BL@INLIDKKJ@Ahhh?4?5That?5was?5refreshing?4?$AA@ 0308be58     MQ2Utilities.obj
 0002:00009e74       ??_C@_0BG@JMMDJFLI@Ahhh?4?5That?5was?5tasty?4?$AA@ 0308be74     MQ2Utilities.obj
 0002:00009e8c       ??_C@_0BG@LIPFAGIK@You?5take?5a?5drink?5from?$AA@ 0308be8c     MQ2Utilities.obj
 0002:00009ea4       ??_C@_0BD@FAIBHCIC@You?5take?5a?5bite?5of?$AA@ 0308bea4     MQ2Utilities.obj
 0002:00009eb8       ??_C@_0BH@NIODEI@You?5take?5a?5bite?5out?5of?$AA@ 0308beb8     MQ2Utilities.obj
 0002:00009ed0       ??_C@_0BA@IFMBJJOF@You?5are?5thirsty?$AA@ 0308bed0     MQ2Utilities.obj
 0002:00009ee0       ??_C@_0P@PDMNHMPC@You?5are?5hungry?$AA@ 0308bee0     MQ2Utilities.obj
 0002:00009ef0       ??_C@_0BP@PKELEBCK@You?5and?5your?5mount?5are?5hungry?4?$AA@ 0308bef0     MQ2Utilities.obj
 0002:00009f10       ??_C@_0CA@ENEJHKNK@You?5and?5your?5mount?5are?5thirsty?4?$AA@ 0308bf10     MQ2Utilities.obj
 0002:00009f30       ??_C@_0BE@NLFLHPJ@You?5are?5out?5of?5food?$AA@ 0308bf30     MQ2Utilities.obj
 0002:00009f44       ??_C@_0BF@LPCBGFFB@You?5are?5out?5of?5drink?$AA@ 0308bf44     MQ2Utilities.obj
 0002:00009f5c       ??_C@_0BE@OOKKAMCC@You?5are?5low?5on?5food?$AA@ 0308bf5c     MQ2Utilities.obj
 0002:00009f70       ??_C@_0BF@KOMDHBLG@You?5are?5low?5on?5drink?$AA@ 0308bf70     MQ2Utilities.obj
 0002:00009f88       ??_C@_0BN@BHENPPP@You?5are?5no?5longer?5encumbered?$AA@ 0308bf88     MQ2Utilities.obj
 0002:00009fa8       ??_C@_0BD@NHIBIKJJ@You?5are?5encumbered?$AA@ 0308bfa8     MQ2Utilities.obj
 0002:00009fbc       ??_C@_0N@EBKNMAPE@You?5receive?5?$AA@ 0308bfbc     MQ2Utilities.obj
 0002:00009fcc       ??_C@_09OFLMCKOB@You?5give?5?$AA@ 0308bfcc     MQ2Utilities.obj
 0002:00009fd8       ??_C@_0BN@CFEODMCO@You?5no?5longer?5have?5a?5target?4?$AA@ 0308bfd8     MQ2Utilities.obj
 0002:00009ff8       ??_C@_0DM@LNPOOGNA@You?5can?5no?5longer?5advance?5your?5s@ 0308bff8     MQ2Utilities.obj
 0002:0000a038       ??_C@_0EG@GMACPDLL@You?5have?5fashioned?5the?5items?5tog@ 0308c038     MQ2Utilities.obj
 0002:0000a080       ??_C@_0DP@GJCNLCGP@You?5have?5fashioned?5the?5items?5tog@ 0308c080     MQ2Utilities.obj
 0002:0000a0c0       ??_C@_0DF@KHNELHIG@You?5lacked?5the?5skills?5to?5fashion@ 0308c0c0     MQ2Utilities.obj
 0002:0000a0f8       ??_C@_0BL@NMBJAOHD@You?5have?5become?5better?5at?5?$AA@ 0308c0f8     MQ2Utilities.obj
 0002:0000a114       ??_C@_0M@EKHANPMI@LEFTBRACKET?$AA@ 0308c114     MQ2Utilities.obj
 0002:0000a120       ??_C@_09COMJPDLF@SEMICOLON?$AA@ 0308c120     MQ2Utilities.obj
 0002:0000a12c       ??_C@_09EGPBMEC@EQUALSIGN?$AA@ 0308c12c     MQ2Utilities.obj
 0002:0000a138       ??_C@_08GACEPFBA@Vah?5Shir?$AA@ 0308c138     MQ2Utilities.obj
 0002:0000a144       ??_C@_0M@FAGJEBFM@Dark?5Speech?$AA@ 0308c144     MQ2Utilities.obj
 0002:0000a150       ??_C@_0N@MBGJLPBE@Elder?5Dragon?$AA@ 0308c150     MQ2Utilities.obj
 0002:0000a160       ??_C@_06EJIIEDFK@Faerie?$AA@ 0308c160     MQ2Utilities.obj
 0002:0000a168       ??_C@_06PFBFALGJ@Orcish?$AA@ 0308c168     MQ2Utilities.obj
 0002:0000a170       ??_C@_09CJBNDIPG@Lizardman?$AA@ 0308c170     MQ2Utilities.obj
 0002:0000a17c       ??_C@_0P@HIGELJHI@Elder?5Tier?8Dal?$AA@ 0308c17c     MQ2Utilities.obj
 0002:0000a18c       ??_C@_0P@ELBLOHFD@Combine?5Tongue?$AA@ 0308c18c     MQ2Utilities.obj
 0002:0000a19c       ??_C@_05JBKCFMBO@Gnoll?$AA@ 0308c19c     MQ2Utilities.obj
 0002:0000a1a4       ??_C@_06DEOHAMOJ@Goblin?$AA@ 0308c1a4     MQ2Utilities.obj
 0002:0000a1ac       ??_C@_07GIBKEKOG@Froglok?$AA@ 0308c1ac     MQ2Utilities.obj
 0002:0000a1b4       ??_C@_0N@CPLLBGHI@Elder?5Elvish?$AA@ 0308c1b4     MQ2Utilities.obj
 0002:0000a1c4       ??_C@_0M@BPHMCMIE@Old?5Erudian?$AA@ 0308c1c4     MQ2Utilities.obj
 0002:0000a1d0       ??_C@_0N@FPPMKKMC@Thieves?5Cant?$AA@ 0308c1d0     MQ2Utilities.obj
 0002:0000a1e0       ??_C@_08IAFPBJDC@Halfling?$AA@ 0308c1e0     MQ2Utilities.obj
 0002:0000a1ec       ??_C@_07EHLBFNIG@Gnomish?$AA@ 0308c1ec     MQ2Utilities.obj
 0002:0000a1f4       ??_C@_04KHACLBM@Ogre?$AA@  0308c1f4     MQ2Utilities.obj
 0002:0000a1fc       ??_C@_05LBPAFGKI@Troll?$AA@ 0308c1fc     MQ2Utilities.obj
 0002:0000a204       ??_C@_08JMBJFAAI@Dwarvish?$AA@ 0308c204     MQ2Utilities.obj
 0002:0000a210       ??_C@_0M@FBMDNLNC@Dark?5Elvish?$AA@ 0308c210     MQ2Utilities.obj
 0002:0000a21c       ??_C@_06MALJCPDO@Elvish?$AA@ 0308c21c     MQ2Utilities.obj
 0002:0000a224       ??_C@_07EDEPDPFF@Erudian?$AA@ 0308c224     MQ2Utilities.obj
 0002:0000a22c       ??_C@_09ILIBCODF@Barbarian?$AA@ 0308c22c     MQ2Utilities.obj
 0002:0000a238       ??_C@_0O@LOOCMJNJ@Common?5Tongue?$AA@ 0308c238     MQ2Utilities.obj
 0002:0000a248       ??_C@_06POMJKEPM@Common?$AA@ 0308c248     MQ2Utilities.obj
 0002:0000a250       ??_C@_0O@GLNMHBKC@Unknown?5Spell?$AA@ 0308c250     MQ2Utilities.obj
 0002:0000a260       __real@3fe3333333333333    0308c260     MQ2Utilities.obj
 0002:0000a268       __real@4051800000000000    0308c268     MQ2Utilities.obj
 0002:0000a270       ??_C@_0BL@KLFLHLMP@GetItemLink?$CI?$CJ?5returns?5?8?$CFs?8?$AA@ 0308c270     MQ2Utilities.obj
 0002:0000a28c       ??_C@_09EFOMMLDM@?$CFc0?$CFs?$CFs?$CFc?$AA@ 0308c28c     MQ2Utilities.obj
 0002:0000a298       ??_C@_0M@KKLCILAM@equname?4txt?$AA@ 0308c298     MQ2Utilities.obj
 0002:0000a2a4       ??_C@_0N@BCAOMBH@equname?5?$DN?5?$CFs?$AA@ 0308c2a4     MQ2Utilities.obj
 0002:0000a2b4       ??_C@_0P@LIMINGIF@?$CFs?2equname?4txt?$AA@ 0308c2b4     MQ2Utilities.obj
 0002:0000a2c4       ??_C@_03LEEGEJPE@pct?$AA@  0308c2c4     MQ2Utilities.obj
 0002:0000a2c8       ??_C@_04KJFGKBNM@quot?$AA@ 0308c2c8     MQ2Utilities.obj
 0002:0000a2d0       ??_C@_02KCAKIFL@lt?$AA@    0308c2d0     MQ2Utilities.obj
 0002:0000a2d4       ??_C@_02GHFEHLK@gt?$AA@    0308c2d4     MQ2Utilities.obj
 0002:0000a2d8       ??_C@_03DCBBJBAA@amp?$AA@  0308c2d8     MQ2Utilities.obj
 0002:0000a2dc       ??_C@_04PHHIFBLJ@nbsp?$AA@ 0308c2dc     MQ2Utilities.obj
 0002:0000a2e4       ??_C@_0BC@BHIJPODB@Corruption?5Resist?$AA@ 0308c2e4     MQ2Utilities.obj
 0002:0000a2f8       ??_C@_0BE@IDNKOGCH@UndefinedEffect?$CF03d?$AA@ 0308c2f8     MQ2Utilities.obj
 0002:0000a30c       ??_C@_0BD@LMOLDCLI@Corruption?5Counter?$AA@ 0308c30c     MQ2Utilities.obj
 0002:0000a320       ??_C@_0BA@PEFPAOCO@Percentage?5Heal?$AA@ 0308c320     MQ2Utilities.obj
 0002:0000a330       ??_C@_07HFPEFNL@Screech?$AA@ 0308c330     MQ2Utilities.obj
 0002:0000a338       ??_C@_0O@LOIAHEKD@Curse?5Counter?$AA@ 0308c338     MQ2Utilities.obj
 0002:0000a348       ??_C@_0BO@IAHMONHO@Complete?5Heal?5?$CIwith?5duration?$CJ?$AA@ 0308c348     MQ2Utilities.obj
 0002:0000a368       ??_C@_0BA@MFFHMCEK@Reaction?5Radius?$AA@ 0308c368     MQ2Utilities.obj
 0002:0000a378       ??_C@_0BE@BFPFODFG@Summon?5Skeleton?5Pet?$AA@ 0308c378     MQ2Utilities.obj
 0002:0000a38c       ??_C@_0O@PHPEIHEE@Max?5Hitpoints?$AA@ 0308c38c     MQ2Utilities.obj
 0002:0000a39c       ??_C@_0O@HADGJAFE@Damage?5Shield?$AA@ 0308c39c     MQ2Utilities.obj
 0002:0000a3ac       ??_C@_0N@HIJDDFOD@Magic?5Resist?$AA@ 0308c3ac     MQ2Utilities.obj
 0002:0000a3bc       ??_C@_0P@JHICGGPJ@Disease?5Resist?$AA@ 0308c3bc     MQ2Utilities.obj
 0002:0000a3cc       ??_C@_0O@LGAHGJCC@Poison?5Resist?$AA@ 0308c3cc     MQ2Utilities.obj
 0002:0000a3dc       ??_C@_0M@DKBCEGHE@Cold?5Resist?$AA@ 0308c3dc     MQ2Utilities.obj
 0002:0000a3e8       ??_C@_0M@GEBIFODP@Fire?5Resist?$AA@ 0308c3e8     MQ2Utilities.obj
 0002:0000a3f4       ??_C@_0P@GFIAFMK@Invunerability?$AA@ 0308c3f4     MQ2Utilities.obj
 0002:0000a404       ??_C@_0P@DIPEPNPB@Poison?5Counter?$AA@ 0308c404     MQ2Utilities.obj
 0002:0000a414       ??_C@_0BA@CJNEHDKC@Disease?5Counter?$AA@ 0308c414     MQ2Utilities.obj
 0002:0000a424       ??_C@_0L@MDAFKPMK@Summon?5Pet?$AA@ 0308c424     MQ2Utilities.obj
 0002:0000a430       ??_C@_0M@DDJADHKF@Summon?5Item?$AA@ 0308c430     MQ2Utilities.obj
 0002:0000a43c       ??_C@_09HFJCIDIP@Mesmerize?$AA@ 0308c43c     MQ2Utilities.obj
 0002:0000a448       ??_C@_04LHHGGKA@Stun?$AA@  0308c448     MQ2Utilities.obj
 0002:0000a450       ??_C@_06KIPFNFPA@Pacify?$AA@ 0308c450     MQ2Utilities.obj
 0002:0000a458       ??_C@_0BC@NLJJIGIA@Mana?5Regeneration?$AA@ 0308c458     MQ2Utilities.obj
 0002:0000a46c       ??_C@_0N@NAGNAHDI@Attack?5Speed?$AA@ 0308c46c     MQ2Utilities.obj
 0002:0000a47c       ??_C@_03IFCLAPBJ@ATK?$AA@  0308c47c     MQ2Utilities.obj
 0002:0000a480       ??_C@_09EEDJGKFJ@Hitpoints?$AA@ 0308c480     MQ2Utilities.obj
 0002:0000a48c       ??_C@_0BA@JMJGHHJD@UnknownCalc?$CF03d?$AA@ 0308c48c     MQ2Utilities.obj
 0002:0000a49c       ??_C@_0BC@DPICAJND@?$CFd?5to?5?$CFd?5?$CIrandom?$CJ?$AA@ 0308c49c     MQ2Utilities.obj
 0002:0000a4b0       ??_C@_0M@DBNHMOGD@?$CFd?5?$CIL1?$CJ?5to?5?$AA@ 0308c4b0     MQ2Utilities.obj
 0002:0000a4bc       ??_C@_08KAAECKGI@?$CFd?5?$CIL?$CFd?$CJ?$AA@ 0308c4bc     MQ2Utilities.obj
 0002:0000a4c8       ??_C@_0N@IKGBMKEG@?$CFd?5?$CIL?$CFd?$CJ?5to?5?$AA@ 0308c4c8     MQ2Utilities.obj
 0002:0000a4d8       ??_C@_05CLOOKOFG@shift?$AA@ 0308c4d8     MQ2Utilities.obj
 0002:0000a4e0       ??_C@_04JNCPKKCB@ctrl?$AA@ 0308c4e0     MQ2Utilities.obj
 0002:0000a4e8       ??_C@_03FHLPDODD@alt?$AA@  0308c4e8     MQ2Utilities.obj
 0002:0000a4ec       ??_C@_02KBCCKLEO@?$CL?5?$AA@ 0308c4ec     MQ2Utilities.obj
 0002:0000a4f0       ??_C@_0CI@BLPHMAAK@FindInvSlotForContents?$CI0x?$CF08X?$CJ?5?$CI@ 0308c4f0     MQ2Utilities.obj
 0002:0000a518       ??_C@_0CC@CIPBBDHG@Illegal?5arithmetic?5in?5calculatio@ 0308c518     MQ2Utilities.obj
 0002:0000a53c       ??_C@_0BP@LEANAPNH@Modulus?5by?5zero?5in?5calculation?$AA@ 0308c53c     MQ2Utilities.obj
 0002:0000a55c       ??_C@_0BO@OEHFFEED@Divide?5by?5zero?5in?5calculation?$AA@ 0308c55c     MQ2Utilities.obj
 0002:0000a57c       ??_C@_0CA@FOEBPCDP@Unparsable?5in?5Calculation?3?5?8?$CFc?8?$AA@ 0308c57c     MQ2Utilities.obj
 0002:0000a59c       ??_C@_05NLIGDKAO@Diaku?$AA@ 0308c59c     MQ2Utilities.obj
 0002:0000a5a4       ??_C@_0L@JKDJCBDM@Soulbinder?$AA@ 0308c5a4     MQ2Utilities.obj
 0002:0000a5b0       ??_C@_08HDIPELHE@Defender?$AA@ 0308c5b0     MQ2Utilities.obj
 0002:0000a5bc       ??_C@_05LICMIJMM@Guard?$AA@ 0308c5bc     MQ2Utilities.obj
 0002:0000a5c4       ??_C@_04PLMDECOJ@?5LoS?$AA@ 0308c5c4     MQ2Utilities.obj
 0002:0000a5cc       ??_C@_06OKPACPOG@?5Light?$AA@ 0308c5cc     MQ2Utilities.obj
 0002:0000a5d4       ??_C@_04OCPBOIND@?5LFG?$AA@ 0308c5d4     MQ2Utilities.obj
 0002:0000a5dc       ??_C@_07LBNIAPLI@?5Trader?$AA@ 0308c5dc     MQ2Utilities.obj
 0002:0000a5e4       ??_C@_03EOILCFNA@?5GM?$AA@ 0308c5e4     MQ2Utilities.obj
 0002:0000a5e8       ??_C@_0BB@BKFMAFMN@?5NotNearAlert?3?$CFd?$AA@ 0308c5e8     MQ2Utilities.obj
 0002:0000a5fc       ??_C@_0O@KEGHNOE@?5NearAlert?3?$CFd?$AA@ 0308c5fc     MQ2Utilities.obj
 0002:0000a60c       ??_C@_0M@EFNDJGCG@?5NoAlert?3?$CFd?$AA@ 0308c60c     MQ2Utilities.obj
 0002:0000a618       ??_C@_09CODCINAD@?5Alert?3?$CFd?$AA@ 0308c618     MQ2Utilities.obj
 0002:0000a624       ??_C@_09HBDBJNKD@?5NotID?3?$CFd?$AA@ 0308c624     MQ2Utilities.obj
 0002:0000a630       ??_C@_06IIILIOFN@?5ID?3?$CFd?$AA@ 0308c630     MQ2Utilities.obj
 0002:0000a638       ??_C@_0M@HOBPNBHJ@?5NoPC?3?$CF1?42f?$AA@ 0308c638     MQ2Utilities.obj
 0002:0000a644       ??_C@_09LJNOHEHB@?5Z?3?$LB?$CF1?42f?$AA@ 0308c644     MQ2Utilities.obj
 0002:0000a650       ??_C@_0O@PPIDFMCJ@?5Radius?3?$CF1?42f?$AA@ 0308c650     MQ2Utilities.obj
 0002:0000a660       ??_C@_0BA@GDKBPMB@?5at?5?$CF1?42f?0?$CF1?42f?$AA@ 0308c660     MQ2Utilities.obj
 0002:0000a670       ??_C@_09KFMDMEAC@?5Guild?3?$CFs?$AA@ 0308c670     MQ2Utilities.obj
 0002:0000a67c       ??_C@_08EPOEOJGH@?5Body?3?$CFs?$AA@ 0308c67c     MQ2Utilities.obj
 0002:0000a688       ??_C@_09IIHEAKLF@?5Class?3?$CFs?$AA@ 0308c688     MQ2Utilities.obj
 0002:0000a694       ??_C@_08NLHFOJCK@?5Race?3?$CFs?$AA@ 0308c694     MQ2Utilities.obj
 0002:0000a6a0       ??_C@_03EEBNCBOD@?5?$CFs?$AA@ 0308c6a0     MQ2Utilities.obj
 0002:0000a6a4       ??_C@_0L@DKDIFIDI@?$CI?$CFd?9?$CFd?$CJ?5?$CFs?$AA@ 0308c6a4     MQ2Utilities.obj
 0002:0000a6b0       ??_C@_05IJHANFPO@flyer?$AA@ 0308c6b0     MQ2Utilities.obj
 0002:0000a6b8       ??_C@_09COJKKFBF@mercenary?$AA@ 0308c6b8     MQ2Utilities.obj
 0002:0000a6c4       ??_C@_0N@MHJBCFHE@untargetable?$AA@ 0308c6c4     MQ2Utilities.obj
 0002:0000a6d4       ??_C@_04JCJDPOBL@trap?$AA@ 0308c6d4     MQ2Utilities.obj
 0002:0000a6dc       ??_C@_07DIDNFGDE@trigger?$AA@ 0308c6dc     MQ2Utilities.obj
 0002:0000a6e4       ??_C@_03BPGDPAOH@npc?$AA@  0308c6e4     MQ2Utilities.obj
 0002:0000a6e8       ??_C@_05LEMOKIDC@mount?$AA@ 0308c6e8     MQ2Utilities.obj
 0002:0000a6f0       ??_C@_02BKJPHGNJ@pc?$AA@   0308c6f0     MQ2Utilities.obj
 0002:0000a6f4       __real@43480000            0308c6f4     MQ2Utilities.obj
 0002:0000a6f8       ??_C@_08JIHCNKNB@nopcnear?$AA@ 0308c6f8     MQ2Utilities.obj
 0002:0000a704       ??_C@_05MFGLLJCN@notid?$AA@ 0308c704     MQ2Utilities.obj
 0002:0000a70c       ??_C@_07GDKGFJLJ@zradius?$AA@ 0308c70c     MQ2Utilities.obj
 0002:0000a714       ??_C@_09CNKNEHMI@nearalert?$AA@ 0308c714     MQ2Utilities.obj
 0002:0000a720       ??_C@_0N@CBHLGNNK@notnearalert?$AA@ 0308c720     MQ2Utilities.obj
 0002:0000a730       ??_C@_07KNPGOPFN@noalert?$AA@ 0308c730     MQ2Utilities.obj
 0002:0000a738       ??_C@_05MBIJBPBC@alert?$AA@ 0308c738     MQ2Utilities.obj
 0002:0000a740       ??_C@_05KHBKMNCB@GUILD?$AA@ 0308c740     MQ2Utilities.obj
 0002:0000a748       ??_C@_05OEPGNJB@light?$AA@ 0308c748     MQ2Utilities.obj
 0002:0000a750       ??_C@_06KGHINEPG@radius?$AA@ 0308c750     MQ2Utilities.obj
 0002:0000a758       ??_C@_05CCGOGOBM@range?$AA@ 0308c758     MQ2Utilities.obj
 0002:0000a760       ??_C@_03OINCMOHA@los?$AA@  0308c760     MQ2Utilities.obj
 0002:0000a764       ??_C@_06HOLKEPBA@slower?$AA@ 0308c764     MQ2Utilities.obj
 0002:0000a76c       ??_C@_03DKBMACNC@dps?$AA@  0308c76c     MQ2Utilities.obj
 0002:0000a770       ??_C@_06EEELIBD@healer?$AA@ 0308c770     MQ2Utilities.obj
 0002:0000a778       ??_C@_04HCFFIKMN@tank?$AA@ 0308c778     MQ2Utilities.obj
 0002:0000a780       ??_C@_06OGJIKKFI@knight?$AA@ 0308c780     MQ2Utilities.obj
 0002:0000a788       ??_C@_07BCKKALIB@tribute?$AA@ 0308c788     MQ2Utilities.obj
 0002:0000a790       ??_C@_05FOFAOGDN@named?$AA@ 0308c790     MQ2Utilities.obj
 0002:0000a798       ??_C@_06HPFNFEGF@trader?$AA@ 0308c798     MQ2Utilities.obj
 0002:0000a7a0       ??_C@_07PDNKCA@noguild?$AA@ 0308c7a0     MQ2Utilities.obj
 0002:0000a7a8       ??_C@_02JNHFOOKC@gm?$AA@   0308c7a8     MQ2Utilities.obj
 0002:0000a7ac       ??_C@_03MJKNCCKK@lfg?$AA@  0308c7ac     MQ2Utilities.obj
 0002:0000a7b0       ??_C@_04DGEAFHIB@prev?$AA@ 0308c7b0     MQ2Utilities.obj
 0002:0000a7b8       ??_C@_04CJGEDOF@next?$AA@  0308c7b8     MQ2Utilities.obj
 0002:0000a7c0       ??_C@_08JOLJMPEJ@campfire?$AA@ 0308c7c0     MQ2Utilities.obj
 0002:0000a7cc       ??_C@_06BDPMPKBB@banner?$AA@ 0308c7cc     MQ2Utilities.obj
 0002:0000a7d4       ??_C@_06IEOJBDIK@object?$AA@ 0308c7d4     MQ2Utilities.obj
 0002:0000a7dc       ??_C@_04OKPNOAGJ@aura?$AA@ 0308c7dc     MQ2Utilities.obj
 0002:0000a7e4       ??_C@_05JNBMFEP@nopet?$AA@ 0308c7e4     MQ2Utilities.obj
 0002:0000a7ec       ??_C@_0BH@NKBFKCJL@Alert?5list?5?$CFd?5cleared?4?$AA@ 0308c7ec     MQ2Utilities.obj
 0002:0000a804       ??_C@_07PNHHFOOK@?$CFs?0?5the?$AA@ 0308c804     MQ2Utilities.obj
 0002:0000a80c       ??_C@_04BAIFLMGI@the?5?$AA@ 0308c80c     MQ2Utilities.obj
 0002:0000a814       ??_C@_06GEMIMDNA@?$CFs?0?5an?$AA@ 0308c814     MQ2Utilities.obj
 0002:0000a81c       ??_C@_03IKOMHCAN@an?5?$AA@ 0308c81c     MQ2Utilities.obj
 0002:0000a820       ??_C@_05JGBFMEG@?$CFs?0?5a?$AA@ 0308c820     MQ2Utilities.obj
 0002:0000a828       ??_C@_02NMCPKDFI@a?5?$AA@  0308c828     MQ2Utilities.obj
 0002:0000a82c       ??_C@_0BE@DAPNNCMF@?5?$AHr?$CKUNTARGETABLE?$CK?$AHx?$AA@ 0308c82c     MQ2Utilities.obj
 0002:0000a840       ??_C@_0N@MFIMBDHM@?5?$AHr?$CKTIMER?$CK?$AHx?$AA@ 0308c840     MQ2Utilities.obj
 0002:0000a850       ??_C@_0P@HIKJPCMJ@?5?$AHr?$CKTRIGGER?$CK?$AHx?$AA@ 0308c850     MQ2Utilities.obj
 0002:0000a860       ??_C@_0M@OEFEBDPC@?5?$AHr?$CKTRAP?$CK?$AHx?$AA@ 0308c860     MQ2Utilities.obj
 0002:0000a86c       ??_C@_0N@KIKHGGBL@?5?$AHr?$CKCHEST?$CK?$AHx?$AA@ 0308c86c     MQ2Utilities.obj
 0002:0000a87c       ??_C@_05EHEIIDD@Off?3?5?$AA@ 0308c87c     MQ2Utilities.obj
 0002:0000a884       ??_C@_05DLPHBJGJ@Pri?3?5?$AA@ 0308c884     MQ2Utilities.obj
 0002:0000a88c       ??_C@_07KLCDGHLD@?5?$AH?9u?$CI?$AHx?$AA@ 0308c88c     MQ2Utilities.obj
 0002:0000a894       ??_C@_06BCKHGCJH@?$AH?9u?$CJ?$AHx?$AA@ 0308c894     MQ2Utilities.obj
 0002:0000a89c       ??_C@_0L@PLOFCACC@?5?$AH?9u?$CI?$AHxID?3?$AA@ 0308c89c     MQ2Utilities.obj
 0002:0000a8a8       ??_C@_0CD@KHPKJGLJ@?5?$AH?9u?$CI?$AHx?$CF1?42f?5?$CFs?$AH?9u?0?$AHx?5?$CF1?42fZ?$AH?9u?$CJ@ 0308c8a8     MQ2Utilities.obj
 0002:0000a8cc       ??_C@_06MBEBBPKF@?5?$DMNPC?$DO?$AA@ 0308c8cc     MQ2Utilities.obj
 0002:0000a8d4       ??_C@_06GADPCEBO@?5?$DMPET?$DO?$AA@ 0308c8d4     MQ2Utilities.obj
 0002:0000a8dc       ??_C@_0O@MEINOGPJ@?5?$AHg?$DMTrader?$DO?$AHx?$AA@ 0308c8dc     MQ2Utilities.obj
 0002:0000a8ec       ??_C@_0L@FIHMGICO@?5?$AHg?$DMLFG?$DO?$AHx?$AA@ 0308c8ec     MQ2Utilities.obj
 0002:0000a8f8       ??_C@_0L@PMFLOEOP@?5?$AHg?$DMAFK?$DO?$AHx?$AA@ 0308c8f8     MQ2Utilities.obj
 0002:0000a904       ??_C@_0N@LEGKKGDI@?5?$AHg?$DMSneak?$DO?$AHx?$AA@ 0308c904     MQ2Utilities.obj
 0002:0000a914       ??_C@_09KFBAMBGD@?5?$AHg?$DMLD?$DO?$AHx?$AA@ 0308c914     MQ2Utilities.obj
 0002:0000a920       ??_C@_0M@FNPMMLJG@?5?$AHg?$CKAnon?$CK?$AHx?$AA@ 0308c920     MQ2Utilities.obj
 0002:0000a92c       ??_C@_09NCNJPKPG@?5?$AHg?$CKRP?$CK?$AHx?$AA@ 0308c92c     MQ2Utilities.obj
 0002:0000a938       ??_C@_06PGPKFFFM@?$AH?9u?$FN?$AHx?$AA@ 0308c938     MQ2Utilities.obj
 0002:0000a940       ??_C@_06NDJBAKIA@?$AH?9u?$FL?$AHx?$AA@ 0308c940     MQ2Utilities.obj
 0002:0000a948       ??_C@_0N@HJIKHNAA@?$AH?9y?$CKGuide?$CK?$AHx?$AA@ 0308c948     MQ2Utilities.obj
 0002:0000a958       ??_C@_0BH@NGKCCJIE@?$AH?9y?$CKGuide?5Applicant?$CK?$AHx?$AA@ 0308c958     MQ2Utilities.obj
 0002:0000a970       ??_C@_08DKFNGGPM@?$AHy?$CKGM?$CK?$AHx?$AA@ 0308c970     MQ2Utilities.obj
 0002:0000a97c       ??_C@_01PKGAHCOL@?$CJ?$AA@ 0308c97c     MQ2Utilities.obj
 0002:0000a980       ??_C@_02GFKOMOKH@?5?$CI?$AA@ 0308c980     MQ2Utilities.obj
 0002:0000a984       ??_C@_01PPODPGHN@?$DO?$AA@ 0308c984     MQ2Utilities.obj
 0002:0000a988       ??_C@_02ELAABJPC@?5?$DM?$AA@ 0308c988     MQ2Utilities.obj
 0002:0000a98c       __real@3f666666            0308c98c     MQ2Utilities.obj
 0002:0000a990       __real@3dcccccd            0308c990     MQ2Utilities.obj
 0002:0000a994       __real@3e99999a            0308c994     MQ2Utilities.obj
 0002:0000a998       __real@3f000000            0308c998     MQ2Utilities.obj
 0002:0000a99c       ??_C@_07KFOFGNK@?$CFs?$CFd?1?$CFd?$AA@ 0308c99c     MQ2Utilities.obj
 0002:0000a9a4       ??_C@_0M@OMKEAKJD@Drop?$CF04d?1?$CFd?$AA@ 0308c9a4     MQ2Utilities.obj
 0002:0000a9b0       ??_C@_04HGGBINEM@?$CFs?$CFd?$AA@ 0308c9b0     MQ2Utilities.obj
 0002:0000a9b8       ??_C@_09GHPGBFCF@?$CFs?5is?3?5?$CFs?$AA@ 0308c9b8     MQ2Utilities.obj
 0002:0000a9c4       ??_C@_08IIMPJII@Filter?$CFd?$AA@ 0308c9c4     MQ2Utilities.obj
 0002:0000a9d0       ??_C@_06CFPOPIKJ@Takish?$AA@ 0308c9d0     MQ2Utilities.obj
 0002:0000a9d8       ??_C@_09CLAHAJGF@Rujarkian?$AA@ 0308c9d8     MQ2Utilities.obj
 0002:0000a9e4       ??_C@_09DOLLHGLM@Mistmoore?$AA@ 0308c9e4     MQ2Utilities.obj
 0002:0000a9f0       ??_C@_09CIGGJPGM@Miragul?8s?$AA@ 0308c9f0     MQ2Utilities.obj
 0002:0000a9fc       ??_C@_0M@JHKIPPGN@Deepest?5Guk?$AA@ 0308c9fc     MQ2Utilities.obj
 0002:0000aa08       __real@42960000            0308ca08     MQ2Utilities.obj
 0002:0000aa10       __real@4000000000000000    0308ca10     MQ2Utilities.obj
 0002:0000aa18       __real@41600000            0308ca18     MQ2Utilities.obj
 0002:0000aa20       __real@402c000000000000    0308ca20     MQ2Utilities.obj
 0002:0000aa28       __real@3fe8000000000000    0308ca28     MQ2Utilities.obj
 0002:0000aa30       ??_C@_0BC@PCEEPEHH@UnknownEffect?$CF03d?$AA@ 0308ca30     MQ2Utilities.obj
 0002:0000aa44       ??_C@_0BG@BFAACK@Corruption?5Resist?5by?5?$AA@ 0308ca44     MQ2Utilities.obj
 0002:0000aa5c       ??_C@_0BI@DBIJPFOE@?5Corruption?5Counter?5by?5?$AA@ 0308ca5c     MQ2Utilities.obj
 0002:0000aa74       ??_C@_0BF@OKKIDGKL@Change?5Body?5Type?5to?5?$AA@ 0308ca74     MQ2Utilities.obj
 0002:0000aa8c       ??_C@_0DJ@KKBBHDOJ@Chance?5to?5Create?5Essence?5Emerald@ 0308ca8c     MQ2Utilities.obj
 0002:0000aac8       ??_C@_0CO@POKPPKOO@Chance?5to?5Trigger?5on?5Non?9Trivial@ 0308cac8     MQ2Utilities.obj
 0002:0000aaf8       ??_C@_0CI@EOJIFNFC@Cast?5DD?5as?5Well?$CI?$CFd?$CF?$CF?5Chance?0?5Spe@ 0308caf8     MQ2Utilities.obj
 0002:0000ab20       ??_C@_0CJ@CDMBLINC@Cast?5DoT?5as?5Well?$CI?$CFd?$CF?$CF?5Chance?0?5Sp@ 0308cb20     MQ2Utilities.obj
 0002:0000ab4c       ??_C@_0CI@MPHNMNDI@Increase?5experience?5rate?5by?5?$CFd?5p@ 0308cb4c     MQ2Utilities.obj
 0002:0000ab74       ??_C@_0CK@FMHIPLOF@Decrease?5Hitpoints?5by?5?$CFd?5?$CIL?$CFd?$CJ?5t@ 0308cb74     MQ2Utilities.obj
 0002:0000aba0       ??_C@_0BL@HPBCDMNJ@Trigger?5Effect?3?5?$CFs?5on?5Fade?$AA@ 0308cba0     MQ2Utilities.obj
 0002:0000abbc       ??_C@_0BB@MOJGLBAF@Summon?5to?5Corpse?$AA@ 0308cbbc     MQ2Utilities.obj
 0002:0000abd0       ??_C@_0BI@HJLCDGIP@Critical?5Damage?5Mob?$CI?$CFd?$CJ?$AA@ 0308cbd0     MQ2Utilities.obj
 0002:0000abe8       ??_C@_0CA@OKHFBMNJ@Mana?5Absorb?5percent?5Damage?5?$CI?$CFd?$CJ?$AA@ 0308cbe8     MQ2Utilities.obj
 0002:0000ac08       ??_C@_0BA@IBJDDLBA@Hp?5to?5Mana?5?$CI?$CFd?$CJ?$AA@ 0308cc08     MQ2Utilities.obj
 0002:0000ac18       ??_C@_0BH@FNCAPPGM@Add?5Defensive?5Proc?3?5?$CFs?$AA@ 0308cc18     MQ2Utilities.obj
 0002:0000ac30       ??_C@_0BG@OGFHOGIM@Gate?5to?5Starting?5City?$AA@ 0308cc30     MQ2Utilities.obj
 0002:0000ac48       ??_C@_0BI@HFLJNGNE@Reduce?5Target?5Hate?5?$CI?$CFd?$CJ?$AA@ 0308cc48     MQ2Utilities.obj
 0002:0000ac60       ??_C@_0BN@LPAOICA@Set?5Duration?5Invis?5to?5Undead?$AA@ 0308cc60     MQ2Utilities.obj
 0002:0000ac80       ??_C@_0BD@HFFHAKAK@Set?5Duration?5Invis?$AA@ 0308cc80     MQ2Utilities.obj
 0002:0000ac94       ??_C@_0O@NNABIBJL@Observer?5?$CI?$CFd?$CJ?$AA@ 0308cc94     MQ2Utilities.obj
 0002:0000aca4       ??_C@_0CB@BPFCDOAB@Limit?3?5Combat?5Skills?5Not?5Allowed@ 0308cca4     MQ2Utilities.obj
 0002:0000acc8       ??_C@_0CC@KIONALNJ@Decrease?5Reuse?5Timer?5by?5?$CFd?400?5se@ 0308ccc8     MQ2Utilities.obj
 0002:0000acec       ??_C@_0BK@CBGKPBBG@Gate?5to?5Casters?5Bindpoint?$AA@ 0308ccec     MQ2Utilities.obj
 0002:0000ad08       ??_C@_0BE@ONMLGPBH@Zone?5Suspend?5minion?$AA@ 0308cd08     MQ2Utilities.obj
 0002:0000ad1c       ??_C@_0BF@HCNMHDKK@Wake?5the?5Dead?52?5?$CI?$CFd?$CJ?$AA@ 0308cd1c     MQ2Utilities.obj
 0002:0000ad34       ??_C@_0N@KDBBAAIA@Doppleganger?$AA@ 0308cd34     MQ2Utilities.obj
 0002:0000ad44       ??_C@_0BD@CNICPBPL@Wake?5the?5Dead?5?$CI?$CFd?$CJ?$AA@ 0308cd44     MQ2Utilities.obj
 0002:0000ad58       ??_C@_0BJ@INGIGJOP@Decrease?5Height?5by?5?$CFdpct?$AA@ 0308cd58     MQ2Utilities.obj
 0002:0000ad74       ??_C@_07OCNFPNOK@Empathy?$AA@ 0308cd74     MQ2Utilities.obj
 0002:0000ad7c       ??_C@_0CI@IDDKBKAL@Increase?5Incoming?5Spell?5Damage?5b@ 0308cd7c     MQ2Utilities.obj
 0002:0000ada4       ??_C@_0BH@BIBJDKPE@Spell?5Crit?5Chance?5?$CI?$CFd?$CJ?$AA@ 0308cda4     MQ2Utilities.obj
 0002:0000adbc       ??_C@_0M@DAEFABFL@Purify?5?$CI?$CFd?$CJ?$AA@ 0308cdbc     MQ2Utilities.obj
 0002:0000adc8       ??_C@_0BK@ICLCLFDA@Improved?5Spell?5Effect?3?5?$CFs?$AA@ 0308cdc8     MQ2Utilities.obj
 0002:0000ade4       ??_C@_0BP@IFLDHHMI@Additional?5Damage?5to?5Spell?$CI?$CFd?$CJ?$AA@ 0308cde4     MQ2Utilities.obj
 0002:0000ae04       ??_C@_0BD@HFLNJJEO@Flurry?5Chance?5?$CI?$CFd?$CJ?$AA@ 0308ce04     MQ2Utilities.obj
 0002:0000ae18       ??_C@_0BD@DOHBNIP@Critical?5Heal?5?$CI?$CFd?$CJ?$AA@ 0308ce18     MQ2Utilities.obj
 0002:0000ae2c       ??_C@_0BC@BAONPBHD@Critical?5DoT?5?$CI?$CFd?$CJ?$AA@ 0308ce2c     MQ2Utilities.obj
 0002:0000ae40       ??_C@_0BG@IDAKEBMO@Add?5Attack?5Chance?$CI?$CFd?$CJ?$AA@ 0308ce40     MQ2Utilities.obj
 0002:0000ae58       ??_C@_0L@GBEHOJPF@?5Cap?5by?5?$CFd?$AA@ 0308ce58     MQ2Utilities.obj
 0002:0000ae64       ??_C@_0BA@MIHKDDCP@UnknownStat?$CI?$CFd?$CJ?$AA@ 0308ce64     MQ2Utilities.obj
 0002:0000ae74       ??_C@_0BM@DNDJIGPM@Add?5Instrument?5Modifier?$CI?$CFd?$CJ?$AA@ 0308ce74     MQ2Utilities.obj
 0002:0000ae90       ??_C@_0BF@MCDHICNP@Triple?5Backstab?5?$CI?$CFd?$CJ?$AA@ 0308ce90     MQ2Utilities.obj
 0002:0000aea8       ??_C@_0BB@PINCGCCH@Divine?5Save?5?$CI?$CFd?$CJ?$AA@ 0308cea8     MQ2Utilities.obj
 0002:0000aebc       ??_C@_0BH@IENEDPGP@Reduce?5Skill?5Timer?$CI?$CFd?$CJ?$AA@ 0308cebc     MQ2Utilities.obj
 0002:0000aed4       ??_C@_0BA@ENLOBBOB@Slay?5Undead?$CI?$CFd?$CJ?$AA@ 0308ced4     MQ2Utilities.obj
 0002:0000aee4       ??_C@_0BC@NKJFDEJM@Accuracy?5by?5?$CFdpct?$AA@ 0308cee4     MQ2Utilities.obj
 0002:0000aef8       ??_C@_0BG@KEIOMJBL@Max?5HP?5change?5by?5?$CI?$CFd?$CJ?$AA@ 0308cef8     MQ2Utilities.obj
 0002:0000af10       ??_C@_0CC@PILNFNKP@Frenzied?5Devastation?5?$CI?$CFd0?400?5sec@ 0308cf10     MQ2Utilities.obj
 0002:0000af34       ??_C@_0O@PBMIIPOG@AE?5Melee?5?$CI?$CFd?$CJ?$AA@ 0308cf34     MQ2Utilities.obj
 0002:0000af44       ??_C@_0BH@DAOIMICO@Pet?5Shield?5?$CI?$CFd?400?5sec?$CJ?$AA@ 0308cf44     MQ2Utilities.obj
 0002:0000af5c       ??_C@_0CC@OLFAEIDF@Cancel?5Magic?5?9?5Benefical?5Only?$CI?$CFd@ 0308cf5c     MQ2Utilities.obj
 0002:0000af80       ??_C@_0O@NNHLIDPD@Flesh?5to?5Bone?$AA@ 0308cf80     MQ2Utilities.obj
 0002:0000af90       ??_C@_08BIGJBHGK@AE?5Taunt?$AA@ 0308cf90     MQ2Utilities.obj
 0002:0000af9c       ??_C@_07DLCPLNBG@Rampage?$AA@ 0308cf9c     MQ2Utilities.obj
 0002:0000afa4       ??_C@_0CB@OAKFGGMG@Group?5Fear?5Immunity?5?$CI?$CFd0?400?5sec?$CJ@ 0308cfa4     MQ2Utilities.obj
 0002:0000afc8       ??_C@_0BA@MGPKLOEP@Mass?5Group?5Buff?$AA@ 0308cfc8     MQ2Utilities.obj
 0002:0000afd8       ??_C@_0P@IGMCPGIC@Illusion?5Other?$AA@ 0308cfd8     MQ2Utilities.obj
 0002:0000afe8       ??_C@_0BB@HJOGPMBE@Ranged?5Proc?5?$CI?$CFd?$CJ?$AA@ 0308cfe8     MQ2Utilities.obj
 0002:0000affc       ??_C@_0CA@IHCCAFOG@Increase?5Proc?5Modifier?5by?5?$CFdpct?$AA@ 0308cffc     MQ2Utilities.obj
 0002:0000b01c       ??_C@_0BA@FAACOMHO@Endurance?5by?5?$CFd?$AA@ 0308d01c     MQ2Utilities.obj
 0002:0000b02c       ??_C@_0BI@CDAACDLC@Skill?5Damage?5Taken?5?$CI?$CFd?$CJ?$AA@ 0308d02c     MQ2Utilities.obj
 0002:0000b044       ??_C@_0BD@LKLGKMJI@Strikethrough?5?$CI?$CFd?$CJ?$AA@ 0308d044     MQ2Utilities.obj
 0002:0000b058       ??_C@_0BB@KJMFPEIE@Stun?5Resist?5?$CI?$CFd?$CJ?$AA@ 0308d058     MQ2Utilities.obj
 0002:0000b06c       ??_C@_0O@CKPHKFIE@Fade?5Memories?$AA@ 0308d06c     MQ2Utilities.obj
 0002:0000b07c       ??_C@_0BC@DKLPKPFH@Skill?5Attack?5?$CI?$CFd?$CJ?$AA@ 0308d07c     MQ2Utilities.obj
 0002:0000b090       ??_C@_0O@JJEKNJBP@Hate?5by?5?$CFdpct?$AA@ 0308d090     MQ2Utilities.obj
 0002:0000b0a0       ??_C@_0BF@JAKEMHGF@Endurance?5Pool?5by?5?$CFd?$AA@ 0308d0a0     MQ2Utilities.obj
 0002:0000b0b8       ??_C@_0BJ@KKEFKCMK@Endurance?5by?5?$CFd?5per?5tick?$AA@ 0308d0b8     MQ2Utilities.obj
 0002:0000b0d4       ??_C@_0BJ@IEADEJDE@Chance?5to?5block?5by?5?$CFdpct?$AA@ 0308d0d4     MQ2Utilities.obj
 0002:0000b0f0       ??_C@_0CL@IKMFGML@All?5Skills?5Minimum?5Damage?5Modifi@ 0308d0f0     MQ2Utilities.obj
 0002:0000b11c       ??_C@_0CD@ILCBDCMG@All?5Skills?5Damage?5Modifier?5by?5?$CFd@ 0308d11c     MQ2Utilities.obj
 0002:0000b140       ??_C@_0CI@MBBOAFPA@Increase?5Chance?5to?5Hit?5by?5?$CFdpct?5@ 0308d140     MQ2Utilities.obj
 0002:0000b168       ??_C@_0CE@BJAKJEPH@Increase?5Melee?5Skill?5Check?5by?5?$CFd@ 0308d168     MQ2Utilities.obj
 0002:0000b18c       ??_C@_0BF@DNNCMEI@Hundred?5Hands?5Effect?$AA@ 0308d18c     MQ2Utilities.obj
 0002:0000b1a4       ??_C@_0CO@ONPPHFBB@Increase?5Chance?5to?5Resist?5Fear?5S@ 0308d1a4     MQ2Utilities.obj
 0002:0000b1d4       ??_C@_0CB@KGFCCDHJ@Chance?5to?5Resist?5Spells?5by?5?$CFdpct@ 0308d1d4     MQ2Utilities.obj
 0002:0000b1f8       ??_C@_0BJ@OFLNGFMI@Instrument?5Modifier?5?$CI?$CFd?$CJ?$AA@ 0308d1f8     MQ2Utilities.obj
 0002:0000b214       ??_C@_0CA@EFHGBOLN@Lifetap?5from?5Weapon?5Damage?5?$CI?$CFd?$CJ?$AA@ 0308d214     MQ2Utilities.obj
 0002:0000b234       ??_C@_0CA@HMMFBLGB@Increase?5Double?5Attack?5by?5?$CFdpct?$AA@ 0308d234     MQ2Utilities.obj
 0002:0000b254       ??_C@_0BE@MNPODKNH@Dual?5Wield?5by?5?$CFdpct?$AA@ 0308d254     MQ2Utilities.obj
 0002:0000b268       ??_C@_0BJ@MFNEDDBC@Chance?5to?5Parry?5by?5?$CFdpct?$AA@ 0308d268     MQ2Utilities.obj
 0002:0000b284       ??_C@_0BJ@OEOECJFJ@Chance?5to?5Dodge?5by?5?$CFdpct?$AA@ 0308d284     MQ2Utilities.obj
 0002:0000b2a0       ??_C@_0BL@FCLHBOIB@Chance?5to?5Riposte?5by?5?$CFdpct?$AA@ 0308d2a0     MQ2Utilities.obj
 0002:0000b2bc       ??_C@_0BP@FMKKLLDA@Chance?5to?5Avoid?5Melee?5by?5?$CFdpct?$AA@ 0308d2bc     MQ2Utilities.obj
 0002:0000b2dc       ??_C@_0CC@OCOJDKMC@Chance?5to?5Crippling?5Blow?5by?5?$CFdpc@ 0308d2dc     MQ2Utilities.obj
 0002:0000b300       ??_C@_0CH@BDAIJBAL@Chance?5to?5Critical?5Cast?5?$CIunknown@ 0308d300     MQ2Utilities.obj
 0002:0000b328       ??_C@_0CG@DHNBPCIL@Chance?5to?5Critical?5Hit?5for?5?$CFs?5by@ 0308d328     MQ2Utilities.obj
 0002:0000b350       ??_C@_0L@NLEHDFGB@All?5Skills?$AA@ 0308d350     MQ2Utilities.obj
 0002:0000b35c       ??_C@_0BK@NDMAOCEN@Melee?5Mitigation?5by?5?$CFdpct?$AA@ 0308d35c     MQ2Utilities.obj
 0002:0000b378       ??_C@_0BH@NNJGDMCC@Increase?5Pet?5Power?$CI?$CFd?$CJ?$AA@ 0308d378     MQ2Utilities.obj
 0002:0000b390       ??_C@_0CF@LCPKJOME@Attempt?5Destroy?5?$CICursed?$CJ?5Lock?$CI?$CFd@ 0308d390     MQ2Utilities.obj
 0002:0000b3b8       ??_C@_0CE@POBNELOL@Attempt?5Disarm?5?$CICursed?$CJ?5Trap?$CI?$CFd?0@ 0308d3b8     MQ2Utilities.obj
 0002:0000b3dc       ??_C@_0CD@MBFMPFG@Attempt?5Sense?5?$CICursed?$CJ?5Trap?$CI?$CFd?0?$CF@ 0308d3dc     MQ2Utilities.obj
 0002:0000b400       ??_C@_0CN@OIJPJOOF@Absorb?5Damage?5?$CImelee?5or?5spell?0?5c@ 0308d400     MQ2Utilities.obj
 0002:0000b430       ??_C@_0DB@HCODJHOF@Mitigate?5Melee?5Damage?5by?5?$CFdpct?5u@ 0308d430     MQ2Utilities.obj
 0002:0000b464       ??_C@_0DB@LGALCAAA@Mitigate?5Spell?5Damage?5by?5?$CFdpct?5u@ 0308d464     MQ2Utilities.obj
 0002:0000b498       ??_C@_0CI@BHCGKGHM@Drunk?5if?5Alcholol?5Tolerance?5is?5b@ 0308d498     MQ2Utilities.obj
 0002:0000b4c0       ??_C@_0M@NBOHGLBM@Stats?5by?5?$CFd?$AA@ 0308d4c0     MQ2Utilities.obj
 0002:0000b4cc       ??_C@_0BM@BFLBJHN@Chance?5to?5Reflect?5Spell?5by?5?$AA@ 0308d4cc     MQ2Utilities.obj
 0002:0000b4e8       ??_C@_0BI@HOGJLFEG@Spell?9Damage?5Shield?$CI?$CFd?$CJ?$AA@ 0308d4e8     MQ2Utilities.obj
 0002:0000b500       ??_C@_0BB@DFLEGAII@Illusion?3?5Target?$AA@ 0308d500     MQ2Utilities.obj
 0002:0000b514       ??_C@_0BH@FKLPKCA@Remove?5Detrimental?$CI?$CFd?$CJ?$AA@ 0308d514     MQ2Utilities.obj
 0002:0000b52c       ??_C@_0CE@BOPCPFJH@Balance?5Party?5Health?$CI?$CFdpct?5penal@ 0308d52c     MQ2Utilities.obj
 0002:0000b550       ??_C@_0BO@DHPCOKNN@Summon?5Pets?3?5?$CFs?5x?$CFd?5for?5?$CFdsec?$AA@ 0308d550     MQ2Utilities.obj
 0002:0000b570       ??_C@_0BA@FPOLKHEP@Current?5HP?5Only?$AA@ 0308d570     MQ2Utilities.obj
 0002:0000b580       ??_C@_0BL@GAHHLFII@Current?5HP?0?5Buffs?0?5Weapons?$AA@ 0308d580     MQ2Utilities.obj
 0002:0000b59c       ??_C@_0BD@ELKFGGCN@Suspended?5Minion?5?$CI?$AA@ 0308d59c     MQ2Utilities.obj
 0002:0000b5b0       ??_C@_0CB@CFPHHKL@Death?5Save?5?9?5Restore?5Full?5Health@ 0308d5b0     MQ2Utilities.obj
 0002:0000b5d4       ??_C@_0DK@BPEMKPEB@Stacking?3?5Overwrite?5existing?5spe@ 0308d5d4     MQ2Utilities.obj
 0002:0000b610       ??_C@_08GNFKAJPD@?8?5and?5?$DM?5?$AA@ 0308d610     MQ2Utilities.obj
 0002:0000b61c       ??_C@_0DB@HGLLLBII@Stacking?3?5Block?5new?5spell?5if?5slo@ 0308d61c     MQ2Utilities.obj
 0002:0000b650       ??_C@_0BM@HGMBPMKE@Hitpoints?5by?5?$CFd?5?$CI?$CFdpct?5max?$CJ?$AA@ 0308d650     MQ2Utilities.obj
 0002:0000b66c       ??_C@_0CJ@FJMPEHFE@Teleportv2?5to?5?$CFd?0?5?$CFd?0?5?$CFd?5in?5?$CFs?5f@ 0308d66c     MQ2Utilities.obj
 0002:0000b698       ??_C@_0BP@DAIMBMBF@Limit?3?5Min?5Cast?5Time?$CI?$CF?41f?5sec?$CJ?$AA@ 0308d698     MQ2Utilities.obj
 0002:0000b6b8       ??_C@_0BF@HIPOCCEA@Limit?3?5Min?5Level?$CI?$CFd?$CJ?$AA@ 0308d6b8     MQ2Utilities.obj
 0002:0000b6d0       ??_C@_0BL@LEOCAHBG@Limit?3?5Instant?5spells?5only?$AA@ 0308d6d0     MQ2Utilities.obj
 0002:0000b6ec       ??_C@_0BN@CKPFCKMP@Limit?3?5Min?5Duraction?$CI?$CFd?5sec?$CJ?$AA@ 0308d6ec     MQ2Utilities.obj
 0002:0000b70c       ??_C@_0O@MJGMCKHC@Limit?3?5Spell?$CI?$AA@ 0308d70c     MQ2Utilities.obj
 0002:0000b71c       ??_C@_0BB@IIEOOGCK@Detrimental?5only?$AA@ 0308d71c     MQ2Utilities.obj
 0002:0000b730       ??_C@_0BA@JBAPNFLD@Beneficial?5only?$AA@ 0308d730     MQ2Utilities.obj
 0002:0000b740       ??_C@_0BI@NHKIEJHG@Beneficial?5?9?5Group?5Only?$AA@ 0308d740     MQ2Utilities.obj
 0002:0000b758       ??_C@_0M@FDLKJDCE@Unknown?$CF03d?$AA@ 0308d758     MQ2Utilities.obj
 0002:0000b764       ??_C@_0BC@CPEALNGH@Limit?3?5SpellType?$CI?$AA@ 0308d764     MQ2Utilities.obj
 0002:0000b778       ??_C@_0P@OLAEJEJF@Limit?3?5Effect?$CI?$AA@ 0308d778     MQ2Utilities.obj
 0002:0000b788       ??_C@_0P@FJFONHJP@Limit?3?5Target?$CI?$AA@ 0308d788     MQ2Utilities.obj
 0002:0000b798       ??_C@_09DFPKOLEN@?5excluded?$AA@ 0308d798     MQ2Utilities.obj
 0002:0000b7a4       ??_C@_08BGGBPPLG@?5allowed?$AA@ 0308d7a4     MQ2Utilities.obj
 0002:0000b7b0       ??_C@_08NPMHEIKA@Cold?1Ice?$AA@ 0308d7b0     MQ2Utilities.obj
 0002:0000b7bc       ??_C@_0P@KCLJBFIE@Limit?3?5Resist?5?$AA@ 0308d7bc     MQ2Utilities.obj
 0002:0000b7cc       ??_C@_0BF@MBNILJDB@Limit?3?5Max?5Level?$CI?$CFd?$CJ?$AA@ 0308d7cc     MQ2Utilities.obj
 0002:0000b7e4       ??_C@_0DE@BODOHEM@Limit?3?5Max?5Level?$CI?$CFd?$CJ?5?$CIlose?5?$CFd?$CFc?5@ 0308d7e4     MQ2Utilities.obj
 0002:0000b818       ??_C@_0BE@GPGGLIO@Spell?5Mana?5Cost?5by?5?$AA@ 0308d818     MQ2Utilities.obj
 0002:0000b82c       ??_C@_0CF@FEHEPBFO@Decrease?5Chance?5of?5Using?5Reagent@ 0308d82c     MQ2Utilities.obj
 0002:0000b854       ??_C@_0BE@HHOCKNCN@Spell?1Bash?5Hate?5by?5?$AA@ 0308d854     MQ2Utilities.obj
 0002:0000b868       ??_C@_0BA@HIIAMEEH@Spell?5Range?5by?5?$AA@ 0308d868     MQ2Utilities.obj
 0002:0000b878       ??_C@_0BD@CIBDBHHK@Spell?5Duration?5by?5?$AA@ 0308d878     MQ2Utilities.obj
 0002:0000b88c       ??_C@_0BA@PJIEHHMP@Spell?5Haste?5by?5?$AA@ 0308d88c     MQ2Utilities.obj
 0002:0000b89c       ??_C@_0BI@DGPCEHHL@Spell?5Resist?5Rate?5by?5?$CFd?$AA@ 0308d89c     MQ2Utilities.obj
 0002:0000b8b4       ??_C@_0M@IICCALCB@Healing?5by?5?$AA@ 0308d8b4     MQ2Utilities.obj
 0002:0000b8c0       ??_C@_0BB@MKKJAPOB@Spell?5Damage?5by?5?$AA@ 0308d8c0     MQ2Utilities.obj
 0002:0000b8d4       ??_C@_0M@EJIGGCFF@Screech?$CI?$CFd?$CJ?$AA@ 0308d8d4     MQ2Utilities.obj
 0002:0000b8e0       ??_C@_0BL@LHNNCIAD@Reverse?5Damage?5Shield?5?$CI?$CFd?$CJ?$AA@ 0308d8e0     MQ2Utilities.obj
 0002:0000b8fc       ??_C@_0BK@DDOCFAAG@Healing?5Effectiveness?5by?5?$AA@ 0308d8fc     MQ2Utilities.obj
 0002:0000b918       ??_C@_0N@EAAOJLJC@Haste?5v3?5by?5?$AA@ 0308d918     MQ2Utilities.obj
 0002:0000b928       ??_C@_0BC@NGPAJIJK@Singing?5Skill?5by?5?$AA@ 0308d928     MQ2Utilities.obj
 0002:0000b93c       ??_C@_0BF@NLNBOEOP@Make?5Weapons?5Magical?$AA@ 0308d93c     MQ2Utilities.obj
 0002:0000b954       ??_C@_0BC@IFDGBHFG@Curse?5Counter?5by?5?$AA@ 0308d954     MQ2Utilities.obj
 0002:0000b968       ??_C@_0L@GGHGCIMF@Food?1Water?$AA@ 0308d968     MQ2Utilities.obj
 0002:0000b974       ??_C@_0BF@BGOHBCIE@Aggro?5Multiplier?5by?5?$AA@ 0308d974     MQ2Utilities.obj
 0002:0000b98c       ??_C@_0BA@LELGOHGP@All?5Resists?5by?5?$AA@ 0308d98c     MQ2Utilities.obj
 0002:0000b99c       ??_C@_0BB@HFIFFKMD@Summon?5Horse?3?5?$CFs?$AA@ 0308d99c     MQ2Utilities.obj
 0002:0000b9b0       ??_C@_0BM@BCIBHDAJ@Effective?5Casting?5Level?5by?5?$AA@ 0308d9b0     MQ2Utilities.obj
 0002:0000b9cc       ??_C@_0BH@CGLKDGCM@Summon?5Item?5Into?5Bag?3?5?$AA@ 0308d9cc     MQ2Utilities.obj
 0002:0000b9e4       ??_C@_0BE@BLICCLFL@Summon?5Familiar?3?5?$CFs?$AA@ 0308d9e4     MQ2Utilities.obj
 0002:0000b9f8       ??_C@_0BC@MFAHKBPL@Summon?5Warder?3?5?$CFs?$AA@ 0308d9f8     MQ2Utilities.obj
 0002:0000ba0c       ??_C@_0O@DLPILPOD@Anti?9Gate?$CI?$CFd?$CJ?$AA@ 0308da0c     MQ2Utilities.obj
 0002:0000ba1c       ??_C@_0L@GAMLAGFG@Bind?5Point?$AA@ 0308da1c     MQ2Utilities.obj
 0002:0000ba28       ??_C@_0BA@KHOFCMCG@Translocate?5to?5?$AA@ 0308da28     MQ2Utilities.obj
 0002:0000ba38       ??_C@_08NOALAIJJ@Call?5Pet?$AA@ 0308da38     MQ2Utilities.obj
 0002:0000ba44       ??_C@_08EFMBLFNJ@Fearless?$AA@ 0308da44     MQ2Utilities.obj
 0002:0000ba50       ??_C@_0BB@GFDNDNF@Hitpoints?5v2?5by?5?$AA@ 0308da50     MQ2Utilities.obj
 0002:0000ba64       ??_C@_04BAJDEDPD@Root?$AA@ 0308da64     MQ2Utilities.obj
 0002:0000ba6c       ??_C@_0N@ILFCEIDH@Haste?5v2?5by?5?$AA@ 0308da6c     MQ2Utilities.obj
 0002:0000ba7c       ??_C@_0O@PDBNJAMK@Mana?5Pool?5by?5?$AA@ 0308da7c     MQ2Utilities.obj
 0002:0000ba8c       ??_C@_07PIFMIADC@Silence?$AA@ 0308da8c     MQ2Utilities.obj
 0002:0000ba94       ??_C@_09NGBNHBC@Sacrifice?$AA@ 0308da94     MQ2Utilities.obj
 0002:0000baa0       ??_C@_0N@BMMBFMMB@Make?5Fragile?$AA@ 0308daa0     MQ2Utilities.obj
 0002:0000bab0       ??_C@_09HMCHOFFK@Stop?5Rain?$AA@ 0308dab0     MQ2Utilities.obj
 0002:0000babc       ??_C@_08LOKJOHEL@Hate?5by?5?$AA@ 0308dabc     MQ2Utilities.obj
 0002:0000bac8       ??_C@_0O@JICCPOBO@Summon?5Corpse?$AA@ 0308dac8     MQ2Utilities.obj
 0002:0000bad8       ??_C@_05DHGKEIPM@Cloak?$AA@ 0308dad8     MQ2Utilities.obj
 0002:0000bae0       ??_C@_0BA@KDJHMLFO@Player?5Size?5by?5?$AA@ 0308dae0     MQ2Utilities.obj
 0002:0000baf0       ??_C@_0CH@CMCNKEGJ@Evacuate?5to?5?$CFd?0?5?$CFd?0?5?$CFd?5in?5?$CFs?5fac@ 0308daf0     MQ2Utilities.obj
 0002:0000bb18       ??_C@_0BC@DDKAJLIK@Magnification?5by?5?$AA@ 0308db18     MQ2Utilities.obj
 0002:0000bb2c       ??_C@_0BH@IMGNKBDN@Reaction?5Radius?$CI?$CFd?1?$CFd?$CJ?$AA@ 0308db2c     MQ2Utilities.obj
 0002:0000bb44       ??_C@_0BG@NGNJKJGF@Add?5Proc?3?5?8?$CFs?8?5id?3?5?$CFd?$AA@ 0308db44     MQ2Utilities.obj
 0002:0000bb5c       ??_C@_0M@ECFHJFMP@Toss?5Up?$CI?$CFd?$CJ?$AA@ 0308db5c     MQ2Utilities.obj
 0002:0000bb68       ??_C@_0O@LOGIAOLO@Toss?5Down?$CI?$CFd?$CJ?$AA@ 0308db68     MQ2Utilities.obj
 0002:0000bb78       ??_C@_0BL@OANEGBGI@?$CFd?0?5?$CFd?0?5?$CFd?5in?5?$CFs?5facing?5?$CFs?$AA@ 0308db78     MQ2Utilities.obj
 0002:0000bb94       ??_C@_0BD@HOHFDAGJ@Teleport?5Group?5to?5?$AA@ 0308db94     MQ2Utilities.obj
 0002:0000bba8       ??_C@_08MMJPPBL@Gate?5to?5?$AA@ 0308dba8     MQ2Utilities.obj
 0002:0000bbb4       ??_C@_0O@POAPDGP@Summon?5Player?$AA@ 0308dbb4     MQ2Utilities.obj
 0002:0000bbc4       ??_C@_0CI@NBGKIIDB@Resurrect?5and?5restore?5?$CFd?$CGpct?5exp@ 0308dbc4     MQ2Utilities.obj
 0002:0000bbec       ??_C@_0BB@EBFAJIEG@HP?5when?5cast?5by?5?$AA@ 0308dbec     MQ2Utilities.obj
 0002:0000bc00       ??_C@_0BI@ECLIBBMJ@Absorb?5Magic?5Damage?5by?5?$AA@ 0308dc00     MQ2Utilities.obj
 0002:0000bc18       ??_C@_0O@JIGMBDGD@Locate?5Corpse?$AA@ 0308dc18     MQ2Utilities.obj
 0002:0000bc28       ??_C@_08EJJHPIDO@Sentinel?$AA@ 0308dc28     MQ2Utilities.obj
 0002:0000bc34       ??_C@_0M@JODGLDGH@Voice?5Graft?$AA@ 0308dc34     MQ2Utilities.obj
 0002:0000bc40       ??_C@_0L@INENIKNJ@Bind?5Sight?$AA@ 0308dc40     MQ2Utilities.obj
 0002:0000bc4c       ??_C@_0BI@DAODGOLD@Summon?5Skeleton?5Pet?3?5?$CFs?$AA@ 0308dc4c     MQ2Utilities.obj
 0002:0000bc64       ??_C@_0BC@DNEPOGJI@Max?5Hitpoints?5by?5?$AA@ 0308dc64     MQ2Utilities.obj
 0002:0000bc78       ??_C@_0N@FPGGICKO@Reclaim?5Mana?$AA@ 0308dc78     MQ2Utilities.obj
 0002:0000bc88       ??_C@_0M@ICHHAJJP@Eye?5Of?5Zomm?$AA@ 0308dc88     MQ2Utilities.obj
 0002:0000bc94       ??_C@_08OAADAOCM@SpinStun?$AA@ 0308dc94     MQ2Utilities.obj
 0002:0000bca0       ??_C@_0L@IKEGJICA@Memblur?5?$CFd?$AA@ 0308dca0     MQ2Utilities.obj
 0002:0000bcac       ??_C@_08CMMNHGIP@Identify?$AA@ 0308dcac     MQ2Utilities.obj
 0002:0000bcb8       ??_C@_0BC@POCPKHLN@Damage?5Shield?5by?5?$AA@ 0308dcb8     MQ2Utilities.obj
 0002:0000bccc       ??_C@_0L@CCNJNAKP@Illusion?3?5?$AA@ 0308dccc     MQ2Utilities.obj
 0002:0000bcd8       ??_C@_0N@MAPNKCMM@Levitate?$CI?$CFd?$CJ?$AA@ 0308dcd8     MQ2Utilities.obj
 0002:0000bce8       ??_C@_0L@FCPLGGHN@True?5North?$AA@ 0308dce8     MQ2Utilities.obj
 0002:0000bcf4       ??_C@_0BC@JGNODLOM@Absorb?5Damage?5by?5?$AA@ 0308dcf4     MQ2Utilities.obj
 0002:0000bd08       ??_C@_0O@MDMMFHPC@Sense?5Animals?$AA@ 0308dd08     MQ2Utilities.obj
 0002:0000bd18       ??_C@_0P@INLDLHF@Sense?5Summoned?$AA@ 0308dd18     MQ2Utilities.obj
 0002:0000bd28       ??_C@_0N@GPLJKNPA@Sense?5Undead?$AA@ 0308dd28     MQ2Utilities.obj
 0002:0000bd38       ??_C@_0BB@HMJCIOIL@Magic?5Resist?5by?5?$AA@ 0308dd38     MQ2Utilities.obj
 0002:0000bd4c       ??_C@_0BD@EOKAHFGA@Disease?5Resist?5by?5?$AA@ 0308dd4c     MQ2Utilities.obj
 0002:0000bd60       ??_C@_0BC@LODEHAJF@Poison?5Resist?5by?5?$AA@ 0308dd60     MQ2Utilities.obj
 0002:0000bd74       ??_C@_0BA@LAPIAICJ@Cold?5Resist?5by?5?$AA@ 0308dd74     MQ2Utilities.obj
 0002:0000bd84       ??_C@_0BA@JIOELBKE@Fire?5Resist?5by?5?$AA@ 0308dd84     MQ2Utilities.obj
 0002:0000bd94       ??_C@_0M@DGFOLAJA@Lycanthropy?$AA@ 0308dd94     MQ2Utilities.obj
 0002:0000bda0       ??_C@_0P@HJJJICNI@Shadowstep?$CI?$CFd?$CJ?$AA@ 0308dda0     MQ2Utilities.obj
 0002:0000bdb0       ??_C@_0P@FHONNCOD@Destroy?5Target?$AA@ 0308ddb0     MQ2Utilities.obj
 0002:0000bdc0       ??_C@_0BA@KEGBBNCB@Invulnerability?$AA@ 0308ddc0     MQ2Utilities.obj
 0002:0000bdd0       ??_C@_0BD@EFFOGKJH@Poison?5Counter?5by?5?$AA@ 0308ddd0     MQ2Utilities.obj
 0002:0000bde4       ??_C@_0BE@IIHJPIAB@Disease?5Counter?5by?5?$AA@ 0308dde4     MQ2Utilities.obj
 0002:0000bdf8       ??_C@_0P@MFPJNCFH@Summon?5Pet?3?5?$CFs?$AA@ 0308ddf8     MQ2Utilities.obj
 0002:0000be08       ??_C@_0O@NHLFJKNH@Summon?5Item?3?5?$AA@ 0308de08     MQ2Utilities.obj
 0002:0000be18       ??_C@_09NHFPCACO@Unknown?$CFd?$AA@ 0308de18     MQ2Utilities.obj
 0002:0000be24       ??_C@_0BB@OKMLOBOJ@Mesmerize?$CI?$CFd?1?$CFd?$CJ?$AA@ 0308de24     MQ2Utilities.obj
 0002:0000be38       ??_C@_0BF@PJJOHLGM@Frenzy?5Radius?$CI?$CFd?1?$CFd?$CJ?$AA@ 0308de38     MQ2Utilities.obj
 0002:0000be50       ??_C@_0BP@LANODONB@Invisibility?5versus?5Animal?$CI?$CFd?$CJ?$AA@ 0308de50     MQ2Utilities.obj
 0002:0000be70       ??_C@_0BP@GAAIPHBH@Invisibility?5versus?5Undead?$CI?$CFd?$CJ?$AA@ 0308de70     MQ2Utilities.obj
 0002:0000be90       ??_C@_0BB@EPPFBPBK@Cancel?5Magic?$CI?$CFd?$CJ?$AA@ 0308de90     MQ2Utilities.obj
 0002:0000bea4       ??_C@_0BN@ONGENGFD@Gate?5to?5Secondary?5Bind?5Point?$AA@ 0308dea4     MQ2Utilities.obj
 0002:0000bec4       ??_C@_04BLOGEDLD@Gate?$AA@ 0308dec4     MQ2Utilities.obj
 0002:0000becc       ??_C@_0BI@MOHKFNIL@?5?$CISecondary?5Bind?5Point?$CJ?$AA@ 0308decc     MQ2Utilities.obj
 0002:0000bee4       ??_C@_0O@LMBPNGAN@Bind?5Affinity?$AA@ 0308dee4     MQ2Utilities.obj
 0002:0000bef4       ??_C@_0BB@INDLICAM@Stamina?5Loss?5by?5?$AA@ 0308def4     MQ2Utilities.obj
 0002:0000bf08       ??_C@_08CKJLBDEG@Fear?$CI?$CFd?$CJ?$AA@ 0308df08     MQ2Utilities.obj
 0002:0000bf14       ??_C@_0N@OLMOBNBK@Charm?$CI?$CFd?1?$CFd?$CJ?$AA@ 0308df14     MQ2Utilities.obj
 0002:0000bf24       ??_C@_0BC@EHNGHMCA@Stun?$CI?$CF?41f?5sec?1?$CFd?$CJ?$AA@ 0308df24     MQ2Utilities.obj
 0002:0000bf38       ??_C@_09MDHKMBOB@Blindness?$AA@ 0308df38     MQ2Utilities.obj
 0002:0000bf44       ??_C@_0M@EDFPMBJF@Faction?5by?5?$AA@ 0308df44     MQ2Utilities.obj
 0002:0000bf50       ??_C@_08KMABCDJC@Mana?5by?5?$AA@ 0308df50     MQ2Utilities.obj
 0002:0000bf5c       ??_C@_0BA@JFCJNKMH@Water?5Breathing?$AA@ 0308df5c     MQ2Utilities.obj
 0002:0000bf6c       ??_C@_0BC@FHFEJHNH@See?5Invisible?$CI?$CFd?$CJ?$AA@ 0308df6c     MQ2Utilities.obj
 0002:0000bf80       ??_C@_0BB@KOLNAKCP@Invisibility?$CI?$CFd?$CJ?$AA@ 0308df80     MQ2Utilities.obj
 0002:0000bf94       ??_C@_0BB@PIBKGGAE@Attack?5Speed?5by?5?$AA@ 0308df94     MQ2Utilities.obj
 0002:0000bfa8       ??_C@_07EMKBNNFH@Lure?$CI6?$CJ?$AA@ 0308dfa8     MQ2Utilities.obj
 0002:0000bfb0       ??_C@_07BAGFGALO@CHA?5by?5?$AA@ 0308dfb0     MQ2Utilities.obj
 0002:0000bfb8       ??_C@_07PNPHEL@WIS?5by?5?$AA@ 0308dfb8     MQ2Utilities.obj
 0002:0000bfc0       ??_C@_07LBGONKGE@INT?5by?5?$AA@ 0308dfc0     MQ2Utilities.obj
 0002:0000bfc8       ??_C@_07MMKAKHCP@STA?5by?5?$AA@ 0308dfc8     MQ2Utilities.obj
 0002:0000bfd0       ??_C@_07EIFLJFEH@AGI?5by?5?$AA@ 0308dfd0     MQ2Utilities.obj
 0002:0000bfd8       ??_C@_07FPKOFLDE@DEX?5by?5?$AA@ 0308dfd8     MQ2Utilities.obj
 0002:0000bfe0       ??_C@_07EJOCNHBK@STR?5by?5?$AA@ 0308dfe0     MQ2Utilities.obj
 0002:0000bfe8       ??_C@_01FGNFDNOH@?$CF?$AA@ 0308dfe8     MQ2Utilities.obj
 0002:0000bfec       ??_C@_0N@JBOCDLOH@Movement?5by?5?$AA@ 0308dfec     MQ2Utilities.obj
 0002:0000bffc       ??_C@_07FDKFLCBP@ATK?5by?5?$AA@ 0308dffc     MQ2Utilities.obj
 0002:0000c008       __real@3fd3333333333333    0308e008     MQ2Utilities.obj
 0002:0000c010       ??_C@_06JHGJEBHP@AC?5by?5?$AA@ 0308e010     MQ2Utilities.obj
 0002:0000c018       ??_C@_09MBDPAEPE@?5per?5tick?$AA@ 0308e018     MQ2Utilities.obj
 0002:0000c024       ??_C@_0O@BCDKGBBM@Hitpoints?5by?5?$AA@ 0308e024     MQ2Utilities.obj
 0002:0000c034       ??_C@_09JBJBGFIA@Increase?5?$AA@ 0308e034     MQ2Utilities.obj
 0002:0000c040       ??_C@_09OGDKHAON@Decrease?5?$AA@ 0308e040     MQ2Utilities.obj
 0002:0000c04c       ??_C@_09ODFMBPKP@Slot?5?$CFd?3?5?$AA@ 0308e04c     MQ2Utilities.obj
 0002:0000c058       __real@47435000            0308e058     MQ2Utilities.obj
 0002:0000c05c       ??_C@_0BA@FOFKOMMP@?5was?5not?5found?4?$AA@ 0308e05c     MQ2Utilities.obj
 0002:0000c06c       ??_C@_0BM@PNGNHGGH@There?5?$CFs?5?$AHg?$CFd?$AHx?5?$CFs?$CFs?5in?5?$CFs?4?$AA@ 0308e06c     MQ2Utilities.obj
 0002:0000c088       ??_C@_03BCNOJDFJ@are?$AA@  0308e088     MQ2Utilities.obj
 0002:0000c08c       ??_C@_02EDKKPMHH@is?$AA@   0308e08c     MQ2Utilities.obj
 0002:0000c090       ??_C@_0CB@GNHPAIID@?9?9?9?9?9?9?9?9?9?9?9?9?9?9?9?9?9?9?9?9?9?9?9?9?9?9?9?9?9?9?9?9@ 0308e090     MQ2Utilities.obj
 0002:0000c0b4       ??_C@_0BI@CHHPNGE@List?5of?5matching?5spawns?$AA@ 0308e0b4     MQ2Utilities.obj
 0002:0000c0cc       ??_C@_0BF@GCMFPNNL@resetdefaultposition?$AA@ 0308e0cc     MQ2Windows.obj
 0002:0000c0e4       ??_C@_04OHHBHOGB@link?$AA@ 0308e0e4     MQ2Windows.obj
 0002:0000c0ec       ??_C@_0O@FOLFFEMI@leftmousehold?$AA@ 0308e0ec     MQ2Windows.obj
 0002:0000c0fc       ??_C@_07MMNEDCBK@history?$AA@ 0308e0fc     MQ2Windows.obj
 0002:0000c104       ??_C@_09NMJMJAPE@mouseover?$AA@ 0308e104     MQ2Windows.obj
 0002:0000c110       ??_C@_0M@NAMPODJM@contextmenu?$AA@ 0308e110     MQ2Windows.obj
 0002:0000c11c       ??_C@_08HOPKDMNO@newvalue?$AA@ 0308e11c     MQ2Windows.obj
 0002:0000c128       ??_C@_05IHEOCMON@enter?$AA@ 0308e128     MQ2Windows.obj
 0002:0000c130       ??_C@_0BB@DPCDLLGO@rightmouseheldup?$AA@ 0308e130     MQ2Windows.obj
 0002:0000c144       ??_C@_0P@JEHEKNIJ@rightmouseheld?$AA@ 0308e144     MQ2Windows.obj
 0002:0000c154       ??_C@_0N@CLDICILK@rightmouseup?$AA@ 0308e154     MQ2Windows.obj
 0002:0000c164       ??_C@_0L@IBDLMMJN@rightmouse?$AA@ 0308e164     MQ2Windows.obj
 0002:0000c170       ??_C@_0BA@LDLLGGDF@leftmouseheldup?$AA@ 0308e170     MQ2Windows.obj
 0002:0000c180       ??_C@_0O@DBAILEKM@leftmouseheld?$AA@ 0308e180     MQ2Windows.obj
 0002:0000c190       ??_C@_0M@FLDHJPPK@leftmouseup?$AA@ 0308e190     MQ2Windows.obj
 0002:0000c19c       ??_C@_09HCCNAPMF@leftmouse?$AA@ 0308e19c     MQ2Windows.obj
 0002:0000c1a8       ??_C@_0BI@ICHGDDIC@GenerateMQUI?3?3giving?5up?$AA@ 0308e1a8     MQ2Windows.obj
 0002:0000c1c0       ??_C@_0CM@FNLICNFJ@GenerateMQUI?3?3could?5not?5open?5?$CFs?5@ 0308e1c0     MQ2Windows.obj
 0002:0000c1ec       ??_C@_06BEMFMOKK@UISkin?$AA@ 0308e1ec     MQ2Windows.obj
 0002:0000c1f4       ??_C@_0BA@EBCHINH@?$CFs?2UI_?$CFs_?$CFs?4ini?$AA@ 0308e1f4     MQ2Windows.obj
 0002:0000c204       ??_C@_0BH@FPMIHGLD@?$DMInclude?$DO?$CFs?$DM?1Include?$DO?6?$AA@ 0308e204     MQ2Windows.obj
 0002:0000c21c       ??_C@_0BL@LBPDJDJO@GenerateMQUI?3?3Inserting?5?$CFs?$AA@ 0308e21c     MQ2Windows.obj
 0002:0000c238       ??_C@_0CG@BIGGBPBM@GenerateMQUI?3?3Inserting?5our?5xml?5@ 0308e238     MQ2Windows.obj
 0002:0000c260       ??_C@_0N@OGDJANHC@?$DM?1Composite?$DO?$AA@ 0308e260     MQ2Windows.obj
 0002:0000c270       ??_C@_0CA@CFPNPJNI@GenerateMQUI?3?3could?5not?5open?5?$CFs?$AA@ 0308e270     MQ2Windows.obj
 0002:0000c290       ??_C@_0BM@PLIMALDP@GenerateMQUI?3?3Generating?5?$CFs?$AA@ 0308e290     MQ2Windows.obj
 0002:0000c2ac       ??_C@_0BH@PMOOBPOM@?$CFs?2uifiles?2?$CFs?2MQUI?4xml?$AA@ 0308e2ac     MQ2Windows.obj
 0002:0000c2c4       ??_C@_0BH@EHDGLNPE@?$CFs?2uifiles?2?$CFs?2EQUI?4xml?$AA@ 0308e2c4     MQ2Windows.obj
 0002:0000c2dc       ??_C@_07DLHCIBDH@default?$AA@ 0308e2dc     MQ2Windows.obj
 0002:0000c2e4       ??_C@_0DM@NPBIBIEC@GenerateMQUI?3?3Not?5Generating?5MQU@ 0308e2e4     MQ2Windows.obj
 0002:0000c320       ??_C@_0BO@DPAAFEOG@DestroyMQUI?3?5removing?5file?5?$CFs?$AA@ 0308e320     MQ2Windows.obj
 0002:0000c340       ??_C@_0ED@EHPHDHLI@UI?5file?5?$CFs?5added?0?5you?5must?5reloa@ 0308e340     MQ2Windows.obj
 0002:0000c384       ??_C@_0BD@CGMIGMHD@Adding?5XML?5File?5?$CFs?$AA@ 0308e384     MQ2Windows.obj
 0002:0000c398       ??_C@_0HM@EBMHMCHA@UI?5file?5?$CFs?5not?5found?5in?5either?5u@ 0308e398     MQ2Windows.obj
 0002:0000c414       ??_C@_0BB@JDFKNDNJ@?$CFs?2uifiles?2?$CFs?2?$CFs?$AA@ 0308e414     MQ2Windows.obj
 0002:0000c428       ??_C@_0BF@BKHMACFC@Removing?5XML?5File?5?$CFs?$AA@ 0308e428     MQ2Windows.obj
 0002:0000c440       ??_C@_0BC@JOEKNEFK@?$FL?$AHy?$CFs?$AHx?$FN?5?$FL?$AHt?$CFs?$AHx?$FN?$AA@ 0308e440     MQ2Windows.obj
 0002:0000c454       ??_C@_0CP@DECKEDEE@?$FL?$AHy?$CFs?$AHx?$FN?5?$FL?$AHt?$CFs?$AHx?$FN?5?$FLCustom?5UI?9spe@ 0308e454     MQ2Windows.obj
 0002:0000c484       ??_C@_0BI@EEHNKHKB@?$CFd?5available?5item?5slots?$AA@ 0308e484     MQ2Windows.obj
 0002:0000c49c       ??_C@_0M@EOMJGLLP@inv?5slot?5?$CFd?$AA@ 0308e49c     MQ2Windows.obj
 0002:0000c4a8       ??_C@_0BN@HMAADGDK@List?5of?5available?5item?5slots?$AA@ 0308e4a8     MQ2Windows.obj
 0002:0000c4c8       ??_C@_08KPCAAECD@MQUI?4xml?$AA@ 0308e4c8     MQ2Windows.obj
 0002:0000c4d4       ??_C@_08BEPIKGDL@EQUI?4xml?$AA@ 0308e4d4     MQ2Windows.obj
 0002:0000c4e0       ??_C@_0M@CJKABJLN@XMLRead?$CI?$CFs?$CJ?$AA@ 0308e4e0     MQ2Windows.obj
 0002:0000c4ec       ??_C@_0L@JGBAODFE@?1itemslots?$AA@ 0308e4ec     MQ2Windows.obj
 0002:0000c4f8       ??_C@_0M@LNFOIAFL@?1itemnotify?$AA@ 0308e4f8     MQ2Windows.obj
 0002:0000c504       ??_C@_07GAHLFBPA@?1notify?$AA@ 0308e504     MQ2Windows.obj
 0002:0000c50c       ??_C@_08JEKADLIO@?1windows?$AA@ 0308e50c     MQ2Windows.obj
 0002:0000c518       ??_C@_0BK@IIEJLJIJ@Shutting?5down?5MQ2?5Windows?$AA@ 0308e518     MQ2Windows.obj
 0002:0000c534       ??_C@_0CD@DAKMMPHM@Adding?5WndNotification?5target?5?8?$CF@ 0308e534     MQ2Windows.obj
 0002:0000c558       ??_C@_0CF@LOHPHBHA@Updating?5WndNotification?5target?5@ 0308e558     MQ2Windows.obj
 0002:0000c580       ??_C@_06MEPELFJ@enviro?$AA@ 0308e580     MQ2Windows.obj
 0002:0000c588       ??_C@_04IPANLPFO@pack?$AA@ 0308e588     MQ2Windows.obj
 0002:0000c590       ??_C@_04JNPFOIOP@bank?$AA@ 0308e590     MQ2Windows.obj
 0002:0000c598       ??_C@_0CC@KNDBDBPO@Window?5?8?$CFs?8?5child?5?8?$CFs?8?5not?5found@ 0308e598     MQ2Windows.obj
 0002:0000c5bc       ??_C@_0BL@NPEDPHFG@Window?5?8?$CFs?8?5not?5available?4?$AA@ 0308e5bc     MQ2Windows.obj
 0002:0000c5d8       ??_C@_0DI@CMKBNJM@Window?5?8?$CFs?8?5child?5?8?$CFs?8?5cannot?5ac@ 0308e5d8     MQ2Windows.obj
 0002:0000c610       ??_C@_0BF@FMKIHAE@?$CFd?5available?5windows?$AA@ 0308e610     MQ2Windows.obj
 0002:0000c628       ??_C@_0BK@FMDOLHHI@List?5of?5available?5windows?$AA@ 0308e628     MQ2Windows.obj
 0002:0000c644       ??_C@_0BB@EIDCGFAJ@?$CFd?5child?5windows?$AA@ 0308e644     MQ2Windows.obj
 0002:0000c658       ??_C@_0BO@NONKGHBC@Listing?5child?5windows?5of?5?8?$CFs?8?$AA@ 0308e658     MQ2Windows.obj
 0002:0000c678       ??_C@_0BK@PPMOJIGD@Window?5?8?$CFs?8?5not?5available?$AA@ 0308e678     MQ2Windows.obj
 0002:0000c694       ??_C@_0CF@FIDJMPBJ@Could?5not?5send?5notification?5to?5?$CF@ 0308e694     MQ2Windows.obj
 0002:0000c6bc       ??_C@_0BK@CNPHHAHD@Invalid?5notification?5?8?$CFs?8?$AA@ 0308e6bc     MQ2Windows.obj
 0002:0000c6d8       ??_C@_09OOEAIAOD@tabselect?$AA@ 0308e6d8     MQ2Windows.obj
 0002:0000c6e4       ??_C@_0L@NGDBAFIF@listselect?$AA@ 0308e6e4     MQ2Windows.obj
 0002:0000c6f0       ??_C@_0CA@GJGBBAHH@WndNotify?3?5link?5found?0?5Data?5?$DN?51?$AA@ 0308e6f0     MQ2Windows.obj
 0002:0000c710       ??_C@_0EP@DOIGIOGL@Syntax?3?5?1notify?5?$DMwindow?$HM?$CCitem?$CC?$DO?5@ 0308e710     MQ2Windows.obj
 0002:0000c760       ??_C@_0BH@LANEGBBH@Invalid?5item?5slot?5?8?$CFs?8?$AA@ 0308e760     MQ2Windows.obj
 0002:0000c778       ??_C@_0BK@HLDNJHMI@No?5container?5at?5?8?$CFs?8?5open?$AA@ 0308e778     MQ2Windows.obj
 0002:0000c794       ??_C@_0BA@IEJOIOCG@No?5item?5at?5?8?$CFs?8?$AA@ 0308e794     MQ2Windows.obj
 0002:0000c7a4       ??_C@_0L@HKCGPDGM@sharedbank?$AA@ 0308e7a4     MQ2Windows.obj
 0002:0000c7b0       ??_C@_02LMMGJAGL@in?$AA@   0308e7b0     MQ2Windows.obj
 0002:0000c7b8       ??_C@_0EB@EBKGODJN@?5?5?5?5?5or?5?1itemnotify?5in?5?$DMbag?5slot@ 0308e7b8     MQ2Windows.obj
 0002:0000c7fc       ??_C@_0CM@OCPHMLFF@Syntax?3?5?1itemnotify?5?$DMslot?$HM?$CD?$DO?5?$DMno@ 0308e7fc     MQ2Windows.obj
 0002:0000c828       ??_C@_07NAMNPIGJ@world?$CFd?$AA@ 0308e828     MQ2Windows.obj
 0002:0000c830       ??_C@_0BJ@CFMIJOCM@Initializing?5MQ2?5Windows?$AA@ 0308e830     MQ2Windows.obj
 0002:0000c850       ??_7invalid_argument@std@@6B@ 0308e850     libcpmt:string.obj
 0002:0000c858       ??_C@_0BA@JFNIOLAK@string?5too?5long?$AA@ 0308e858     libcpmt:string.obj
 0002:0000c868       ??_C@_0BI@CFPLBAOH@invalid?5string?5position?$AA@ 0308e868     libcpmt:string.obj
 0002:0000c880       ??_C@_0BI@ILCMCLF@invalid?5string?5argument?$AA@ 0308e880     libcpmt:string.obj
 0002:0000c9a0       ?s_rbModRm@CDetourDis@@1QBEB 0308e9a0     detours:disasm.obj
 0002:0000caa0       ?s_rceCopyTable@CDetourDis@@1QBUCOPYENTRY@1@B 0308eaa0     detours:disasm.obj
 0002:0000d2a8       ?s_rceCopyTable0F@CDetourDis@@1QBUCOPYENTRY@1@B 0308f2a8     detours:disasm.obj
 0002:0000dab0       __FPinit                   0308fab0     LIBCMT:_fpinit_.obj
 0002:0000dab4       __FPmtinit                 0308fab4     LIBCMT:_fpinit_.obj
 0002:0000dab8       __FPmtterm                 0308fab8     LIBCMT:_fpinit_.obj
 0002:0000dac0       ??_7exception@std@@6B@     0308fac0     LIBCMT:stdexcpt.obj
 0002:0000dac8       ??_C@_0BC@EOODALEL@Unknown?5exception?$AA@ 0308fac8     LIBCMT:stdexcpt.obj
 0002:0000dae0       ??_7bad_cast@std@@6B@      0308fae0     LIBCMT:stdexcpt.obj
 0002:0000daec       ??_7bad_typeid@std@@6B@    0308faec     LIBCMT:stdexcpt.obj
 0002:0000daf8       ??_7__non_rtti_object@std@@6B@ 0308faf8     LIBCMT:stdexcpt.obj
 0002:0000db04       ??_7type_info@@6B@         0308fb04     LIBCMT:typinfo.obj
 0002:0000db08       ?ProcessDetach@NativeDll@<CrtImplementationDetails>@@0IB 0308fb08     LIBCMT:invarg.obj
 0002:0000db0c       ?ProcessAttach@NativeDll@<CrtImplementationDetails>@@0IB 0308fb0c     LIBCMT:invarg.obj
 0002:0000db10       ?ThreadAttach@NativeDll@<CrtImplementationDetails>@@0IB 0308fb10     LIBCMT:invarg.obj
 0002:0000db14       ?ThreadDetach@NativeDll@<CrtImplementationDetails>@@0IB 0308fb14     LIBCMT:invarg.obj
 0002:0000db18       ?ProcessVerifier@NativeDll@<CrtImplementationDetails>@@0IB 0308fb18     LIBCMT:invarg.obj
 0002:0000db88       __pRawDllMain              0308fb88     LIBCMT:dllcrt0.obj
 0002:0000db88       __pDefaultRawDllMain       0308fb88     LIBCMT:dllcrt0.obj
 0002:0000db8c       ??_C@_0P@MIGLKIOC@CorExitProcess?$AA@ 0308fb8c     LIBCMT:crt0dat.obj
 0002:0000db9c       ??_C@_1BI@BGOHAHKC@?$AAm?$AAs?$AAc?$AAo?$AAr?$AAe?$AAe?$AA?4?$AAd?$AAl?$AAl?$AA?$AA@ 0308fb9c     LIBCMT:crt0dat.obj
 0002:0000dbb4       ??_C@_0P@GGKDKEEG@runtime?5error?5?$AA@ 0308fbb4     LIBCMT:crt0msg.obj
 0002:0000dbc4       ??_C@_0O@MJNIPGOH@TLOSS?5error?$AN?6?$AA@ 0308fbc4     LIBCMT:crt0msg.obj
 0002:0000dbd4       ??_C@_0N@BONNPDHF@SING?5error?$AN?6?$AA@ 0308fbd4     LIBCMT:crt0msg.obj
 0002:0000dbe4       ??_C@_0P@MBDAJNE@DOMAIN?5error?$AN?6?$AA@ 0308fbe4     LIBCMT:crt0msg.obj
 0002:0000dbf8       ??_C@_0JL@DFDOOABL@R6034?$AN?6An?5application?5has?5made?5a@ 0308fbf8     LIBCMT:crt0msg.obj
 0002:0000dc98       ??_C@_0PH@EPAFIJ@R6033?$AN?6?9?5Attempt?5to?5use?5MSIL?5cod@ 0308fc98     LIBCMT:crt0msg.obj
 0002:0000dd90       ??_C@_0DD@BKEEABMM@R6032?$AN?6?9?5not?5enough?5space?5for?5lo@ 0308fd90     LIBCMT:crt0msg.obj
 0002:0000ddc8       ??_C@_0GD@OFKILIED@R6031?$AN?6?9?5Attempt?5to?5initialize?5t@ 0308fdc8     LIBCMT:crt0msg.obj
 0002:0000de2c       ??_C@_0BP@LPMHJOKI@R6030?$AN?6?9?5CRT?5not?5initialized?$AN?6?$AA@ 0308fe2c     LIBCMT:crt0msg.obj
 0002:0000de4c       ??_C@_0CF@KJDAIALP@R6028?$AN?6?9?5unable?5to?5initialize?5he@ 0308fe4c     LIBCMT:crt0msg.obj
 0002:0000de74       ??_C@_0DF@GAKBPDFP@R6027?$AN?6?9?5not?5enough?5space?5for?5lo@ 0308fe74     LIBCMT:crt0msg.obj
 0002:0000deac       ??_C@_0DF@IBLNNAIG@R6026?$AN?6?9?5not?5enough?5space?5for?5st@ 0308feac     LIBCMT:crt0msg.obj
 0002:0000dee4       ??_C@_0CG@IOHKGFNJ@R6025?$AN?6?9?5pure?5virtual?5function?5c@ 0308fee4     LIBCMT:crt0msg.obj
 0002:0000df0c       ??_C@_0DF@JIJJFJDC@R6024?$AN?6?9?5not?5enough?5space?5for?5_o@ 0308ff0c     LIBCMT:crt0msg.obj
 0002:0000df44       ??_C@_0CJ@EGEJHFME@R6019?$AN?6?9?5unable?5to?5open?5console?5@ 0308ff44     LIBCMT:crt0msg.obj
 0002:0000df70       ??_C@_0CB@GNHNIELH@R6018?$AN?6?9?5unexpected?5heap?5error?$AN?6@ 0308ff70     LIBCMT:crt0msg.obj
 0002:0000df94       ??_C@_0CN@FOLDKNG@R6017?$AN?6?9?5unexpected?5multithread?5@ 0308ff94     LIBCMT:crt0msg.obj
 0002:0000dfc4       ??_C@_0CM@FAHFJNHO@R6016?$AN?6?9?5not?5enough?5space?5for?5th@ 0308ffc4     LIBCMT:crt0msg.obj
 0002:0000dff0       ??_C@_0JG@LBKMGKLD@?$AN?6This?5application?5has?5requested@ 0308fff0     LIBCMT:crt0msg.obj
 0002:0000e088       ??_C@_0CM@FLCNIPKK@R6009?$AN?6?9?5not?5enough?5space?5for?5en@ 03090088     LIBCMT:crt0msg.obj
 0002:0000e0b4       ??_C@_0CK@KMMJOAPP@R6008?$AN?6?9?5not?5enough?5space?5for?5ar@ 030900b4     LIBCMT:crt0msg.obj
 0002:0000e0e0       ??_C@_0CN@LEKKICBM@R6002?$AN?6?9?5floating?5point?5support?5@ 030900e0     LIBCMT:crt0msg.obj
 0002:0000e110       ??_C@_0CF@GOGNBNAK@Microsoft?5Visual?5C?$CL?$CL?5Runtime?5Lib@ 03090110     LIBCMT:crt0msg.obj
 0002:0000e138       ??_C@_02PHMGELLB@?6?6?$AA@ 03090138     LIBCMT:crt0msg.obj
 0002:0000e13c       ??_C@_03KHICJKCI@?4?4?4?$AA@ 0309013c     LIBCMT:crt0msg.obj
 0002:0000e140       ??_C@_0BH@DNAGHKFM@?$DMprogram?5name?5unknown?$DO?$AA@ 03090140     LIBCMT:crt0msg.obj
 0002:0000e158       ??_C@_0BK@OFGJDLJJ@Runtime?5Error?$CB?6?6Program?3?5?$AA@ 03090158     LIBCMT:crt0msg.obj
 0002:0000e174       ??_C@_1O@CEDCILHN@?$AA?$CI?$AAn?$AAu?$AAl?$AAl?$AA?$CJ?$AA?$AA@ 03090174     LIBCMT:output.obj
 0002:0000e184       ??_C@_06OJHGLDPL@?$CInull?$CJ?$AA@ 03090184     LIBCMT:output.obj
 0002:0000e190       ___lookuptable             03090190     LIBCMT:output.obj
 0002:0000e1ec       ??_C@_05KLBDPFGC@e?$CL000?$AA@ 030901ec     LIBCMT:cvt.obj
 0002:0000e1f8       __real@4150017ec0000000    030901f8     LIBCMT:_testfdiv_.obj
 0002:0000e200       __real@4147ffff80000000    03090200     LIBCMT:_testfdiv_.obj
 0002:0000e208       ??_C@_0BK@NHEOCAHP@IsProcessorFeaturePresent?$AA@ 03090208     LIBCMT:_testfdiv_.obj
 0002:0000e224       ??_C@_08CPNIBGIE@KERNEL32?$AA@ 03090224     LIBCMT:_testfdiv_.obj
 0002:0000e230       ??_C@_0O@NLDKAIKN@EncodePointer?$AA@ 03090230     LIBCMT:tidtable.obj
 0002:0000e240       ??_C@_1BK@DBDEIDLH@?$AAK?$AAE?$AAR?$AAN?$AAE?$AAL?$AA3?$AA2?$AA?4?$AAD?$AAL?$AAL?$AA?$AA@ 03090240     LIBCMT:tidtable.obj
 0002:0000e25c       ??_C@_0O@KBPMFGHI@DecodePointer?$AA@ 0309025c     LIBCMT:tidtable.obj
 0002:0000e26c       ??_C@_07PEJMOBNF@FlsFree?$AA@ 0309026c     LIBCMT:tidtable.obj
 0002:0000e274       ??_C@_0M@JCPCPOEF@FlsSetValue?$AA@ 03090274     LIBCMT:tidtable.obj
 0002:0000e280       ??_C@_0M@GDNOONDI@FlsGetValue?$AA@ 03090280     LIBCMT:tidtable.obj
 0002:0000e28c       ??_C@_08KNHFBNJ@FlsAlloc?$AA@ 0309028c     LIBCMT:tidtable.obj
 0002:0000e298       __pDestructExceptionObject 03090298     LIBCMT:frame.obj
 0002:0000e2a0       ??_7bad_exception@std@@6B@ 030902a0     LIBCMT:frame.obj
 0002:0000e2a8       ??_C@_0O@DPKOEFFH@bad?5exception?$AA@ 030902a8     LIBCMT:frame.obj
 0002:0000e2b8       ??_C@_07LCBHPJJN@LC_TIME?$AA@ 030902b8     LIBCMT:setlocal.obj
 0002:0000e2c0       ??_C@_0L@DLHIECNL@LC_NUMERIC?$AA@ 030902c0     LIBCMT:setlocal.obj
 0002:0000e2cc       ??_C@_0M@MIENIKLA@LC_MONETARY?$AA@ 030902cc     LIBCMT:setlocal.obj
 0002:0000e2d8       ??_C@_08EADHIDAD@LC_CTYPE?$AA@ 030902d8     LIBCMT:setlocal.obj
 0002:0000e2e4       ??_C@_0L@KFJHEKIK@LC_COLLATE?$AA@ 030902e4     LIBCMT:setlocal.obj
 0002:0000e2f0       ??_C@_06NEFDFEKB@LC_ALL?$AA@ 030902f0     LIBCMT:setlocal.obj
 0002:0000e2f8       ___lc_category             030902f8     LIBCMT:setlocal.obj
 0002:0000e3c0       ??_C@_03EGDHDPFD@_?4?0?$AA@ 030903c0     LIBCMT:setlocal.obj
 0002:0000e3c4       ??_C@_01IDAFKMJL@_?$AA@    030903c4     LIBCMT:setlocal.obj
 0002:0000e3c8       ??_C@_01ICJEACDI@?$DL?$AA@ 030903c8     LIBCMT:setlocal.obj
 0002:0000e3cc       ??_C@_01NEMOKFLO@?$DN?$AA@ 030903cc     LIBCMT:setlocal.obj
 0002:0000e3d0       ??_C@_01GFHCPBMG@C?$AA@    030903d0     LIBCMT:setlocal.obj
 0002:0000e3d4       ??_C@_02BALPLPBG@?$DN?$DL?$AA@ 030903d4     LIBCMT:setlocal.obj
 0002:0000e418       __DEFAULT_CW_in_mem        03090418     LIBCMT:_common_.obj
 0002:0000e41a       __pi_by_2_to_61            0309041a     LIBCMT:_common_.obj
 0002:0000e474       ??_C@_13NOLLCAOD@?$AA?$AA?$AA?$AA@ 03090474     LIBCMT:a_map.obj
 0002:0000e478       ??_C@_02CLFPBFFP@TZ?$AA@   03090478     LIBCMT:tzset.obj
 0002:0000e47c       ___dnames                  0309047c     LIBCMT:timeset.obj
 0002:0000e494       ___mnames                  03090494     LIBCMT:timeset.obj
 0002:00013e68       ??_C@_03IIINPABG@tan?$AA@  03095e68     LIBCMT:_libm_error_.obj
 0002:00013e6c       ??_C@_03LALBNOCG@cos?$AA@  03095e6c     LIBCMT:_libm_error_.obj
 0002:00013e70       ??_C@_03BLEJJJBH@sin?$AA@  03095e70     LIBCMT:_libm_error_.obj
 0002:00013e74       ??_C@_04EHEDPDJG@modf?$AA@ 03095e74     LIBCMT:_libm_error_.obj
 0002:00013e7c       ??_C@_05PBJFFIGL@floor?$AA@ 03095e7c     LIBCMT:_libm_error_.obj
 0002:00013e84       ??_C@_04GFPJNGEK@ceil?$AA@ 03095e84     LIBCMT:_libm_error_.obj
 0002:00013e8c       ??_C@_04MLLJIGOK@atan?$AA@ 03095e8c     LIBCMT:_libm_error_.obj
 0002:00013e94       ??_C@_05EOHGHCHD@exp10?$AA@ 03095e94     LIBCMT:_libm_error_.obj
 0002:00013e9c       ??_C@_04PDIFKINK@acos?$AA@ 03095e9c     LIBCMT:_libm_error_.obj
 0002:00013ea4       ??_C@_04FIHNOPOL@asin?$AA@ 03095ea4     LIBCMT:_libm_error_.obj
 0002:00013eac       ??_C@_03MGHMBJCF@log?$AA@  03095eac     LIBCMT:_libm_error_.obj
 0002:00013eb0       ??_C@_05HGHHAHAP@log10?$AA@ 03095eb0     LIBCMT:_libm_error_.obj
 0002:00013eb8       ??_C@_03KHJOGHMM@exp?$AA@  03095eb8     LIBCMT:_libm_error_.obj
 0002:00013ebc       ??_C@_03JGHBODFD@pow?$AA@  03095ebc     LIBCMT:_libm_error_.obj
 0002:00017800       __XcptActTab               03099800     LIBCMT:winxfltr.obj
 0002:00017880       ??_C@_0BC@JEAENNKH@SystemFunction036?$AA@ 03099880     LIBCMT:rand_s.obj
 0002:00017894       ??_C@_0N@JJPEKNFO@ADVAPI32?4DLL?$AA@ 03099894     LIBCMT:rand_s.obj
 0002:000178a4       ??_C@_0BI@DFKBFLJE@GetProcessWindowStation?$AA@ 030998a4     LIBCMT:crtmbox.obj
 0002:000178bc       ??_C@_0BK@CIDNPOGP@GetUserObjectInformationA?$AA@ 030998bc     LIBCMT:crtmbox.obj
 0002:000178d8       ??_C@_0BD@HHGDFDBJ@GetLastActivePopup?$AA@ 030998d8     LIBCMT:crtmbox.obj
 0002:000178ec       ??_C@_0BA@HNOPNCHB@GetActiveWindow?$AA@ 030998ec     LIBCMT:crtmbox.obj
 0002:000178fc       ??_C@_0M@CHKKJDAI@MessageBoxA?$AA@ 030998fc     LIBCMT:crtmbox.obj
 0002:00017908       ??_C@_0L@NDEGIDAG@USER32?4DLL?$AA@ 03099908     LIBCMT:crtmbox.obj
 0002:00017918       ___lookuptable_s           03099918     LIBCMT:outputs.obj
 0002:00017974       ??_C@_0BK@CFCOFLF@?5Complete?5Object?5Locator?8?$AA@ 03099974     LIBCMT:undname.obj
 0002:00017990       ??_C@_0BN@MECKDCOJ@?5Class?5Hierarchy?5Descriptor?8?$AA@ 03099990     LIBCMT:undname.obj
 0002:000179b0       ??_C@_0BD@LGICGFMM@?5Base?5Class?5Array?8?$AA@ 030999b0     LIBCMT:undname.obj
 0002:000179c4       ??_C@_0BM@LDKODKLH@?5Base?5Class?5Descriptor?5at?5?$CI?$AA@ 030999c4     LIBCMT:undname.obj
 0002:000179e0       ??_C@_0BC@DAFEJGAK@?5Type?5Descriptor?8?$AA@ 030999e0     LIBCMT:undname.obj
 0002:000179f4       ??_C@_0BM@PMGGMLDN@?$GAlocal?5static?5thread?5guard?8?$AA@ 030999f4     LIBCMT:undname.obj
 0002:00017a10       ??_C@_0CL@FGIJHLCE@?$GAmanaged?5vector?5copy?5constructor@ 03099a10     LIBCMT:undname.obj
 0002:00017a3c       ??_C@_0CJ@GJELGAMM@?$GAvector?5vbase?5copy?5constructor?5i@ 03099a3c     LIBCMT:undname.obj
 0002:00017a68       ??_C@_0CD@CGAJBKEJ@?$GAvector?5copy?5constructor?5iterato@ 03099a68     LIBCMT:undname.obj
 0002:00017a8c       ??_C@_0CB@PDBIFEP@?$GAdynamic?5atexit?5destructor?5for?5?8@ 03099a8c     LIBCMT:undname.obj
 0002:00017ab0       ??_C@_0BL@CLIPGLGB@?$GAdynamic?5initializer?5for?5?8?$AA@ 03099ab0     LIBCMT:undname.obj
 0002:00017acc       ??_C@_0CM@FCBBDIGB@?$GAeh?5vector?5vbase?5copy?5constructo@ 03099acc     LIBCMT:undname.obj
 0002:00017af8       ??_C@_0CG@HLDDJMAG@?$GAeh?5vector?5copy?5constructor?5iter@ 03099af8     LIBCMT:undname.obj
 0002:00017b20       ??_C@_0CF@IMGKMJNO@?$GAmanaged?5vector?5destructor?5itera@ 03099b20     LIBCMT:undname.obj
 0002:00017b48       ??_C@_0CG@CFDHKGGD@?$GAmanaged?5vector?5constructor?5iter@ 03099b48     LIBCMT:undname.obj
 0002:00017b70       ??_C@_0BN@CKNJLHMB@?$GAplacement?5delete?$FL?$FN?5closure?8?$AA@ 03099b70     LIBCMT:undname.obj
 0002:00017b90       ??_C@_0BL@CNOONJFP@?$GAplacement?5delete?5closure?8?$AA@ 03099b90     LIBCMT:undname.obj
 0002:00017bac       ??_C@_0P@HJKNJFNN@?$GAomni?5callsig?8?$AA@ 03099bac     LIBCMT:undname.obj
 0002:00017bbc       ??_C@_09LBNFPBCA@?5delete?$FL?$FN?$AA@ 03099bbc     LIBCMT:undname.obj
 0002:00017bc8       ??_C@_06FHBGPFGH@?5new?$FL?$FN?$AA@ 03099bc8     LIBCMT:undname.obj
 0002:00017bd0       ??_C@_0CE@IIHCMGGL@?$GAlocal?5vftable?5constructor?5closu@ 03099bd0     LIBCMT:undname.obj
 0002:00017bf4       ??_C@_0BA@KKLDJDLB@?$GAlocal?5vftable?8?$AA@ 03099bf4     LIBCMT:undname.obj
 0002:00017c04       ??_C@_05KHLCHHI@?$GARTTI?$AA@ 03099c04     LIBCMT:undname.obj
 0002:00017c0c       ??_C@_03KLGMFNMG@?$GAEH?$AA@ 03099c0c     LIBCMT:undname.obj
 0002:00017c10       ??_C@_0BA@KBCDOMBN@?$GAudt?5returning?8?$AA@ 03099c10     LIBCMT:undname.obj
 0002:00017c20       ??_C@_0BL@LLKPOHJI@?$GAcopy?5constructor?5closure?8?$AA@ 03099c20     LIBCMT:undname.obj
 0002:00017c3c       ??_C@_0CH@OOJPLCPH@?$GAeh?5vector?5vbase?5constructor?5ite@ 03099c3c     LIBCMT:undname.obj
 0002:00017c64       ??_C@_0CA@GCEOPDGL@?$GAeh?5vector?5destructor?5iterator?8?$AA@ 03099c64     LIBCMT:undname.obj
 0002:00017c84       ??_C@_0CB@JONCMFFK@?$GAeh?5vector?5constructor?5iterator?8@ 03099c84     LIBCMT:undname.obj
 0002:00017ca8       ??_C@_0BL@NILFHHPC@?$GAvirtual?5displacement?5map?8?$AA@ 03099ca8     LIBCMT:undname.obj
 0002:00017cc4       ??_C@_0CE@IKBNEHA@?$GAvector?5vbase?5constructor?5iterat@ 03099cc4     LIBCMT:undname.obj
 0002:00017ce8       ??_C@_0BN@LFPFMEDL@?$GAvector?5destructor?5iterator?8?$AA@ 03099ce8     LIBCMT:undname.obj
 0002:00017d08       ??_C@_0BO@PFGOCPJJ@?$GAvector?5constructor?5iterator?8?$AA@ 03099d08     LIBCMT:undname.obj
 0002:00017d28       ??_C@_0BN@IMDCHIKM@?$GAscalar?5deleting?5destructor?8?$AA@ 03099d28     LIBCMT:undname.obj
 0002:00017d48       ??_C@_0BO@OBMKPJIG@?$GAdefault?5constructor?5closure?8?$AA@ 03099d48     LIBCMT:undname.obj
 0002:00017d68       ??_C@_0BN@DEGPLNFK@?$GAvector?5deleting?5destructor?8?$AA@ 03099d68     LIBCMT:undname.obj
 0002:00017d88       ??_C@_0BD@JDLKDPAB@?$GAvbase?5destructor?8?$AA@ 03099d88     LIBCMT:undname.obj
 0002:00017d9c       ??_C@_08OBABFOLI@?$GAstring?8?$AA@ 03099d9c     LIBCMT:undname.obj
 0002:00017da8       ??_C@_0BF@KDPPACIK@?$GAlocal?5static?5guard?8?$AA@ 03099da8     LIBCMT:undname.obj
 0002:00017dc0       ??_C@_08LLFFHHDJ@?$GAtypeof?8?$AA@ 03099dc0     LIBCMT:undname.obj
 0002:00017dcc       ??_C@_07FEEIOKP@?$GAvcall?8?$AA@ 03099dcc     LIBCMT:undname.obj
 0002:00017dd4       ??_C@_09BLBHBJP@?$GAvbtable?8?$AA@ 03099dd4     LIBCMT:undname.obj
 0002:00017de0       ??_C@_09IFPLHPGF@?$GAvftable?8?$AA@ 03099de0     LIBCMT:undname.obj
 0002:00017dec       ??_C@_02MHEGNOJ@?$FO?$DN?$AA@ 03099dec     LIBCMT:undname.obj
 0002:00017df0       ??_C@_02DHLNPPGH@?$HM?$DN?$AA@ 03099df0     LIBCMT:undname.obj
 0002:00017df4       ??_C@_02FGJGFEAB@?$CG?$DN?$AA@ 03099df4     LIBCMT:undname.obj
 0002:00017df8       ??_C@_03CDNPDDLA@?$DM?$DM?$DN?$AA@ 03099df8     LIBCMT:undname.obj
 0002:00017dfc       ??_C@_03IKFCCPFF@?$DO?$DO?$DN?$AA@ 03099dfc     LIBCMT:undname.obj
 0002:00017e00       ??_C@_02FENAOKFI@?$CF?$DN?$AA@ 03099e00     LIBCMT:undname.obj
 0002:00017e04       ??_C@_02FJEHGPIO@?1?$DN?$AA@ 03099e04     LIBCMT:undname.obj
 0002:00017e08       ??_C@_02FKMDLLOA@?9?$DN?$AA@ 03099e08     LIBCMT:undname.obj
 0002:00017e0c       ??_C@_02FOEOMHFC@?$CL?$DN?$AA@ 03099e0c     LIBCMT:undname.obj
 0002:00017e10       ??_C@_02FPIMKNGF@?$CK?$DN?$AA@ 03099e10     LIBCMT:undname.obj
 0002:00017e14       ??_C@_02PPKAJPJL@?$CG?$CG?$AA@ 03099e14     LIBCMT:undname.obj
 0002:00017e18       ??_C@_01DNKMNLPK@?$HM?$AA@ 03099e18     LIBCMT:undname.obj
 0002:00017e1c       ??_C@_01JKBOJNNK@?$FO?$AA@ 03099e1c     LIBCMT:undname.obj
 0002:00017e20       ??_C@_01PJKLJHI@?$HO?$AA@  03099e20     LIBCMT:undname.obj
 0002:00017e24       ??_C@_02HCKGKOFO@?$CI?$CJ?$AA@ 03099e24     LIBCMT:undname.obj
 0002:00017e28       ??_C@_02EEKDKGMJ@?$DO?$DN?$AA@ 03099e28     LIBCMT:undname.obj
 0002:00017e2c       ??_C@_02EHCHHCKH@?$DM?$DN?$AA@ 03099e2c     LIBCMT:undname.obj
 0002:00017e30       ??_C@_01MNNFJEPP@?$DM?$AA@ 03099e30     LIBCMT:undname.obj
 0002:00017e34       ??_C@_03MNHNFDLC@?9?$DO?$CK?$AA@ 03099e34     LIBCMT:undname.obj
 0002:00017e38       ??_C@_01HNPIGOCE@?$CG?$AA@ 03099e38     LIBCMT:undname.obj
 0002:00017e3c       ??_C@_01MIFGBAGJ@?$CL?$AA@ 03099e3c     LIBCMT:undname.obj
 0002:00017e40       ??_C@_01JOAMLHOP@?9?$AA@   03099e40     LIBCMT:undname.obj
 0002:00017e44       ??_C@_02BAABKJLB@?9?9?$AA@ 03099e44     LIBCMT:undname.obj
 0002:00017e48       ??_C@_02ECNGHCIF@?$CL?$CL?$AA@ 03099e48     LIBCMT:undname.obj
 0002:00017e4c       ??_C@_01NBENCBCI@?$CK?$AA@ 03099e4c     LIBCMT:undname.obj
 0002:00017e50       ??_C@_02HBOOOICD@?9?$DO?$AA@ 03099e50     LIBCMT:undname.obj
 0002:00017e54       ??_C@_08LHJFAFGD@operator?$AA@ 03099e54     LIBCMT:undname.obj
 0002:00017e60       ??_C@_02GPECMEKF@?$FL?$FN?$AA@ 03099e60     LIBCMT:undname.obj
 0002:00017e64       ??_C@_02FDNJECIE@?$CB?$DN?$AA@ 03099e64     LIBCMT:undname.obj
 0002:00017e68       ??_C@_02EGOFBIJA@?$DN?$DN?$AA@ 03099e68     LIBCMT:undname.obj
 0002:00017e6c       ??_C@_01DCLJPIOD@?$CB?$AA@ 03099e6c     LIBCMT:undname.obj
 0002:00017e70       ??_C@_02FODMEDOG@?$DM?$DM?$AA@ 03099e70     LIBCMT:undname.obj
 0002:00017e74       ??_C@_02GPIOPFAK@?$DO?$DO?$AA@ 03099e74     LIBCMT:undname.obj
 0002:00017e78       ??_C@_07FPCDHGMM@?5delete?$AA@ 03099e78     LIBCMT:undname.obj
 0002:00017e80       ??_C@_04NIHEBCM@?5new?$AA@ 03099e80     LIBCMT:undname.obj
 0002:00017e88       ??_C@_0M@GFIIJFMG@__unaligned?$AA@ 03099e88     LIBCMT:undname.obj
 0002:00017e94       ??_C@_0L@PILCLIHE@__restrict?$AA@ 03099e94     LIBCMT:undname.obj
 0002:00017ea0       ??_C@_07JOMMBBKO@__ptr64?$AA@ 03099ea0     LIBCMT:undname.obj
 0002:00017ea8       ??_C@_09HIJEGCPM@__clrcall?$AA@ 03099ea8     LIBCMT:undname.obj
 0002:00017eb4       ??_C@_0L@JMKHOMEK@__fastcall?$AA@ 03099eb4     LIBCMT:undname.obj
 0002:00017ec0       ??_C@_0L@NPHFGOKO@__thiscall?$AA@ 03099ec0     LIBCMT:undname.obj
 0002:00017ecc       ??_C@_09IFJBGAPI@__stdcall?$AA@ 03099ecc     LIBCMT:undname.obj
 0002:00017ed8       ??_C@_08GHMPAG@__pascal?$AA@ 03099ed8     LIBCMT:undname.obj
 0002:00017ee4       ??_C@_07KOLFKCDI@__cdecl?$AA@ 03099ee4     LIBCMT:undname.obj
 0002:00017eec       ??_C@_08EHJDFFNH@__based?$CI?$AA@ 03099eec     LIBCMT:undname.obj
 0002:00018078       ??_7DNameNode@@6B@         0309a078     LIBCMT:undname.obj
 0002:00018084       ??_7charNode@@6B@          0309a084     LIBCMT:undname.obj
 0002:00018090       ??_7pDNameNode@@6B@        0309a090     LIBCMT:undname.obj
 0002:0001809c       ??_7DNameStatusNode@@6B@   0309a09c     LIBCMT:undname.obj
 0002:000180a8       ??_7pairNode@@6B@          0309a0a8     LIBCMT:undname.obj
 0002:000180b4       ??_7pcharNode@@6B@         0309a0b4     LIBCMT:undname.obj
 0002:000180c0       ??_C@_04OKOHEJBO@?5?$DP?$DP?5?$AA@ 0309a0c0     LIBCMT:undname.obj
 0002:000180c8       ??_C@_06EEGAIFAK@?$HLflat?$HN?$AA@ 0309a0c8     LIBCMT:undname.obj
 0002:000180d0       ??_C@_05JIBOFOHK@?$HLfor?5?$AA@ 0309a0d0     LIBCMT:undname.obj
 0002:000180d8       ??_C@_0BN@IBLMMFAP@?$GAnon?9type?9template?9parameter?$AA@ 0309a0d8     LIBCMT:undname.obj
 0002:000180f8       ??_C@_09EBBEKKIH@unsigned?5?$AA@ 0309a0f8     LIBCMT:undname.obj
 0002:00018104       ??_C@_05CJIMAING@long?5?$AA@ 0309a104     LIBCMT:undname.obj
 0002:0001810c       ??_C@_04LAHKHJMA@int?5?$AA@ 0309a10c     LIBCMT:undname.obj
 0002:00018114       ??_C@_06EHJMALKF@short?5?$AA@ 0309a114     LIBCMT:undname.obj
 0002:0001811c       ??_C@_05CIHEBHNO@char?5?$AA@ 0309a11c     LIBCMT:undname.obj
 0002:00018124       ??_C@_04GKJNKENE@void?$AA@ 0309a124     LIBCMT:undname.obj
 0002:0001812c       ??_C@_0L@EGPHHEKN@?$DMellipsis?$DO?$AA@ 0309a12c     LIBCMT:undname.obj
 0002:00018138       ??_C@_0M@ELJOJFFH@?0?$DMellipsis?$DO?$AA@ 0309a138     LIBCMT:undname.obj
 0002:00018144       ??_C@_04EENFHACM@?0?4?4?4?$AA@ 0309a144     LIBCMT:undname.obj
 0002:0001814c       ??_C@_07HDJPLPEK@?5throw?$CI?$AA@ 0309a14c     LIBCMT:undname.obj
 0002:00018154       ??_C@_02GOGNNPBN@?$CJ?$FL?$AA@ 0309a154     LIBCMT:undname.obj
 0002:00018158       ??_C@_02MDINNEEG@s?5?$AA@  0309a158     LIBCMT:undname.obj
 0002:0001815c       ??_C@_0BE@EODMJLIF@?$GAtemplate?9parameter?$AA@ 0309a15c     LIBCMT:undname.obj
 0002:00018170       ??_C@_01GEODFPGF@?8?$AA@   0309a170     LIBCMT:undname.obj
 0002:00018174       ??_C@_0O@GKABPPIF@cli?3?3pin_ptr?$DM?$AA@ 0309a174     LIBCMT:undname.obj
 0002:00018184       ??_C@_0M@EALIELKG@cli?3?3array?$DM?$AA@ 0309a184     LIBCMT:undname.obj
 0002:00018190       ??_C@_05BEFAKPML@void?5?$AA@ 0309a190     LIBCMT:undname.obj
 0002:00018198       ??_C@_02OHHJMEON@?8?8?$AA@ 0309a198     LIBCMT:undname.obj
 0002:0001819c       ??_C@_0BG@JNJLAMPM@?$GAanonymous?5namespace?8?$AA@ 0309a19c     LIBCMT:undname.obj
 0002:000181b4       ??_C@_01NLNLIGKH@?$GA?$AA@ 0309a1b4     LIBCMT:undname.obj
 0002:000181b8       ??_C@_0O@KHGCOMHP@generic?9type?9?$AA@ 0309a1b8     LIBCMT:undname.obj
 0002:000181c8       ??_C@_0BE@JAEOCHPE@template?9parameter?9?$AA@ 0309a1c8     LIBCMT:undname.obj
 0002:000181dc       ??_C@_02MOLJINC@?3?3?$AA@  0309a1dc     LIBCMT:undname.obj
 0002:000181e0       ??_C@_0P@GCIFDJCJ@?$GAunknown?5ecsu?8?$AA@ 0309a1e0     LIBCMT:undname.obj
 0002:000181f0       ??_C@_06MOJHIBMG@union?5?$AA@ 0309a1f0     LIBCMT:undname.obj
 0002:000181f8       ??_C@_07DIBCDNGL@struct?5?$AA@ 0309a1f8     LIBCMT:undname.obj
 0002:00018200       ??_C@_06LJBABKPM@class?5?$AA@ 0309a200     LIBCMT:undname.obj
 0002:00018208       ??_C@_05LJGMCFOG@enum?5?$AA@ 0309a208     LIBCMT:undname.obj
 0002:00018210       ??_C@_08KOFANOFK@coclass?5?$AA@ 0309a210     LIBCMT:undname.obj
 0002:0001821c       ??_C@_0N@DLIEFKNA@cointerface?5?$AA@ 0309a21c     LIBCMT:undname.obj
 0002:0001822c       ??_C@_0M@DHNBOJMP@extern?5?$CCC?$CC?5?$AA@ 0309a22c     LIBCMT:undname.obj
 0002:00018238       ??_C@_08KJLFOPNE@?$FLthunk?$FN?3?$AA@ 0309a238     LIBCMT:undname.obj
 0002:00018244       ??_C@_08GPDDCMKI@public?3?5?$AA@ 0309a244     LIBCMT:undname.obj
 0002:00018250       ??_C@_0M@GAIFPFIP@protected?3?5?$AA@ 0309a250     LIBCMT:undname.obj
 0002:0001825c       ??_C@_09LAPHOOG@private?3?5?$AA@ 0309a25c     LIBCMT:undname.obj
 0002:00018268       ??_C@_08NIEOINHE@virtual?5?$AA@ 0309a268     LIBCMT:undname.obj
 0002:00018274       ??_C@_07PGOEDBHP@static?5?$AA@ 0309a274     LIBCMT:undname.obj
 0002:0001827c       ??_C@_0DA@HGFJFBBE@?$GAtemplate?5static?5data?5member?5des@ 0309a27c     LIBCMT:undname.obj
 0002:000182ac       ??_C@_0DB@ILEFOCIJ@?$GAtemplate?5static?5data?5member?5con@ 0309a2ac     LIBCMT:undname.obj
 0002:000182e0       ??_C@_0CB@KJDOOODE@?$GAlocal?5static?5destructor?5helper?8@ 0309a2e0     LIBCMT:undname.obj
 0002:00018304       ??_C@_0L@HNGCOGAE@?$GAadjustor?$HL?$AA@ 0309a304     LIBCMT:undname.obj
 0002:00018310       ??_C@_0L@GHPFDFH@?$GAvtordisp?$HL?$AA@ 0309a310     LIBCMT:undname.obj
 0002:0001831c       ??_C@_0N@CBHHHENL@?$GAvtordispex?$HL?$AA@ 0309a31c     LIBCMT:undname.obj
 0002:0001832c       ??_C@_02IGFCGPIL@?$HN?8?$AA@ 0309a32c     LIBCMT:undname.obj
 0002:00018330       ??_C@_03OPGICMGF@?$HN?8?5?$AA@ 0309a330     LIBCMT:undname.obj
 0002:00018334       ??_C@_06LIJLOJAG@const?5?$AA@ 0309a334     LIBCMT:undname.obj
 0002:0001833c       ??_C@_09GAIEOBLP@volatile?5?$AA@ 0309a33c     LIBCMT:undname.obj
 0002:00018348       ??_C@_04HEJADOOB@CV?3?5?$AA@ 0309a348     LIBCMT:undname.obj
 0002:00018350       ??_C@_08PABEKFH@volatile?$AA@ 0309a350     LIBCMT:undname.obj
 0002:0001835c       ??_C@_09EFNPDFFP@?5volatile?$AA@ 0309a35c     LIBCMT:undname.obj
 0002:00018368       ??_C@_05BNCCCJPP@const?$AA@ 0309a368     LIBCMT:undname.obj
 0002:00018370       ??_C@_07EDHNAJHC@signed?5?$AA@ 0309a370     LIBCMT:undname.obj
 0002:00018378       ??_C@_06BNJCAIGJ@double?$AA@ 0309a378     LIBCMT:undname.obj
 0002:00018380       ??_C@_08GAHOLHEO@__int128?$AA@ 0309a380     LIBCMT:undname.obj
 0002:0001838c       ??_C@_07CLGGIAMF@wchar_t?$AA@ 0309a38c     LIBCMT:undname.obj
 0002:00018394       ??_C@_07LFCOJCAC@__int64?$AA@ 0309a394     LIBCMT:undname.obj
 0002:0001839c       ??_C@_07ICFHOGAF@__int16?$AA@ 0309a39c     LIBCMT:undname.obj
 0002:000183a4       ??_C@_07OFLPPHGP@__int32?$AA@ 0309a3a4     LIBCMT:undname.obj
 0002:000183ac       ??_C@_06EBGKOKIG@__int8?$AA@ 0309a3ac     LIBCMT:undname.obj
 0002:000183b4       ??_C@_06GCICPBLB@__w64?5?$AA@ 0309a3b4     LIBCMT:undname.obj
 0002:000183bc       ??_C@_04GOKPGOLB@long?$AA@ 0309a3bc     LIBCMT:undname.obj
 0002:000183c4       ??_C@_05BFKKPKCG@short?$AA@ 0309a3c4     LIBCMT:undname.obj
 0002:000183cc       ??_C@_04ENMBGAPA@char?$AA@ 0309a3cc     LIBCMT:undname.obj
 0002:000183d8       ___newctype                0309a3d8     LIBCMT:ctype.obj
 0002:000186d8       __wctype                   0309a6d8     LIBCMT:ctype.obj
 0002:000188e0       ___newclmap                0309a8e0     LIBCMT:ctype.obj
 0002:00018a60       ___newcumap                0309aa60     LIBCMT:ctype.obj
 0002:00018be0       ??_C@_08JCCMCCIL@HH?3mm?3ss?$AA@ 0309abe0     LIBCMT:strftime.obj
 0002:00018bec       ??_C@_0BE@CKGJFCPC@dddd?0?5MMMM?5dd?0?5yyyy?$AA@ 0309abec     LIBCMT:strftime.obj
 0002:00018c00       ??_C@_08BPBNCDIB@MM?1dd?1yy?$AA@ 0309ac00     LIBCMT:strftime.obj
 0002:00018c0c       ??_C@_02CJNFDJBF@PM?$AA@   0309ac0c     LIBCMT:strftime.obj
 0002:00018c10       ??_C@_02DEDBPAFC@AM?$AA@   0309ac10     LIBCMT:strftime.obj
 0002:00018c14       ??_C@_08EDHMEBNP@December?$AA@ 0309ac14     LIBCMT:strftime.obj
 0002:00018c20       ??_C@_08HCHEGEOA@November?$AA@ 0309ac20     LIBCMT:strftime.obj
 0002:00018c2c       ??_C@_07JJNFCEND@October?$AA@ 0309ac2c     LIBCMT:strftime.obj
 0002:00018c34       ??_C@_09BHHEALKD@September?$AA@ 0309ac34     LIBCMT:strftime.obj
 0002:00018c40       ??_C@_06LBBHFDDG@August?$AA@ 0309ac40     LIBCMT:strftime.obj
 0002:00018c48       ??_C@_04MIEPOIFP@July?$AA@ 0309ac48     LIBCMT:strftime.obj
 0002:00018c50       ??_C@_04CNLMGBGM@June?$AA@ 0309ac50     LIBCMT:strftime.obj
 0002:00018c58       ??_C@_05DMJDNLEJ@April?$AA@ 0309ac58     LIBCMT:strftime.obj
 0002:00018c60       ??_C@_05HPCKOFNC@March?$AA@ 0309ac60     LIBCMT:strftime.obj
 0002:00018c68       ??_C@_08GNJGEPFN@February?$AA@ 0309ac68     LIBCMT:strftime.obj
 0002:00018c74       ??_C@_07CGJPFGJA@January?$AA@ 0309ac74     LIBCMT:strftime.obj
 0002:00018c7c       ??_C@_03JPJOFNIA@Nov?$AA@  0309ac7c     LIBCMT:strftime.obj
 0002:00018c80       ??_C@_03BMAOKBAD@Oct?$AA@  0309ac80     LIBCMT:strftime.obj
 0002:00018c84       ??_C@_03GGCAPAJC@Sep?$AA@  0309ac84     LIBCMT:strftime.obj
 0002:00018c88       ??_C@_03IFJFEIGA@Aug?$AA@  0309ac88     LIBCMT:strftime.obj
 0002:00018c8c       ??_C@_03LBGABGKK@Jul?$AA@  0309ac8c     LIBCMT:strftime.obj
 0002:00018c90       ??_C@_03IDFGHECI@Jun?$AA@  0309ac90     LIBCMT:strftime.obj
 0002:00018c94       ??_C@_03CNMDKL@May?$AA@    0309ac94     LIBCMT:strftime.obj
 0002:00018c98       ??_C@_03LEOLGMJP@Apr?$AA@  0309ac98     LIBCMT:strftime.obj
 0002:00018c9c       ??_C@_03ODNJBKGA@Mar?$AA@  0309ac9c     LIBCMT:strftime.obj
 0002:00018ca0       ??_C@_03HJBDCHOM@Feb?$AA@  0309aca0     LIBCMT:strftime.obj
 0002:00018ca4       ??_C@_03JIHJHPIE@Jan?$AA@  0309aca4     LIBCMT:strftime.obj
 0002:00018ca8       ??_C@_08INBOOONO@Saturday?$AA@ 0309aca8     LIBCMT:strftime.obj
 0002:00018cb4       ??_C@_06JECMNKMI@Friday?$AA@ 0309acb4     LIBCMT:strftime.obj
 0002:00018cbc       ??_C@_08HACCIKIA@Thursday?$AA@ 0309acbc     LIBCMT:strftime.obj
 0002:00018cc8       ??_C@_09DLIGFAKA@Wednesday?$AA@ 0309acc8     LIBCMT:strftime.obj
 0002:00018cd4       ??_C@_07BAAGCFCM@Tuesday?$AA@ 0309acd4     LIBCMT:strftime.obj
 0002:00018cdc       ??_C@_06JLEDEDGH@Monday?$AA@ 0309acdc     LIBCMT:strftime.obj
 0002:00018ce4       ??_C@_06OOPIFAJ@Sunday?$AA@ 0309ace4     LIBCMT:strftime.obj
 0002:00018cec       ??_C@_03FEFJNEK@Sat?$AA@   0309acec     LIBCMT:strftime.obj
 0002:00018cf0       ??_C@_03IDIOELNC@Fri?$AA@  0309acf0     LIBCMT:strftime.obj
 0002:00018cf4       ??_C@_03IOFIKPDN@Thu?$AA@  0309acf4     LIBCMT:strftime.obj
 0002:00018cf8       ??_C@_03MHOMLAJA@Wed?$AA@  0309acf8     LIBCMT:strftime.obj
 0002:00018cfc       ??_C@_03NAGEINEP@Tue?$AA@  0309acfc     LIBCMT:strftime.obj
 0002:00018d00       ??_C@_03PDAGKDH@Mon?$AA@   0309ad00     LIBCMT:strftime.obj
 0002:00018d04       ??_C@_03KOEHGMDN@Sun?$AA@  0309ad04     LIBCMT:strftime.obj
 0002:00018d08       ??_C@_03EBAPMIKO@a?1p?$AA@ 0309ad08     LIBCMT:strftime.obj
 0002:00018d0c       ??_C@_05JAMEPDIN@am?1pm?$AA@ 0309ad0c     LIBCMT:strftime.obj
 0002:00018d14       ??_C@_0O@FMJNFNKE@united?9states?$AA@ 0309ad14     LIBCMT:getqloc.obj
 0002:00018d24       ??_C@_0P@NDHFFKCA@united?9kingdom?$AA@ 0309ad24     LIBCMT:getqloc.obj
 0002:00018d34       ??_C@_0BC@HHDADLGF@trinidad?5?$CG?5tobago?$AA@ 0309ad34     LIBCMT:getqloc.obj
 0002:00018d48       ??_C@_0M@IOAEBDAC@south?9korea?$AA@ 0309ad48     LIBCMT:getqloc.obj
 0002:00018d54       ??_C@_0N@FIELFKIJ@south?9africa?$AA@ 0309ad54     LIBCMT:getqloc.obj
 0002:00018d64       ??_C@_0M@OPNDHCMC@south?5korea?$AA@ 0309ad64     LIBCMT:getqloc.obj
 0002:00018d70       ??_C@_0N@MDEOEPFI@south?5africa?$AA@ 0309ad70     LIBCMT:getqloc.obj
 0002:00018d80       ??_C@_06FKAPCJLB@slovak?$AA@ 0309ad80     LIBCMT:getqloc.obj
 0002:00018d88       ??_C@_0M@EFJANOAL@puerto?9rico?$AA@ 0309ad88     LIBCMT:getqloc.obj
 0002:00018d94       ??_C@_08PGOJKDAI@pr?9china?$AA@ 0309ad94     LIBCMT:getqloc.obj
 0002:00018da0       ??_C@_08JHDOMCMI@pr?5china?$AA@ 0309ada0     LIBCMT:getqloc.obj
 0002:00018dac       ??_C@_02JHCHFBLL@nz?$AA@   0309adac     LIBCMT:getqloc.obj
 0002:00018db0       ??_C@_0M@LINHDHKP@new?9zealand?$AA@ 0309adb0     LIBCMT:getqloc.obj
 0002:00018dbc       ??_C@_09IIIPPBDB@hong?9kong?$AA@ 0309adbc     LIBCMT:getqloc.obj
 0002:00018dc8       ??_C@_07HJLCKBG@holland?$AA@ 0309adc8     LIBCMT:getqloc.obj
 0002:00018dd0       ??_C@_0O@LEHGMHAG@great?5britain?$AA@ 0309add0     LIBCMT:getqloc.obj
 0002:00018de0       ??_C@_07FACOMELA@england?$AA@ 0309ade0     LIBCMT:getqloc.obj
 0002:00018de8       ??_C@_05JIHCEICB@czech?$AA@ 0309ade8     LIBCMT:getqloc.obj
 0002:00018df0       ??_C@_05BBJOBLGB@china?$AA@ 0309adf0     LIBCMT:getqloc.obj
 0002:00018df8       ??_C@_07GPKPHICP@britain?$AA@ 0309adf8     LIBCMT:getqloc.obj
 0002:00018e00       ??_C@_07MHIPBHMG@america?$AA@ 0309ae00     LIBCMT:getqloc.obj
 0002:00018e08       ??_C@_03KIALPMKC@usa?$AA@  0309ae08     LIBCMT:getqloc.obj
 0002:00018e0c       ??_C@_02FGJGKGGD@us?$AA@   0309ae0c     LIBCMT:getqloc.obj
 0002:00018e10       ??_C@_02NEINDODK@uk?$AA@   0309ae10     LIBCMT:getqloc.obj
 0002:00018e14       ??_C@_05JMPCFJFJ@swiss?$AA@ 0309ae14     LIBCMT:getqloc.obj
 0002:00018e1c       ??_C@_0BA@HLOCPIOD@swedish?9finland?$AA@ 0309ae1c     LIBCMT:getqloc.obj
 0002:00018e2c       ??_C@_0BC@PKCNIABK@spanish?9venezuela?$AA@ 0309ae2c     LIBCMT:getqloc.obj
 0002:00018e40       ??_C@_0BA@GBHHMIJI@spanish?9uruguay?$AA@ 0309ae40     LIBCMT:getqloc.obj
 0002:00018e50       ??_C@_0BE@BHDOHPMC@spanish?9puerto?5rico?$AA@ 0309ae50     LIBCMT:getqloc.obj
 0002:00018e64       ??_C@_0N@KMOIDGGN@spanish?9peru?$AA@ 0309ae64     LIBCMT:getqloc.obj
 0002:00018e74       ??_C@_0BB@HMHLPGPH@spanish?9paraguay?$AA@ 0309ae74     LIBCMT:getqloc.obj
 0002:00018e88       ??_C@_0P@MCPKNGFD@spanish?9panama?$AA@ 0309ae88     LIBCMT:getqloc.obj
 0002:00018e98       ??_C@_0BC@IHOHGAIL@spanish?9nicaragua?$AA@ 0309ae98     LIBCMT:getqloc.obj
 0002:00018eac       ??_C@_0P@KLMJDNFJ@spanish?9modern?$AA@ 0309aeac     LIBCMT:getqloc.obj
 0002:00018ebc       ??_C@_0BA@BPAPGBCM@spanish?9mexican?$AA@ 0309aebc     LIBCMT:getqloc.obj
 0002:00018ecc       ??_C@_0BB@PDECHHHE@spanish?9honduras?$AA@ 0309aecc     LIBCMT:getqloc.obj
 0002:00018ee0       ??_C@_0BC@KLHKFGDB@spanish?9guatemala?$AA@ 0309aee0     LIBCMT:getqloc.obj
 0002:00018ef4       ??_C@_0BE@MFOOKJAI@spanish?9el?5salvador?$AA@ 0309aef4     LIBCMT:getqloc.obj
 0002:00018f08       ??_C@_0BA@FCOKFPFC@spanish?9ecuador?$AA@ 0309af08     LIBCMT:getqloc.obj
 0002:00018f18       ??_C@_0BL@PLMGIMOO@spanish?9dominican?5republic?$AA@ 0309af18     LIBCMT:getqloc.obj
 0002:00018f34       ??_C@_0BD@HLGDNMHB@spanish?9costa?5rica?$AA@ 0309af34     LIBCMT:getqloc.obj
 0002:00018f48       ??_C@_0BB@PKCBKCPE@spanish?9colombia?$AA@ 0309af48     LIBCMT:getqloc.obj
 0002:00018f5c       ??_C@_0O@MCBIJGNE@spanish?9chile?$AA@ 0309af5c     LIBCMT:getqloc.obj
 0002:00018f6c       ??_C@_0BA@BEFEIGJJ@spanish?9bolivia?$AA@ 0309af6c     LIBCMT:getqloc.obj
 0002:00018f7c       ??_C@_0BC@EMECMPD@spanish?9argentina?$AA@ 0309af7c     LIBCMT:getqloc.obj
 0002:00018f90       ??_C@_0BF@EALFLENP@portuguese?9brazilian?$AA@ 0309af90     LIBCMT:getqloc.obj
 0002:00018fa8       ??_C@_0BC@HBLEBLNN@norwegian?9nynorsk?$AA@ 0309afa8     LIBCMT:getqloc.obj
 0002:00018fbc       ??_C@_0BB@HMACDDCK@norwegian?9bokmal?$AA@ 0309afbc     LIBCMT:getqloc.obj
 0002:00018fd0       ??_C@_09BAFFPPHE@norwegian?$AA@ 0309afd0     LIBCMT:getqloc.obj
 0002:00018fdc       ??_C@_0O@EAJFJDFG@italian?9swiss?$AA@ 0309afdc     LIBCMT:getqloc.obj
 0002:00018fec       ??_C@_0O@CNOMPGD@irish?9english?$AA@ 0309afec     LIBCMT:getqloc.obj
 0002:00018ffc       ??_C@_0N@EDHBGCKG@german?9swiss?$AA@ 0309affc     LIBCMT:getqloc.obj
 0002:0001900c       ??_C@_0BC@JACMHNBP@german?9luxembourg?$AA@ 0309b00c     LIBCMT:getqloc.obj
 0002:00019020       ??_C@_0BE@HBGMGFEG@german?9lichtenstein?$AA@ 0309b020     LIBCMT:getqloc.obj
 0002:00019034       ??_C@_0BA@HKKBIBKL@german?9austrian?$AA@ 0309b034     LIBCMT:getqloc.obj
 0002:00019044       ??_C@_0N@GCAEPEBK@french?9swiss?$AA@ 0309b044     LIBCMT:getqloc.obj
 0002:00019054       ??_C@_0BC@DJFJJCK@french?9luxembourg?$AA@ 0309b054     LIBCMT:getqloc.obj
 0002:00019068       ??_C@_0BA@NNCEDFIC@french?9canadian?$AA@ 0309b068     LIBCMT:getqloc.obj
 0002:00019078       ??_C@_0P@CMPOCLM@french?9belgian?$AA@ 0309b078     LIBCMT:getqloc.obj
 0002:00019088       ??_C@_0M@GHHDJOK@english?9usa?$AA@ 0309b088     LIBCMT:getqloc.obj
 0002:00019094       ??_C@_0L@PLDJKEIL@english?9us?$AA@ 0309b094     LIBCMT:getqloc.obj
 0002:000190a0       ??_C@_0L@HJCCDMNC@english?9uk?$AA@ 0309b0a0     LIBCMT:getqloc.obj
 0002:000190ac       ??_C@_0BK@CKLIAGJB@english?9trinidad?5y?5tobago?$AA@ 0309b0ac     LIBCMT:getqloc.obj
 0002:000190c8       ??_C@_0BF@JMJMGNNF@english?9south?5africa?$AA@ 0309b0c8     LIBCMT:getqloc.obj
 0002:000190e0       ??_C@_0L@DKIIFDFD@english?9nz?$AA@ 0309b0e0     LIBCMT:getqloc.obj
 0002:000190ec       ??_C@_0BA@ONHGJCLH@english?9jamaica?$AA@ 0309b0ec     LIBCMT:getqloc.obj
 0002:000190fc       ??_C@_0M@HJBGHOPO@english?9ire?$AA@ 0309b0fc     LIBCMT:getqloc.obj
 0002:00019108       ??_C@_0BC@LFEKMIFB@english?9caribbean?$AA@ 0309b108     LIBCMT:getqloc.obj
 0002:0001911c       ??_C@_0M@OLDPFKHI@english?9can?$AA@ 0309b11c     LIBCMT:getqloc.obj
 0002:00019128       ??_C@_0P@OMDEHBMP@english?9belize?$AA@ 0309b128     LIBCMT:getqloc.obj
 0002:00019138       ??_C@_0M@KFHFPFED@english?9aus?$AA@ 0309b138     LIBCMT:getqloc.obj
 0002:00019144       ??_C@_0BB@MNMBKDFE@english?9american?$AA@ 0309b144     LIBCMT:getqloc.obj
 0002:00019158       ??_C@_0O@KIDLNNBA@dutch?9belgian?$AA@ 0309b158     LIBCMT:getqloc.obj
 0002:00019168       ??_C@_0BE@JBKABBMH@chinese?9traditional?$AA@ 0309b168     LIBCMT:getqloc.obj
 0002:0001917c       ??_C@_0BC@MJJMPKCG@chinese?9singapore?$AA@ 0309b17c     LIBCMT:getqloc.obj
 0002:00019190       ??_C@_0BD@FDKADDCP@chinese?9simplified?$AA@ 0309b190     LIBCMT:getqloc.obj
 0002:000191a4       ??_C@_0BB@DBEFDDME@chinese?9hongkong?$AA@ 0309b1a4     LIBCMT:getqloc.obj
 0002:000191b8       ??_C@_07DHNMFMCI@chinese?$AA@ 0309b1b8     LIBCMT:getqloc.obj
 0002:000191c0       ??_C@_03FNDDCHI@chi?$AA@   0309b1c0     LIBCMT:getqloc.obj
 0002:000191c4       ??_C@_03BMMIADDJ@chh?$AA@  0309b1c4     LIBCMT:getqloc.obj
 0002:000191c8       ??_C@_08OAIPJDGI@canadian?$AA@ 0309b1c8     LIBCMT:getqloc.obj
 0002:000191d4       ??_C@_07HBPMNPNJ@belgian?$AA@ 0309b1d4     LIBCMT:getqloc.obj
 0002:000191dc       ??_C@_0L@OEKOPBEL@australian?$AA@ 0309b1dc     LIBCMT:getqloc.obj
 0002:000191e8       ??_C@_0BB@MEIMBEDG@american?9english?$AA@ 0309b1e8     LIBCMT:getqloc.obj
 0002:000191fc       ??_C@_0BB@DFMDPDGB@american?5english?$AA@ 0309b1fc     LIBCMT:getqloc.obj
 0002:00019210       ??_C@_08IJLOKOLL@american?$AA@ 0309b210     LIBCMT:getqloc.obj
 0002:00019220       ___rg_language             0309b220     LIBCMT:getqloc.obj
 0002:00019428       ___rg_country              0309b428     LIBCMT:getqloc.obj
 0002:000194e0       ___rglangidNotDefault      0309b4e0     LIBCMT:getqloc.obj
 0002:000194f4       ??_C@_03NFKLAGEF@OCP?$AA@  0309b4f4     LIBCMT:getqloc.obj
 0002:000194f8       ??_C@_03DFHEHBHG@ACP?$AA@  0309b4f8     LIBCMT:getqloc.obj
 0002:000194fc       ??_C@_0BC@NFIEMBLL@Norwegian?9Nynorsk?$AA@ 0309b4fc     LIBCMT:getqloc.obj
 0002:00019510       __atan_table               0309b510     LIBCMT:_atan_table_.obj
 0002:0001ad20       ??_C@_0L@KDOEJCKC@_nextafter?$AA@ 0309cd20     LIBCMT:_fpexcept_.obj
 0002:0001ad2c       ??_C@_05JGDBENOH@_logb?$AA@ 0309cd2c     LIBCMT:_fpexcept_.obj
 0002:0001ad34       ??_C@_03ONILCKOB@_yn?$AA@  0309cd34     LIBCMT:_fpexcept_.obj
 0002:0001ad38       ??_C@_03NAKIGLHK@_y1?$AA@  0309cd38     LIBCMT:_fpexcept_.obj
 0002:0001ad3c       ??_C@_03MJLDFKDL@_y0?$AA@  0309cd3c     LIBCMT:_fpexcept_.obj
 0002:0001ad40       ??_C@_05GKKHEGJL@frexp?$AA@ 0309cd40     LIBCMT:_fpexcept_.obj
 0002:0001ad48       ??_C@_04KEPJIHGP@fmod?$AA@ 0309cd48     LIBCMT:_fpexcept_.obj
 0002:0001ad50       ??_C@_06MEIMCGCF@_hypot?$AA@ 0309cd50     LIBCMT:_fpexcept_.obj
 0002:0001ad58       ??_C@_05KBKMEMPO@_cabs?$AA@ 0309cd58     LIBCMT:_fpexcept_.obj
 0002:0001ad60       ??_C@_05CEJMAHNP@ldexp?$AA@ 0309cd60     LIBCMT:_fpexcept_.obj
 0002:0001ad68       ??_C@_04ODHECPBC@fabs?$AA@ 0309cd68     LIBCMT:_fpexcept_.obj
 0002:0001ad70       ??_C@_04EIAKFFMI@sqrt?$AA@ 0309cd70     LIBCMT:_fpexcept_.obj
 0002:0001ad78       ??_C@_05KNGEOGJB@atan2?$AA@ 0309cd78     LIBCMT:_fpexcept_.obj
 0002:0001ad80       ??_C@_04FJHINJAO@tanh?$AA@ 0309cd80     LIBCMT:_fpexcept_.obj
 0002:0001ad88       ??_C@_04HPJJNFIM@cosh?$AA@ 0309cd88     LIBCMT:_fpexcept_.obj
 0002:0001ad90       ??_C@_04COOMCNPB@sinh?$AA@ 0309cd90     LIBCMT:_fpexcept_.obj
 0002:0001ad98       ??_C@_06IMKFLFPG@1?$CDQNAN?$AA@ 0309cd98     LIBCMT:_x10fout_.obj
 0002:0001ada0       ??_C@_05DNEBIAHO@1?$CDINF?$AA@ 0309cda0     LIBCMT:_x10fout_.obj
 0002:0001ada8       ??_C@_05PHHOCPM@1?$CDIND?$AA@ 0309cda8     LIBCMT:_x10fout_.obj
 0002:0001adb0       ??_C@_06PGGFOGJG@1?$CDSNAN?$AA@ 0309cdb0     LIBCMT:_x10fout_.obj
 0002:0001adb8       ??_C@_06GDENEHCP@CONIN$?$AA@ 0309cdb8     LIBCMT:initcon.obj
 0002:0001adc0       ??_C@_07GPDNMNG@CONOUT$?$AA@ 0309cdc0     LIBCMT:initcon.obj
 0002:0001adc8       __load_config_used         0309cdc8     LIBCMT:loadcfg.obj
 0002:0001ae78       ??_R4bad_alloc@std@@6B@    0309ce78     MQ2ChatHook.obj
 0002:0001ae8c       ??_R3bad_alloc@std@@8      0309ce8c     MQ2ChatHook.obj
 0002:0001ae9c       ??_R2bad_alloc@std@@8      0309ce9c     MQ2ChatHook.obj
 0002:0001aea8       ??_R1A@?0A@EA@bad_alloc@std@@8 0309cea8     MQ2ChatHook.obj
 0002:0001aec4       ??_R1A@?0A@EA@exception@std@@8 0309cec4     MQ2ChatHook.obj
 0002:0001aee0       ??_R3exception@std@@8      0309cee0     MQ2ChatHook.obj
 0002:0001aef0       ??_R2exception@std@@8      0309cef0     MQ2ChatHook.obj
 0002:0001aef8       ??_R4logic_error@std@@6B@  0309cef8     MQ2ChatHook.obj
 0002:0001af0c       ??_R3logic_error@std@@8    0309cf0c     MQ2ChatHook.obj
 0002:0001af1c       ??_R2logic_error@std@@8    0309cf1c     MQ2ChatHook.obj
 0002:0001af28       ??_R1A@?0A@EA@logic_error@std@@8 0309cf28     MQ2ChatHook.obj
 0002:0001af44       ??_R4out_of_range@std@@6B@ 0309cf44     MQ2ChatHook.obj
 0002:0001af58       ??_R3out_of_range@std@@8   0309cf58     MQ2ChatHook.obj
 0002:0001af68       ??_R2out_of_range@std@@8   0309cf68     MQ2ChatHook.obj
 0002:0001af78       ??_R1A@?0A@EA@out_of_range@std@@8 0309cf78     MQ2ChatHook.obj
 0002:0001af94       ??_R4length_error@std@@6B@ 0309cf94     MQ2Commands.obj
 0002:0001afa8       ??_R3length_error@std@@8   0309cfa8     MQ2Commands.obj
 0002:0001afb8       ??_R2length_error@std@@8   0309cfb8     MQ2Commands.obj
 0002:0001afc8       ??_R1A@?0A@EA@length_error@std@@8 0309cfc8     MQ2Commands.obj
 0002:0001afe4       ??_R4MQ2Type@MQ2Internal@@6B@ 0309cfe4     MQ2Commands.obj
 0002:0001aff8       ??_R3MQ2Type@MQ2Internal@@8 0309cff8     MQ2Commands.obj
 0002:0001b008       ??_R2MQ2Type@MQ2Internal@@8 0309d008     MQ2Commands.obj
 0002:0001b010       ??_R1A@?0A@EA@MQ2Type@MQ2Internal@@8 0309d010     MQ2Commands.obj
 0002:0001b02c       ??_R4MQ2TicksType@@6B@     0309d02c     MQ2Commands.obj
 0002:0001b040       ??_R3MQ2TicksType@@8       0309d040     MQ2Commands.obj
 0002:0001b050       ??_R2MQ2TicksType@@8       0309d050     MQ2Commands.obj
 0002:0001b05c       ??_R1A@?0A@EA@MQ2TicksType@@8 0309d05c     MQ2Commands.obj
 0002:0001b078       ??_R4MQ2BoolType@@6B@      0309d078     MQ2DataTypes.obj
 0002:0001b08c       ??_R3MQ2BoolType@@8        0309d08c     MQ2DataTypes.obj
 0002:0001b09c       ??_R2MQ2BoolType@@8        0309d09c     MQ2DataTypes.obj
 0002:0001b0a8       ??_R1A@?0A@EA@MQ2BoolType@@8 0309d0a8     MQ2DataTypes.obj
 0002:0001b0c4       ??_R4MQ2IntType@@6B@       0309d0c4     MQ2DataTypes.obj
 0002:0001b0d8       ??_R3MQ2IntType@@8         0309d0d8     MQ2DataTypes.obj
 0002:0001b0e8       ??_R2MQ2IntType@@8         0309d0e8     MQ2DataTypes.obj
 0002:0001b0f4       ??_R1A@?0A@EA@MQ2IntType@@8 0309d0f4     MQ2DataTypes.obj
 0002:0001b110       ??_R4MQ2ArgbType@@6B@      0309d110     MQ2DataTypes.obj
 0002:0001b124       ??_R3MQ2ArgbType@@8        0309d124     MQ2DataTypes.obj
 0002:0001b134       ??_R2MQ2ArgbType@@8        0309d134     MQ2DataTypes.obj
 0002:0001b140       ??_R1A@?0A@EA@MQ2ArgbType@@8 0309d140     MQ2DataTypes.obj
 0002:0001b15c       ??_R4MQ2ByteType@@6B@      0309d15c     MQ2DataTypes.obj
 0002:0001b170       ??_R3MQ2ByteType@@8        0309d170     MQ2DataTypes.obj
 0002:0001b180       ??_R2MQ2ByteType@@8        0309d180     MQ2DataTypes.obj
 0002:0001b18c       ??_R1A@?0A@EA@MQ2ByteType@@8 0309d18c     MQ2DataTypes.obj
 0002:0001b1a8       ??_R4MQ2StringType@@6B@    0309d1a8     MQ2DataTypes.obj
 0002:0001b1bc       ??_R3MQ2StringType@@8      0309d1bc     MQ2DataTypes.obj
 0002:0001b1cc       ??_R2MQ2StringType@@8      0309d1cc     MQ2DataTypes.obj
 0002:0001b1d8       ??_R1A@?0A@EA@MQ2StringType@@8 0309d1d8     MQ2DataTypes.obj
 0002:0001b1f4       ??_R4MQ2FloatType@@6B@     0309d1f4     MQ2DataTypes.obj
 0002:0001b208       ??_R3MQ2FloatType@@8       0309d208     MQ2DataTypes.obj
 0002:0001b218       ??_R2MQ2FloatType@@8       0309d218     MQ2DataTypes.obj
 0002:0001b224       ??_R1A@?0A@EA@MQ2FloatType@@8 0309d224     MQ2DataTypes.obj
 0002:0001b240       ??_R4MQ2SpawnType@@6B@     0309d240     MQ2DataTypes.obj
 0002:0001b254       ??_R3MQ2SpawnType@@8       0309d254     MQ2DataTypes.obj
 0002:0001b264       ??_R2MQ2SpawnType@@8       0309d264     MQ2DataTypes.obj
 0002:0001b270       ??_R1A@?0A@EA@MQ2SpawnType@@8 0309d270     MQ2DataTypes.obj
 0002:0001b28c       ??_R4MQ2CharacterType@@6B@ 0309d28c     MQ2DataTypes.obj
 0002:0001b2a0       ??_R3MQ2CharacterType@@8   0309d2a0     MQ2DataTypes.obj
 0002:0001b2b0       ??_R2MQ2CharacterType@@8   0309d2b0     MQ2DataTypes.obj
 0002:0001b2bc       ??_R1A@?0A@EA@MQ2CharacterType@@8 0309d2bc     MQ2DataTypes.obj
 0002:0001b2d8       ??_R4MQ2SpellType@@6B@     0309d2d8     MQ2DataTypes.obj
 0002:0001b2ec       ??_R3MQ2SpellType@@8       0309d2ec     MQ2DataTypes.obj
 0002:0001b2fc       ??_R2MQ2SpellType@@8       0309d2fc     MQ2DataTypes.obj
 0002:0001b308       ??_R1A@?0A@EA@MQ2SpellType@@8 0309d308     MQ2DataTypes.obj
 0002:0001b324       ??_R4MQ2BuffType@@6B@      0309d324     MQ2DataTypes.obj
 0002:0001b338       ??_R3MQ2BuffType@@8        0309d338     MQ2DataTypes.obj
 0002:0001b348       ??_R2MQ2BuffType@@8        0309d348     MQ2DataTypes.obj
 0002:0001b354       ??_R1A@?0A@EA@MQ2BuffType@@8 0309d354     MQ2DataTypes.obj
 0002:0001b370       ??_R4MQ2ItemType@@6B@      0309d370     MQ2DataTypes.obj
 0002:0001b384       ??_R3MQ2ItemType@@8        0309d384     MQ2DataTypes.obj
 0002:0001b394       ??_R2MQ2ItemType@@8        0309d394     MQ2DataTypes.obj
 0002:0001b3a0       ??_R1A@?0A@EA@MQ2ItemType@@8 0309d3a0     MQ2DataTypes.obj
 0002:0001b3bc       ??_R4MQ2SwitchType@@6B@    0309d3bc     MQ2DataTypes.obj
 0002:0001b3d0       ??_R3MQ2SwitchType@@8      0309d3d0     MQ2DataTypes.obj
 0002:0001b3e0       ??_R2MQ2SwitchType@@8      0309d3e0     MQ2DataTypes.obj
 0002:0001b3ec       ??_R1A@?0A@EA@MQ2SwitchType@@8 0309d3ec     MQ2DataTypes.obj
 0002:0001b408       ??_R4MQ2GroundType@@6B@    0309d408     MQ2DataTypes.obj
 0002:0001b41c       ??_R3MQ2GroundType@@8      0309d41c     MQ2DataTypes.obj
 0002:0001b42c       ??_R2MQ2GroundType@@8      0309d42c     MQ2DataTypes.obj
 0002:0001b438       ??_R1A@?0A@EA@MQ2GroundType@@8 0309d438     MQ2DataTypes.obj
 0002:0001b454       ??_R4MQ2CorpseType@@6B@    0309d454     MQ2DataTypes.obj
 0002:0001b468       ??_R3MQ2CorpseType@@8      0309d468     MQ2DataTypes.obj
 0002:0001b478       ??_R2MQ2CorpseType@@8      0309d478     MQ2DataTypes.obj
 0002:0001b484       ??_R1A@?0A@EA@MQ2CorpseType@@8 0309d484     MQ2DataTypes.obj
 0002:0001b4a0       ??_R4MQ2MerchantType@@6B@  0309d4a0     MQ2DataTypes.obj
 0002:0001b4b4       ??_R3MQ2MerchantType@@8    0309d4b4     MQ2DataTypes.obj
 0002:0001b4c4       ??_R2MQ2MerchantType@@8    0309d4c4     MQ2DataTypes.obj
 0002:0001b4d0       ??_R1A@?0A@EA@MQ2MerchantType@@8 0309d4d0     MQ2DataTypes.obj
 0002:0001b4ec       ??_R4MQ2WindowType@@6B@    0309d4ec     MQ2DataTypes.obj
 0002:0001b500       ??_R3MQ2WindowType@@8      0309d500     MQ2DataTypes.obj
 0002:0001b510       ??_R2MQ2WindowType@@8      0309d510     MQ2DataTypes.obj
 0002:0001b51c       ??_R1A@?0A@EA@MQ2WindowType@@8 0309d51c     MQ2DataTypes.obj
 0002:0001b538       ??_R4MQ2MacroType@@6B@     0309d538     MQ2DataTypes.obj
 0002:0001b54c       ??_R3MQ2MacroType@@8       0309d54c     MQ2DataTypes.obj
 0002:0001b55c       ??_R2MQ2MacroType@@8       0309d55c     MQ2DataTypes.obj
 0002:0001b568       ??_R1A@?0A@EA@MQ2MacroType@@8 0309d568     MQ2DataTypes.obj
 0002:0001b584       ??_R4MQ2ZoneType@@6B@      0309d584     MQ2DataTypes.obj
 0002:0001b598       ??_R3MQ2ZoneType@@8        0309d598     MQ2DataTypes.obj
 0002:0001b5a8       ??_R2MQ2ZoneType@@8        0309d5a8     MQ2DataTypes.obj
 0002:0001b5b4       ??_R1A@?0A@EA@MQ2ZoneType@@8 0309d5b4     MQ2DataTypes.obj
 0002:0001b5d0       ??_R4MQ2CurrentZoneType@@6B@ 0309d5d0     MQ2DataTypes.obj
 0002:0001b5e4       ??_R3MQ2CurrentZoneType@@8 0309d5e4     MQ2DataTypes.obj
 0002:0001b5f4       ??_R2MQ2CurrentZoneType@@8 0309d5f4     MQ2DataTypes.obj
 0002:0001b600       ??_R1A@?0A@EA@MQ2CurrentZoneType@@8 0309d600     MQ2DataTypes.obj
 0002:0001b61c       ??_R4MQ2MacroQuestType@@6B@ 0309d61c     MQ2DataTypes.obj
 0002:0001b630       ??_R3MQ2MacroQuestType@@8  0309d630     MQ2DataTypes.obj
 0002:0001b640       ??_R2MQ2MacroQuestType@@8  0309d640     MQ2DataTypes.obj
 0002:0001b64c       ??_R1A@?0A@EA@MQ2MacroQuestType@@8 0309d64c     MQ2DataTypes.obj
 0002:0001b668       ??_R4MQ2MathType@@6B@      0309d668     MQ2DataTypes.obj
 0002:0001b67c       ??_R3MQ2MathType@@8        0309d67c     MQ2DataTypes.obj
 0002:0001b68c       ??_R2MQ2MathType@@8        0309d68c     MQ2DataTypes.obj
 0002:0001b698       ??_R1A@?0A@EA@MQ2MathType@@8 0309d698     MQ2DataTypes.obj
 0002:0001b6b4       ??_R4MQ2RaceType@@6B@      0309d6b4     MQ2DataTypes.obj
 0002:0001b6c8       ??_R3MQ2RaceType@@8        0309d6c8     MQ2DataTypes.obj
 0002:0001b6d8       ??_R2MQ2RaceType@@8        0309d6d8     MQ2DataTypes.obj
 0002:0001b6e4       ??_R1A@?0A@EA@MQ2RaceType@@8 0309d6e4     MQ2DataTypes.obj
 0002:0001b700       ??_R4MQ2ClassType@@6B@     0309d700     MQ2DataTypes.obj
 0002:0001b714       ??_R3MQ2ClassType@@8       0309d714     MQ2DataTypes.obj
 0002:0001b724       ??_R2MQ2ClassType@@8       0309d724     MQ2DataTypes.obj
 0002:0001b730       ??_R1A@?0A@EA@MQ2ClassType@@8 0309d730     MQ2DataTypes.obj
 0002:0001b74c       ??_R4MQ2BodyType@@6B@      0309d74c     MQ2DataTypes.obj
 0002:0001b760       ??_R3MQ2BodyType@@8        0309d760     MQ2DataTypes.obj
 0002:0001b770       ??_R2MQ2BodyType@@8        0309d770     MQ2DataTypes.obj
 0002:0001b77c       ??_R1A@?0A@EA@MQ2BodyType@@8 0309d77c     MQ2DataTypes.obj
 0002:0001b798       ??_R4MQ2DeityType@@6B@     0309d798     MQ2DataTypes.obj
 0002:0001b7ac       ??_R3MQ2DeityType@@8       0309d7ac     MQ2DataTypes.obj
 0002:0001b7bc       ??_R2MQ2DeityType@@8       0309d7bc     MQ2DataTypes.obj
 0002:0001b7c8       ??_R1A@?0A@EA@MQ2DeityType@@8 0309d7c8     MQ2DataTypes.obj
 0002:0001b7e4       ??_R4MQ2TimeType@@6B@      0309d7e4     MQ2DataTypes.obj
 0002:0001b7f8       ??_R3MQ2TimeType@@8        0309d7f8     MQ2DataTypes.obj
 0002:0001b808       ??_R2MQ2TimeType@@8        0309d808     MQ2DataTypes.obj
 0002:0001b814       ??_R1A@?0A@EA@MQ2TimeType@@8 0309d814     MQ2DataTypes.obj
 0002:0001b830       ??_R4MQ2TypeType@@6B@      0309d830     MQ2DataTypes.obj
 0002:0001b844       ??_R3MQ2TypeType@@8        0309d844     MQ2DataTypes.obj
 0002:0001b854       ??_R2MQ2TypeType@@8        0309d854     MQ2DataTypes.obj
 0002:0001b860       ??_R1A@?0A@EA@MQ2TypeType@@8 0309d860     MQ2DataTypes.obj
 0002:0001b87c       ??_R4MQ2HeadingType@@6B@   0309d87c     MQ2DataTypes.obj
 0002:0001b890       ??_R3MQ2HeadingType@@8     0309d890     MQ2DataTypes.obj
 0002:0001b8a0       ??_R2MQ2HeadingType@@8     0309d8a0     MQ2DataTypes.obj
 0002:0001b8ac       ??_R1A@?0A@EA@MQ2HeadingType@@8 0309d8ac     MQ2DataTypes.obj
 0002:0001b8c8       ??_R4MQ2InvSlotType@@6B@   0309d8c8     MQ2DataTypes.obj
 0002:0001b8dc       ??_R3MQ2InvSlotType@@8     0309d8dc     MQ2DataTypes.obj
 0002:0001b8ec       ??_R2MQ2InvSlotType@@8     0309d8ec     MQ2DataTypes.obj
 0002:0001b8f8       ??_R1A@?0A@EA@MQ2InvSlotType@@8 0309d8f8     MQ2DataTypes.obj
 0002:0001b914       ??_R4MQ2PluginType@@6B@    0309d914     MQ2DataTypes.obj
 0002:0001b928       ??_R3MQ2PluginType@@8      0309d928     MQ2DataTypes.obj
 0002:0001b938       ??_R2MQ2PluginType@@8      0309d938     MQ2DataTypes.obj
 0002:0001b944       ??_R1A@?0A@EA@MQ2PluginType@@8 0309d944     MQ2DataTypes.obj
 0002:0001b960       ??_R4MQ2SkillType@@6B@     0309d960     MQ2DataTypes.obj
 0002:0001b974       ??_R3MQ2SkillType@@8       0309d974     MQ2DataTypes.obj
 0002:0001b984       ??_R2MQ2SkillType@@8       0309d984     MQ2DataTypes.obj
 0002:0001b990       ??_R1A@?0A@EA@MQ2SkillType@@8 0309d990     MQ2DataTypes.obj
 0002:0001b9ac       ??_R4MQ2AltAbilityType@@6B@ 0309d9ac     MQ2DataTypes.obj
 0002:0001b9c0       ??_R3MQ2AltAbilityType@@8  0309d9c0     MQ2DataTypes.obj
 0002:0001b9d0       ??_R2MQ2AltAbilityType@@8  0309d9d0     MQ2DataTypes.obj
 0002:0001b9dc       ??_R1A@?0A@EA@MQ2AltAbilityType@@8 0309d9dc     MQ2DataTypes.obj
 0002:0001b9f8       ??_R4MQ2TimerType@@6B@     0309d9f8     MQ2DataTypes.obj
 0002:0001ba0c       ??_R3MQ2TimerType@@8       0309da0c     MQ2DataTypes.obj
 0002:0001ba1c       ??_R2MQ2TimerType@@8       0309da1c     MQ2DataTypes.obj
 0002:0001ba28       ??_R1A@?0A@EA@MQ2TimerType@@8 0309da28     MQ2DataTypes.obj
 0002:0001ba44       ??_R4MQ2ArrayType@@6B@     0309da44     MQ2DataTypes.obj
 0002:0001ba58       ??_R3MQ2ArrayType@@8       0309da58     MQ2DataTypes.obj
 0002:0001ba68       ??_R2MQ2ArrayType@@8       0309da68     MQ2DataTypes.obj
 0002:0001ba74       ??_R1A@?0A@EA@MQ2ArrayType@@8 0309da74     MQ2DataTypes.obj
 0002:0001ba90       ??_R4MQ2GroupType@@6B@     0309da90     MQ2DataTypes.obj
 0002:0001baa4       ??_R3MQ2GroupType@@8       0309daa4     MQ2DataTypes.obj
 0002:0001bab4       ??_R2MQ2GroupType@@8       0309dab4     MQ2DataTypes.obj
 0002:0001bac0       ??_R1A@?0A@EA@MQ2GroupType@@8 0309dac0     MQ2DataTypes.obj
 0002:0001badc       ??_R4MQ2GroupMemberType@@6B@ 0309dadc     MQ2DataTypes.obj
 0002:0001baf0       ??_R3MQ2GroupMemberType@@8 0309daf0     MQ2DataTypes.obj
 0002:0001bb00       ??_R2MQ2GroupMemberType@@8 0309db00     MQ2DataTypes.obj
 0002:0001bb0c       ??_R1A@?0A@EA@MQ2GroupMemberType@@8 0309db0c     MQ2DataTypes.obj
 0002:0001bb28       ??_R4MQ2RaidType@@6B@      0309db28     MQ2DataTypes.obj
 0002:0001bb3c       ??_R3MQ2RaidType@@8        0309db3c     MQ2DataTypes.obj
 0002:0001bb4c       ??_R2MQ2RaidType@@8        0309db4c     MQ2DataTypes.obj
 0002:0001bb58       ??_R1A@?0A@EA@MQ2RaidType@@8 0309db58     MQ2DataTypes.obj
 0002:0001bb74       ??_R4MQ2RaidMemberType@@6B@ 0309db74     MQ2DataTypes.obj
 0002:0001bb88       ??_R3MQ2RaidMemberType@@8  0309db88     MQ2DataTypes.obj
 0002:0001bb98       ??_R2MQ2RaidMemberType@@8  0309db98     MQ2DataTypes.obj
 0002:0001bba4       ??_R1A@?0A@EA@MQ2RaidMemberType@@8 0309dba4     MQ2DataTypes.obj
 0002:0001bbc0       ??_R4MQ2EvolvingItemType@@6B@ 0309dbc0     MQ2DataTypes.obj
 0002:0001bbd4       ??_R3MQ2EvolvingItemType@@8 0309dbd4     MQ2DataTypes.obj
 0002:0001bbe4       ??_R2MQ2EvolvingItemType@@8 0309dbe4     MQ2DataTypes.obj
 0002:0001bbf0       ??_R1A@?0A@EA@MQ2EvolvingItemType@@8 0309dbf0     MQ2DataTypes.obj
 0002:0001bc0c       ??_R4MQ2DynamicZoneType@@6B@ 0309dc0c     MQ2DataTypes.obj
 0002:0001bc20       ??_R3MQ2DynamicZoneType@@8 0309dc20     MQ2DataTypes.obj
 0002:0001bc30       ??_R2MQ2DynamicZoneType@@8 0309dc30     MQ2DataTypes.obj
 0002:0001bc3c       ??_R1A@?0A@EA@MQ2DynamicZoneType@@8 0309dc3c     MQ2DataTypes.obj
 0002:0001bc58       ??_R4MQ2DZMemberType@@6B@  0309dc58     MQ2DataTypes.obj
 0002:0001bc6c       ??_R3MQ2DZMemberType@@8    0309dc6c     MQ2DataTypes.obj
 0002:0001bc7c       ??_R2MQ2DZMemberType@@8    0309dc7c     MQ2DataTypes.obj
 0002:0001bc88       ??_R1A@?0A@EA@MQ2DZMemberType@@8 0309dc88     MQ2DataTypes.obj
 0002:0001bca4       ??_R4MQ2FellowshipType@@6B@ 0309dca4     MQ2DataTypes.obj
 0002:0001bcb8       ??_R3MQ2FellowshipType@@8  0309dcb8     MQ2DataTypes.obj
 0002:0001bcc8       ??_R2MQ2FellowshipType@@8  0309dcc8     MQ2DataTypes.obj
 0002:0001bcd4       ??_R1A@?0A@EA@MQ2FellowshipType@@8 0309dcd4     MQ2DataTypes.obj
 0002:0001bcf0       ??_R4MQ2FellowshipMemberType@@6B@ 0309dcf0     MQ2DataTypes.obj
 0002:0001bd04       ??_R3MQ2FellowshipMemberType@@8 0309dd04     MQ2DataTypes.obj
 0002:0001bd14       ??_R2MQ2FellowshipMemberType@@8 0309dd14     MQ2DataTypes.obj
 0002:0001bd20       ??_R1A@?0A@EA@MQ2FellowshipMemberType@@8 0309dd20     MQ2DataTypes.obj
 0002:0001bd3c       ??_R4MQ2FriendsType@@6B@   0309dd3c     MQ2DataTypes.obj
 0002:0001bd50       ??_R3MQ2FriendsType@@8     0309dd50     MQ2DataTypes.obj
 0002:0001bd60       ??_R2MQ2FriendsType@@8     0309dd60     MQ2DataTypes.obj
 0002:0001bd6c       ??_R1A@?0A@EA@MQ2FriendsType@@8 0309dd6c     MQ2DataTypes.obj
 0002:0001bd88       ??_R4MQ2TargetType@@6B@    0309dd88     MQ2DataTypes.obj
 0002:0001bd9c       ??_R3MQ2TargetType@@8      0309dd9c     MQ2DataTypes.obj
 0002:0001bdac       ??_R2MQ2TargetType@@8      0309ddac     MQ2DataTypes.obj
 0002:0001bdb8       ??_R1A@?0A@EA@MQ2TargetType@@8 0309ddb8     MQ2DataTypes.obj
 0002:0001bdd4       ??_R4invalid_argument@std@@6B@ 0309ddd4     libcpmt:string.obj
 0002:0001bde8       ??_R3invalid_argument@std@@8 0309dde8     libcpmt:string.obj
 0002:0001bdf8       ??_R2invalid_argument@std@@8 0309ddf8     libcpmt:string.obj
 0002:0001be08       ??_R1A@?0A@EA@invalid_argument@std@@8 0309de08     libcpmt:string.obj
 0002:0001be24       ??_R4exception@std@@6B@    0309de24     LIBCMT:stdexcpt.obj
 0002:0001be38       ??_R4bad_cast@std@@6B@     0309de38     LIBCMT:stdexcpt.obj
 0002:0001be4c       ??_R3bad_cast@std@@8       0309de4c     LIBCMT:stdexcpt.obj
 0002:0001be5c       ??_R2bad_cast@std@@8       0309de5c     LIBCMT:stdexcpt.obj
 0002:0001be68       ??_R1A@?0A@EA@bad_cast@std@@8 0309de68     LIBCMT:stdexcpt.obj
 0002:0001be84       ??_R4bad_typeid@std@@6B@   0309de84     LIBCMT:stdexcpt.obj
 0002:0001be98       ??_R3bad_typeid@std@@8     0309de98     LIBCMT:stdexcpt.obj
 0002:0001bea8       ??_R2bad_typeid@std@@8     0309dea8     LIBCMT:stdexcpt.obj
 0002:0001beb4       ??_R1A@?0A@EA@bad_typeid@std@@8 0309deb4     LIBCMT:stdexcpt.obj
 0002:0001bed0       ??_R4__non_rtti_object@std@@6B@ 0309ded0     LIBCMT:stdexcpt.obj
 0002:0001bee4       ??_R3__non_rtti_object@std@@8 0309dee4     LIBCMT:stdexcpt.obj
 0002:0001bef4       ??_R2__non_rtti_object@std@@8 0309def4     LIBCMT:stdexcpt.obj
 0002:0001bf04       ??_R1A@?0A@EA@__non_rtti_object@std@@8 0309df04     LIBCMT:stdexcpt.obj
 0002:0001bf20       ??_R4type_info@@6B@        0309df20     LIBCMT:typinfo.obj
 0002:0001bf34       ??_R3type_info@@8          0309df34     LIBCMT:typinfo.obj
 0002:0001bf44       ??_R2type_info@@8          0309df44     LIBCMT:typinfo.obj
 0002:0001bf4c       ??_R1A@?0A@EA@type_info@@8 0309df4c     LIBCMT:typinfo.obj
 0002:0001bf68       ??_R4bad_exception@std@@6B@ 0309df68     LIBCMT:frame.obj
 0002:0001bf7c       ??_R3bad_exception@std@@8  0309df7c     LIBCMT:frame.obj
 0002:0001bf8c       ??_R2bad_exception@std@@8  0309df8c     LIBCMT:frame.obj
 0002:0001bf98       ??_R1A@?0A@EA@bad_exception@std@@8 0309df98     LIBCMT:frame.obj
 0002:0001bfc0       ___safe_se_handler_table   0309dfc0     <linker-defined>
 0002:0001c010       ___rtc_iaa                 0309e010     LIBCMT:_initsect_.obj
 0002:0001c014       ___rtc_izz                 0309e014     LIBCMT:_initsect_.obj
 0002:0001c018       ___rtc_taa                 0309e018     LIBCMT:_initsect_.obj
 0002:0001c01c       ___rtc_tzz                 0309e01c     LIBCMT:_initsect_.obj
 0002:0001c020       __TI2?AVbad_alloc@std@@    0309e020     MQ2ChatHook.obj
 0002:0001c030       __CTA2?AVbad_alloc@std@@   0309e030     MQ2ChatHook.obj
 0002:0001c03c       __CT??_R0?AVbad_alloc@std@@@8??0bad_alloc@std@@QAE@ABV01@@Z12 0309e03c     MQ2ChatHook.obj
 0002:0001c058       __CT??_R0?AVexception@std@@@8??0exception@std@@QAE@ABV01@@Z12 0309e058     MQ2ChatHook.obj
 0002:0001c158       __TI3?AVout_of_range@std@@ 0309e158     MQ2ChatHook.obj
 0002:0001c168       __CTA3?AVout_of_range@std@@ 0309e168     MQ2ChatHook.obj
 0002:0001c178       __CT??_R0?AVout_of_range@std@@@8??0out_of_range@std@@QAE@ABV01@@Z40 0309e178     MQ2ChatHook.obj
 0002:0001c194       __CT??_R0?AVlogic_error@std@@@8??0logic_error@std@@QAE@ABV01@@Z40 0309e194     MQ2ChatHook.obj
 0002:0001c260       __TI3?AVlength_error@std@@ 0309e260     MQ2Commands.obj
 0002:0001c270       __CTA3?AVlength_error@std@@ 0309e270     MQ2Commands.obj
 0002:0001c280       __CT??_R0?AVlength_error@std@@@8??0length_error@std@@QAE@ABV01@@Z40 0309e280     MQ2Commands.obj
 0002:0001c504       __TI3?AVinvalid_argument@std@@ 0309e504     libcpmt:string.obj
 0002:0001c540       __CTA3?AVinvalid_argument@std@@ 0309e540     libcpmt:string.obj
 0002:0001c550       __CT??_R0?AVinvalid_argument@std@@@8??0invalid_argument@std@@QAE@ABV01@@Z40 0309e550     libcpmt:string.obj
 0002:0001c984       __TI2?AVbad_exception@std@@ 0309e984     LIBCMT:frame.obj
 0002:0001c994       __CTA2?AVbad_exception@std@@ 0309e994     LIBCMT:frame.obj
 0002:0001c9a0       __CT??_R0?AVbad_exception@std@@@8??0bad_exception@std@@QAE@ABV01@@Z12 0309e9a0     LIBCMT:frame.obj
 0002:0001d054       __IMPORT_DESCRIPTOR_WINMM  0309f054     winmm:WINMM.dll
 0002:0001d068       __IMPORT_DESCRIPTOR_KERNEL32 0309f068     kernel32:KERNEL32.dll
 0002:0001d07c       __IMPORT_DESCRIPTOR_USER32 0309f07c     user32:USER32.dll
 0002:0001d090       __IMPORT_DESCRIPTOR_SHELL32 0309f090     shell32:SHELL32.dll
 0002:0001d0a4       __NULL_IMPORT_DESCRIPTOR   0309f0a4     winmm:WINMM.dll
 0003:00000460       ??_R0?AVbad_alloc@std@@@8  030a9460     MQ2ChatHook.obj
 0003:0000047c       ??_R0?AVexception@std@@@8  030a947c     MQ2ChatHook.obj
 0003:00000498       ??_R0?AVlogic_error@std@@@8 030a9498     MQ2ChatHook.obj
 0003:000004b8       ??_R0?AVout_of_range@std@@@8 030a94b8     MQ2ChatHook.obj
 0003:000004dc       ?OurCaption@@3PADA         030a94dc     MQ2CleanUI.obj
 0003:00000820       ?keyarray@@3PAHA           030a9820     MQ2Commands.obj
 0003:00000880       ??_R0?AVlength_error@std@@@8 030a9880     MQ2Commands.obj
 0003:000008a0       ??_R0?AVMQ2Type@MQ2Internal@@@8 030a98a0     MQ2Commands.obj
 0003:000008c4       ??_R0?AVMQ2TicksType@@@8   030a98c4     MQ2Commands.obj
 0003:00000c28       ??_R0?AVMQ2BoolType@@@8    030a9c28     MQ2DataTypes.obj
 0003:00000c44       ??_R0?AVMQ2IntType@@@8     030a9c44     MQ2DataTypes.obj
 0003:00000c60       ??_R0?AVMQ2ArgbType@@@8    030a9c60     MQ2DataTypes.obj
 0003:00000c7c       ??_R0?AVMQ2ByteType@@@8    030a9c7c     MQ2DataTypes.obj
 0003:00000c98       ??_R0?AVMQ2StringType@@@8  030a9c98     MQ2DataTypes.obj
 0003:00000cb4       ??_R0?AVMQ2FloatType@@@8   030a9cb4     MQ2DataTypes.obj
 0003:00000cd0       ??_R0?AVMQ2SpawnType@@@8   030a9cd0     MQ2DataTypes.obj
 0003:00000cec       ??_R0?AVMQ2CharacterType@@@8 030a9cec     MQ2DataTypes.obj
 0003:00000d0c       ??_R0?AVMQ2SpellType@@@8   030a9d0c     MQ2DataTypes.obj
 0003:00000d28       ??_R0?AVMQ2BuffType@@@8    030a9d28     MQ2DataTypes.obj
 0003:00000d44       ??_R0?AVMQ2ItemType@@@8    030a9d44     MQ2DataTypes.obj
 0003:00000d60       ??_R0?AVMQ2SwitchType@@@8  030a9d60     MQ2DataTypes.obj
 0003:00000d7c       ??_R0?AVMQ2GroundType@@@8  030a9d7c     MQ2DataTypes.obj
 0003:00000d98       ??_R0?AVMQ2CorpseType@@@8  030a9d98     MQ2DataTypes.obj
 0003:00000db4       ??_R0?AVMQ2MerchantType@@@8 030a9db4     MQ2DataTypes.obj
 0003:00000dd4       ??_R0?AVMQ2WindowType@@@8  030a9dd4     MQ2DataTypes.obj
 0003:00000df0       ??_R0?AVMQ2MacroType@@@8   030a9df0     MQ2DataTypes.obj
 0003:00000e0c       ??_R0?AVMQ2ZoneType@@@8    030a9e0c     MQ2DataTypes.obj
 0003:00000e28       ??_R0?AVMQ2CurrentZoneType@@@8 030a9e28     MQ2DataTypes.obj
 0003:00000e4c       ??_R0?AVMQ2MacroQuestType@@@8 030a9e4c     MQ2DataTypes.obj
 0003:00000e6c       ??_R0?AVMQ2MathType@@@8    030a9e6c     MQ2DataTypes.obj
 0003:00000e88       ??_R0?AVMQ2RaceType@@@8    030a9e88     MQ2DataTypes.obj
 0003:00000ea4       ??_R0?AVMQ2ClassType@@@8   030a9ea4     MQ2DataTypes.obj
 0003:00000ec0       ??_R0?AVMQ2BodyType@@@8    030a9ec0     MQ2DataTypes.obj
 0003:00000edc       ??_R0?AVMQ2DeityType@@@8   030a9edc     MQ2DataTypes.obj
 0003:00000ef8       ??_R0?AVMQ2TimeType@@@8    030a9ef8     MQ2DataTypes.obj
 0003:00000f14       ??_R0?AVMQ2TypeType@@@8    030a9f14     MQ2DataTypes.obj
 0003:00000f30       ??_R0?AVMQ2HeadingType@@@8 030a9f30     MQ2DataTypes.obj
 0003:00000f50       ??_R0?AVMQ2InvSlotType@@@8 030a9f50     MQ2DataTypes.obj
 0003:00000f70       ??_R0?AVMQ2PluginType@@@8  030a9f70     MQ2DataTypes.obj
 0003:00000f8c       ??_R0?AVMQ2SkillType@@@8   030a9f8c     MQ2DataTypes.obj
 0003:00000fa8       ??_R0?AVMQ2AltAbilityType@@@8 030a9fa8     MQ2DataTypes.obj
 0003:00000fc8       ??_R0?AVMQ2TimerType@@@8   030a9fc8     MQ2DataTypes.obj
 0003:00000fe4       ??_R0?AVMQ2ArrayType@@@8   030a9fe4     MQ2DataTypes.obj
 0003:00001000       ??_R0?AVMQ2GroupType@@@8   030aa000     MQ2DataTypes.obj
 0003:0000101c       ??_R0?AVMQ2GroupMemberType@@@8 030aa01c     MQ2DataTypes.obj
 0003:00001040       ??_R0?AVMQ2RaidType@@@8    030aa040     MQ2DataTypes.obj
 0003:0000105c       ??_R0?AVMQ2RaidMemberType@@@8 030aa05c     MQ2DataTypes.obj
 0003:0000107c       ??_R0?AVMQ2EvolvingItemType@@@8 030aa07c     MQ2DataTypes.obj
 0003:000010a0       ??_R0?AVMQ2DynamicZoneType@@@8 030aa0a0     MQ2DataTypes.obj
 0003:000010c4       ??_R0?AVMQ2DZMemberType@@@8 030aa0c4     MQ2DataTypes.obj
 0003:000010e4       ??_R0?AVMQ2FellowshipType@@@8 030aa0e4     MQ2DataTypes.obj
 0003:00001104       ??_R0?AVMQ2FellowshipMemberType@@@8 030aa104     MQ2DataTypes.obj
 0003:0000112c       ??_R0?AVMQ2FriendsType@@@8 030aa12c     MQ2DataTypes.obj
 0003:0000114c       ??_R0?AVMQ2TargetType@@@8  030aa14c     MQ2DataTypes.obj
 0003:000014b4       _gMaxSpawnCaptions         030aa4b4     MQ2Globals.obj
 0003:000015c8       _ActorDefList              030aa5c8     MQ2Globals.obj
 0003:00002b1c       _gszVersion                030abb1c     MQ2Globals.obj
 0003:00002b3c       _gMQCaptions               030abb3c     MQ2Globals.obj
 0003:00002b40       _gZFilter                  030abb40     MQ2Globals.obj
 0003:00002b48       _gFaceAngle                030abb48     MQ2Globals.obj
 0003:00002b50       _gLookAngle                030abb50     MQ2Globals.obj
 0003:00002b58       _gszSpawnPlayerName        030abb58     MQ2Globals.obj
 0003:00005358       _gszSpawnNPCName           030ae358     MQ2Globals.obj
 0003:00005b58       _gszSpawnPetName           030aeb58     MQ2Globals.obj
 0003:00006358       _gszSpawnCorpseName        030af358     MQ2Globals.obj
 0003:00006b58       _gMaxTurbo                 030afb58     MQ2Globals.obj
 0003:00006b5c       _gReturn                   030afb5c     MQ2Globals.obj
 0003:00006b60       _WereWeZoning              030afb60     MQ2Globals.obj
 0003:00006b64       _gFilterCustom             030afb64     MQ2Globals.obj
 0003:00006b68       _DegToRad                  030afb68     MQ2Globals.obj
 0003:00006b70       _PI                        030afb70     MQ2Globals.obj
 0003:00006b78       _bAllowCommandParse        030afb78     MQ2Globals.obj
 0003:00006b7c       _bDetMouse                 030afb7c     MQ2Globals.obj
 0003:00006b80       _pGuildList                030afb80     MQ2Globals.obj
 0003:00006b84       _pSocialList               030afb84     MQ2Globals.obj
 0003:00006b88       _pgHotkeyPage              030afb88     MQ2Globals.obj
 0003:00006b8c       _pgCurrentSocial           030afb8c     MQ2Globals.obj
 0003:00006b90       _NewUIINI                  030afb90     MQ2Globals.obj
 0003:00006b94       _ProcessGameEvents         030afb94     MQ2Globals.obj
 0003:00006b98       _ExecuteCmd                030afb98     MQ2Globals.obj
 0003:00006b9c       _get_melee_range           030afb9c     MQ2Globals.obj
 0003:00006ba0       _GetLabelFromEQ            030afba0     MQ2Globals.obj
 0003:00006ba4       _ppSkillMgr                030afba4     MQ2Globals.obj
 0003:00006ba8       _EQADDR_HWND               030afba8     MQ2Globals.obj
 0003:00006bac       _EQADDR_MEMCHECK0          030afbac     MQ2Globals.obj
 0003:00006bb0       _EQADDR_MEMCHECK1          030afbb0     MQ2Globals.obj
 0003:00006bb4       _EQADDR_MEMCHECK2          030afbb4     MQ2Globals.obj
 0003:00006bb8       _EQADDR_MEMCHECK3          030afbb8     MQ2Globals.obj
 0003:00006bbc       _EQADDR_MEMCHECK4          030afbbc     MQ2Globals.obj
 0003:00006bc0       _EQADDR_SERVERHOST         030afbc0     MQ2Globals.obj
 0003:00006bc4       _EQADDR_SERVERNAME         030afbc4     MQ2Globals.obj
 0003:00006bc8       _EQADDR_CONVERTITEMTAGS    030afbc8     MQ2Globals.obj
 0003:00006bcc       _EQADDR_CMDLIST            030afbcc     MQ2Globals.obj
 0003:00006bd0       _EQADDR_ATTACK             030afbd0     MQ2Globals.obj
 0003:00006bd4       _EQADDR_NOTINCHATMODE      030afbd4     MQ2Globals.obj
 0003:00006bd8       _EQADDR_RUNWALKSTATE       030afbd8     MQ2Globals.obj
 0003:00006bdc       _EQADDR_LASTTELL           030afbdc     MQ2Globals.obj
 0003:00006be0       _gpbRangedAttackReady      030afbe0     MQ2Globals.obj
 0003:00006be4       _gpbShowNetStatus          030afbe4     MQ2Globals.obj
 0003:00006be8       _gpbAltTimerReady          030afbe8     MQ2Globals.obj
 0003:00006bec       _g_ppDrawHandler           030afbec     MQ2Globals.obj
 0003:00006bf0       _gpShowNames               030afbf0     MQ2Globals.obj
 0003:00006bf4       _gpPCNames                 030afbf4     MQ2Globals.obj
 0003:00006bf8       _pTributeActive            030afbf8     MQ2Globals.obj
 0003:00006bfc       _gpAutoFire                030afbfc     MQ2Globals.obj
 0003:00006c00       _gpShiftKeyDown            030afc00     MQ2Globals.obj
 0003:00006c04       _EQADDR_GWORLD             030afc04     MQ2Globals.obj
 0003:00006c08       _EQADDR_DOABILITYLIST      030afc08     MQ2Globals.obj
 0003:00006c0c       _EQADDR_DOABILITYAVAILABLE 030afc0c     MQ2Globals.obj
 0003:00006c10       _ppCurrentMapLabel         030afc10     MQ2Globals.obj
 0003:00006c14       _EQMappableCommandList     030afc14     MQ2Globals.obj
 0003:00006c18       _EQADDR_ENCRYPTPAD0        030afc18     MQ2Globals.obj
 0003:00006c1c       _EQADDR_ENCRYPTPAD1        030afc1c     MQ2Globals.obj
 0003:00006c20       _EQADDR_ENCRYPTPAD2        030afc20     MQ2Globals.obj
 0003:00006c24       _EQADDR_ENCRYPTPAD3        030afc24     MQ2Globals.obj
 0003:00006c28       _EQADDR_ENCRYPTPAD4        030afc28     MQ2Globals.obj
 0003:00006c2c       _pScreenX                  030afc2c     MQ2Globals.obj
 0003:00006c30       _pScreenY                  030afc30     MQ2Globals.obj
 0003:00006c34       _pScreenXMax               030afc34     MQ2Globals.obj
 0003:00006c38       _pScreenYMax               030afc38     MQ2Globals.obj
 0003:00006c3c       _pScreenMode               030afc3c     MQ2Globals.obj
 0003:00006c40       _pMouseLook                030afc40     MQ2Globals.obj
 0003:00006c44       _EQADDR_MOUSE              030afc44     MQ2Globals.obj
 0003:00006c48       _EQADDR_MOUSECLICK         030afc48     MQ2Globals.obj
 0003:00006c4c       _EQADDR_DIMAIN             030afc4c     MQ2Globals.obj
 0003:00006c50       _EQADDR_DIKEYBOARD         030afc50     MQ2Globals.obj
 0003:00006c54       _EQADDR_DIMOUSE            030afc54     MQ2Globals.obj
 0003:00006c58       _gDiKeyID                  030afc58     MQ2Globals.obj
 0003:00007d58       _szHeading                 030b0d58     MQ2Globals.obj
 0003:00007d98       _szHeadingShort            030b0d98     MQ2Globals.obj
 0003:00007dd8       _szHeadingNormal           030b0dd8     MQ2Globals.obj
 0003:00007e18       _szHeadingNormalShort      030b0e18     MQ2Globals.obj
 0003:00007e58       _szSize                    030b0e58     MQ2Globals.obj
 0003:00007e74       _szSpawnType               030b0e74     MQ2Globals.obj
 0003:00007e8c       _szGuildStatus             030b0e8c     MQ2Globals.obj
 0003:00007e9c       _szGender                  030b0e9c     MQ2Globals.obj
 0003:00007eac       _szDeityTeam               030b0eac     MQ2Globals.obj
 0003:00007ebc       _szLights                  030b0ebc     MQ2Globals.obj
 0003:00007ef4       _LightBrightness           030b0ef4     MQ2Globals.obj
 0003:00007f08       _szSkills                  030b0f08     MQ2Globals.obj
 0003:00008120       _szInnates                 030b1120     MQ2Globals.obj
 0003:00008160       _szCombineTypes            030b1160     MQ2Globals.obj
 0003:00008234       ?szZoneExpansionName@MQ2Globals@@3PAPADA 030b1234     MQ2Globals.obj
 0003:00008258       _szItemTypes               030b1258     MQ2Globals.obj
 0003:00008338       _szItemName4xx             030b1338     MQ2Globals.obj
 0003:00008380       _szItemName                030b1380     MQ2Globals.obj
 0003:00008784       _szDmgBonusType            030b1784     MQ2Globals.obj
 0003:0000879c       _gbHUDUnderUI              030b179c     MQ2Globals.obj
 0003:000087a0       _szBodyType                030b17a0     MQ2Globals.obj
 0003:00008940       _szAugRestrictions         030b1940     MQ2Globals.obj
 0003:00008978       _szItemSlot                030b1978     MQ2Globals.obj
 0003:000089f8       _gbMQ2LoadingMsg           030b19f8     MQ2Globals.obj
 0003:000089fc       _szColorAdjective          030b19fc     MQ2Globals.obj
 0003:00008a10       _szColorAdjectiveYou       030b1a10     MQ2Globals.obj
 0003:00008a50       _szColorExpletive          030b1a50     MQ2Globals.obj
 0003:00008a70       _szColorSyntaxError        030b1a70     MQ2Globals.obj
 0003:00008a7c       _szColorMacroError         030b1a7c     MQ2Globals.obj
 0003:00008a98       _szColorFatalError         030b1a98     MQ2Globals.obj
 0003:00008aa8       _szColorMQ2DataError       030b1aa8     MQ2Globals.obj
 0003:00008ac4       _ppStringTable             030b1ac4     MQ2Globals.obj
 0003:00008ac8       _ppCDBStr                  030b1ac8     MQ2Globals.obj
 0003:00008acc       _pEQMisc                   030b1acc     MQ2Globals.obj
 0003:00008ad0       _ppCSkillMgr               030b1ad0     MQ2Globals.obj
 0003:00008ad4       _pGuild                    030b1ad4     MQ2Globals.obj
 0003:00008ad8       _ppEverQuest               030b1ad8     MQ2Globals.obj
 0003:00008adc       _ppDisplay                 030b1adc     MQ2Globals.obj
 0003:00008ae0       _ppPCData                  030b1ae0     MQ2Globals.obj
 0003:00008ae4       _ppCharData                030b1ae4     MQ2Globals.obj
 0003:00008ae8       _ppCharSpawn               030b1ae8     MQ2Globals.obj
 0003:00008aec       _ppActiveMerchant          030b1aec     MQ2Globals.obj
 0003:00008af0       _ppSpawnManager            030b1af0     MQ2Globals.obj
 0003:00008af4       _ppLocalPlayer             030b1af4     MQ2Globals.obj
 0003:00008af8       _ppControlledPlayer        030b1af8     MQ2Globals.obj
 0003:00008afc       _ppWorldData               030b1afc     MQ2Globals.obj
 0003:00008b00       _ppSpellMgr                030b1b00     MQ2Globals.obj
 0003:00008b04       _ppTarget                  030b1b04     MQ2Globals.obj
 0003:00008b08       _ppSwitchMgr               030b1b08     MQ2Globals.obj
 0003:00008b0c       _ppItemList                030b1b0c     MQ2Globals.obj
 0003:00008b10       _pSpellSets                030b1b10     MQ2Globals.obj
 0003:00008b14       _pZoneInfo                 030b1b14     MQ2Globals.obj
 0003:00008b18       _ppAltAdvManager           030b1b18     MQ2Globals.obj
 0003:00008b1c       _ppConnection              030b1b1c     MQ2Globals.obj
 0003:00008b20       _ppAuraMgr                 030b1b20     MQ2Globals.obj
 0003:00008b24       _ppEQChatMgr               030b1b24     MQ2Globals.obj
 0003:00008b28       _ppTradeTarget             030b1b28     MQ2Globals.obj
 0003:00008b2c       _ppActiveBanker            030b1b2c     MQ2Globals.obj
 0003:00008b30       _ppActiveGMaster           030b1b30     MQ2Globals.obj
 0003:00008b34       _ppActiveCorpse            030b1b34     MQ2Globals.obj
 0003:00008b38       _ppContextMenuManager      030b1b38     MQ2Globals.obj
 0003:00008b3c       _ppCursorAttachment        030b1b3c     MQ2Globals.obj
 0003:00008b40       _ppSocialEditWnd           030b1b40     MQ2Globals.obj
 0003:00008b44       _ppContainerMgr            030b1b44     MQ2Globals.obj
 0003:00008b48       _ppChatManager             030b1b48     MQ2Globals.obj
 0003:00008b4c       _ppFacePick                030b1b4c     MQ2Globals.obj
 0003:00008b50       _ppInvSlotMgr              030b1b50     MQ2Globals.obj
 0003:00008b54       _ppNoteWnd                 030b1b54     MQ2Globals.obj
 0003:00008b58       ?ppTipWndOFDAY@MQ2Globals@@3PAPAVCTipWnd@EQClasses@@A 030b1b58     MQ2Globals.obj
 0003:00008b5c       ?ppTipWndCONTEXT@MQ2Globals@@3PAPAVCTipWnd@EQClasses@@A 030b1b5c     MQ2Globals.obj
 0003:00008b60       _ppBookWnd                 030b1b60     MQ2Globals.obj
 0003:00008b64       _ppFriendsWnd              030b1b64     MQ2Globals.obj
 0003:00008b68       _ppMusicPlayerWnd          030b1b68     MQ2Globals.obj
 0003:00008b6c       _ppAlarmWnd                030b1b6c     MQ2Globals.obj
 0003:00008b70       _ppLoadskinWnd             030b1b70     MQ2Globals.obj
 0003:00008b74       _ppPetInfoWnd              030b1b74     MQ2Globals.obj
 0003:00008b78       _ppTrainWnd                030b1b78     MQ2Globals.obj
 0003:00008b7c       _ppSkillsWnd               030b1b7c     MQ2Globals.obj
 0003:00008b80       _ppSkillsSelectWnd         030b1b80     MQ2Globals.obj
 0003:00008b84       _ppAAWnd                   030b1b84     MQ2Globals.obj
 0003:00008b88       _ppGroupWnd                030b1b88     MQ2Globals.obj
 0003:00008b8c       _ppGroupSearchWnd          030b1b8c     MQ2Globals.obj
 0003:00008b90       _ppGroupSearchFiltersWnd   030b1b90     MQ2Globals.obj
 0003:00008b94       _ppRaidWnd                 030b1b94     MQ2Globals.obj
 0003:00008b98       _ppRaidOptionsWnd          030b1b98     MQ2Globals.obj
 0003:00008b9c       _ppBreathWnd               030b1b9c     MQ2Globals.obj
 0003:00008ba0       _ppMapToolbarWnd           030b1ba0     MQ2Globals.obj
 0003:00008ba4       _ppMapViewWnd              030b1ba4     MQ2Globals.obj
 0003:00008ba8       _ppEditLabelWnd            030b1ba8     MQ2Globals.obj
 0003:00008bac       _ppOptionsWnd              030b1bac     MQ2Globals.obj
 0003:00008bb0       _ppBuffWindowSHORT         030b1bb0     MQ2Globals.obj
 0003:00008bb4       _ppBuffWindowNORMAL        030b1bb4     MQ2Globals.obj
 0003:00008bb8       _ppTargetWnd               030b1bb8     MQ2Globals.obj
 0003:00008bbc       _ppColorPickerWnd          030b1bbc     MQ2Globals.obj
 0003:00008bc0       _ppHotButtonWnd            030b1bc0     MQ2Globals.obj
 0003:00008bc4       _ppPlayerWnd               030b1bc4     MQ2Globals.obj
 0003:00008bc8       _ppCastingWnd              030b1bc8     MQ2Globals.obj
 0003:00008bcc       _ppCastSpellWnd            030b1bcc     MQ2Globals.obj
 0003:00008bd0       _ppSpellBookWnd            030b1bd0     MQ2Globals.obj
 0003:00008bd4       _ppInventoryWnd            030b1bd4     MQ2Globals.obj
 0003:00008bd8       _ppBankWnd                 030b1bd8     MQ2Globals.obj
 0003:00008bdc       _ppQuantityWnd             030b1bdc     MQ2Globals.obj
 0003:00008be0       _ppTextEntryWnd            030b1be0     MQ2Globals.obj
 0003:00008be4       _ppFileSelectionWnd        030b1be4     MQ2Globals.obj
 0003:00008be8       _ppLootWnd                 030b1be8     MQ2Globals.obj
 0003:00008bec       _ppActionsWnd              030b1bec     MQ2Globals.obj
 0003:00008bf0       _ppCombatAbilityWnd        030b1bf0     MQ2Globals.obj
 0003:00008bf4       _ppMerchantWnd             030b1bf4     MQ2Globals.obj
 0003:00008bf8       _ppTradeWnd                030b1bf8     MQ2Globals.obj
 0003:00008bfc       _ppBazaarWnd               030b1bfc     MQ2Globals.obj
 0003:00008c00       _ppBazaarSearchWnd         030b1c00     MQ2Globals.obj
 0003:00008c04       _ppGiveWnd                 030b1c04     MQ2Globals.obj
 0003:00008c08       _ppSelectorWnd             030b1c08     MQ2Globals.obj
 0003:00008c0c       _ppTrackingWnd             030b1c0c     MQ2Globals.obj
 0003:00008c10       _ppInspectWnd              030b1c10     MQ2Globals.obj
 0003:00008c14       _ppFeedbackWnd             030b1c14     MQ2Globals.obj
 0003:00008c18       _ppBugReportWnd            030b1c18     MQ2Globals.obj
 0003:00008c1c       _ppVideoModesWnd           030b1c1c     MQ2Globals.obj
 0003:00008c20       _ppCompassWnd              030b1c20     MQ2Globals.obj
 0003:00008c24       _ppPlayerNotesWnd          030b1c24     MQ2Globals.obj
 0003:00008c28       _ppGemsGameWnd             030b1c28     MQ2Globals.obj
 0003:00008c2c       _ppStoryWnd                030b1c2c     MQ2Globals.obj
 0003:00008c30       _ppBodyTintWnd             030b1c30     MQ2Globals.obj
 0003:00008c34       _ppGuildMgmtWnd            030b1c34     MQ2Globals.obj
 0003:00008c38       _ppJournalTextWnd          030b1c38     MQ2Globals.obj
 0003:00008c3c       _ppJournalCatWnd           030b1c3c     MQ2Globals.obj
 0003:00008c40       _ppPetitionQWnd            030b1c40     MQ2Globals.obj
 0003:00008c44       _ppSoulmarkWnd             030b1c44     MQ2Globals.obj
 0003:00008c48       _ppTimeLeftWnd             030b1c48     MQ2Globals.obj
 0003:00008c4c       _ppTextOverlay             030b1c4c     MQ2Globals.obj
 0003:00008c50       _ppPotionBeltWnd           030b1c50     MQ2Globals.obj
 0003:00008c54       _ppSidlMgr                 030b1c54     MQ2Globals.obj
 0003:00008c58       _ppWndMgr                  030b1c58     MQ2Globals.obj
 0003:00008c5c       _ppKeypressHandler         030b1c5c     MQ2Globals.obj
 0003:00008c60       _pRaid                     030b1c60     MQ2Globals.obj
 0003:00008c64       _ppDZMember                030b1c64     MQ2Globals.obj
 0003:00008c68       _ppDZTimerInfo             030b1c68     MQ2Globals.obj
 0003:00008c6c       _ppTaskMember              030b1c6c     MQ2Globals.obj
 0003:00008c70       _pDynamicZone              030b1c70     MQ2Globals.obj
 0003:00009548       ?CaptionColors@@3PAU_CAPTIONCOLOR@@A 030b2548     MQ2Spawns.obj
 0003:000096e4       ?LastFoundInvSlot@@3KA     030b26e4     MQ2Utilities.obj
 0003:000097f8       ?CalcOpPrecedence@@3PAHA   030b27f8     MQ2Utilities.obj
 0003:00009978       ?szClickNotification@@3PAPADA 030b2978     MQ2Windows.obj
 0003:00009998       ?szWndNotification@@3PAPADA 030b2998     MQ2Windows.obj
 0003:00009a14       ??_R0?AVinvalid_argument@std@@@8 030b2a14     libcpmt:string.obj
 0003:00009a40       __fltused                  030b2a40     LIBCMT:_fpinit_.obj
 0003:00009a44       __ldused                   030b2a44     LIBCMT:_fpinit_.obj
 0003:00009a54       ??_R0?AVbad_cast@std@@@8   030b2a54     LIBCMT:stdexcpt.obj
 0003:00009a70       ??_R0?AVbad_typeid@std@@@8 030b2a70     LIBCMT:stdexcpt.obj
 0003:00009a90       ??_R0?AV__non_rtti_object@std@@@8 030b2a90     LIBCMT:stdexcpt.obj
 0003:00009ab8       ??_R0?AVtype_info@@@8      030b2ab8     LIBCMT:typinfo.obj
 0003:00009b40       __half                     030b2b40     LIBCMT:_pow_.obj
 0003:00009b50       __NLG_Destination          030b2b50     LIBCMT:exsup.obj
 0003:00009cd0       __amblksiz                 030b2cd0     LIBCMT:heapinit.obj
 0003:00009df8       __aexit_rtn                030b2df8     LIBCMT:crt0dat.obj
 0003:00009eb8       ___nullstring              030b2eb8     LIBCMT:output.obj
 0003:00009ebc       ___wnullstring             030b2ebc     LIBCMT:output.obj
 0003:00009ec0       __cfltcvt_tab              030b2ec0     LIBCMT:cmiscdat.obj
 0003:00009eec       ___security_cookie         030b2eec     LIBCMT:gs_cookie.obj
 0003:00009ef0       ___security_cookie_complement 030b2ef0     LIBCMT:gs_cookie.obj
 0003:00009ef4       ___flsindex                030b2ef4     LIBCMT:tidtable.obj
 0003:00009ef8       ___getvalueindex           030b2ef8     LIBCMT:tidtable.obj
 0003:00009f00       ??_R0?AVbad_exception@std@@@8 030b2f00     LIBCMT:frame.obj
 0003:00009f20       ___initialmbcinfo          030b2f20     LIBCMT:mbctype.obj
 0003:0000a140       __mbctype                  030b3140     LIBCMT:mbctype.obj
 0003:0000a248       __mbcasemap                030b3248     LIBCMT:mbctype.obj
 0003:0000a348       ___ptmbcinfo               030b3348     LIBCMT:mbctype.obj
 0003:0000a444       ___globallocalestatus      030b3444     LIBCMT:glstatus.obj
 0003:0000a448       ___clocalestr              030b3448     LIBCMT:nlsdata2.obj
 0003:0000a450       ___initiallocinfo          030b3450     LIBCMT:nlsdata2.obj
 0003:0000a528       ___ptlocinfo               030b3528     LIBCMT:nlsdata2.obj
 0003:0000a52c       ___lc_clike                030b352c     LIBCMT:nlsdata2.obj
 0003:0000a530       ___initiallocalestructinfo 030b3530     LIBCMT:nlsdata2.obj
 0003:0000a540       __OP_ATAN2jmptab           030b3540     LIBCMT:_87triga_.obj
 0003:0000a590       __indefinite               030b3590     LIBCMT:_87disp_.obj
 0003:0000a59a       __piby2                    030b359a     LIBCMT:_87disp_.obj
 0003:0000a5c0       __iob                      030b35c0     LIBCMT:_file.obj
 0003:0000a840       ___badioinfo               030b3840     LIBCMT:ioinit.obj
 0003:0000a880       ___abort_behavior          030b3880     LIBCMT:abort.obj
 0003:0000a8a0       __timezone                 030b38a0     LIBCMT:timeset.obj
 0003:0000a8a4       __daylight                 030b38a4     LIBCMT:timeset.obj
 0003:0000a8a8       __dstbias                  030b38a8     LIBCMT:timeset.obj
 0003:0000a930       __tzname                   030b3930     LIBCMT:timeset.obj
 0003:0000a950       __infinity                 030b3950     LIBCMT:_87tran_.obj
 0003:0000a95a       __minfinity                030b395a     LIBCMT:_87tran_.obj
 0003:0000a964       __logemax                  030b3964     LIBCMT:_87tran_.obj
 0003:0000a98a       __OP_EXPjmptab             030b398a     LIBCMT:_87tran_.obj
 0003:0000a9ac       __First_FPE_Indx           030b39ac     LIBCMT:winxfltr.obj
 0003:0000a9b0       __Num_FPE                  030b39b0     LIBCMT:winxfltr.obj
 0003:0000a9b4       __XcptActTabSize           030b39b4     LIBCMT:winxfltr.obj
 0003:0000a9b8       __XcptActTabCount          030b39b8     LIBCMT:winxfltr.obj
 0003:0000a9c0       __pctype                   030b39c0     LIBCMT:ctype.obj
 0003:0000a9c4       __pwctype                  030b39c4     LIBCMT:ctype.obj
 0003:0000a9c8       ___lc_time_c               030b39c8     LIBCMT:strftime.obj
 0003:0000aa80       ___lc_time_curr            030b3a80     LIBCMT:strftime.obj
 0003:0000aa84       ___lconv_static_decimal    030b3a84     LIBCMT:lconv.obj
 0003:0000aa88       ___lconv_c                 030b3a88     LIBCMT:lconv.obj
 0003:0000aab8       ___lconv                   030b3ab8     LIBCMT:lconv.obj
 0003:0000aabc       ___mb_cur_max              030b3abc     LIBCMT:nlsdata1.obj
 0003:0000aac0       ___decimal_point           030b3ac0     LIBCMT:nlsdata1.obj
 0003:0000aac4       ___decimal_point_length    030b3ac4     LIBCMT:nlsdata1.obj
 0003:0000ab00       __pow10pos                 030b3b00     LIBCMT:_constpow_.obj
 0003:0000ac60       __pow10neg                 030b3c60     LIBCMT:_constpow_.obj
 0003:0000adbc       __lpdays                   030b3dbc     LIBCMT:days.obj
 0003:0000adf0       __days                     030b3df0     LIBCMT:days.obj
 0003:0000ae28       __lookuptrailbytes         030b3e28     LIBCMT:read.obj
 0003:0000af28       __matherr_flag             030b3f28     LIBCMT:_matherr_.obj
 0003:0000b018       __d_inf                    030b4018     LIBCMT:_util_.obj
 0003:0000b020       __d_ind                    030b4020     LIBCMT:_util_.obj
 0003:0000b028       __d_max                    030b4028     LIBCMT:_util_.obj
 0003:0000b030       __d_min                    030b4030     LIBCMT:_util_.obj
 0003:0000b038       __d_mzero                  030b4038     LIBCMT:_util_.obj
 0003:0000b1c4       __coninpfh                 030b41c4     LIBCMT:initcon.obj
 0003:0000b1c8       __confh                    030b41c8     LIBCMT:initcon.obj
 0003:0000b1e0       ?gh@@3KA                   030b41e0     MQ2Auth.obj
 0003:0000b1e4       ?pBenchmarks@@3PAV?$CIndex@PAU_MQBENCH@MQ2Internal@@@MQ2Internal@@A 030b41e4     MQ2Benchmarks.obj
 0003:0000b1e8       ?gCommandCS@@3U_RTL_CRITICAL_SECTION@@A 030b41e8     MQ2CommandAPI.obj
 0003:0000b200       ?pTimedCommands@@3PAU_TIMEDCOMMAND@@A 030b4200     MQ2CommandAPI.obj
 0003:0000b208       ?MemSpellFavorite@@3U_SPELLFAVORITE@EQData@@A 030b4208     MQ2Commands.obj
 0003:0000b24c       ?MQ2DataItems@@3V?$CIndex@PAU_MQ2DataItem@MQ2Internal@@@MQ2Internal@@A 030b424c     MQ2DataAPI.obj
 0003:0000b26c       ?MQ2DataTypes@@3V?$CIndex@PAVMQ2Type@MQ2Internal@@@MQ2Internal@@A 030b426c     MQ2DataAPI.obj
 0003:0000b28c       ?MQ2DataTypeMap@@3V?$map@V?$basic_string@DU?$char_traits@D@std@@V?$allocator@D@2@@std@@KU?$less@V?$basic_string@DU?$char_traits@D@std@@V?$allocator@D@2@@std@@@2@V?$allocator@U?$pair@$$CBV?$basic_string@DU?$char_traits@D@std@@V?$allocator@D@2@@std@@K@std@@@2@@std@@A 030b428c     MQ2DataAPI.obj
 0003:0000b2ac       ?MQ2DataMap@@3V?$map@V?$basic_string@DU?$char_traits@D@std@@V?$allocator@D@2@@std@@KU?$less@V?$basic_string@DU?$char_traits@D@std@@V?$allocator@D@2@@std@@@2@V?$allocator@U?$pair@$$CBV?$basic_string@DU?$char_traits@D@std@@V?$allocator@D@2@@std@@K@std@@@2@@std@@A 030b42ac     MQ2DataAPI.obj
 0003:0000b2cc       _pFloatType                030b42cc     MQ2DataTypes.obj
 0003:0000b2d0       _pIntType                  030b42d0     MQ2DataTypes.obj
 0003:0000b2d4       _pByteType                 030b42d4     MQ2DataTypes.obj
 0003:0000b2d8       _pBoolType                 030b42d8     MQ2DataTypes.obj
 0003:0000b2dc       _pStringType               030b42dc     MQ2DataTypes.obj
 0003:0000b2e0       _pMathType                 030b42e0     MQ2DataTypes.obj
 0003:0000b2e4       _pTimeType                 030b42e4     MQ2DataTypes.obj
 0003:0000b2e8       _pArrayType                030b42e8     MQ2DataTypes.obj
 0003:0000b2ec       _pSpawnType                030b42ec     MQ2DataTypes.obj
 0003:0000b2f0       _pBuffType                 030b42f0     MQ2DataTypes.obj
 0003:0000b2f4       _pSpellType                030b42f4     MQ2DataTypes.obj
 0003:0000b2f8       _pTicksType                030b42f8     MQ2DataTypes.obj
 0003:0000b2fc       _pCharacterType            030b42fc     MQ2DataTypes.obj
 0003:0000b300       _pClassType                030b4300     MQ2DataTypes.obj
 0003:0000b304       _pRaceType                 030b4304     MQ2DataTypes.obj
 0003:0000b308       _pBodyType                 030b4308     MQ2DataTypes.obj
 0003:0000b30c       _pSkillType                030b430c     MQ2DataTypes.obj
 0003:0000b310       _pAltAbilityType           030b4310     MQ2DataTypes.obj
 0003:0000b314       _pGroundType               030b4314     MQ2DataTypes.obj
 0003:0000b318       _pSwitchType               030b4318     MQ2DataTypes.obj
 0003:0000b31c       _pCorpseType               030b431c     MQ2DataTypes.obj
 0003:0000b320       _pMacroType                030b4320     MQ2DataTypes.obj
 0003:0000b324       _pMacroQuestType           030b4324     MQ2DataTypes.obj
 0003:0000b328       _pWindowType               030b4328     MQ2DataTypes.obj
 0003:0000b32c       _pMerchantType             030b432c     MQ2DataTypes.obj
 0003:0000b330       _pZoneType                 030b4330     MQ2DataTypes.obj
 0003:0000b334       _pCurrentZoneType          030b4334     MQ2DataTypes.obj
 0003:0000b338       _pItemType                 030b4338     MQ2DataTypes.obj
 0003:0000b33c       _pDeityType                030b433c     MQ2DataTypes.obj
 0003:0000b340       _pArgbType                 030b4340     MQ2DataTypes.obj
 0003:0000b344       _pTypeType                 030b4344     MQ2DataTypes.obj
 0003:0000b348       _pHeadingType              030b4348     MQ2DataTypes.obj
 0003:0000b34c       _pInvSlotType              030b434c     MQ2DataTypes.obj
 0003:0000b350       _pTimerType                030b4350     MQ2DataTypes.obj
 0003:0000b354       _pPluginType               030b4354     MQ2DataTypes.obj
 0003:0000b358       _pRaidType                 030b4358     MQ2DataTypes.obj
 0003:0000b35c       _pRaidMemberType           030b435c     MQ2DataTypes.obj
 0003:0000b360       _pGroupType                030b4360     MQ2DataTypes.obj
 0003:0000b364       _pGroupMemberType          030b4364     MQ2DataTypes.obj
 0003:0000b368       _pEvolvingItemType         030b4368     MQ2DataTypes.obj
 0003:0000b36c       _pDynamicZoneType          030b436c     MQ2DataTypes.obj
 0003:0000b370       _pDZMemberType             030b4370     MQ2DataTypes.obj
 0003:0000b374       _pFellowshipType           030b4374     MQ2DataTypes.obj
 0003:0000b378       _pFellowshipMemberType     030b4378     MQ2DataTypes.obj
 0003:0000b37c       _pFriendsType              030b437c     MQ2DataTypes.obj
 0003:0000b380       _pTargetType               030b4380     MQ2DataTypes.obj
 0003:0000b388       ?ToUpper@?3??stristr@Blech@@SAPBDPBD0@Z@4PADA 030b4388     MQ2DataVars.obj
 0003:0000b488       ?bInitialized@?3??stristr@Blech@@SAPBDPBD0@Z@4_NA 030b4488     MQ2DataVars.obj
 0003:0000b48c       ?VariableMap@@3V?$map@V?$basic_string@DU?$char_traits@D@std@@V?$allocator@D@2@@std@@PAU_DATAVAR@MQ2Internal@@U?$less@V?$basic_string@DU?$char_traits@D@std@@V?$allocator@D@2@@std@@@2@V?$allocator@U?$pair@$$CBV?$basic_string@DU?$char_traits@D@std@@V?$allocator@D@2@@std@@PAU_DATAVAR@MQ2Internal@@@std@@@2@@std@@A 030b448c     MQ2DataVars.obj
 0003:0000b4ac       ?memcheck1_tramp@@3P6AHPAEHUmckey@@@ZA 030b44ac     MQ2DetourAPI.obj
 0003:0000b4b0       ?gDetourCS@@3U_RTL_CRITICAL_SECTION@@A 030b44b0     MQ2DetourAPI.obj
 0003:0000b4c8       ?memcheck0_tramp@@3P6AHPAEH@ZA 030b44c8     MQ2DetourAPI.obj
 0003:0000b4cc       ?memcheck2_tramp@@3P6AHPAEHUmckey@@@ZA 030b44cc     MQ2DetourAPI.obj
 0003:0000b4d0       ?memcheck4_tramp@@3P6AHPAEHUmckey@@@ZA 030b44d0     MQ2DetourAPI.obj
 0003:0000b4d4       ?memcheck3_tramp@@3P6AHPAEHUmckey@@@ZA 030b44d4     MQ2DetourAPI.obj
 0003:0000b4d8       ?ourdetours@@3PAU_OurDetours@@A 030b44d8     MQ2DetourAPI.obj
 0003:0000b4dc       ?extern_array0@@3PAIA      030b44dc     MQ2DetourAPI.obj
 0003:0000b4e0       ?extern_array1@@3PAIA      030b44e0     MQ2DetourAPI.obj
 0003:0000b4e4       ?extern_array2@@3PAIA      030b44e4     MQ2DetourAPI.obj
 0003:0000b4e8       ?extern_array3@@3PAIA      030b44e8     MQ2DetourAPI.obj
 0003:0000b4ec       ?extern_array4@@3PAIA      030b44ec     MQ2DetourAPI.obj
 0003:0000b554       ?DInputDataTrampoline@@3P6GJPAUIDirectInputDevice8A@@KPAUDIDEVICEOBJECTDATA@@PAKK@ZA 030b4554     MQ2DInput.obj
 0003:0000b558       ?DInputAcquireTrampoline@@3P6GJPAUIDirectInputDevice8A@@@ZA 030b4558     MQ2DInput.obj
 0003:0000b55c       ?DInputStateTrampoline@@3P6GJPAUIDirectInputDevice8A@@KPAX@ZA 030b455c     MQ2DInput.obj
 0003:0000b560       ?GetDeviceData@@3KA        030b4560     MQ2DInput.obj
 0003:0000b564       ?GetDeviceState@@3KA       030b4564     MQ2DInput.obj
 0003:0000b568       ?Acquire@@3KA              030b4568     MQ2DInput.obj
 0003:0000b570       _gnNormalEQMappableCommands 030b4570     MQ2Globals.obj
 0003:0000b578       _szEQMappableCommands      030b4578     MQ2Globals.obj
 0003:0000ba00       _gDiKeyName                030b4a00     MQ2Globals.obj
 0003:0000be00       _EQP_DistArray             030b4e00     MQ2Globals.obj
 0003:00011bc0       _bmWriteChatColor          030babc0     MQ2Globals.obj
 0003:00011bc4       _bmPluginsIncomingChat     030babc4     MQ2Globals.obj
 0003:00011bc8       _bmPluginsPulse            030babc8     MQ2Globals.obj
 0003:00011bcc       _bmPluginsOnZoned          030babcc     MQ2Globals.obj
 0003:00011bd0       _bmPluginsCleanUI          030babd0     MQ2Globals.obj
 0003:00011bd4       _bmPluginsReloadUI         030babd4     MQ2Globals.obj
 0003:00011bd8       _bmPluginsDrawHUD          030babd8     MQ2Globals.obj
 0003:00011bdc       _bmPluginsSetGameState     030babdc     MQ2Globals.obj
 0003:00011be0       _bmParseMacroParameter     030babe0     MQ2Globals.obj
 0003:00011be4       _bmUpdateSpawnSort         030babe4     MQ2Globals.obj
 0003:00011be8       _bmUpdateSpawnCaptions     030babe8     MQ2Globals.obj
 0003:00011bec       _bmCalculate               030babec     MQ2Globals.obj
 0003:00011bf0       _bmBeginZone               030babf0     MQ2Globals.obj
 0003:00011bf4       _bmEndZone                 030babf4     MQ2Globals.obj
 0003:00011bf8       _pGlobalVariables          030babf8     MQ2Globals.obj
 0003:00011bfc       _pMacroVariables           030babfc     MQ2Globals.obj
 0003:00011c00       _PVPServer                 030bac00     MQ2Globals.obj
 0003:00011c04       _gGameState                030bac04     MQ2Globals.obj
 0003:00011c08       _ThreadID                  030bac08     MQ2Globals.obj
 0003:00011c0c       _g_Loaded                  030bac0c     MQ2Globals.obj
 0003:00011c10       _gStringTableFixed         030bac10     MQ2Globals.obj
 0003:00011c14       _gDelayedCommands          030bac14     MQ2Globals.obj
 0003:00011c18       _ghModule                  030bac18     MQ2Globals.obj
 0003:00011c1c       _ghInstance                030bac1c     MQ2Globals.obj
 0003:00011c20       _gbUnload                  030bac20     MQ2Globals.obj
 0003:00011c24       _gpHook                    030bac24     MQ2Globals.obj
 0003:00011c28       _gMacroBlock               030bac28     MQ2Globals.obj
 0003:00011c2c       _gMacroStack               030bac2c     MQ2Globals.obj
 0003:00011c30       _gEventQueue               030bac30     MQ2Globals.obj
 0003:00011c34       _gEventFunc                030bac34     MQ2Globals.obj
 0003:00011c54       _gLastFind                 030bac54     MQ2Globals.obj
 0003:00011c58       _gszEQPath                 030bac58     MQ2Globals.obj
 0003:00012458       _gszMacroPath              030bb458     MQ2Globals.obj
 0003:00012c58       _gszLogPath                030bbc58     MQ2Globals.obj
 0003:00013458       _gszINIPath                030bc458     MQ2Globals.obj
 0003:00013c58       _gszINIFilename            030bcc58     MQ2Globals.obj
 0003:00014458       _gszItemDB                 030bd458     MQ2Globals.obj
 0003:00014c58       _gszMacroName              030bdc58     MQ2Globals.obj
 0003:00015458       _szLastCommand             030be458     MQ2Globals.obj
 0003:00015c58       _gszLastNormalError        030bec58     MQ2Globals.obj
 0003:00016458       _gszLastSyntaxError        030bf458     MQ2Globals.obj
 0003:00016c58       _gszLastMQ2DataError       030bfc58     MQ2Globals.obj
 0003:00017458       _pNamingSpawn              030c0458     MQ2Globals.obj
 0003:0001745c       _DrawHUDParams             030c045c     MQ2Globals.obj
 0003:0001746c       _pMQ2Blech                 030c046c     MQ2Globals.obj
 0003:00017470       _EventMsg                  030c0470     MQ2Globals.obj
 0003:00017c70       _pEventBlech               030c0c70     MQ2Globals.obj
 0003:00017c74       _pEventList                030c0c74     MQ2Globals.obj
 0003:00017c78       _gEventChat                030c0c78     MQ2Globals.obj
 0003:00017c7c       _gRunning                  030c0c7c     MQ2Globals.obj
 0003:00017c80       _gbMoving                  030c0c80     MQ2Globals.obj
 0003:00017c84       _gInClick                  030c0c84     MQ2Globals.obj
 0003:00017c88       _gbInZone                  030c0c88     MQ2Globals.obj
 0003:00017c8c       _gZoning                   030c0c8c     MQ2Globals.obj
 0003:00017c90       _gbInDInput                030c0c90     MQ2Globals.obj
 0003:00017c94       _gbInChat                  030c0c94     MQ2Globals.obj
 0003:00017c98       _gbInDState                030c0c98     MQ2Globals.obj
 0003:00017c9c       _gbInDAcquire              030c0c9c     MQ2Globals.obj
 0003:00017ca0       _gFilterSkillsAll          030c0ca0     MQ2Globals.obj
 0003:00017ca4       _gFilterSkillsIncrease     030c0ca4     MQ2Globals.obj
 0003:00017ca8       _gFilterTarget             030c0ca8     MQ2Globals.obj
 0003:00017cac       _gFilterDebug              030c0cac     MQ2Globals.obj
 0003:00017cb0       _gFilterMoney              030c0cb0     MQ2Globals.obj
 0003:00017cb4       _gFilterFood               030c0cb4     MQ2Globals.obj
 0003:00017cb8       _gFilterMacro              030c0cb8     MQ2Globals.obj
 0003:00017cbc       _gFilterMQ                 030c0cbc     MQ2Globals.obj
 0003:00017cc0       _gFilterEncumber           030c0cc0     MQ2Globals.obj
 0003:00017cc4       _gSpewToFile               030c0cc4     MQ2Globals.obj
 0003:00017cc8       _gbDoAutoRun               030c0cc8     MQ2Globals.obj
 0003:00017ccc       _gMQPauseOnChat            030c0ccc     MQ2Globals.obj
 0003:00017cd0       _gKeepKeys                 030c0cd0     MQ2Globals.obj
 0003:00017cd4       _gLClickedObject           030c0cd4     MQ2Globals.obj
 0003:00017cd8       _gFilterSWho               030c0cd8     MQ2Globals.obj
 0003:00017d28       _gFilterMQ2DataErrors      030c0d28     MQ2Globals.obj
 0003:00017d2c       _gTimer                    030c0d2c     MQ2Globals.obj
 0003:00017d30       _gDelay                    030c0d30     MQ2Globals.obj
 0003:00017d34       ?gDelayZoning@MQ2Globals@@3JA 030c0d34     MQ2Globals.obj
 0003:00017d38       _gDelayCondition           030c0d38     MQ2Globals.obj
 0003:00018538       _gpAlertList               030c1538     MQ2Globals.obj
 0003:0001853c       _gMacroPause               030c153c     MQ2Globals.obj
 0003:00018540       _EnviroTarget              030c1540     MQ2Globals.obj
 0003:0001a144       _pGroundTarget             030c3144     MQ2Globals.obj
 0003:0001a148       _DoorEnviroTarget          030c3148     MQ2Globals.obj
 0003:0001bd4c       _pDoorTarget               030c4d4c     MQ2Globals.obj
 0003:0001bd50       _gItemDB                   030c4d50     MQ2Globals.obj
 0003:0001bd54       _bRunNextCommand           030c4d54     MQ2Globals.obj
 0003:0001bd58       _gTurbo                    030c4d58     MQ2Globals.obj
 0003:0001bd5c       _pDefines                  030c4d5c     MQ2Globals.obj
 0003:0001bd60       ?gLastFindSlot@MQ2Globals@@3PADA 030c4d60     MQ2Globals.obj
 0003:0001c560       _gpFilters                 030c5560     MQ2Globals.obj
 0003:0001c564       _g_bInDXMouse              030c5564     MQ2Globals.obj
 0003:0001c568       _gMouseData                030c5568     MQ2Globals.obj
 0003:0001c56c       _cmdHelp                   030c556c     MQ2Globals.obj
 0003:0001c570       _cmdWho                    030c5570     MQ2Globals.obj
 0003:0001c574       _cmdWhoTarget              030c5574     MQ2Globals.obj
 0003:0001c578       _cmdLocation               030c5578     MQ2Globals.obj
 0003:0001c57c       _cmdFace                   030c557c     MQ2Globals.obj
 0003:0001c580       _cmdTarget                 030c5580     MQ2Globals.obj
 0003:0001c584       _cmdCharInfo               030c5584     MQ2Globals.obj
 0003:0001c588       _cmdFilter                 030c5588     MQ2Globals.obj
 0003:0001c58c       _cmdDoAbility              030c558c     MQ2Globals.obj
 0003:0001c590       _cmdCast                   030c5590     MQ2Globals.obj
 0003:0001c594       _gSpawnCount               030c5594     MQ2Globals.obj
 0003:0001c598       _DataTypeTemp              030c5598     MQ2Globals.obj
 0003:0001cd98       _gMouseLeftClickInProgress 030c5d98     MQ2Globals.obj
 0003:0001cd9c       _gMouseRightClickInProgress 030c5d9c     MQ2Globals.obj
 0003:0001cda0       _bAllErrorsFatal           030c5da0     MQ2Globals.obj
 0003:0001cda4       _bAllErrorsDumpStack       030c5da4     MQ2Globals.obj
 0003:0001cda8       _bLaxColor                 030c5da8     MQ2Globals.obj
 0003:0001cdac       _bAllErrorsLog             030c5dac     MQ2Globals.obj
 0003:0001cdb0       _gbAlwaysDrawMQHUD         030c5db0     MQ2Globals.obj
 0003:0001cdb4       _nColorAdjective           030c5db4     MQ2Globals.obj
 0003:0001cdb8       _nColorAdjectiveYou        030c5db8     MQ2Globals.obj
 0003:0001cdbc       _nColorExpletive           030c5dbc     MQ2Globals.obj
 0003:0001cdc0       _nColorSyntaxError         030c5dc0     MQ2Globals.obj
 0003:0001cdc4       _nColorMacroError          030c5dc4     MQ2Globals.obj
 0003:0001cdc8       _nColorMQ2DataError        030c5dc8     MQ2Globals.obj
 0003:0001cdcc       _nColorFatalError          030c5dcc     MQ2Globals.obj
 0003:0001cdd0       _pPlugins                  030c5dd0     MQ2Globals.obj
 0003:0001cdd4       _pXMLFiles                 030c5dd4     MQ2Globals.obj
 0003:0001cdd8       _ManaGained                030c5dd8     MQ2Globals.obj
 0003:0001cddc       _HealthGained              030c5ddc     MQ2Globals.obj
 0003:0001cde0       _EnduranceGained           030c5de0     MQ2Globals.obj
 0003:0001cde4       _pAliases                  030c5de4     MQ2Globals.obj
 0003:0001cde8       _pSubs                     030c5de8     MQ2Globals.obj
 0003:0001cdec       _pCommands                 030c5dec     MQ2Globals.obj
 0003:0001cdf0       _gMacroSubLookupMap        030c5df0     MQ2Globals.obj
 0003:0001ce10       _ItemSlotMap               030c5e10     MQ2Globals.obj
 0003:0001ce30       _SpawnByName               030c5e30     MQ2Globals.obj
 0003:0001ce50       ?BindList@@3V?$CIndex@PAUMQ2KeyBind@@@MQ2Internal@@A 030c5e50     MQ2KeyBinds.obj
 0003:0001ce70       ?BindNameMap@@3V?$map@V?$basic_string@DU?$char_traits@D@std@@V?$allocator@D@2@@std@@KU?$less@V?$basic_string@DU?$char_traits@D@std@@V?$allocator@D@2@@std@@@2@V?$allocator@U?$pair@$$CBV?$basic_string@DU?$char_traits@D@std@@V?$allocator@D@2@@std@@K@std@@@2@@std@@A 030c5e70     MQ2KeyBinds.obj
 0003:0001ce90       ?g_hHook@@3PAUHHOOK__@@A   030c5e90     MQ2Main.obj
 0003:0001ce94       ?pNewsWindow@@3PAVCMQNewsWnd@@A 030c5e94     MQ2Main.obj
 0003:0001ce98       ?gPluginCS@@3U_RTL_CRITICAL_SECTION@@A 030c5e98     MQ2PluginHandler.obj
 0003:0001ceb0       ?bPluginCS@@3HA            030c5eb0     MQ2PluginHandler.obj
 0003:0001cebc       ?TurnNotDone@@3HA          030c5ebc     MQ2Pulse.obj
 0003:0001cef0       ?csPendingGrounds@@3U_RTL_CRITICAL_SECTION@@A 030c5ef0     MQ2Spawns.obj
 0003:0001cf08       ?pPendingGrounds@@3PAU_MQGroundPending@MQ2Internal@@A 030c5f08     MQ2Spawns.obj
 0003:0001cf0c       ?ProcessPending@@3HA       030c5f0c     MQ2Spawns.obj
 0003:0001cf14       ?SWhoSortValue@@3KA        030c5f14     MQ2Utilities.obj
 0003:0001cf18       ?SWhoSortOrigin@@3PAU_SPAWNINFO@EQData@@A 030c5f18     MQ2Utilities.obj
 0003:0001cf20       ?tmpName@@3PADA            030c5f20     MQ2Windows.obj
 0003:0001d720       ?tmpAltName@@3PADA         030c6720     MQ2Windows.obj
 0003:0001df20       ?tmpType@@3PADA            030c6f20     MQ2Windows.obj
 0003:0001e720       ?WindowMap@@3V?$map@V?$basic_string@DU?$char_traits@D@std@@V?$allocator@D@2@@std@@KU?$less@V?$basic_string@DU?$char_traits@D@std@@V?$allocator@D@2@@std@@@2@V?$allocator@U?$pair@$$CBV?$basic_string@DU?$char_traits@D@std@@V?$allocator@D@2@@std@@K@std@@@2@@std@@A 030c7720     MQ2Windows.obj
 0003:0001e740       ?WindowList@@3V?$CIndex@PAU_WindowInfo@@@MQ2Internal@@A 030c7740     MQ2Windows.obj
 0003:0001e78c       ___fastflag                030c778c     LIBCMT:_fpinit_.obj
 0003:0001e790       __adjust_fdiv              030c7790     LIBCMT:_fpinit_.obj
 0003:0001e7a4       ___pInvalidArgHandler      030c77a4     LIBCMT:invarg.obj
 0003:0001e7b8       __aenvptr                  030c77b8     LIBCMT:dllcrt0.obj
 0003:0001e7bc       __wenvptr                  030c77bc     LIBCMT:dllcrt0.obj
 0003:0001e7c0       ___error_mode              030c77c0     LIBCMT:dllcrt0.obj
 0003:0001e7c4       ___app_type                030c77c4     LIBCMT:dllcrt0.obj
 0003:0001e7c8       __crtheap                  030c77c8     LIBCMT:heapinit.obj
 0003:0001e920       ___sbh_pHeaderDefer        030c7920     LIBCMT:sbheap.obj
 0003:0001e924       __umaskval                 030c7924     LIBCMT:crt0dat.obj
 0003:0001e928       ___argc                    030c7928     LIBCMT:crt0dat.obj
 0003:0001e92c       ___argv                    030c792c     LIBCMT:crt0dat.obj
 0003:0001e930       ___wargv                   030c7930     LIBCMT:crt0dat.obj
 0003:0001e934       __environ                  030c7934     LIBCMT:crt0dat.obj
 0003:0001e938       ___initenv                 030c7938     LIBCMT:crt0dat.obj
 0003:0001e93c       __wenviron                 030c793c     LIBCMT:crt0dat.obj
 0003:0001e940       ___winitenv                030c7940     LIBCMT:crt0dat.obj
 0003:0001e944       __pgmptr                   030c7944     LIBCMT:crt0dat.obj
 0003:0001e948       __wpgmptr                  030c7948     LIBCMT:crt0dat.obj
 0003:0001e94c       __exitflag                 030c794c     LIBCMT:crt0dat.obj
 0003:0001e950       __C_Termination_Done       030c7950     LIBCMT:crt0dat.obj
 0003:0001e954       __C_Exit_Done              030c7954     LIBCMT:crt0dat.obj
 0003:0001ec6c       ?_pnhHeap@@3P6AHI@ZA       030c7c6c     LIBCMT:handler.obj
 0003:0001ec70       __newmode                  030c7c70     LIBCMT:_newmode.obj
 0003:0001ec7c       _gpFlsAlloc                030c7c7c     LIBCMT:tidtable.obj
 0003:0001ec80       _gpFlsGetValue             030c7c80     LIBCMT:tidtable.obj
 0003:0001ec84       _gpFlsSetValue             030c7c84     LIBCMT:tidtable.obj
 0003:0001ec88       _gpFlsFree                 030c7c88     LIBCMT:tidtable.obj
 0003:0001ec8c       ?__pInconsistency@@3P6AXXZA 030c7c8c     LIBCMT:hooks.obj
 0003:0001ec94       ___mbulinfo                030c7c94     LIBCMT:mbctype.obj
 0003:0001eca0       ___mbcodepage              030c7ca0     LIBCMT:mbctype.obj
 0003:0001eca4       ___ismbcodepage            030c7ca4     LIBCMT:mbctype.obj
 0003:0001eca8       ___mblcid                  030c7ca8     LIBCMT:mbctype.obj
 0003:0001ecac       ___locale_changed          030c7cac     LIBCMT:setlocal.obj
 0003:0001ecb0       ___lc_handle               030c7cb0     LIBCMT:nlsdata2.obj
 0003:0001ecc8       ___lc_codepage             030c7cc8     LIBCMT:nlsdata2.obj
 0003:0001eccc       ___lc_collate_cp           030c7ccc     LIBCMT:nlsdata2.obj
 0003:0001ecd0       __cflush                   030c7cd0     LIBCMT:_file.obj
 0003:0001ecd4       __stdbuf                   030c7cd4     LIBCMT:_sftbuf.obj
 0003:0001ece8       ___pPurecall               030c7ce8     LIBCMT:inithelp.obj
 0003:0001eda8       __maxwait                  030c7da8     LIBCMT:crtheap.obj
 0003:0001f2a0       __outputformat             030c82a0     LIBCMT:outputformat.obj
 0003:0001f2b8       ?pArgList@UnDecorator@@0PAVReplicator@@A 030c82b8     LIBCMT:undname.obj
 0003:0001f2bc       ?pZNameList@UnDecorator@@0PAVReplicator@@A 030c82bc     LIBCMT:undname.obj
 0003:0001f2c0       ?pTemplateArgList@UnDecorator@@0PAVReplicator@@A 030c82c0     LIBCMT:undname.obj
 0003:0001f2c4       ?gName@UnDecorator@@0PBDB  030c82c4     LIBCMT:undname.obj
 0003:0001f2c8       ?name@UnDecorator@@0PBDB   030c82c8     LIBCMT:undname.obj
 0003:0001f2cc       ?outputString@UnDecorator@@0PADA 030c82cc     LIBCMT:undname.obj
 0003:0001f2d0       ?maxStringLength@UnDecorator@@0HA 030c82d0     LIBCMT:undname.obj
 0003:0001f2d4       ?disableFlags@UnDecorator@@0KA 030c82d4     LIBCMT:undname.obj
 0003:0001f2d8       ?m_pGetParameter@UnDecorator@@0P6APADJ@ZA 030c82d8     LIBCMT:undname.obj
 0003:0001f2dc       ?fExplicitTemplateParams@UnDecorator@@0_NA 030c82dc     LIBCMT:undname.obj
 0003:0001f2dd       ?fGetTemplateArgumentList@UnDecorator@@0_NA 030c82dd     LIBCMT:undname.obj
 0003:0001f2e0       ?nodes@?1??make@DNameStatusNode@@SAPAV2@W4DNameStatus@@@Z@4PAV2@A 030c82e0     LIBCMT:undname.obj
 0003:0001f310       ??_B?1??make@DNameStatusNode@@SAPAV1@W4DNameStatus@@@Z@51 030c8310     LIBCMT:undname.obj
 0003:0001f318       ___lconv_static_null       030c8318     LIBCMT:lconv.obj
 0003:0001f31c       __commode                  030c831c     LIBCMT:ncommode.obj
 0003:0001f324       __fmode                    030c8324     LIBCMT:txtmode.obj
 0003:0001f32c       __pmatherr                 030c832c     <common>
 0003:0001f330       ___use_sse2_mathfcns       030c8330     <common>
 0003:0001f334       __nhandle                  030c8334     <common>
 0003:0001f340       ___pioinfo                 030c8340     <common>
 0003:0001f440       ___piob                    030c8440     <common>
 0003:0001f460       __bufin                    030c8460     <common>
 0003:00020460       __nstream                  030c9460     <common>
 0003:00020464       ___setlc_active            030c9464     <common>
 0003:00020468       ___unguarded_readlc_active 030c9468     <common>
 0003:0002046c       __debugger_hook_dummy      030c946c     <common>
 0003:00020470       ___env_initialized         030c9470     <common>
 0003:00020474       ___onexitend               030c9474     <common>
 0003:00020478       ___onexitbegin             030c9478     <common>
 0003:0002047c       ___mbctype_initialized     030c947c     <common>
 0003:00020480       ___dyn_tls_init_callback   030c9480     <common>
 0003:00020484       ___sbh_initialized         030c9484     <common>
 0003:00020488       ___sbh_cntHeaderList       030c9488     <common>
 0003:0002048c       ___sbh_pHeaderList         030c948c     <common>
 0003:00020490       ___sbh_threshold           030c9490     <common>
 0003:00020494       ___sbh_pHeaderScan         030c9494     <common>
 0003:00020498       ___sbh_sizeHeaderList      030c9498     <common>
 0003:0002049c       ___sbh_indGroupDefer       030c949c     <common>
 0003:000204a0       ___active_heap             030c94a0     <common>
 0003:000204a4       ___sse2_available          030c94a4     <common>
 0003:000204a8       __acmdln                   030c94a8     <common>

 entry point at        0001:0005641a

 Static symbols

 0001:fffff000       __ehhandler$?_Buynode@?$_Tree@V?$_Tmap_traits@V?$basic_string@DU?$char_traits@D@std@@V?$allocator@D@2@@std@@KU?$less@V?$basic_string@DU?$char_traits@D@std@@V?$allocator@D@2@@std@@@2@V?$allocator@U?$pair@$$CBV?$basic_string@DU?$char_traits@D@std@@V?$allocator@D@2@@std@@K@std@@@2@$0A@@std@@@std@@IAEPAU_Node@?$_Tree_nod@V?$_Tmap_traits@V?$basic_string@DU?$char_traits@D@std@@V?$allocator@D@2@@std@@KU?$less@V?$basic_string@DU?$char_traits@D@std@@V?$allocator@D@2@@std@@@2@V?$allocator@U?$pair@$$CBV?$basic_string@DU?$char_traits@D@std@@V?$allocator@D@2@@std@@K@std@@@2@$0A@@std@@@2@PAU342@00ABU?$pair@$$CBV?$basic_string@DU?$char_traits@D@std@@V?$allocator@D@2@@std@@K@2@D@Z 03000000 f   MQ2DataAPI.obj
 0001:fffff000       __unwindfunclet$??0logic_error@std@@QAE@ABV01@@Z$0 03000000 f   libcpmt:string.obj
 0001:fffff000       __ehhandler$?_Copy@?$basic_string@DU?$char_traits@D@std@@V?$allocator@D@2@@std@@IAEXII@Z 03000000 f   MQ2DataVars.obj
 0001:fffff000       __ehhandler$?_Copy@?$basic_string@DU?$char_traits@D@std@@V?$allocator@D@2@@std@@IAEXII@Z 03000000 f   MQ2DataTypes.obj
 0001:fffff000       __ehhandler$?_Copy@?$basic_string@DU?$char_traits@D@std@@V?$allocator@D@2@@std@@IAEXII@Z 03000000 f   MQ2Windows.obj
 0001:fffff000       __ehhandler$?_Buynode@?$_Tree@V?$_Tmap_traits@V?$basic_string@DU?$char_traits@D@std@@V?$allocator@D@2@@std@@KU?$less@V?$basic_string@DU?$char_traits@D@std@@V?$allocator@D@2@@std@@@2@V?$allocator@U?$pair@$$CBV?$basic_string@DU?$char_traits@D@std@@V?$allocator@D@2@@std@@K@std@@@2@$0A@@std@@@std@@IAEPAU_Node@?$_Tree_nod@V?$_Tmap_traits@V?$basic_string@DU?$char_traits@D@std@@V?$allocator@D@2@@std@@KU?$less@V?$basic_string@DU?$char_traits@D@std@@V?$allocator@D@2@@std@@@2@V?$allocator@U?$pair@$$CBV?$basic_string@DU?$char_traits@D@std@@V?$allocator@D@2@@std@@K@std@@@2@$0A@@std@@@2@XZ 03000000 f   MQ2Globals.obj
 0001:fffff000       __ehhandler$?_Buynode@?$_Tree@V?$_Tmap_traits@V?$basic_string@DU?$char_traits@D@std@@V?$allocator@D@2@@std@@KU?$less@V?$basic_string@DU?$char_traits@D@std@@V?$allocator@D@2@@std@@@2@V?$allocator@U?$pair@$$CBV?$basic_string@DU?$char_traits@D@std@@V?$allocator@D@2@@std@@K@std@@@2@$0A@@std@@@std@@IAEPAU_Node@?$_Tree_nod@V?$_Tmap_traits@V?$basic_string@DU?$char_traits@D@std@@V?$allocator@D@2@@std@@KU?$less@V?$basic_string@DU?$char_traits@D@std@@V?$allocator@D@2@@std@@@2@V?$allocator@U?$pair@$$CBV?$basic_string@DU?$char_traits@D@std@@V?$allocator@D@2@@std@@K@std@@@2@$0A@@std@@@2@XZ 03000000 f   MQ2Windows.obj
 0001:fffff000       __ehhandler$?_Copy@?$basic_string@DU?$char_traits@D@std@@V?$allocator@D@2@@std@@IAEXII@Z 03000000 f   MQ2Globals.obj
 0001:fffff000       __ehhandler$?_Buynode@?$_Tree@V?$_Tmap_traits@V?$basic_string@DU?$char_traits@D@std@@V?$allocator@D@2@@std@@KU?$less@V?$basic_string@DU?$char_traits@D@std@@V?$allocator@D@2@@std@@@2@V?$allocator@U?$pair@$$CBV?$basic_string@DU?$char_traits@D@std@@V?$allocator@D@2@@std@@K@std@@@2@$0A@@std@@@std@@IAEPAU_Node@?$_Tree_nod@V?$_Tmap_traits@V?$basic_string@DU?$char_traits@D@std@@V?$allocator@D@2@@std@@KU?$less@V?$basic_string@DU?$char_traits@D@std@@V?$allocator@D@2@@std@@@2@V?$allocator@U?$pair@$$CBV?$basic_string@DU?$char_traits@D@std@@V?$allocator@D@2@@std@@K@std@@@2@$0A@@std@@@2@PAU342@00ABU?$pair@$$CBV?$basic_string@DU?$char_traits@D@std@@V?$allocator@D@2@@std@@K@2@D@Z 03000000 f   MQ2Windows.obj
 0001:fffff000       __ehhandler$?_Copy@?$basic_string@DU?$char_traits@D@std@@V?$allocator@D@2@@std@@IAEXII@Z 03000000 f   MQ2Data.obj
 0001:fffff000       __unwindfunclet$??0logic_error@std@@QAE@ABV?$basic_string@DU?$char_traits@D@std@@V?$allocator@D@2@@1@@Z$0 03000000 f   libcpmt:string.obj
 0001:fffff000       __ehhandler$?_Copy@?$basic_string@DU?$char_traits@D@std@@V?$allocator@D@2@@std@@IAEXII@Z 03000000 f   libcpmt:string.obj
 0001:fffff000       __ehhandler$?_Buynode@?$_Tree@V?$_Tmap_traits@V?$basic_string@DU?$char_traits@D@std@@V?$allocator@D@2@@std@@KU?$less@V?$basic_string@DU?$char_traits@D@std@@V?$allocator@D@2@@std@@@2@V?$allocator@U?$pair@$$CBV?$basic_string@DU?$char_traits@D@std@@V?$allocator@D@2@@std@@K@std@@@2@$0A@@std@@@std@@IAEPAU_Node@?$_Tree_nod@V?$_Tmap_traits@V?$basic_string@DU?$char_traits@D@std@@V?$allocator@D@2@@std@@KU?$less@V?$basic_string@DU?$char_traits@D@std@@V?$allocator@D@2@@std@@@2@V?$allocator@U?$pair@$$CBV?$basic_string@DU?$char_traits@D@std@@V?$allocator@D@2@@std@@K@std@@@2@$0A@@std@@@2@XZ 03000000 f   MQ2DataTypes.obj
 0001:fffff000       __ehhandler$?_Buynode@?$_Tree@V?$_Tmap_traits@V?$basic_string@DU?$char_traits@D@std@@V?$allocator@D@2@@std@@KU?$less@V?$basic_string@DU?$char_traits@D@std@@V?$allocator@D@2@@std@@@2@V?$allocator@U?$pair@$$CBV?$basic_string@DU?$char_traits@D@std@@V?$allocator@D@2@@std@@K@std@@@2@$0A@@std@@@std@@IAEPAU_Node@?$_Tree_nod@V?$_Tmap_traits@V?$basic_string@DU?$char_traits@D@std@@V?$allocator@D@2@@std@@KU?$less@V?$basic_string@DU?$char_traits@D@std@@V?$allocator@D@2@@std@@@2@V?$allocator@U?$pair@$$CBV?$basic_string@DU?$char_traits@D@std@@V?$allocator@D@2@@std@@K@std@@@2@$0A@@std@@@2@PAU342@00ABU?$pair@$$CBV?$basic_string@DU?$char_traits@D@std@@V?$allocator@D@2@@std@@K@2@D@Z 03000000 f   MQ2DataTypes.obj
 0001:fffff000       __ehhandler$?_Buynode@?$_Tree@V?$_Tmap_traits@V?$basic_string@DU?$char_traits@D@std@@V?$allocator@D@2@@std@@KU?$less@V?$basic_string@DU?$char_traits@D@std@@V?$allocator@D@2@@std@@@2@V?$allocator@U?$pair@$$CBV?$basic_string@DU?$char_traits@D@std@@V?$allocator@D@2@@std@@K@std@@@2@$0A@@std@@@std@@IAEPAU_Node@?$_Tree_nod@V?$_Tmap_traits@V?$basic_string@DU?$char_traits@D@std@@V?$allocator@D@2@@std@@KU?$less@V?$basic_string@DU?$char_traits@D@std@@V?$allocator@D@2@@std@@@2@V?$allocator@U?$pair@$$CBV?$basic_string@DU?$char_traits@D@std@@V?$allocator@D@2@@std@@K@std@@@2@$0A@@std@@@2@PAU342@00ABU?$pair@$$CBV?$basic_string@DU?$char_traits@D@std@@V?$allocator@D@2@@std@@K@2@D@Z 03000000 f   MQ2KeyBinds.obj
 0001:fffff000       __ehhandler$?_Buynode@?$_Tree@V?$_Tmap_traits@V?$basic_string@DU?$char_traits@D@std@@V?$allocator@D@2@@std@@KU?$less@V?$basic_string@DU?$char_traits@D@std@@V?$allocator@D@2@@std@@@2@V?$allocator@U?$pair@$$CBV?$basic_string@DU?$char_traits@D@std@@V?$allocator@D@2@@std@@K@std@@@2@$0A@@std@@@std@@IAEPAU_Node@?$_Tree_nod@V?$_Tmap_traits@V?$basic_string@DU?$char_traits@D@std@@V?$allocator@D@2@@std@@KU?$less@V?$basic_string@DU?$char_traits@D@std@@V?$allocator@D@2@@std@@@2@V?$allocator@U?$pair@$$CBV?$basic_string@DU?$char_traits@D@std@@V?$allocator@D@2@@std@@K@std@@@2@$0A@@std@@@2@XZ 03000000 f   MQ2KeyBinds.obj
 0001:fffff000       __ehhandler$?_Copy@?$basic_string@DU?$char_traits@D@std@@V?$allocator@D@2@@std@@IAEXII@Z 03000000 f   MQ2KeyBinds.obj
 0001:fffff000       __ehhandler$?_Copy@?$basic_string@DU?$char_traits@D@std@@V?$allocator@D@2@@std@@IAEXII@Z 03000000 f   MQ2DataAPI.obj
 0001:fffff000       __ehhandler$?_Copy@?$basic_string@DU?$char_traits@D@std@@V?$allocator@D@2@@std@@IAEXII@Z 03000000 f   MQ2CommandAPI.obj
 0001:fffff000       __ehhandler$?_Copy@?$basic_string@DU?$char_traits@D@std@@V?$allocator@D@2@@std@@IAEXII@Z 03000000 f   MQ2MacroCommands.obj
 0001:fffff000       __ehhandler$?_Buynode@?$_Tree@V?$_Tmap_traits@V?$basic_string@DU?$char_traits@D@std@@V?$allocator@D@2@@std@@KU?$less@V?$basic_string@DU?$char_traits@D@std@@V?$allocator@D@2@@std@@@2@V?$allocator@U?$pair@$$CBV?$basic_string@DU?$char_traits@D@std@@V?$allocator@D@2@@std@@K@std@@@2@$0A@@std@@@std@@IAEPAU_Node@?$_Tree_nod@V?$_Tmap_traits@V?$basic_string@DU?$char_traits@D@std@@V?$allocator@D@2@@std@@KU?$less@V?$basic_string@DU?$char_traits@D@std@@V?$allocator@D@2@@std@@@2@V?$allocator@U?$pair@$$CBV?$basic_string@DU?$char_traits@D@std@@V?$allocator@D@2@@std@@K@std@@@2@$0A@@std@@@2@XZ 03000000 f   MQ2DataAPI.obj
 0001:fffff000       __ehhandler$?_Copy@?$basic_string@DU?$char_traits@D@std@@V?$allocator@D@2@@std@@IAEXII@Z 03000000 f   MQ2Commands.obj
 0001:fffff000       __ehhandler$?_Copy@?$basic_string@DU?$char_traits@D@std@@V?$allocator@D@2@@std@@IAEXII@Z 03000000 f   MQ2PluginHandler.obj
 0001:fffff000       __ehhandler$?_Buynode@?$_Tree@V?$_Tmap_traits@V?$basic_string@DU?$char_traits@D@std@@V?$allocator@D@2@@std@@KU?$less@V?$basic_string@DU?$char_traits@D@std@@V?$allocator@D@2@@std@@@2@V?$allocator@U?$pair@$$CBV?$basic_string@DU?$char_traits@D@std@@V?$allocator@D@2@@std@@K@std@@@2@$0A@@std@@@std@@IAEPAU_Node@?$_Tree_nod@V?$_Tmap_traits@V?$basic_string@DU?$char_traits@D@std@@V?$allocator@D@2@@std@@KU?$less@V?$basic_string@DU?$char_traits@D@std@@V?$allocator@D@2@@std@@@2@V?$allocator@U?$pair@$$CBV?$basic_string@DU?$char_traits@D@std@@V?$allocator@D@2@@std@@K@std@@@2@$0A@@std@@@2@PAU342@00ABU?$pair@$$CBV?$basic_string@DU?$char_traits@D@std@@V?$allocator@D@2@@std@@K@2@D@Z 03000000 f   MQ2Data.obj
 0001:fffff008       __ehhandler$??0logic_error@std@@QAE@ABV?$basic_string@DU?$char_traits@D@std@@V?$allocator@D@2@@1@@Z 03000008 f   libcpmt:string.obj
 0001:fffff008       __ehhandler$??0logic_error@std@@QAE@ABV01@@Z 03000008 f   libcpmt:string.obj
 0001:fffff059       __catch$?_Copy@?$basic_string@DU?$char_traits@D@std@@V?$allocator@D@2@@std@@IAEXII@Z$0 03000059 f   libcpmt:string.obj
 0001:fffff072       __catch$?_Buynode@?$_Tree@V?$_Tmap_traits@V?$basic_string@DU?$char_traits@D@std@@V?$allocator@D@2@@std@@KU?$less@V?$basic_string@DU?$char_traits@D@std@@V?$allocator@D@2@@std@@@2@V?$allocator@U?$pair@$$CBV?$basic_string@DU?$char_traits@D@std@@V?$allocator@D@2@@std@@K@std@@@2@$0A@@std@@@std@@IAEPAU_Node@?$_Tree_nod@V?$_Tmap_traits@V?$basic_string@DU?$char_traits@D@std@@V?$allocator@D@2@@std@@KU?$less@V?$basic_string@DU?$char_traits@D@std@@V?$allocator@D@2@@std@@@2@V?$allocator@U?$pair@$$CBV?$basic_string@DU?$char_traits@D@std@@V?$allocator@D@2@@std@@K@std@@@2@$0A@@std@@@2@PAU342@00ABU?$pair@$$CBV?$basic_string@DU?$char_traits@D@std@@V?$allocator@D@2@@std@@K@2@D@Z$0 03000072 f   MQ2Data.obj
 0001:fffff072       __catch$?_Buynode@?$_Tree@V?$_Tmap_traits@V?$basic_string@DU?$char_traits@D@std@@V?$allocator@D@2@@std@@KU?$less@V?$basic_string@DU?$char_traits@D@std@@V?$allocator@D@2@@std@@@2@V?$allocator@U?$pair@$$CBV?$basic_string@DU?$char_traits@D@std@@V?$allocator@D@2@@std@@K@std@@@2@$0A@@std@@@std@@IAEPAU_Node@?$_Tree_nod@V?$_Tmap_traits@V?$basic_string@DU?$char_traits@D@std@@V?$allocator@D@2@@std@@KU?$less@V?$basic_string@DU?$char_traits@D@std@@V?$allocator@D@2@@std@@@2@V?$allocator@U?$pair@$$CBV?$basic_string@DU?$char_traits@D@std@@V?$allocator@D@2@@std@@K@std@@@2@$0A@@std@@@2@PAU342@00ABU?$pair@$$CBV?$basic_string@DU?$char_traits@D@std@@V?$allocator@D@2@@std@@K@2@D@Z$0 03000072 f   MQ2Windows.obj
 0001:fffff072       __catch$?_Buynode@?$_Tree@V?$_Tmap_traits@V?$basic_string@DU?$char_traits@D@std@@V?$allocator@D@2@@std@@KU?$less@V?$basic_string@DU?$char_traits@D@std@@V?$allocator@D@2@@std@@@2@V?$allocator@U?$pair@$$CBV?$basic_string@DU?$char_traits@D@std@@V?$allocator@D@2@@std@@K@std@@@2@$0A@@std@@@std@@IAEPAU_Node@?$_Tree_nod@V?$_Tmap_traits@V?$basic_string@DU?$char_traits@D@std@@V?$allocator@D@2@@std@@KU?$less@V?$basic_string@DU?$char_traits@D@std@@V?$allocator@D@2@@std@@@2@V?$allocator@U?$pair@$$CBV?$basic_string@DU?$char_traits@D@std@@V?$allocator@D@2@@std@@K@std@@@2@$0A@@std@@@2@PAU342@00ABU?$pair@$$CBV?$basic_string@DU?$char_traits@D@std@@V?$allocator@D@2@@std@@K@2@D@Z$0 03000072 f   MQ2DataTypes.obj
 0001:fffff072       __catch$?_Buynode@?$_Tree@V?$_Tmap_traits@V?$basic_string@DU?$char_traits@D@std@@V?$allocator@D@2@@std@@KU?$less@V?$basic_string@DU?$char_traits@D@std@@V?$allocator@D@2@@std@@@2@V?$allocator@U?$pair@$$CBV?$basic_string@DU?$char_traits@D@std@@V?$allocator@D@2@@std@@K@std@@@2@$0A@@std@@@std@@IAEPAU_Node@?$_Tree_nod@V?$_Tmap_traits@V?$basic_string@DU?$char_traits@D@std@@V?$allocator@D@2@@std@@KU?$less@V?$basic_string@DU?$char_traits@D@std@@V?$allocator@D@2@@std@@@2@V?$allocator@U?$pair@$$CBV?$basic_string@DU?$char_traits@D@std@@V?$allocator@D@2@@std@@K@std@@@2@$0A@@std@@@2@PAU342@00ABU?$pair@$$CBV?$basic_string@DU?$char_traits@D@std@@V?$allocator@D@2@@std@@K@2@D@Z$0 03000072 f   MQ2KeyBinds.obj
 0001:fffff072       __catch$?_Buynode@?$_Tree@V?$_Tmap_traits@V?$basic_string@DU?$char_traits@D@std@@V?$allocator@D@2@@std@@KU?$less@V?$basic_string@DU?$char_traits@D@std@@V?$allocator@D@2@@std@@@2@V?$allocator@U?$pair@$$CBV?$basic_string@DU?$char_traits@D@std@@V?$allocator@D@2@@std@@K@std@@@2@$0A@@std@@@std@@IAEPAU_Node@?$_Tree_nod@V?$_Tmap_traits@V?$basic_string@DU?$char_traits@D@std@@V?$allocator@D@2@@std@@KU?$less@V?$basic_string@DU?$char_traits@D@std@@V?$allocator@D@2@@std@@@2@V?$allocator@U?$pair@$$CBV?$basic_string@DU?$char_traits@D@std@@V?$allocator@D@2@@std@@K@std@@@2@$0A@@std@@@2@PAU342@00ABU?$pair@$$CBV?$basic_string@DU?$char_traits@D@std@@V?$allocator@D@2@@std@@K@2@D@Z$0 03000072 f   MQ2DataAPI.obj
 0001:fffff079       __catch$?_Copy@?$basic_string@DU?$char_traits@D@std@@V?$allocator@D@2@@std@@IAEXII@Z$0 03000079 f   MQ2DataAPI.obj
 0001:fffff079       __catch$?_Copy@?$basic_string@DU?$char_traits@D@std@@V?$allocator@D@2@@std@@IAEXII@Z$0 03000079 f   MQ2KeyBinds.obj
 0001:fffff079       __catch$?_Copy@?$basic_string@DU?$char_traits@D@std@@V?$allocator@D@2@@std@@IAEXII@Z$0 03000079 f   MQ2Windows.obj
 0001:fffff079       __catch$?_Copy@?$basic_string@DU?$char_traits@D@std@@V?$allocator@D@2@@std@@IAEXII@Z$0 03000079 f   MQ2Commands.obj
 0001:fffff079       __catch$?_Copy@?$basic_string@DU?$char_traits@D@std@@V?$allocator@D@2@@std@@IAEXII@Z$0 03000079 f   MQ2Data.obj
 0001:fffff079       __catch$?_Copy@?$basic_string@DU?$char_traits@D@std@@V?$allocator@D@2@@std@@IAEXII@Z$0 03000079 f   MQ2CommandAPI.obj
 0001:fffff079       __catch$?_Copy@?$basic_string@DU?$char_traits@D@std@@V?$allocator@D@2@@std@@IAEXII@Z$0 03000079 f   MQ2MacroCommands.obj
 0001:fffff079       __catch$?_Copy@?$basic_string@DU?$char_traits@D@std@@V?$allocator@D@2@@std@@IAEXII@Z$0 03000079 f   MQ2DataVars.obj
 0001:fffff079       __catch$?_Copy@?$basic_string@DU?$char_traits@D@std@@V?$allocator@D@2@@std@@IAEXII@Z$0 03000079 f   MQ2DataTypes.obj
 0001:fffff079       __catch$?_Copy@?$basic_string@DU?$char_traits@D@std@@V?$allocator@D@2@@std@@IAEXII@Z$0 03000079 f   MQ2Globals.obj
 0001:fffff079       __catch$?_Copy@?$basic_string@DU?$char_traits@D@std@@V?$allocator@D@2@@std@@IAEXII@Z$0 03000079 f   MQ2PluginHandler.obj
 0001:fffff087       __catch$?_Buynode@?$_Tree@V?$_Tmap_traits@V?$basic_string@DU?$char_traits@D@std@@V?$allocator@D@2@@std@@KU?$less@V?$basic_string@DU?$char_traits@D@std@@V?$allocator@D@2@@std@@@2@V?$allocator@U?$pair@$$CBV?$basic_string@DU?$char_traits@D@std@@V?$allocator@D@2@@std@@K@std@@@2@$0A@@std@@@std@@IAEPAU_Node@?$_Tree_nod@V?$_Tmap_traits@V?$basic_string@DU?$char_traits@D@std@@V?$allocator@D@2@@std@@KU?$less@V?$basic_string@DU?$char_traits@D@std@@V?$allocator@D@2@@std@@@2@V?$allocator@U?$pair@$$CBV?$basic_string@DU?$char_traits@D@std@@V?$allocator@D@2@@std@@K@std@@@2@$0A@@std@@@2@XZ$0 03000087 f   MQ2Windows.obj
 0001:fffff087       __catch$?_Buynode@?$_Tree@V?$_Tmap_traits@V?$basic_string@DU?$char_traits@D@std@@V?$allocator@D@2@@std@@KU?$less@V?$basic_string@DU?$char_traits@D@std@@V?$allocator@D@2@@std@@@2@V?$allocator@U?$pair@$$CBV?$basic_string@DU?$char_traits@D@std@@V?$allocator@D@2@@std@@K@std@@@2@$0A@@std@@@std@@IAEPAU_Node@?$_Tree_nod@V?$_Tmap_traits@V?$basic_string@DU?$char_traits@D@std@@V?$allocator@D@2@@std@@KU?$less@V?$basic_string@DU?$char_traits@D@std@@V?$allocator@D@2@@std@@@2@V?$allocator@U?$pair@$$CBV?$basic_string@DU?$char_traits@D@std@@V?$allocator@D@2@@std@@K@std@@@2@$0A@@std@@@2@XZ$0 03000087 f   MQ2KeyBinds.obj
 0001:fffff087       __catch$?_Buynode@?$_Tree@V?$_Tmap_traits@V?$basic_string@DU?$char_traits@D@std@@V?$allocator@D@2@@std@@KU?$less@V?$basic_string@DU?$char_traits@D@std@@V?$allocator@D@2@@std@@@2@V?$allocator@U?$pair@$$CBV?$basic_string@DU?$char_traits@D@std@@V?$allocator@D@2@@std@@K@std@@@2@$0A@@std@@@std@@IAEPAU_Node@?$_Tree_nod@V?$_Tmap_traits@V?$basic_string@DU?$char_traits@D@std@@V?$allocator@D@2@@std@@KU?$less@V?$basic_string@DU?$char_traits@D@std@@V?$allocator@D@2@@std@@@2@V?$allocator@U?$pair@$$CBV?$basic_string@DU?$char_traits@D@std@@V?$allocator@D@2@@std@@K@std@@@2@$0A@@std@@@2@XZ$0 03000087 f   MQ2DataTypes.obj
 0001:fffff087       __catch$?_Buynode@?$_Tree@V?$_Tmap_traits@V?$basic_string@DU?$char_traits@D@std@@V?$allocator@D@2@@std@@KU?$less@V?$basic_string@DU?$char_traits@D@std@@V?$allocator@D@2@@std@@@2@V?$allocator@U?$pair@$$CBV?$basic_string@DU?$char_traits@D@std@@V?$allocator@D@2@@std@@K@std@@@2@$0A@@std@@@std@@IAEPAU_Node@?$_Tree_nod@V?$_Tmap_traits@V?$basic_string@DU?$char_traits@D@std@@V?$allocator@D@2@@std@@KU?$less@V?$basic_string@DU?$char_traits@D@std@@V?$allocator@D@2@@std@@@2@V?$allocator@U?$pair@$$CBV?$basic_string@DU?$char_traits@D@std@@V?$allocator@D@2@@std@@K@std@@@2@$0A@@std@@@2@XZ$0 03000087 f   MQ2DataAPI.obj
 0001:fffff087       __catch$?_Buynode@?$_Tree@V?$_Tmap_traits@V?$basic_string@DU?$char_traits@D@std@@V?$allocator@D@2@@std@@KU?$less@V?$basic_string@DU?$char_traits@D@std@@V?$allocator@D@2@@std@@@2@V?$allocator@U?$pair@$$CBV?$basic_string@DU?$char_traits@D@std@@V?$allocator@D@2@@std@@K@std@@@2@$0A@@std@@@std@@IAEPAU_Node@?$_Tree_nod@V?$_Tmap_traits@V?$basic_string@DU?$char_traits@D@std@@V?$allocator@D@2@@std@@KU?$less@V?$basic_string@DU?$char_traits@D@std@@V?$allocator@D@2@@std@@@2@V?$allocator@U?$pair@$$CBV?$basic_string@DU?$char_traits@D@std@@V?$allocator@D@2@@std@@K@std@@@2@$0A@@std@@@2@XZ$0 03000087 f   MQ2Globals.obj
 0001:fffff0ca       __catch$?_Copy@?$basic_string@DU?$char_traits@D@std@@V?$allocator@D@2@@std@@IAEXII@Z$1 030000ca f   libcpmt:string.obj
 0001:fffff111       __catch$?_Copy@?$basic_string@DU?$char_traits@D@std@@V?$allocator@D@2@@std@@IAEXII@Z$1 03000111 f   MQ2DataTypes.obj
 0001:fffff111       __catch$?_Copy@?$basic_string@DU?$char_traits@D@std@@V?$allocator@D@2@@std@@IAEXII@Z$1 03000111 f   MQ2DataVars.obj
 0001:fffff111       __catch$?_Copy@?$basic_string@DU?$char_traits@D@std@@V?$allocator@D@2@@std@@IAEXII@Z$1 03000111 f   MQ2CommandAPI.obj
 0001:fffff111       __catch$?_Copy@?$basic_string@DU?$char_traits@D@std@@V?$allocator@D@2@@std@@IAEXII@Z$1 03000111 f   MQ2MacroCommands.obj
 0001:fffff111       __catch$?_Copy@?$basic_string@DU?$char_traits@D@std@@V?$allocator@D@2@@std@@IAEXII@Z$1 03000111 f   MQ2Windows.obj
 0001:fffff111       __catch$?_Copy@?$basic_string@DU?$char_traits@D@std@@V?$allocator@D@2@@std@@IAEXII@Z$1 03000111 f   MQ2Data.obj
 0001:fffff111       __catch$?_Copy@?$basic_string@DU?$char_traits@D@std@@V?$allocator@D@2@@std@@IAEXII@Z$1 03000111 f   MQ2Commands.obj
 0001:fffff111       __catch$?_Copy@?$basic_string@DU?$char_traits@D@std@@V?$allocator@D@2@@std@@IAEXII@Z$1 03000111 f   MQ2PluginHandler.obj
 0001:fffff111       __catch$?_Copy@?$basic_string@DU?$char_traits@D@std@@V?$allocator@D@2@@std@@IAEXII@Z$1 03000111 f   MQ2KeyBinds.obj
 0001:fffff111       __catch$?_Copy@?$basic_string@DU?$char_traits@D@std@@V?$allocator@D@2@@std@@IAEXII@Z$1 03000111 f   MQ2DataAPI.obj
 0001:fffff111       __catch$?_Copy@?$basic_string@DU?$char_traits@D@std@@V?$allocator@D@2@@std@@IAEXII@Z$1 03000111 f   MQ2Globals.obj
 0001:00002290       ?GetCharInfo@@YAPAU_CHARINFO@EQData@@XZ 03003290 f   MQ2ChatHook.obj
 0001:00002e99       __catch$?_Copy@?$basic_string@DU?$char_traits@D@std@@V?$allocator@D@2@@std@@IAEXII@Z$0 03003e99 f i MQ2ChatHook.obj
 0001:00002f31       __catch$?_Copy@?$basic_string@DU?$char_traits@D@std@@V?$allocator@D@2@@std@@IAEXII@Z$1 03003f31 f i MQ2ChatHook.obj
 0001:00002ff7       __catch$?_Buynode@?$_Tree@V?$_Tmap_traits@IPAU_BLECHEVENT@@U?$less@I@std@@V?$allocator@U?$pair@$$CBIPAU_BLECHEVENT@@@std@@@3@$0A@@std@@@std@@IAEPAU_Node@?$_Tree_nod@V?$_Tmap_traits@IPAU_BLECHEVENT@@U?$less@I@std@@V?$allocator@U?$pair@$$CBIPAU_BLECHEVENT@@@std@@@3@$0A@@std@@@2@XZ$0 03003ff7 f i MQ2ChatHook.obj
 0001:00006dc0       ?GetCharInfo@@YAPAU_CHARINFO@EQData@@XZ 03007dc0 f   MQ2Commands.obj
 0001:00006dd0       ?GetCharInfo2@@YAPAU_CHARINFO2@EQData@@XZ 03007dd0 f   MQ2Commands.obj
 0001:00006df0       ?GetSpawnByID@@YAPAVEQPlayer@EQClasses@@K@Z 03007df0 f   MQ2Commands.obj
 0001:00006e00       ?GetSpellByID@@YAPAU_SPELL@EQData@@K@Z 03007e00 f   MQ2Commands.obj
 0001:00006e20       ?GetClassDesc@@YAPADK@Z    03007e20 f   MQ2Commands.obj
 0001:00006ec0       ?GetDistance@@YAMPAU_SPAWNINFO@EQData@@0@Z 03007ec0 f   MQ2Commands.obj
 0001:00006f00       ?IsNumber@@YAHPAD@Z        03007f00 f   MQ2Commands.obj
 0001:0000fc37       __catch$?_Buynode@?$_Tree@V?$_Tmap_traits@V?$basic_string@DU?$char_traits@D@std@@V?$allocator@D@2@@std@@KU?$less@V?$basic_string@DU?$char_traits@D@std@@V?$allocator@D@2@@std@@@2@V?$allocator@U?$pair@$$CBV?$basic_string@DU?$char_traits@D@std@@V?$allocator@D@2@@std@@K@std@@@2@$0A@@std@@@std@@IAEPAU_Node@?$_Tree_nod@V?$_Tmap_traits@V?$basic_string@DU?$char_traits@D@std@@V?$allocator@D@2@@std@@KU?$less@V?$basic_string@DU?$char_traits@D@std@@V?$allocator@D@2@@std@@@2@V?$allocator@U?$pair@$$CBV?$basic_string@DU?$char_traits@D@std@@V?$allocator@D@2@@std@@K@std@@@2@$0A@@std@@@2@XZ$0 03010c37 f i MQ2Commands.obj
 0001:00010572       __catch$?_Buynode@?$_Tree@V?$_Tmap_traits@V?$basic_string@DU?$char_traits@D@std@@V?$allocator@D@2@@std@@KU?$less@V?$basic_string@DU?$char_traits@D@std@@V?$allocator@D@2@@std@@@2@V?$allocator@U?$pair@$$CBV?$basic_string@DU?$char_traits@D@std@@V?$allocator@D@2@@std@@K@std@@@2@$0A@@std@@@std@@IAEPAU_Node@?$_Tree_nod@V?$_Tmap_traits@V?$basic_string@DU?$char_traits@D@std@@V?$allocator@D@2@@std@@KU?$less@V?$basic_string@DU?$char_traits@D@std@@V?$allocator@D@2@@std@@@2@V?$allocator@U?$pair@$$CBV?$basic_string@DU?$char_traits@D@std@@V?$allocator@D@2@@std@@K@std@@@2@$0A@@std@@@2@PAU342@00ABU?$pair@$$CBV?$basic_string@DU?$char_traits@D@std@@V?$allocator@D@2@@std@@K@2@D@Z$0 03011572 f i MQ2Commands.obj
 0001:000119e0       _localtime                 030129e0 f   MQ2Data.obj
 0001:000119f0       _time                      030129f0 f   MQ2Data.obj
 0001:00011a00       ?GetCharInfo@@YAPAU_CHARINFO@EQData@@XZ 03012a00 f   MQ2Data.obj
 0001:00011a10       ?GetCharInfo2@@YAPAU_CHARINFO2@EQData@@XZ 03012a10 f   MQ2Data.obj
 0001:00011a30       ?GetSpawnByID@@YAPAVEQPlayer@EQClasses@@K@Z 03012a30 f   MQ2Data.obj
 0001:00011a40       ?GetSpellByID@@YAPAU_SPELL@EQData@@K@Z 03012a40 f   MQ2Data.obj
 0001:00011a60       ?IsNumber@@YAHPAD@Z        03012a60 f   MQ2Data.obj
 0001:00011a90       ?IsNumberToComma@@YAHPAD@Z 03012a90 f   MQ2Data.obj
 0001:00014dc0       _time                      03015dc0 f   MQ2DataTypes.obj
 0001:00014e00       ?GetCharInfo@@YAPAU_CHARINFO@EQData@@XZ 03015e00 f   MQ2DataTypes.obj
 0001:00014e10       ?GetCharInfo2@@YAPAU_CHARINFO2@EQData@@XZ 03015e10 f   MQ2DataTypes.obj
 0001:00014e30       ?GetSpawnByID@@YAPAVEQPlayer@EQClasses@@K@Z 03015e30 f   MQ2DataTypes.obj
 0001:00014e40       ?GetSpawnByName@@YAPAVEQPlayer@EQClasses@@PAD@Z 03015e40 f   MQ2DataTypes.obj
 0001:00014e50       ?GetSpellByID@@YAPAU_SPELL@EQData@@K@Z 03015e50 f   MQ2DataTypes.obj
 0001:00014e70       ?GetBodyTypeDesc@@YAPADK@Z 03015e70 f   MQ2DataTypes.obj
 0001:00014e90       ?GetClassDesc@@YAPADK@Z    03015e90 f   MQ2DataTypes.obj
 0001:00014f30       ?GetBodyType@@YAKPAU_SPAWNINFO@EQData@@@Z 03015f30 f   MQ2DataTypes.obj
 0001:00014fa0       ?GetSpawnType@@YA?AW4eSpawnType@MQ2Internal@@PAU_SPAWNINFO@EQData@@@Z 03015fa0 f   MQ2DataTypes.obj
 0001:00015210       ?GetDistance@@YAMMM@Z      03016210 f   MQ2DataTypes.obj
 0001:00015260       ?GetDistance3D@@YAMMMMMMM@Z 03016260 f   MQ2DataTypes.obj
 0001:000152c0       ?IsNumber@@YAHPAD@Z        030162c0 f   MQ2DataTypes.obj
 0001:000152f0       ?IsNumberToComma@@YAHPAD@Z 030162f0 f   MQ2DataTypes.obj
 0001:00015330       ?LineOfSight@@YAHPAU_SPAWNINFO@EQData@@0@Z 03016330 f   MQ2DataTypes.obj
 0001:00015360       ?IsMobFleeing@@YAHPAU_SPAWNINFO@EQData@@0@Z 03016360 f   MQ2DataTypes.obj
 0001:0002a287       __catch$?_Buynode@?$_Tree@V?$_Tmap_traits@V?$basic_string@DU?$char_traits@D@std@@V?$allocator@D@2@@std@@PAU_DATAVAR@MQ2Internal@@U?$less@V?$basic_string@DU?$char_traits@D@std@@V?$allocator@D@2@@std@@@2@V?$allocator@U?$pair@$$CBV?$basic_string@DU?$char_traits@D@std@@V?$allocator@D@2@@std@@PAU_DATAVAR@MQ2Internal@@@std@@@2@$0A@@std@@@std@@IAEPAU_Node@?$_Tree_nod@V?$_Tmap_traits@V?$basic_string@DU?$char_traits@D@std@@V?$allocator@D@2@@std@@PAU_DATAVAR@MQ2Internal@@U?$less@V?$basic_string@DU?$char_traits@D@std@@V?$allocator@D@2@@std@@@2@V?$allocator@U?$pair@$$CBV?$basic_string@DU?$char_traits@D@std@@V?$allocator@D@2@@std@@PAU_DATAVAR@MQ2Internal@@@std@@@2@$0A@@std@@@2@XZ$0 0302b287 f i MQ2DataVars.obj
 0001:0002aa82       __catch$?_Buynode@?$_Tree@V?$_Tmap_traits@V?$basic_string@DU?$char_traits@D@std@@V?$allocator@D@2@@std@@PAU_DATAVAR@MQ2Internal@@U?$less@V?$basic_string@DU?$char_traits@D@std@@V?$allocator@D@2@@std@@@2@V?$allocator@U?$pair@$$CBV?$basic_string@DU?$char_traits@D@std@@V?$allocator@D@2@@std@@PAU_DATAVAR@MQ2Internal@@@std@@@2@$0A@@std@@@std@@IAEPAU_Node@?$_Tree_nod@V?$_Tmap_traits@V?$basic_string@DU?$char_traits@D@std@@V?$allocator@D@2@@std@@PAU_DATAVAR@MQ2Internal@@U?$less@V?$basic_string@DU?$char_traits@D@std@@V?$allocator@D@2@@std@@@2@V?$allocator@U?$pair@$$CBV?$basic_string@DU?$char_traits@D@std@@V?$allocator@D@2@@std@@PAU_DATAVAR@MQ2Internal@@@std@@@2@$0A@@std@@@2@PAU342@00ABU?$pair@$$CBV?$basic_string@DU?$char_traits@D@std@@V?$allocator@D@2@@std@@PAU_DATAVAR@MQ2Internal@@@2@D@Z$0 0302ba82 f i MQ2DataVars.obj
 0001:0002e527       __catch$?_Buynode@?$_Tree@V?$_Tmap_traits@V?$basic_string@DU?$char_traits@D@std@@V?$allocator@D@2@@std@@PAU_MACROBLOCK@MQ2Internal@@U?$less@V?$basic_string@DU?$char_traits@D@std@@V?$allocator@D@2@@std@@@2@V?$allocator@U?$pair@$$CBV?$basic_string@DU?$char_traits@D@std@@V?$allocator@D@2@@std@@PAU_MACROBLOCK@MQ2Internal@@@std@@@2@$0A@@std@@@std@@IAEPAU_Node@?$_Tree_nod@V?$_Tmap_traits@V?$basic_string@DU?$char_traits@D@std@@V?$allocator@D@2@@std@@PAU_MACROBLOCK@MQ2Internal@@U?$less@V?$basic_string@DU?$char_traits@D@std@@V?$allocator@D@2@@std@@@2@V?$allocator@U?$pair@$$CBV?$basic_string@DU?$char_traits@D@std@@V?$allocator@D@2@@std@@PAU_MACROBLOCK@MQ2Internal@@@std@@@2@$0A@@std@@@2@XZ$0 0302f527 f i MQ2Globals.obj
 0001:0002e5c7       __catch$?_Buynode@?$_Tree@V?$_Tmap_traits@V?$basic_string@DU?$char_traits@D@std@@V?$allocator@D@2@@std@@PAU_SPAWNINFO@EQData@@U?$less@V?$basic_string@DU?$char_traits@D@std@@V?$allocator@D@2@@std@@@2@V?$allocator@U?$pair@$$CBV?$basic_string@DU?$char_traits@D@std@@V?$allocator@D@2@@std@@PAU_SPAWNINFO@EQData@@@std@@@2@$0A@@std@@@std@@IAEPAU_Node@?$_Tree_nod@V?$_Tmap_traits@V?$basic_string@DU?$char_traits@D@std@@V?$allocator@D@2@@std@@PAU_SPAWNINFO@EQData@@U?$less@V?$basic_string@DU?$char_traits@D@std@@V?$allocator@D@2@@std@@@2@V?$allocator@U?$pair@$$CBV?$basic_string@DU?$char_traits@D@std@@V?$allocator@D@2@@std@@PAU_SPAWNINFO@EQData@@@std@@@2@$0A@@std@@@2@XZ$0 0302f5c7 f i MQ2Globals.obj
 0001:00030fa0       ?Equalness@@YAIPBD0@Z      03031fa0 f   MQ2MacroCommands.obj
 0001:00031540       ?GetCharInfo@@YAPAU_CHARINFO@EQData@@XZ 03032540 f   MQ2MacroCommands.obj
 0001:00032d52       __catch$?_Buynode@?$_Tree@V?$_Tmap_traits@IPAU_BLECHEVENT@@U?$less@I@std@@V?$allocator@U?$pair@$$CBIPAU_BLECHEVENT@@@std@@@3@$0A@@std@@@std@@IAEPAU_Node@?$_Tree_nod@V?$_Tmap_traits@IPAU_BLECHEVENT@@U?$less@I@std@@V?$allocator@U?$pair@$$CBIPAU_BLECHEVENT@@@std@@@3@$0A@@std@@@2@PAU342@00ABU?$pair@$$CBIPAU_BLECHEVENT@@@2@D@Z$0 03033d52 f i MQ2MacroCommands.obj
 0001:00033302       __catch$?_Buynode@?$_Tree@V?$_Tmap_traits@V?$basic_string@DU?$char_traits@D@std@@V?$allocator@D@2@@std@@PAU_MACROBLOCK@MQ2Internal@@U?$less@V?$basic_string@DU?$char_traits@D@std@@V?$allocator@D@2@@std@@@2@V?$allocator@U?$pair@$$CBV?$basic_string@DU?$char_traits@D@std@@V?$allocator@D@2@@std@@PAU_MACROBLOCK@MQ2Internal@@@std@@@2@$0A@@std@@@std@@IAEPAU_Node@?$_Tree_nod@V?$_Tmap_traits@V?$basic_string@DU?$char_traits@D@std@@V?$allocator@D@2@@std@@PAU_MACROBLOCK@MQ2Internal@@U?$less@V?$basic_string@DU?$char_traits@D@std@@V?$allocator@D@2@@std@@@2@V?$allocator@U?$pair@$$CBV?$basic_string@DU?$char_traits@D@std@@V?$allocator@D@2@@std@@PAU_MACROBLOCK@MQ2Internal@@@std@@@2@$0A@@std@@@2@PAU342@00ABU?$pair@$$CBV?$basic_string@DU?$char_traits@D@std@@V?$allocator@D@2@@std@@PAU_MACROBLOCK@MQ2Internal@@@2@D@Z$0 03034302 f i MQ2MacroCommands.obj
 0001:00035010       _time                      03036010 f   MQ2Main.obj
 0001:00036cb0       ?GetCharInfo@@YAPAU_CHARINFO@EQData@@XZ 03037cb0 f   MQ2ParseAPI.obj
 0001:00036da0       ?GetCharInfo@@YAPAU_CHARINFO@EQData@@XZ 03037da0 f   MQ2PluginHandler.obj
 0001:00036db0       ?GetCharInfo2@@YAPAU_CHARINFO2@EQData@@XZ 03037db0 f   MQ2PluginHandler.obj
 0001:00036dd0       ?GetBodyTypeDesc@@YAPADK@Z 03037dd0 f   MQ2PluginHandler.obj
 0001:00036df0       ?GetClassDesc@@YAPADK@Z    03037df0 f   MQ2PluginHandler.obj
 0001:00036e90       ?GetBodyType@@YAKPAU_SPAWNINFO@EQData@@@Z 03037e90 f   MQ2PluginHandler.obj
 0001:00038300       ?GetCharInfo@@YAPAU_CHARINFO@EQData@@XZ 03039300 f   MQ2Pulse.obj
 0001:00038310       ?GetCharInfo2@@YAPAU_CHARINFO2@EQData@@XZ 03039310 f   MQ2Pulse.obj
 0001:00038f20       ?MQRankFloatCompare@MQ2Internal@@YAHPBX0@Z 03039f20 f   MQ2Spawns.obj
 0001:00038f60       ?GetCharInfo@@YAPAU_CHARINFO@EQData@@XZ 03039f60 f   MQ2Spawns.obj
 0001:00038f70       ?GetSpawnByID@@YAPAVEQPlayer@EQClasses@@K@Z 03039f70 f   MQ2Spawns.obj
 0001:00038f80       ?IsAssistNPC@@YAHPAU_SPAWNINFO@EQData@@@Z 03039f80 f   MQ2Spawns.obj
 0001:00038fd0       ?IsMarkedNPC@@YAHPAU_SPAWNINFO@EQData@@@Z 03039fd0 f   MQ2Spawns.obj
 0001:00039030       ?GetBodyType@@YAKPAU_SPAWNINFO@EQData@@@Z 0303a030 f   MQ2Spawns.obj
 0001:000390a0       ?GetSpawnType@@YA?AW4eSpawnType@MQ2Internal@@PAU_SPAWNINFO@EQData@@@Z 0303a0a0 f   MQ2Spawns.obj
 0001:00039310       ?GetDistance@@YAMMM@Z      0303a310 f   MQ2Spawns.obj
 0001:00039360       ?ConColorToARGB@@YAKK@Z    0303a360 f   MQ2Spawns.obj
 0001:000393d0       ?IsRaidMember@@YAHPAU_SPAWNINFO@EQData@@@Z 0303a3d0 f   MQ2Spawns.obj
 0001:00039430       ?IsGroupMember@@YAHPAU_SPAWNINFO@EQData@@@Z 0303a430 f   MQ2Spawns.obj
 0001:0003a710       ?pMQRankFloatCompare@MQ2Internal@@YAHPBX0@Z 0303b710 f   MQ2Utilities.obj
 0001:0003a750       ?GetCharInfo@@YAPAU_CHARINFO@EQData@@XZ 0303b750 f   MQ2Utilities.obj
 0001:0003a760       ?GetCharInfo2@@YAPAU_CHARINFO2@EQData@@XZ 0303b760 f   MQ2Utilities.obj
 0001:0003a780       ?GetSpawnByID@@YAPAVEQPlayer@EQClasses@@K@Z 0303b780 f   MQ2Utilities.obj
 0001:0003a790       ?GetSpellByID@@YAPAU_SPELL@EQData@@K@Z 0303b790 f   MQ2Utilities.obj
 0001:0003a7b0       ?GetBodyTypeDesc@@YAPADK@Z 0303b7b0 f   MQ2Utilities.obj
 0001:0003a7d0       ?GetClassDesc@@YAPADK@Z    0303b7d0 f   MQ2Utilities.obj
 0001:0003a870       ?GetBodyType@@YAKPAU_SPAWNINFO@EQData@@@Z 0303b870 f   MQ2Utilities.obj
 0001:0003a8e0       ?GetSpawnType@@YA?AW4eSpawnType@MQ2Internal@@PAU_SPAWNINFO@EQData@@@Z 0303b8e0 f   MQ2Utilities.obj
 0001:0003ab50       ?GetDistance@@YAMMMMM@Z    0303bb50 f   MQ2Utilities.obj
 0001:0003ab90       ?GetDistance@@YAMPAU_SPAWNINFO@EQData@@0@Z 0303bb90 f   MQ2Utilities.obj
 0001:0003abd0       ?FindMount@@YAPAU_SPAWNINFO@EQData@@PAU12@@Z 0303bbd0 f   MQ2Utilities.obj
 0001:0003abe0       ?IsNumber@@YAHPAD@Z        0303bbe0 f   MQ2Utilities.obj
 0001:0003ac10       ?LineOfSight@@YAHPAU_SPAWNINFO@EQData@@0@Z 0303bc10 f   MQ2Utilities.obj
 0001:0004c520       ?GetCharInfo@@YAPAU_CHARINFO@EQData@@XZ 0304d520 f   MQ2Windows.obj
 0001:0004c530       ?GetCharInfo2@@YAPAU_CHARINFO2@EQData@@XZ 0304d530 f   MQ2Windows.obj
 0001:0004f9f0       ?detour_insert_detour@@YAHPAE00@Z 030509f0 f   detours:detours.obj
 0001:0004fce0       ?detour_insert_jump@@YAHPAE0J@Z 03050ce0 f   detours:detours.obj
 0001:000507d0       ?RvaAdjust@@YAPAEPAUHINSTANCE__@@K@Z 030517d0 f   detours:detours.obj
 0001:000508b0       ?GetPayloadSectionFromModule@@YGPAXPAUHINSTANCE__@@@Z 030518b0 f   detours:detours.obj
 0001:0005252e       ?CatchGuardHandler@@YA?AW4_EXCEPTION_DISPOSITION@@PAUEHExceptionRecord@@PAUCatchGuardRN@@PAX2@Z 0305352e f   LIBCMT:_trnsctrl_.obj
 0001:00052638       ?TranslatorGuardHandler@@YA?AW4_EXCEPTION_DISPOSITION@@PAUEHExceptionRecord@@PAUTranslatorGuardRN@@PAX2@Z 03053638 f   LIBCMT:_trnsctrl_.obj
 0001:00054805       __onexit_nolock            03055805 f   LIBCMT:onexit.obj
 0001:00054943       _vscan_fn                  03055943 f   LIBCMT:sscanf.obj
 0001:000556c0       _swap                      030566c0 f   LIBCMT:qsort.obj
 0001:000556f0       _shortsort                 030566f0 f   LIBCMT:qsort.obj
 0001:00055c4d       _xtoa@16                   03056c4d f   LIBCMT:xtoa.obj
 0001:00055cfc       @x64toa@20                 03056cfc f   LIBCMT:xtoa.obj
 0001:00056324       ___DllMainCRTStartup       03057324 f   LIBCMT:dllcrt0.obj
 0001:00056708       __unwind_handler           03057708 f   LIBCMT:exsup.obj
 0001:000569d8       _cmpResult                 030579d8 f   LIBCMT:memcmp.obj
 0001:000569ea       _cmpBYTE                   030579ea f   LIBCMT:memcmp.obj
 0001:00056a02       _cmpWORD                   03057a02 f   LIBCMT:memcmp.obj
 0001:00056a42       _cmpDWORD                  03057a42 f   LIBCMT:memcmp.obj
 0001:00056aba       _unaligned_memcmp          03057aba f   LIBCMT:memcmp.obj
 0001:000595ce       _fastzero_I                0305a5ce f   LIBCMT:p4_memset.obj
 0001:000596b4       _has_osfxsr_set            0305a6b4 f   LIBCMT:cpu_disp.obj
 0001:0005ab90       _ValidateLocalCookies      0305bb90 f   LIBCMT:chandler4.obj
 0001:0005adfa       __initterm                 0305bdfa f   LIBCMT:crt0dat.obj
 0001:0005af38       _doexit                    0305bf38 f   LIBCMT:crt0dat.obj
 0001:0005b389       _fastcopy_I                0305c389 f   LIBCMT:p4_memcpy.obj
 0001:0005b657       _write_char                0305c657 f   LIBCMT:output.obj
 0001:0005b68a       _write_multi_char          0305c68a f   LIBCMT:output.obj
 0001:0005b6b0       _write_string              0305c6b0 f   LIBCMT:output.obj
 0001:0005c77a       __shift                    0305d77a f   LIBCMT:cvt.obj
 0001:0005c7bf       __cftoe2_l                 0305d7bf f   LIBCMT:cvt.obj
 0001:0005cdb1       __cftof2_l                 0305ddb1 f   LIBCMT:cvt.obj
 0001:0005de19       ?ExFilterRethrow@@YAHPAU_EXCEPTION_POINTERS@@@Z 0305ee19 f   LIBCMT:frame.obj
 0001:0005e20d       ?IsInExceptionSpec@@YAEPAUEHExceptionRecord@@PBU_s_ESTypeList@@@Z 0305f20d f   LIBCMT:frame.obj
 0001:0005e288       ?CallUnexpected@@YAXPBU_s_ESTypeList@@@Z 0305f288 f   LIBCMT:frame.obj
 0001:0005e2b9       __catch$?CallUnexpected@@YAXPBU_s_ESTypeList@@@Z$0 0305f2b9 f   LIBCMT:frame.obj
 0001:0005e2d1       ?Is_bad_exception_allowed@@YAEPBU_s_ESTypeList@@@Z 0305f2d1 f   LIBCMT:frame.obj
 0001:0005e389       ?CallCatchBlock@@YAPAXPAUEHExceptionRecord@@PAUEHRegistrationNode@@PAU_CONTEXT@@PBU_s_FuncInfo@@PAXHK@Z 0305f389 f   LIBCMT:frame.obj
 0001:0005e87b       ?CatchIt@@YAXPAUEHExceptionRecord@@PAUEHRegistrationNode@@PAU_CONTEXT@@PAXPBU_s_FuncInfo@@PBU_s_HandlerType@@PBU_s_CatchableType@@PBU_s_TryBlockMapEntry@@H1E@Z 0305f87b f   LIBCMT:frame.obj
 0001:0005e8e9       ?FindHandlerForForeignException@@YAXPAUEHExceptionRecord@@PAUEHRegistrationNode@@PAU_CONTEXT@@PAXPBU_s_FuncInfo@@HH1@Z 0305f8e9 f   LIBCMT:frame.obj
 0001:0005e9dd       ?FindHandler@@YAXPAUEHExceptionRecord@@PAUEHRegistrationNode@@PAU_CONTEXT@@PAXPBU_s_FuncInfo@@EH1@Z 0305f9dd f   LIBCMT:frame.obj
 0001:0005ef0c       ?CPtoLCID@@YAHH@Z          0305ff0c f   LIBCMT:mbctype.obj
 0001:0005ef3b       ?setSBCS@@YAXPAUthreadmbcinfostruct@@@Z 0305ff3b f   LIBCMT:mbctype.obj
 0001:0005ef9f       ?setSBUpLow@@YAXPAUthreadmbcinfostruct@@@Z 0305ff9f f   LIBCMT:mbctype.obj
 0001:0005f1d6       ?getSystemCP@@YAHH@Z       030601d6 f   LIBCMT:mbctype.obj
 0001:0005f8aa       __copytlocinfo_nolock      030608aa f   LIBCMT:setlocal.obj
 0001:0005f8d0       __updatetlocinfoEx_nolock  030608d0 f   LIBCMT:setlocal.obj
 0001:0005f9ee       _sync_legacy_variables_lk  030609ee f   LIBCMT:setlocal.obj
 0001:0005fd9b       __setlocale_get_all        03060d9b f   LIBCMT:setlocal.obj
 0001:00060149       __setlocale_set_cat        03061149 f   LIBCMT:setlocal.obj
 0001:0006044b       __setlocale_nolock         0306144b f   LIBCMT:setlocal.obj
 0001:000610ac       ?strtoxl@@YAKPAUlocaleinfo_struct@@PBDPAPBDHH@Z 030620ac f   LIBCMT:strtol.obj
 0001:0006136c       ?strtoxq@@YA_KPAUlocaleinfo_struct@@PBDPAPBDHH@Z 0306236c f   LIBCMT:strtoq.obj
 0001:00061910       _flsall                    03062910 f   LIBCMT:fflush.obj
 0001:000625e4       __unwind_handler4          030635e4 f   LIBCMT:exsup4.obj
 0001:000634aa       ?strncnt@@YAHPBDH@Z        030644aa f   LIBCMT:a_map.obj
 0001:000634c8       ?__crtLCMapStringA_stat@@YAHPAUlocaleinfo_struct@@KKPBDHPADHHH@Z 030644c8 f   LIBCMT:a_map.obj
 0001:00063dcd       __tzset_nolock             03064dcd f   LIBCMT:tzset.obj
 0001:00064113       _cvtdate                   03065113 f   LIBCMT:tzset.obj
 0001:0006430a       __isindst_nolock           0306530a f   LIBCMT:tzset.obj
 0001:00064ef7       ___check_float_string      03065ef7 f   LIBCMT:input.obj
 0001:00064f60       __hextodec                 03065f60 f   LIBCMT:input.obj
 0001:00064f80       __inc                      03065f80 f   LIBCMT:input.obj
 0001:00064f96       __un_inc                   03065f96 f   LIBCMT:input.obj
 0001:00064fa9       __whiteout                 03065fa9 f   LIBCMT:input.obj
 0001:00065f90       ___check_float_string      03066f90 f   LIBCMT:inputs.obj
 0001:00065fe7       __hextodec                 03066fe7 f   LIBCMT:inputs.obj
 0001:00066007       __inc                      03067007 f   LIBCMT:inputs.obj
 0001:0006601d       __un_inc                   0306701d f   LIBCMT:inputs.obj
 0001:00066030       __whiteout                 03067030 f   LIBCMT:inputs.obj
 0001:00068ad5       _write_char                03069ad5 f   LIBCMT:outputp.obj
 0001:00068b08       _write_multi_char          03069b08 f   LIBCMT:outputp.obj
 0001:00068b2e       _write_string              03069b2e f   LIBCMT:outputp.obj
 0001:0006b3e5       _parse_cmdline             0306c3e5 f   LIBCMT:stdargv.obj
 0001:0006b7be       _xcptlookup                0306c7be f   LIBCMT:winxfltr.obj
 0001:0006bb50       _ValidateScopeTableHandlers 0306cb50 f   LIBCMT:eh3valid.obj
 0001:0006c13b       _ctrlevent_capture@4       0306d13b f   LIBCMT:winsig.obj
 0001:0006c1d6       _siglookup                 0306d1d6 f   LIBCMT:winsig.obj
 0001:0006d688       _write_char                0306e688 f   LIBCMT:outputs.obj
 0001:0006d6bb       _write_multi_char          0306e6bb f   LIBCMT:outputs.obj
 0001:0006d6e1       _write_string              0306e6e1 f   LIBCMT:outputs.obj
 0001:0006f36e       ?und_strlen@@YAIPBD@Z      0307036e f   LIBCMT:undname.obj
 0001:0006f37c       ?und_memcpy@@YAXPADPBDI@Z  0307037c f   LIBCMT:undname.obj
 0001:0006f392       ?und_strncmp@@YAIPBD0I@Z   03070392 f   LIBCMT:undname.obj
 0001:00073cac       ?__crtGetStringTypeA_stat@@YAHPAUlocaleinfo_struct@@KPBDHPAGHHH@Z 03074cac f   LIBCMT:a_str.obj
 0001:00073ed7       __get_lc_time              03074ed7 f   LIBCMT:inittime.obj
 0001:00074500       _fix_grouping              03075500 f   LIBCMT:initnum.obj
 0001:00074742       _fix_grouping              03075742 f   LIBCMT:initmon.obj
 0001:00075497       ?_store_str@@YAXPADPAPADPAI@Z 03076497 f   LIBCMT:strftime.obj
 0001:000754b7       ?_store_number@@YAXHPAPADPAI@Z 030764b7 f   LIBCMT:strftime.obj
 0001:000754ed       ?_store_num@@YAXHHPAPADPAII@Z 030764ed f   LIBCMT:strftime.obj
 0001:00075568       ?_expandtime@@YAHPAUlocaleinfo_struct@@DPBUtm@@PAPADPAIPAU__lc_time_data@@I@Z 03076568 f   LIBCMT:strftime.obj
 0001:00075950       ?_store_winword@@YAHPAUlocaleinfo_struct@@HPBUtm@@PAPADPAIPAU__lc_time_data@@@Z 03076950 f   LIBCMT:strftime.obj
 0001:00076026       _TranslateName             03077026 f   LIBCMT:getqloc.obj
 0001:00076088       _GetLcidFromDefault        03077088 f   LIBCMT:getqloc.obj
 0001:0007609c       _ProcessCodePage           0307709c f   LIBCMT:getqloc.obj
 0001:00076140       _TestDefaultCountry        03077140 f   LIBCMT:getqloc.obj
 0001:00076164       _LcidFromHexString         03077164 f   LIBCMT:getqloc.obj
 0001:00076198       _GetPrimaryLen             03077198 f   LIBCMT:getqloc.obj
 0001:000761b3       _CountryEnumProc@4         030771b3 f   LIBCMT:getqloc.obj
 0001:0007624b       _TestDefaultLanguage       0307724b f   LIBCMT:getqloc.obj
 0001:000762bf       _LangCountryEnumProc@4     030772bf f   LIBCMT:getqloc.obj
 0001:00076491       _LanguageEnumProc@4        03077491 f   LIBCMT:getqloc.obj
 0001:00076552       _GetLcidFromCountry        03077552 f   LIBCMT:getqloc.obj
 0001:0007657e       _GetLcidFromLangCountry    0307757e f   LIBCMT:getqloc.obj
 0001:000765e5       _GetLcidFromLanguage       030775e5 f   LIBCMT:getqloc.obj
 0001:00077014       __tsopen_nolock            03078014 f   LIBCMT:open.obj
 0001:00079415       ?__crtGetLocaleInfoW_stat@@YAHPAUlocaleinfo_struct@@KKPA_WHH@Z 0307a415 f   LIBCMT:w_loc.obj
 0001:00079462       ?__crtGetLocaleInfoA_stat@@YAHPAUlocaleinfo_struct@@KKPADHH@Z 0307a462 f   LIBCMT:a_loc.obj
 0001:00079665       __getenv_s_helper          0307a665 f   LIBCMT:getenv.obj
 0001:000796fa       __dupenv_s_helper          0307a6fa f   LIBCMT:getenv.obj
 0001:0007ad25       __get_fname                0307bd25 f   LIBCMT:_fpexcept_.obj
 0001:0007c67f       ?x_ismbbtype_l@@YAHPAUlocaleinfo_struct@@IHH@Z 0307d67f f   LIBCMT:ismbbyte.obj
 0001:0007d47f       __abstract_cw              0307e47f f   LIBCMT:_ieee87_.obj
 0001:0007d51e       __hw_cw                    0307e51e f   LIBCMT:_ieee87_.obj
 0001:0007d5ac       __abstract_sw              0307e5ac f   LIBCMT:_ieee87_.obj
 0001:0007d5ef       ___abstract_cw_sse2        0307e5ef f   LIBCMT:_ieee87_.obj
 0001:0007d68f       ___hw_cw_sse2              0307e68f f   LIBCMT:_ieee87_.obj
 0001:0007d72f       ___abstract_sw_sse2        0307e72f f   LIBCMT:_ieee87_.obj
 0001:0007d772       ___fpreset_sse2            0307e772 f   LIBCMT:_ieee87_.obj
 0001:0007d848       ___statusfp_sse2           0307e848 f   LIBCMT:_ieee87_.obj
 0001:0007d883       ___clearfp_sse2            0307e883 f   LIBCMT:_ieee87_.obj
 0001:0007d8d3       ___control87_sse2          0307e8d3 f   LIBCMT:_ieee87_.obj
 0001:0007e601       _xtoa_s@20                 0307f601 f   LIBCMT:xtoas.obj
 0001:0007e749       @x64toa_s@24               0307f749 f   LIBCMT:xtoas.obj
 0001:0007f0bc       ?__crtGetStringTypeW_stat@@YAHPAUlocaleinfo_struct@@KPB_WHPAGHH@Z 030800bc f   LIBCMT:w_str.obj
 0001:0007f3c1       ?strncnt@@YAHPBDH@Z        030803c1 f   LIBCMT:a_cmp.obj
 0001:0007f3df       ?__crtCompareStringA_stat@@YAHPAUlocaleinfo_struct@@KKPBDH1HH@Z 030803df f   LIBCMT:a_cmp.obj
 0001:0007f8b4       _findenv                   030808b4 f   LIBCMT:setenv.obj
 0001:0007f906       _copy_environ              03080906 f   LIBCMT:setenv.obj
 0001:0007fec6       ?_strupr_s_l_stat@@YAHPADIPAUlocaleinfo_struct@@@Z 03080ec6 f   LIBCMT:strupr.obj
 0001:00080110       __ehhandler$?_Copy@?$basic_string@DU?$char_traits@D@std@@V?$allocator@D@2@@std@@IAEXII@Z 03081110 f   MQ2ChatHook.obj
 0001:00080120       __ehhandler$?_Buynode@?$_Tree@V?$_Tmap_traits@IPAU_BLECHEVENT@@U?$less@I@std@@V?$allocator@U?$pair@$$CBIPAU_BLECHEVENT@@@std@@@3@$0A@@std@@@std@@IAEPAU_Node@?$_Tree_nod@V?$_Tmap_traits@IPAU_BLECHEVENT@@U?$less@I@std@@V?$allocator@U?$pair@$$CBIPAU_BLECHEVENT@@@std@@@3@$0A@@std@@@2@XZ 03081120 f   MQ2ChatHook.obj
 0001:00080130       __ehhandler$?_Buynode@?$_Tree@V?$_Tmap_traits@V?$basic_string@DU?$char_traits@D@std@@V?$allocator@D@2@@std@@KU?$less@V?$basic_string@DU?$char_traits@D@std@@V?$allocator@D@2@@std@@@2@V?$allocator@U?$pair@$$CBV?$basic_string@DU?$char_traits@D@std@@V?$allocator@D@2@@std@@K@std@@@2@$0A@@std@@@std@@IAEPAU_Node@?$_Tree_nod@V?$_Tmap_traits@V?$basic_string@DU?$char_traits@D@std@@V?$allocator@D@2@@std@@KU?$less@V?$basic_string@DU?$char_traits@D@std@@V?$allocator@D@2@@std@@@2@V?$allocator@U?$pair@$$CBV?$basic_string@DU?$char_traits@D@std@@V?$allocator@D@2@@std@@K@std@@@2@$0A@@std@@@2@XZ 03081130 f   MQ2Commands.obj
 0001:00080140       __ehhandler$?_Buynode@?$_Tree@V?$_Tmap_traits@V?$basic_string@DU?$char_traits@D@std@@V?$allocator@D@2@@std@@KU?$less@V?$basic_string@DU?$char_traits@D@std@@V?$allocator@D@2@@std@@@2@V?$allocator@U?$pair@$$CBV?$basic_string@DU?$char_traits@D@std@@V?$allocator@D@2@@std@@K@std@@@2@$0A@@std@@@std@@IAEPAU_Node@?$_Tree_nod@V?$_Tmap_traits@V?$basic_string@DU?$char_traits@D@std@@V?$allocator@D@2@@std@@KU?$less@V?$basic_string@DU?$char_traits@D@std@@V?$allocator@D@2@@std@@@2@V?$allocator@U?$pair@$$CBV?$basic_string@DU?$char_traits@D@std@@V?$allocator@D@2@@std@@K@std@@@2@$0A@@std@@@2@PAU342@00ABU?$pair@$$CBV?$basic_string@DU?$char_traits@D@std@@V?$allocator@D@2@@std@@K@2@D@Z 03081140 f   MQ2Commands.obj
 0001:00080150       __ehhandler$?_Buynode@?$_Tree@V?$_Tmap_traits@V?$basic_string@DU?$char_traits@D@std@@V?$allocator@D@2@@std@@PAU_DATAVAR@MQ2Internal@@U?$less@V?$basic_string@DU?$char_traits@D@std@@V?$allocator@D@2@@std@@@2@V?$allocator@U?$pair@$$CBV?$basic_string@DU?$char_traits@D@std@@V?$allocator@D@2@@std@@PAU_DATAVAR@MQ2Internal@@@std@@@2@$0A@@std@@@std@@IAEPAU_Node@?$_Tree_nod@V?$_Tmap_traits@V?$basic_string@DU?$char_traits@D@std@@V?$allocator@D@2@@std@@PAU_DATAVAR@MQ2Internal@@U?$less@V?$basic_string@DU?$char_traits@D@std@@V?$allocator@D@2@@std@@@2@V?$allocator@U?$pair@$$CBV?$basic_string@DU?$char_traits@D@std@@V?$allocator@D@2@@std@@PAU_DATAVAR@MQ2Internal@@@std@@@2@$0A@@std@@@2@XZ 03081150 f   MQ2DataVars.obj
 0001:00080160       __ehhandler$?_Buynode@?$_Tree@V?$_Tmap_traits@V?$basic_string@DU?$char_traits@D@std@@V?$allocator@D@2@@std@@PAU_DATAVAR@MQ2Internal@@U?$less@V?$basic_string@DU?$char_traits@D@std@@V?$allocator@D@2@@std@@@2@V?$allocator@U?$pair@$$CBV?$basic_string@DU?$char_traits@D@std@@V?$allocator@D@2@@std@@PAU_DATAVAR@MQ2Internal@@@std@@@2@$0A@@std@@@std@@IAEPAU_Node@?$_Tree_nod@V?$_Tmap_traits@V?$basic_string@DU?$char_traits@D@std@@V?$allocator@D@2@@std@@PAU_DATAVAR@MQ2Internal@@U?$less@V?$basic_string@DU?$char_traits@D@std@@V?$allocator@D@2@@std@@@2@V?$allocator@U?$pair@$$CBV?$basic_string@DU?$char_traits@D@std@@V?$allocator@D@2@@std@@PAU_DATAVAR@MQ2Internal@@@std@@@2@$0A@@std@@@2@PAU342@00ABU?$pair@$$CBV?$basic_string@DU?$char_traits@D@std@@V?$allocator@D@2@@std@@PAU_DATAVAR@MQ2Internal@@@2@D@Z 03081160 f   MQ2DataVars.obj
 0001:00080170       __ehhandler$?_Buynode@?$_Tree@V?$_Tmap_traits@V?$basic_string@DU?$char_traits@D@std@@V?$allocator@D@2@@std@@PAU_MACROBLOCK@MQ2Internal@@U?$less@V?$basic_string@DU?$char_traits@D@std@@V?$allocator@D@2@@std@@@2@V?$allocator@U?$pair@$$CBV?$basic_string@DU?$char_traits@D@std@@V?$allocator@D@2@@std@@PAU_MACROBLOCK@MQ2Internal@@@std@@@2@$0A@@std@@@std@@IAEPAU_Node@?$_Tree_nod@V?$_Tmap_traits@V?$basic_string@DU?$char_traits@D@std@@V?$allocator@D@2@@std@@PAU_MACROBLOCK@MQ2Internal@@U?$less@V?$basic_string@DU?$char_traits@D@std@@V?$allocator@D@2@@std@@@2@V?$allocator@U?$pair@$$CBV?$basic_string@DU?$char_traits@D@std@@V?$allocator@D@2@@std@@PAU_MACROBLOCK@MQ2Internal@@@std@@@2@$0A@@std@@@2@XZ 03081170 f   MQ2Globals.obj
 0001:00080180       __ehhandler$?_Buynode@?$_Tree@V?$_Tmap_traits@V?$basic_string@DU?$char_traits@D@std@@V?$allocator@D@2@@std@@PAU_SPAWNINFO@EQData@@U?$less@V?$basic_string@DU?$char_traits@D@std@@V?$allocator@D@2@@std@@@2@V?$allocator@U?$pair@$$CBV?$basic_string@DU?$char_traits@D@std@@V?$allocator@D@2@@std@@PAU_SPAWNINFO@EQData@@@std@@@2@$0A@@std@@@std@@IAEPAU_Node@?$_Tree_nod@V?$_Tmap_traits@V?$basic_string@DU?$char_traits@D@std@@V?$allocator@D@2@@std@@PAU_SPAWNINFO@EQData@@U?$less@V?$basic_string@DU?$char_traits@D@std@@V?$allocator@D@2@@std@@@2@V?$allocator@U?$pair@$$CBV?$basic_string@DU?$char_traits@D@std@@V?$allocator@D@2@@std@@PAU_SPAWNINFO@EQData@@@std@@@2@$0A@@std@@@2@XZ 03081180 f   MQ2Globals.obj
 0001:00080190       __ehhandler$?_Buynode@?$_Tree@V?$_Tmap_traits@IPAU_BLECHEVENT@@U?$less@I@std@@V?$allocator@U?$pair@$$CBIPAU_BLECHEVENT@@@std@@@3@$0A@@std@@@std@@IAEPAU_Node@?$_Tree_nod@V?$_Tmap_traits@IPAU_BLECHEVENT@@U?$less@I@std@@V?$allocator@U?$pair@$$CBIPAU_BLECHEVENT@@@std@@@3@$0A@@std@@@2@PAU342@00ABU?$pair@$$CBIPAU_BLECHEVENT@@@2@D@Z 03081190 f   MQ2MacroCommands.obj
 0001:000801a0       __ehhandler$?_Buynode@?$_Tree@V?$_Tmap_traits@V?$basic_string@DU?$char_traits@D@std@@V?$allocator@D@2@@std@@PAU_MACROBLOCK@MQ2Internal@@U?$less@V?$basic_string@DU?$char_traits@D@std@@V?$allocator@D@2@@std@@@2@V?$allocator@U?$pair@$$CBV?$basic_string@DU?$char_traits@D@std@@V?$allocator@D@2@@std@@PAU_MACROBLOCK@MQ2Internal@@@std@@@2@$0A@@std@@@std@@IAEPAU_Node@?$_Tree_nod@V?$_Tmap_traits@V?$basic_string@DU?$char_traits@D@std@@V?$allocator@D@2@@std@@PAU_MACROBLOCK@MQ2Internal@@U?$less@V?$basic_string@DU?$char_traits@D@std@@V?$allocator@D@2@@std@@@2@V?$allocator@U?$pair@$$CBV?$basic_string@DU?$char_traits@D@std@@V?$allocator@D@2@@std@@PAU_MACROBLOCK@MQ2Internal@@@std@@@2@$0A@@std@@@2@PAU342@00ABU?$pair@$$CBV?$basic_string@DU?$char_traits@D@std@@V?$allocator@D@2@@std@@PAU_MACROBLOCK@MQ2Internal@@@2@D@Z 030811a0 f   MQ2MacroCommands.obj
 0001:000801aa       __unwindfunclet$?_Xlen@_String_base@std@@SAXXZ$0 030811aa f   libcpmt:string.obj
 0001:000801b2       __ehhandler$?_Xlen@_String_base@std@@SAXXZ 030811b2 f   libcpmt:string.obj
 0001:000801cd       __unwindfunclet$?_Xran@_String_base@std@@SAXXZ$0 030811cd f   libcpmt:string.obj
 0001:000801d5       __ehhandler$?_Xran@_String_base@std@@SAXXZ 030811d5 f   libcpmt:string.obj
 0001:000801f0       __unwindfunclet$?_Xinvarg@_String_base@std@@SAXXZ$0 030811f0 f   libcpmt:string.obj
 0001:000801f8       __ehhandler$?_Xinvarg@_String_base@std@@SAXXZ 030811f8 f   libcpmt:string.obj
 0001:00080213       __ehhandler$?CallUnexpected@@YAXPBU_s_ESTypeList@@@Z 03081213 f   LIBCMT:frame.obj
 0001:00080230       ??__EMQ2DataTypeMap@@YAXXZ 03081230 f   MQ2DataAPI.obj
 0001:000802a0       ??__EMQ2DataTypes@@YAXXZ   030812a0 f   MQ2DataAPI.obj
 0001:000802d0       ??__EMQ2DataMap@@YAXXZ     030812d0 f   MQ2DataAPI.obj
 0001:00080340       ??__EMQ2DataItems@@YAXXZ   03081340 f   MQ2DataAPI.obj
 0001:00080370       ??__EVariableMap@@YAXXZ    03081370 f   MQ2DataVars.obj
 0001:000803e0       ??__EgMacroSubLookupMap@MQ2Globals@@YAXXZ 030813e0 f   MQ2Globals.obj
 0001:00080450       ??__EItemSlotMap@MQ2Globals@@YAXXZ 03081450 f   MQ2Globals.obj
 0001:000804c0       ??__ESpawnByName@MQ2Globals@@YAXXZ 030814c0 f   MQ2Globals.obj
 0001:00080530       ??__EBindList@@YAXXZ       03081530 f   MQ2KeyBinds.obj
 0001:00080560       ??__EBindNameMap@@YAXXZ    03081560 f   MQ2KeyBinds.obj
 0001:000805d0       ??__EWindowMap@@YAXXZ      030815d0 f   MQ2Windows.obj
 0001:00080640       ??__EWindowList@@YAXXZ     03081640 f   MQ2Windows.obj
 0001:00080670       ??__FMQ2DataTypes@@YAXXZ   03081670 f   MQ2DataAPI.obj
 0001:000806c0       ??__FMQ2DataItems@@YAXXZ   030816c0 f   MQ2DataAPI.obj
 0001:00080710       ??__FMQ2DataTypeMap@@YAXXZ 03081710 f   MQ2DataAPI.obj
 0001:00080760       ??__FMQ2DataMap@@YAXXZ     03081760 f   MQ2DataAPI.obj
 0001:000807b0       ??__FVariableMap@@YAXXZ    030817b0 f   MQ2DataVars.obj
 0001:00080800       ??__FItemSlotMap@MQ2Globals@@YAXXZ 03081800 f   MQ2Globals.obj
 0001:00080850       ??__FgMacroSubLookupMap@MQ2Globals@@YAXXZ 03081850 f   MQ2Globals.obj
 0001:000808a0       ??__FSpawnByName@MQ2Globals@@YAXXZ 030818a0 f   MQ2Globals.obj
 0001:000808f0       ??__FBindList@@YAXXZ       030818f0 f   MQ2KeyBinds.obj
 0001:00080940       ??__FBindNameMap@@YAXXZ    03081940 f   MQ2KeyBinds.obj
 0001:00080990       ??__FWindowList@@YAXXZ     03081990 f   MQ2Windows.obj
 0001:000809e0       ??__FWindowMap@@YAXXZ      030819e0 f   MQ2Windows.obj
 0001:00080a2b       ??__Fnomem@?5???2@YAPAXI@Z@YAXXZ 03081a2b f   LIBCMT:new.obj

 Exports

  ordinal    name

        1    ??0CChatWindow@EQClasses@@QAE@PAVCXWnd@1@@Z (public: __thiscall EQClasses::CChatWindow::CChatWindow(class EQClasses::CXWnd *))
        2    ??0CMapViewWnd@EQClasses@@QAE@PAVCXWnd@1@@Z (public: __thiscall EQClasses::CMapViewWnd::CMapViewWnd(class EQClasses::CXWnd *))
        3    ??0CSidlScreenWnd@EQClasses@@QAE@PAVCXWnd@1@PAVCXStr@1@HHPAD@Z (public: __thiscall EQClasses::CSidlScreenWnd::CSidlScreenWnd(class EQClasses::CXWnd *,class EQClasses::CXStr *,int,int,char *))
        4    ??0CSidlScreenWnd@EQClasses@@QAE@PAVCXWnd@1@VCXStr@1@@Z (public: __thiscall EQClasses::CSidlScreenWnd::CSidlScreenWnd(class EQClasses::CXWnd *,class EQClasses::CXStr))
        5    ??0CSidlScreenWnd@EQClasses@@QAE@XZ (public: __thiscall EQClasses::CSidlScreenWnd::CSidlScreenWnd(void))
        6    ??0CXRect@EQClasses@@QAE@HHHH@Z (public: __thiscall EQClasses::CXRect::CXRect(int,int,int,int))
        7    ??0CXRect@EQClasses@@QAE@XZ (public: __thiscall EQClasses::CXRect::CXRect(void))
        8    ??0CXStr@EQClasses@@QAE@ABV01@@Z (public: __thiscall EQClasses::CXStr::CXStr(class EQClasses::CXStr const &))
        9    ??0CXStr@EQClasses@@QAE@PBD@Z (public: __thiscall EQClasses::CXStr::CXStr(char const *))
       10    ??0CXStr@EQClasses@@QAE@XZ (public: __thiscall EQClasses::CXStr::CXStr(void))
       11    ??0EQItemList@EQClasses@@QAE@XZ (public: __thiscall EQClasses::EQItemList::EQItemList(void))
       12    ??0EQPlayer@EQClasses@@QAE@PAV01@EIEPAD@Z (public: __thiscall EQClasses::EQPlayer::EQPlayer(class EQClasses::EQPlayer *,unsigned char,unsigned int,unsigned char,char *))
       13    ??0KeyCombo@EQClasses@@QAE@E_N00@Z (public: __thiscall EQClasses::KeyCombo::KeyCombo(unsigned char,bool,bool,bool))
       14    ??0KeyCombo@EQClasses@@QAE@XZ (public: __thiscall EQClasses::KeyCombo::KeyCombo(void))
       15    ??1CSidlScreenWnd@EQClasses@@QAE@XZ (public: __thiscall EQClasses::CSidlScreenWnd::~CSidlScreenWnd(void))
       16    ??1CXStr@EQClasses@@QAE@XZ (public: __thiscall EQClasses::CXStr::~CXStr(void))
       17    ??1EQItemList@EQClasses@@QAE@XZ (public: __thiscall EQClasses::EQItemList::~EQItemList(void))
       18    ??1EQPlayer@EQClasses@@QAE@XZ (public: __thiscall EQClasses::EQPlayer::~EQPlayer(void))
       19    ??4CXStr@EQClasses@@QAEAAV01@PBD@Z (public: class EQClasses::CXStr & __thiscall EQClasses::CXStr::operator=(char const *))
       20    ??8KeyCombo@EQClasses@@QAEHABV01@@Z (public: int __thiscall EQClasses::KeyCombo::operator==(class EQClasses::KeyCombo const &))
       21    ??YCXStr@EQClasses@@QAEXPBD@Z (public: void __thiscall EQClasses::CXStr::operator+=(char const *))
       22    ??_VCChatWindow@EQClasses@@SAXPAX@Z (public: static void __cdecl EQClasses::CChatWindow::operator delete[](void *))
       23    ?AddColumn@CListWnd@EQClasses@@QAEHVCXStr@2@HII@Z (public: int __thiscall EQClasses::CListWnd::AddColumn(class EQClasses::CXStr,int,unsigned int,unsigned int))
       24    ?AddColumn@CListWnd@EQClasses@@QAEHVCXStr@2@PAVCTextureAnimation@2@HII11@Z (public: int __thiscall EQClasses::CListWnd::AddColumn(class EQClasses::CXStr,class EQClasses::CTextureAnimation *,int,unsigned int,unsigned int,class EQClasses::CTextureAnimation *,class EQClasses::CTextureAnimation *))
       25    ?AddLine@CListWnd@EQClasses@@QAEHPBVSListWndLine@2@@Z (public: int __thiscall EQClasses::CListWnd::AddLine(class EQClasses::SListWndLine const *))
       26    ?AddString@CListWnd@EQClasses@@QAEHPADKIPBVCTextureAnimation@2@PBD@Z (public: int __thiscall EQClasses::CListWnd::AddString(char *,unsigned long,unsigned int,class EQClasses::CTextureAnimation const *,char const *))
       27    ?AddString@CListWnd@EQClasses@@QAEHPAVCXStr@2@KIPBVCTextureAnimation@2@PBD@Z (public: int __thiscall EQClasses::CListWnd::AddString(class EQClasses::CXStr *,unsigned long,unsigned int,class EQClasses::CTextureAnimation const *,char const *))
       28    ?AppendSTML@CStmlWnd@EQClasses@@QAEAAVCXSize@2@PAV32@VCXStr@2@@Z (public: class EQClasses::CXSize & __thiscall EQClasses::CStmlWnd::AppendSTML(class EQClasses::CXSize *,class EQClasses::CXStr))
       29    ?AttachAltKeyToEqCommand@KeypressHandler@EQClasses@@QAE_NABVKeyCombo@2@I@Z (public: bool __thiscall EQClasses::KeypressHandler::AttachAltKeyToEqCommand(class EQClasses::KeyCombo const &,unsigned int))
       30    ?AttachKeyToEqCommand@KeypressHandler@EQClasses@@QAE_NABVKeyCombo@2@I@Z (public: bool __thiscall EQClasses::KeypressHandler::AttachKeyToEqCommand(class EQClasses::KeyCombo const &,unsigned int))
       31    ?BringToTop@CXWnd@EQClasses@@QAEX_N@Z (public: void __thiscall EQClasses::CXWnd::BringToTop(bool))
       32    ?CalcFillRect@CGaugeWnd@EQClasses@@QBE?AVCXRect@2@PAV32@H@Z (public: class EQClasses::CXRect __thiscall EQClasses::CGaugeWnd::CalcFillRect(class EQClasses::CXRect *,int)const )
       33    ?CalcLinesFillRect@CGaugeWnd@EQClasses@@QBE?AVCXRect@2@PAV32@H@Z (public: class EQClasses::CXRect __thiscall EQClasses::CGaugeWnd::CalcLinesFillRect(class EQClasses::CXRect *,int)const )
       34    ?CalculateFirstVisibleLine@CListWnd@EQClasses@@QAEXXZ (public: void __thiscall EQClasses::CListWnd::CalculateFirstVisibleLine(void))
       35    ?CalculateHSBRange@CSidlScreenWnd@EQClasses@@QAEXXZ (public: void __thiscall EQClasses::CSidlScreenWnd::CalculateHSBRange(void))
       36    ?CalculateVSBRange@CListWnd@EQClasses@@QAEXXZ (public: void __thiscall EQClasses::CListWnd::CalculateVSBRange(void))
       37    ?CalculateVSBRange@CSidlScreenWnd@EQClasses@@QAEXXZ (public: void __thiscall EQClasses::CSidlScreenWnd::CalculateVSBRange(void))
       38    ?CalculateVSBRange@CStmlWnd@EQClasses@@QAEXH@Z (public: void __thiscall EQClasses::CStmlWnd::CalculateVSBRange(int))
       39    ?CanBreakAtCharacter@CStmlWnd@EQClasses@@SA_NG@Z (public: static bool __cdecl EQClasses::CStmlWnd::CanBreakAtCharacter(unsigned short))
       40    ?CanDrop@EQ_Item@EQClasses@@QAEHH@Z (public: int __thiscall EQClasses::EQ_Item::CanDrop(int))
       41    ?CastSpell@EQ_Character1@EQClasses@@QAEEEHPAPAVEQ_Item@2@HHHHHH_NH@Z (public: unsigned char __thiscall EQClasses::EQ_Character1::CastSpell(unsigned char,int,class EQClasses::EQ_Item * *,int,int,int,int,int,int,bool,int))
       42    ?Center@CXWnd@EQClasses@@QAEXXZ (public: void __thiscall EQClasses::CXWnd::Center(void))
       43    ?CenterPoint@CXRect@EQClasses@@QBE?AVCXPoint@2@XZ (public: class EQClasses::CXPoint __thiscall EQClasses::CXRect::CenterPoint(void)const )
       44    ?ChangeBoneStringSprite@EQPlayer@EQClasses@@QAEPAUS3D_STRINGSPRITE@2@PAUT3D_DAG@2@PAD@Z (public: struct EQClasses::S3D_STRINGSPRITE * __thiscall EQClasses::EQPlayer::ChangeBoneStringSprite(struct EQClasses::T3D_DAG *,char *))
       45    ?CleanGameUI@CDisplay@EQClasses@@QAEXXZ (public: void __thiscall EQClasses::CDisplay::CleanGameUI(void))
       46    ?Clear@KeyCombo@EQClasses@@QAEXXZ (public: void __thiscall EQClasses::KeyCombo::Clear(void))
       47    ?Clear@MapViewMap@EQClasses@@QAEXXZ (public: void __thiscall EQClasses::MapViewMap::Clear(void))
       48    ?ClearAllSel@CListWnd@EQClasses@@QAEXXZ (public: void __thiscall EQClasses::CListWnd::ClearAllSel(void))
       49    ?ClearCommandStateArray@KeypressHandler@EQClasses@@QAEXXZ (public: void __thiscall EQClasses::KeypressHandler::ClearCommandStateArray(void))
       50    ?ClickedPlayer@CEverQuest@EQClasses@@QAEPAVEQPlayer@2@HH@Z (public: class EQClasses::EQPlayer * __thiscall EQClasses::CEverQuest::ClickedPlayer(int,int))
       51    ?CloseAndUpdateEditWindow@CListWnd@EQClasses@@QAEXXZ (public: void __thiscall EQClasses::CListWnd::CloseAndUpdateEditWindow(void))
       52    ?ClrFocus@CXWnd@EQClasses@@QAEXXZ (public: void __thiscall EQClasses::CXWnd::ClrFocus(void))
       53    ?ConvertToRes@CSidlScreenWnd@EQClasses@@QAEHHHHH@Z (public: int __thiscall EQClasses::CSidlScreenWnd::ConvertToRes(int,int,int,int))
       54    ?CreateChildrenFromSidl@CSidlScreenWnd@EQClasses@@QAEXXZ (public: void __thiscall EQClasses::CSidlScreenWnd::CreateChildrenFromSidl(void))
       55    ?Cur_HP@EQ_Character1@EQClasses@@QAEHHE@Z (public: int __thiscall EQClasses::EQ_Character1::Cur_HP(int,unsigned char))
       56    ?DeleteAll@CComboWnd@EQClasses@@QAEXXZ (public: void __thiscall EQClasses::CComboWnd::DeleteAll(void))
       57    ?DeleteAll@CListWnd@EQClasses@@QAEXXZ (public: void __thiscall EQClasses::CListWnd::DeleteAll(void))
       58    ?DestroyHeldItemOrMoney@EQ_PC@EQClasses@@QAEXXZ (public: void __thiscall EQClasses::EQ_PC::DestroyHeldItemOrMoney(void))
       59    ?DisplayBuyOrSellPrice@CMerchantWnd@EQClasses@@QAEX_NPAVEQ_Item@2@@Z (public: void __thiscall EQClasses::CMerchantWnd::DisplayBuyOrSellPrice(bool,class EQClasses::EQ_Item *))
       60    ?DisplayText@CTextOverlay@EQClasses@@QAEXPADHHHHHH@Z (public: void __thiscall EQClasses::CTextOverlay::DisplayText(char *,int,int,int,int,int,int))
       61    ?DoAllDrawing@CXWnd@EQClasses@@QBEHXZ (public: int __thiscall EQClasses::CXWnd::DoAllDrawing(void)const )
       62    ?DoAttack@EQPlayer@EQClasses@@QAEHEEPAV12@@Z (public: int __thiscall EQClasses::EQPlayer::DoAttack(unsigned char,unsigned char,class EQClasses::EQPlayer *))
       63    ?DoCombatAbility@EQ_Character@EQClasses@@QAEXH@Z (public: void __thiscall EQClasses::EQ_Character::DoCombatAbility(int))
       64    ?DoHotButton@CHotButtonWnd@EQClasses@@QAEXHH@Z (public: void __thiscall EQClasses::CHotButtonWnd::DoHotButton(int,int))
       65    ?DoTellWindow@CEverQuest@EQClasses@@QAEXPAD00PAXH_N@Z (public: void __thiscall EQClasses::CEverQuest::DoTellWindow(char *,char *,char *,void *,int,bool))
       66    ?DrawChildren@CXWnd@EQClasses@@QBEHXZ (public: int __thiscall EQClasses::CXWnd::DrawChildren(void)const )
       67    ?DrawColoredRect@CXWnd@EQClasses@@SAHVCXRect@2@K0@Z (public: static int __cdecl EQClasses::CXWnd::DrawColoredRect(class EQClasses::CXRect,unsigned long,class EQClasses::CXRect))
       68    ?DrawCurrentPage@CTabWnd@EQClasses@@QBEHXZ (public: int __thiscall EQClasses::CTabWnd::DrawCurrentPage(void)const )
       69    ?DrawCursor@CXWndManager@EQClasses@@QBEHXZ (public: int __thiscall EQClasses::CXWndManager::DrawCursor(void)const )
       70    ?DrawSidlPiece@CSidlScreenWnd@EQClasses@@QBEHPAVCScreenPieceTemplate@2@VCXRect@2@1@Z (public: int __thiscall EQClasses::CSidlScreenWnd::DrawSidlPiece(class EQClasses::CScreenPieceTemplate *,class EQClasses::CXRect,class EQClasses::CXRect)const )
       71    ?DrawTab@CTabWnd@EQClasses@@QBEHH@Z (public: int __thiscall EQClasses::CTabWnd::DrawTab(int)const )
       72    ?DrawTooltip@CXWnd@EQClasses@@QBEHPBV12@@Z (public: int __thiscall EQClasses::CXWnd::DrawTooltip(class EQClasses::CXWnd const *)const )
       73    ?DrawTooltipAtPoint@CXWnd@EQClasses@@QBEXVCXPoint@2@@Z (public: void __thiscall EQClasses::CXWnd::DrawTooltipAtPoint(class EQClasses::CXPoint)const )
       74    ?DrawWindows@CXWndManager@EQClasses@@QBEHXZ (public: int __thiscall EQClasses::CXWndManager::DrawWindows(void)const )
       75    ?DrawWrappedText@CTextureFont@EQClasses@@QBEHPAVCXStr@2@HHHPAVCXRect@2@KGH@Z (public: int __thiscall EQClasses::CTextureFont::DrawWrappedText(class EQClasses::CXStr *,int,int,int,class EQClasses::CXRect *,unsigned long,unsigned short,int)const )
       76    ?DropHeldItemOnGround@CEverQuest@EQClasses@@QAEXH@Z (public: void __thiscall EQClasses::CEverQuest::DropHeldItemOnGround(int))
       77    ?Emote@CEverQuest@EQClasses@@QAEXXZ (public: void __thiscall EQClasses::CEverQuest::Emote(void))
       78    ?EnableIniStorage@CSidlScreenWnd@EQClasses@@QAEXHPAD@Z (public: void __thiscall EQClasses::CSidlScreenWnd::EnableIniStorage(int,char *))
       79    ?EnsureVisible@CListWnd@EQClasses@@QAEXH@Z (public: void __thiscall EQClasses::CListWnd::EnsureVisible(int))
       80    ?EnterZone@CEverQuest@EQClasses@@QAEXPAUHWND__@@@Z (public: void __thiscall EQClasses::CEverQuest::EnterZone(struct HWND__ *))
       81    ?ExtendSel@CListWnd@EQClasses@@QAEXH@Z (public: void __thiscall EQClasses::CListWnd::ExtendSel(int))
       82    ?FastForwardToEndOfTag@CStmlWnd@EQClasses@@QAEGAAVCXStr@2@PAV32@PAHD@Z (public: unsigned short __thiscall EQClasses::CStmlWnd::FastForwardToEndOfTag(class EQClasses::CXStr &,class EQClasses::CXStr *,int *,char))
       83    ?FindInvSlot@CInvSlotMgr@EQClasses@@QAEPAVCInvSlot@2@H@Z (public: class EQClasses::CInvSlot * __thiscall EQClasses::CInvSlotMgr::FindInvSlot(int))
       84    ?FindMemberByName@CGuild@EQClasses@@QAEPAVGuildMember@2@PAD@Z (public: class EQClasses::GuildMember * __thiscall EQClasses::CGuild::FindMemberByName(char *))
       85    ?FindScreenPieceTemplate@CSidlManager@EQClasses@@QAEPAVCScreenPieceTemplate@2@PAD@Z (public: class EQClasses::CScreenPieceTemplate * __thiscall EQClasses::CSidlManager::FindScreenPieceTemplate(char *))
       86    ?FindScreenPieceTemplate@CSidlManager@EQClasses@@QBEPAVCScreenPieceTemplate@2@PAVCXStr@2@@Z (public: class EQClasses::CScreenPieceTemplate * __thiscall EQClasses::CSidlManager::FindScreenPieceTemplate(class EQClasses::CXStr *)const )
       87    ?ForceParseNow@CStmlWnd@EQClasses@@QAEXXZ (public: void __thiscall EQClasses::CStmlWnd::ForceParseNow(void))
       88    ?GetAACastingTimeModifier@EQ_Character1@EQClasses@@QAE?BHPBVEQ_Spell@2@@Z (public: int const __thiscall EQClasses::EQ_Character1::GetAACastingTimeModifier(class EQClasses::EQ_Spell const *))
       89    ?GetActiveFavorCost@EQMisc@EQClasses@@QAEHXZ (public: int __thiscall EQClasses::EQMisc::GetActiveFavorCost(void))
       90    ?GetAltAbility@AltAdvManager@EQClasses@@QAEPAU_ALTABILITY@EQData@@H@Z (public: struct EQData::_ALTABILITY * __thiscall EQClasses::AltAdvManager::GetAltAbility(int))
       91    ?GetAltAbilityIndex@EQ_PC@EQClasses@@QAEHH@Z (public: int __thiscall EQClasses::EQ_PC::GetAltAbilityIndex(int))
       92    ?GetAltCurrency@OtherCharData@EQClasses@@QAEKKK@Z (public: unsigned long __thiscall EQClasses::OtherCharData::GetAltCurrency(unsigned long,unsigned long))
       93    ?GetBodyTypeDesc@CEverQuest@EQClasses@@QAEPADH@Z (public: char * __thiscall EQClasses::CEverQuest::GetBodyTypeDesc(int))
       94    ?GetBorderFrame@CXWnd@EQClasses@@QBEPBVCTAFrameDraw@2@XZ (public: class EQClasses::CTAFrameDraw const * __thiscall EQClasses::CXWnd::GetBorderFrame(void)const )
       95    ?GetCalculatedTimer@AltAdvManager@EQClasses@@QAEKPAVEQ_PC@2@PAU_ALTABILITY@EQData@@@Z (public: unsigned long __thiscall EQClasses::AltAdvManager::GetCalculatedTimer(class EQClasses::EQ_PC *,struct EQData::_ALTABILITY *))
       96    ?GetCharIndexPt@CEditWnd@EQClasses@@QBE?AVCXPoint@2@H@Z (public: class EQClasses::CXPoint __thiscall EQClasses::CEditWnd::GetCharIndexPt(int)const )
       97    ?GetChildItem@CSidlScreenWnd@EQClasses@@QAEPAVCXWnd@2@ABVCXStr@2@@Z (public: class EQClasses::CXWnd * __thiscall EQClasses::CSidlScreenWnd::GetChildItem(class EQClasses::CXStr const &))
       98    ?GetChildItem@CSidlScreenWnd@EQClasses@@QAEPAVCXWnd@2@PAD@Z (public: class EQClasses::CXWnd * __thiscall EQClasses::CSidlScreenWnd::GetChildItem(char *))
       99    ?GetChildItem@CXWnd@EQClasses@@QAEPAV12@ABVCXStr@2@@Z (public: class EQClasses::CXWnd * __thiscall EQClasses::CXWnd::GetChildItem(class EQClasses::CXStr const &))
      100    ?GetChildItem@CXWnd@EQClasses@@QAEPAV12@PAD@Z (public: class EQClasses::CXWnd * __thiscall EQClasses::CXWnd::GetChildItem(char *))
      101    ?GetChildWndAt@CXWnd@EQClasses@@QBEPAV12@VCXPoint@2@@Z (public: class EQClasses::CXWnd * __thiscall EQClasses::CXWnd::GetChildWndAt(class EQClasses::CXPoint)const )
      102    ?GetClassDesc@CEverQuest@EQClasses@@QAEPADH@Z (public: char * __thiscall EQClasses::CEverQuest::GetClassDesc(int))
      103    ?GetClassThreeLetterCode@CEverQuest@EQClasses@@QAEPADH@Z (public: char * __thiscall EQClasses::CEverQuest::GetClassThreeLetterCode(int))
      104    ?GetClickedActor@CDisplay@EQClasses@@QAEPAUT3D_tagACTORINSTANCE@2@KKKPAX0@Z (public: struct EQClasses::T3D_tagACTORINSTANCE * __thiscall EQClasses::CDisplay::GetClickedActor(unsigned long,unsigned long,unsigned long,void *,void *))
      105    ?GetClientClipRect@CXWnd@EQClasses@@QBE?AVCXRect@2@XZ (public: class EQClasses::CXRect __thiscall EQClasses::CXWnd::GetClientClipRect(void)const )
      106    ?GetColumnMinWidth@CListWnd@EQClasses@@QBEHH@Z (public: int __thiscall EQClasses::CListWnd::GetColumnMinWidth(int)const )
      107    ?GetColumnWidth@CListWnd@EQClasses@@QBEHH@Z (public: int __thiscall EQClasses::CListWnd::GetColumnWidth(int)const )
      108    ?GetCombatAbility@EQ_PC@EQClasses@@QAEHH@Z (public: int __thiscall EQClasses::EQ_PC::GetCombatAbility(int))
      109    ?GetCombatAbilityTimer@EQ_PC@EQClasses@@QAEKH@Z (public: unsigned long __thiscall EQClasses::EQ_PC::GetCombatAbilityTimer(int))
      110    ?GetConLevel@EQ_Character@EQClasses@@QAEKPAVEQPlayer@2@@Z (public: unsigned long __thiscall EQClasses::EQ_Character::GetConLevel(class EQClasses::EQPlayer *))
      111    ?GetCurChoice@CComboWnd@EQClasses@@QBEHXZ (public: int __thiscall EQClasses::CComboWnd::GetCurChoice(void)const )
      112    ?GetCurSel@CListWnd@EQClasses@@QBEHXZ (public: int __thiscall EQClasses::CListWnd::GetCurSel(void)const )
      113    ?GetCurrentPage@CTabWnd@EQClasses@@QBEPAVCPageWnd@2@XZ (public: class EQClasses::CPageWnd * __thiscall EQClasses::CTabWnd::GetCurrentPage(void)const )
      114    ?GetDeityDesc@CEverQuest@EQClasses@@QAEPADH@Z (public: char * __thiscall EQClasses::CEverQuest::GetDeityDesc(int))
      115    ?GetFocusCastingTimeModifier@EQ_Character1@EQClasses@@QAE?BHPBVEQ_Spell@2@PAPAVEQ_Equipment@2@@Z (public: int const __thiscall EQClasses::EQ_Character1::GetFocusCastingTimeModifier(class EQClasses::EQ_Spell const *,class EQClasses::EQ_Equipment * *))
      116    ?GetFocusRangeModifier@EQ_Character1@EQClasses@@QAE?BHPBVEQ_Spell@2@PAPAVEQ_Equipment@2@@Z (public: int const __thiscall EQClasses::EQ_Character1::GetFocusRangeModifier(class EQClasses::EQ_Spell const *,class EQClasses::EQ_Equipment * *))
      117    ?GetFriendName@CChatService@EQClasses@@QAEPADH@Z (public: char * __thiscall EQClasses::CChatService::GetFriendName(int))
      118    ?GetHeaderRect@CListWnd@EQClasses@@QBE?AVCXRect@2@H@Z (public: class EQClasses::CXRect __thiscall EQClasses::CListWnd::GetHeaderRect(int)const )
      119    ?GetItemAtPoint@CListWnd@EQClasses@@QBEHVCXPoint@2@@Z (public: int __thiscall EQClasses::CListWnd::GetItemAtPoint(class EQClasses::CXPoint)const )
      120    ?GetItemAtPoint@CListWnd@EQClasses@@QBEXVCXPoint@2@PAH1@Z (public: void __thiscall EQClasses::CListWnd::GetItemAtPoint(class EQClasses::CXPoint,int *,int *)const )
      121    ?GetItemData@CListWnd@EQClasses@@QBEIH@Z (public: unsigned int __thiscall EQClasses::CListWnd::GetItemData(int)const )
      122    ?GetItemHeight@CListWnd@EQClasses@@QBEHH@Z (public: int __thiscall EQClasses::CListWnd::GetItemHeight(int)const )
      123    ?GetItemIcon@CListWnd@EQClasses@@QBEPBVCTextureAnimation@2@HH@Z (public: class EQClasses::CTextureAnimation const * __thiscall EQClasses::CListWnd::GetItemIcon(int,int)const )
      124    ?GetItemLinkHash@EQ_Item@EQClasses@@QAEPADPADH@Z (public: char * __thiscall EQClasses::EQ_Item::GetItemLinkHash(char *,int))
      125    ?GetItemRect@CListWnd@EQClasses@@QBE?AVCXRect@2@HH@Z (public: class EQClasses::CXRect __thiscall EQClasses::CListWnd::GetItemRect(int,int)const )
      126    ?GetItemText@CListWnd@EQClasses@@QBEPAVCXStr@2@PAV32@HH@Z (public: class EQClasses::CXStr * __thiscall EQClasses::CListWnd::GetItemText(class EQClasses::CXStr *,int,int)const )
      127    ?GetItemTimerValue@EQ_PC@EQClasses@@QAEKPAVEQ_Item@2@@Z (public: unsigned long __thiscall EQClasses::EQ_PC::GetItemTimerValue(class EQClasses::EQ_Item *))
      128    ?GetKey@KeyCombo@EQClasses@@QBEIXZ (public: unsigned int __thiscall EQClasses::KeyCombo::GetKey(void)const )
      129    ?GetKeyboardFlags@CXWndManager@EQClasses@@QBEIXZ (public: unsigned int __thiscall EQClasses::CXWndManager::GetKeyboardFlags(void)const )
      130    ?GetLangDesc@CEverQuest@EQClasses@@QAEPADH@Z (public: char * __thiscall EQClasses::CEverQuest::GetLangDesc(int))
      131    ?GetLineForPrintableChar@CEditWnd@EQClasses@@QBEHH@Z (public: int __thiscall EQClasses::CEditWnd::GetLineForPrintableChar(int)const )
      132    ?GetListRect@CComboWnd@EQClasses@@QBE?AVCXRect@2@XZ (public: class EQClasses::CXRect __thiscall EQClasses::CComboWnd::GetListRect(void)const )
      133    ?GetNextTagPiece@CStmlWnd@EQClasses@@QAEGAAVCXStr@2@PAV32@PAHP6A_NG@Z_N@Z (public: unsigned short __thiscall EQClasses::CStmlWnd::GetNextTagPiece(class EQClasses::CXStr &,class EQClasses::CXStr *,int *,bool (__cdecl*)(unsigned short),bool))
      134    ?GetNumBankSlots@CBankWnd@EQClasses@@QBEHXZ (public: int __thiscall EQClasses::CBankWnd::GetNumBankSlots(void)const )
      135    ?GetNumberOfFriends@CChatService@EQClasses@@QAEHXZ (public: int __thiscall EQClasses::CChatService::GetNumberOfFriends(void))
      136    ?GetPageClientRect@CTabWnd@EQClasses@@QBE?AVCXRect@2@XZ (public: class EQClasses::CXRect __thiscall EQClasses::CTabWnd::GetPageClientRect(void)const )
      137    ?GetPageFromTabIndex@CTabWnd@EQClasses@@QBEPAVCPageWnd@2@H@Z (public: class EQClasses::CPageWnd * __thiscall EQClasses::CTabWnd::GetPageFromTabIndex(int)const )
      138    ?GetPageInnerRect@CTabWnd@EQClasses@@QBE?AVCXRect@2@XZ (public: class EQClasses::CXRect __thiscall EQClasses::CTabWnd::GetPageInnerRect(void)const )
      139    ?GetRGBAFromIndex@CChatManager@EQClasses@@QAEKH@Z (public: unsigned long __thiscall EQClasses::CChatManager::GetRGBAFromIndex(int))
      140    ?GetRaceDesc@CEverQuest@EQClasses@@QAEPADH@Z (public: char * __thiscall EQClasses::CEverQuest::GetRaceDesc(int))
      141    ?GetSTMLSafeText@CEditWnd@EQClasses@@QAE?AVCXStr@2@XZ (public: class EQClasses::CXStr __thiscall EQClasses::CEditWnd::GetSTMLSafeText(void))
      142    ?GetSTMLText@CStmlWnd@EQClasses@@QBEPAVCXStr@2@AAPAV32@@Z (public: class EQClasses::CXStr * __thiscall EQClasses::CStmlWnd::GetSTMLText(class EQClasses::CXStr * &)const )
      143    ?GetScreenClipRect@CXWnd@EQClasses@@QBE?AVCXRect@2@XZ (public: class EQClasses::CXRect __thiscall EQClasses::CXWnd::GetScreenClipRect(void)const )
      144    ?GetScreenRect@CXWnd@EQClasses@@QBE?AVCXRect@2@XZ (public: class EQClasses::CXRect __thiscall EQClasses::CXWnd::GetScreenRect(void)const )
      145    ?GetSelStartPt@CEditWnd@EQClasses@@QBE?AVCXPoint@2@XZ (public: class EQClasses::CXPoint __thiscall EQClasses::CEditWnd::GetSelStartPt(void)const )
      146    ?GetSeparatorRect@CListWnd@EQClasses@@QBE?AVCXRect@2@H@Z (public: class EQClasses::CXRect __thiscall EQClasses::CListWnd::GetSeparatorRect(int)const )
      147    ?GetSidlPiece@CSidlScreenWnd@EQClasses@@QBEPAVCScreenPieceTemplate@2@PAVCXStr@2@@Z (public: class EQClasses::CScreenPieceTemplate * __thiscall EQClasses::CSidlScreenWnd::GetSidlPiece(class EQClasses::CXStr *)const )
      148    ?GetSkillCap@CSkillMgr@EQClasses@@QAEKPAVEQ_Character@2@HHH@Z (public: unsigned long __thiscall EQClasses::CSkillMgr::GetSkillCap(class EQClasses::EQ_Character *,int,int,int))
      149    ?GetSpawnByID@EQPlayerManager@EQClasses@@QAEPAVEQPlayer@2@H@Z (public: class EQClasses::EQPlayer * __thiscall EQClasses::EQPlayerManager::GetSpawnByID(int))
      150    ?GetSpawnByName@EQPlayerManager@EQClasses@@QAEPAVEQPlayer@2@PAD@Z (public: class EQClasses::EQPlayer * __thiscall EQClasses::EQPlayerManager::GetSpawnByName(char *))
      151    ?GetString@CDBStr@EQClasses@@QAEPADHHPAH@Z (public: char * __thiscall EQClasses::CDBStr::GetString(int,int,int *))
      152    ?GetTabInnerRect@CTabWnd@EQClasses@@QBE?AVCXRect@2@H@Z (public: class EQClasses::CXRect __thiscall EQClasses::CTabWnd::GetTabInnerRect(int)const )
      153    ?GetTabRect@CTabWnd@EQClasses@@QBE?AVCXRect@2@H@Z (public: class EQClasses::CXRect __thiscall EQClasses::CTabWnd::GetTabRect(int)const )
      154    ?GetTextRect@CComboWnd@EQClasses@@QBE?AVCXRect@2@XZ (public: class EQClasses::CXRect __thiscall EQClasses::CComboWnd::GetTextRect(void)const )
      155    ?GetThisChar@CStmlWnd@EQClasses@@QAEGHAAVCXStr@2@@Z (public: unsigned short __thiscall EQClasses::CStmlWnd::GetThisChar(int,class EQClasses::CXStr &))
      156    ?GetTooltipRect@CXWnd@EQClasses@@SA?AVCXRect@2@VCXSize@2@@Z (public: static class EQClasses::CXRect __cdecl EQClasses::CXWnd::GetTooltipRect(class EQClasses::CXSize))
      157    ?GetType@CSidlScreenWnd@EQClasses@@QAE?AW4UIType@EQUIStructs@@XZ (public: enum EQUIStructs::UIType __thiscall EQClasses::CSidlScreenWnd::GetType(void))
      158    ?GetType@CXWnd@EQClasses@@QAE?AW4UIType@EQUIStructs@@XZ (public: enum EQUIStructs::UIType __thiscall EQClasses::CXWnd::GetType(void))
      159    ?GetUserDefinedColor@CDisplay@EQClasses@@SAKH@Z (public: static unsigned long __cdecl EQClasses::CDisplay::GetUserDefinedColor(int))
      160    ?GetValue@CSliderWnd@EQClasses@@QBEHXZ (public: int __thiscall EQClasses::CSliderWnd::GetValue(void)const )
      161    ?GetVisiableText@CStmlWnd@EQClasses@@QBE?AVCXStr@2@AAV32@VCXRect@2@@Z (public: class EQClasses::CXStr __thiscall EQClasses::CStmlWnd::GetVisiableText(class EQClasses::CXStr &,class EQClasses::CXRect)const )
      162    ?GetWindowTextA@CXWnd@EQClasses@@QBE?AVCXStr@2@XZ (public: class EQClasses::CXStr __thiscall EQClasses::CXWnd::GetWindowTextA(void)const )
      163    ?GetWorldFilePath@CDisplay@EQClasses@@QAE?B_NPADPBD@Z (public: bool const __thiscall EQClasses::CDisplay::GetWorldFilePath(char *,char const *))
      164    ?GetXMLData@CSidlScreenWnd@EQClasses@@QAEPAVCXMLData@2@XZ (public: class EQClasses::CXMLData * __thiscall EQClasses::CSidlScreenWnd::GetXMLData(void))
      165    ?GetXMLData@CXMLDataManager@EQClasses@@QAEPAVCXMLData@2@HH@Z (public: class EQClasses::CXMLData * __thiscall EQClasses::CXMLDataManager::GetXMLData(int,int))
      166    ?GetXMLData@CXWnd@EQClasses@@QAEPAVCXMLData@2@XZ (public: class EQClasses::CXMLData * __thiscall EQClasses::CXWnd::GetXMLData(void))
      167    ?HandleBazaarMsg@CBazaarSearchWnd@EQClasses@@QAEXPADH@Z (public: void __thiscall EQClasses::CBazaarSearchWnd::HandleBazaarMsg(char *,int))
      168    ?HandleCombine@CContainerWnd@EQClasses@@QAEXXZ (public: void __thiscall EQClasses::CContainerWnd::HandleCombine(void))
      169    ?HandleKeyDown@KeypressHandler@EQClasses@@QAE_NABVKeyCombo@2@@Z (public: bool __thiscall EQClasses::KeypressHandler::HandleKeyDown(class EQClasses::KeyCombo const &))
      170    ?HandleKeyUp@KeypressHandler@EQClasses@@QAE_NABVKeyCombo@2@@Z (public: bool __thiscall EQClasses::KeypressHandler::HandleKeyUp(class EQClasses::KeyCombo const &))
      171    ?HandleKeyboardMsg@CXWndManager@EQClasses@@QAEHI_N@Z (public: int __thiscall EQClasses::CXWndManager::HandleKeyboardMsg(unsigned int,bool))
      172    ?HandleLButtonDown@CXWnd@EQClasses@@QAEHPAVCXPoint@2@I@Z (public: int __thiscall EQClasses::CXWnd::HandleLButtonDown(class EQClasses::CXPoint *,unsigned int))
      173    ?HandleLButtonHeld@CXWnd@EQClasses@@QAEHPAVCXPoint@2@I@Z (public: int __thiscall EQClasses::CXWnd::HandleLButtonHeld(class EQClasses::CXPoint *,unsigned int))
      174    ?HandleLButtonUp@CXWnd@EQClasses@@QAEHPAVCXPoint@2@I@Z (public: int __thiscall EQClasses::CXWnd::HandleLButtonUp(class EQClasses::CXPoint *,unsigned int))
      175    ?HandleLButtonUpAfterHeld@CXWnd@EQClasses@@QAEHPAVCXPoint@2@I@Z (public: int __thiscall EQClasses::CXWnd::HandleLButtonUpAfterHeld(class EQClasses::CXPoint *,unsigned int))
      176    ?HandleRButtonDown@CXWnd@EQClasses@@QAEHPAVCXPoint@2@I@Z (public: int __thiscall EQClasses::CXWnd::HandleRButtonDown(class EQClasses::CXPoint *,unsigned int))
      177    ?HandleRButtonHeld@CXWnd@EQClasses@@QAEHPAVCXPoint@2@I@Z (public: int __thiscall EQClasses::CXWnd::HandleRButtonHeld(class EQClasses::CXPoint *,unsigned int))
      178    ?HandleRButtonUp@CInvSlot@EQClasses@@QAEXPAVCXPoint@2@@Z (public: void __thiscall EQClasses::CInvSlot::HandleRButtonUp(class EQClasses::CXPoint *))
      179    ?HandleRButtonUp@CXWnd@EQClasses@@QAEHPAVCXPoint@2@I@Z (public: int __thiscall EQClasses::CXWnd::HandleRButtonUp(class EQClasses::CXPoint *,unsigned int))
      180    ?HandleRButtonUpAfterHeld@CXWnd@EQClasses@@QAEHPAVCXPoint@2@I@Z (public: int __thiscall EQClasses::CXWnd::HandleRButtonUpAfterHeld(class EQClasses::CXPoint *,unsigned int))
      181    ?HasLoreItem@EQ_PC@EQClasses@@QAEKPAVEQ_Item@2@@Z (public: unsigned long __thiscall EQClasses::EQ_PC::HasLoreItem(class EQClasses::EQ_Item *))
      182    ?IndexInBounds@CTabWnd@EQClasses@@QBE_NH@Z (public: bool __thiscall EQClasses::CTabWnd::IndexInBounds(int)const )
      183    ?Init@CSidlScreenWnd@EQClasses@@QAEXHPAVCXStr@2@HHH@Z (public: void __thiscall EQClasses::CSidlScreenWnd::Init(int,class EQClasses::CXStr *,int,int,int))
      184    ?InitContextMenu@CChatManager@EQClasses@@QAEHPAVCChatWindow@2@@Z (public: int __thiscall EQClasses::CChatManager::InitContextMenu(class EQClasses::CChatWindow *))
      185    ?InitializeWindowVariables@CStmlWnd@EQClasses@@QAEXXZ (public: void __thiscall EQClasses::CStmlWnd::InitializeWindowVariables(void))
      186    ?InsertChoice@CComboWnd@EQClasses@@QAEXPAD@Z (public: void __thiscall EQClasses::CComboWnd::InsertChoice(char *))
      187    ?InsertChoice@CComboWnd@EQClasses@@QAEXPAVCXStr@2@K@Z (public: void __thiscall EQClasses::CComboWnd::InsertChoice(class EQClasses::CXStr *,unsigned long))
      188    ?InsertPage@CTabWnd@EQClasses@@QAEXPAVCPageWnd@2@H@Z (public: void __thiscall EQClasses::CTabWnd::InsertPage(class EQClasses::CPageWnd *,int))
      189    ?InterpretCmd@CEverQuest@EQClasses@@QAEXPAVEQPlayer@2@PAD@Z (public: void __thiscall EQClasses::CEverQuest::InterpretCmd(class EQClasses::EQPlayer *,char *))
      190    ?IsAbilityReady@AltAdvManager@EQClasses@@QAE_NPAVEQ_PC@2@PAU_ALTABILITY@EQData@@PAH@Z (public: bool __thiscall EQClasses::AltAdvManager::IsAbilityReady(class EQClasses::EQ_PC *,struct EQData::_ALTABILITY *,int *))
      191    ?IsActive@CXWnd@EQClasses@@QBE_NXZ (public: bool __thiscall EQClasses::CXWnd::IsActive(void)const )
      192    ?IsBodyType@EQPlayer@EQClasses@@QAE_NIHH@Z (public: bool __thiscall EQClasses::EQPlayer::IsBodyType(unsigned int,int,int))
      193    ?IsDescendantOf@CXWnd@EQClasses@@QBE_NPBV12@@Z (public: bool __thiscall EQClasses::CXWnd::IsDescendantOf(class EQClasses::CXWnd const *)const )
      194    ?IsReallyVisible@CXWnd@EQClasses@@QBE_NXZ (public: bool __thiscall EQClasses::CXWnd::IsReallyVisible(void)const )
      195    ?IsStackable@EQ_Item@EQClasses@@QAE_NXZ (public: bool __thiscall EQClasses::EQ_Item::IsStackable(void))
      196    ?IsValid@CXWnd@EQClasses@@QBE_NXZ (public: bool __thiscall EQClasses::CXWnd::IsValid(void)const )
      197    ?LMouseUp@CEverQuest@EQClasses@@QAEXHH@Z (public: void __thiscall EQClasses::CEverQuest::LMouseUp(int,int))
      198    ?LeftClickedOnPlayer@CEverQuest@EQClasses@@QAEXPAVEQPlayer@2@@Z (public: void __thiscall EQClasses::CEverQuest::LeftClickedOnPlayer(class EQClasses::EQPlayer *))
      199    ?LoadIniListWnd@CSidlScreenWnd@EQClasses@@QAEXPAVCListWnd@2@PAD@Z (public: void __thiscall EQClasses::CSidlScreenWnd::LoadIniListWnd(class EQClasses::CListWnd *,char *))
      200    ?LoadSidlScreen@CSidlScreenWnd@EQClasses@@QAEXXZ (public: void __thiscall EQClasses::CSidlScreenWnd::LoadSidlScreen(void))
      201    ?MakeStmlColorTag@CStmlWnd@EQClasses@@SA?AVCXStr@2@K@Z (public: static class EQClasses::CXStr __cdecl EQClasses::CStmlWnd::MakeStmlColorTag(unsigned long))
      202    ?MakeWndNotificationTag@CStmlWnd@EQClasses@@SA?AVCXStr@2@IAAV32@0@Z (public: static class EQClasses::CXStr __cdecl EQClasses::CStmlWnd::MakeWndNotificationTag(unsigned int,class EQClasses::CXStr &,class EQClasses::CXStr &))
      203    ?Max_Endurance@EQ_Character1@EQClasses@@QAEHH@Z (public: int __thiscall EQClasses::EQ_Character1::Max_Endurance(int))
      204    ?Max_HP@EQ_Character1@EQClasses@@QAEHHH@Z (public: int __thiscall EQClasses::EQ_Character1::Max_HP(int,int))
      205    ?Max_Mana@EQ_Character1@EQClasses@@QAEHH@Z (public: int __thiscall EQClasses::EQ_Character1::Max_Mana(int))
      206    ?MemorizeSet@CSpellBookWnd@EQClasses@@QAEXPAHH@Z (public: void __thiscall EQClasses::CSpellBookWnd::MemorizeSet(int *,int))
      207    ?Move@CXWnd@EQClasses@@QAEHVCXPoint@2@@Z (public: int __thiscall EQClasses::CXWnd::Move(class EQClasses::CXPoint))
      208    ?Move@CXWnd@EQClasses@@QAEHVCXRect@2@@Z (public: int __thiscall EQClasses::CXWnd::Move(class EQClasses::CXRect))
      209    ?MoveItem@CInvSlotMgr@EQClasses@@QAEHHHHH@Z (public: int __thiscall EQClasses::CInvSlotMgr::MoveItem(int,int,int,int))
      210    ?OnMinimizeBox@CXWnd@EQClasses@@QAEHXZ (public: int __thiscall EQClasses::CXWnd::OnMinimizeBox(void))
      211    ?OnResize@CXWnd@EQClasses@@QAEHHH@Z (public: int __thiscall EQClasses::CXWnd::OnResize(int,int))
      212    ?ProcessTransition@CXWnd@EQClasses@@QAEHXZ (public: int __thiscall EQClasses::CXWnd::ProcessTransition(void))
      213    ?RMouseUp@CEverQuest@EQClasses@@QAEXHH@Z (public: void __thiscall EQClasses::CEverQuest::RMouseUp(int,int))
      214    ?Refade@CXWnd@EQClasses@@QAEXXZ (public: void __thiscall EQClasses::CXWnd::Refade(void))
      215    ?ReloadUI@CDisplay@EQClasses@@QAEX_N@Z (public: void __thiscall EQClasses::CDisplay::ReloadUI(bool))
      216    ?RemoveLine@CListWnd@EQClasses@@QAEXH@Z (public: void __thiscall EQClasses::CListWnd::RemoveLine(int))
      217    ?RemoveWnd@CXWndManager@EQClasses@@QAEHPAVCXWnd@2@@Z (public: int __thiscall EQClasses::CXWndManager::RemoveWnd(class EQClasses::CXWnd *))
      218    ?RequestBuyItem@CMerchantWnd@EQClasses@@QAEXH@Z (public: void __thiscall EQClasses::CMerchantWnd::RequestBuyItem(int))
      219    ?RequestSellItem@CMerchantWnd@EQClasses@@QAEXH@Z (public: void __thiscall EQClasses::CMerchantWnd::RequestSellItem(int))
      220    ?Resize@CXWnd@EQClasses@@QAEHHH@Z (public: int __thiscall EQClasses::CXWnd::Resize(int,int))
      221    ?Right@CXWnd@EQClasses@@QAEXXZ (public: void __thiscall EQClasses::CXWnd::Right(void))
      222    ?RightClickedOnPlayer@CEverQuest@EQClasses@@QAEXPAVEQPlayer@2@@Z (public: void __thiscall EQClasses::CEverQuest::RightClickedOnPlayer(class EQClasses::EQPlayer *))
      223    ?SaveEx@MapViewMap@EQClasses@@QAEXPADH@Z (public: void __thiscall EQClasses::MapViewMap::SaveEx(char *,int))
      224    ?SaveKeymapping@KeypressHandler@EQClasses@@QAEXIABVKeyCombo@2@H@Z (public: void __thiscall EQClasses::KeypressHandler::SaveKeymapping(unsigned int,class EQClasses::KeyCombo const &,int))
      225    ?SelectBuySellSlot@CMerchantWnd@EQClasses@@QAEXHPAVCTextureAnimation@2@@Z (public: void __thiscall EQClasses::CMerchantWnd::SelectBuySellSlot(int,class EQClasses::CTextureAnimation *))
      226    ?SelectableCharFromPoint@CEditWnd@EQClasses@@QBEHVCXPoint@2@@Z (public: int __thiscall EQClasses::CEditWnd::SelectableCharFromPoint(class EQClasses::CXPoint)const )
      227    ?SetCheck@CButtonWnd@EQClasses@@QAEX_N@Z (public: void __thiscall EQClasses::CButtonWnd::SetCheck(bool))
      228    ?SetChoice@CComboWnd@EQClasses@@QAEXH@Z (public: void __thiscall EQClasses::CComboWnd::SetChoice(int))
      229    ?SetColors@CComboWnd@EQClasses@@QAEXKKK@Z (public: void __thiscall EQClasses::CComboWnd::SetColors(unsigned long,unsigned long,unsigned long))
      230    ?SetColors@CListWnd@EQClasses@@QAEXKKK@Z (public: void __thiscall EQClasses::CListWnd::SetColors(unsigned long,unsigned long,unsigned long))
      231    ?SetColumnJustification@CListWnd@EQClasses@@QAEXHH@Z (public: void __thiscall EQClasses::CListWnd::SetColumnJustification(int,int))
      232    ?SetColumnWidth@CListWnd@EQClasses@@QAEXHH@Z (public: void __thiscall EQClasses::CListWnd::SetColumnWidth(int,int))
      233    ?SetCurSel@CListWnd@EQClasses@@QAEXH@Z (public: void __thiscall EQClasses::CListWnd::SetCurSel(int))
      234    ?SetEditable@CEditWnd@EQClasses@@QAEX_N@Z (public: void __thiscall EQClasses::CEditWnd::SetEditable(bool))
      235    ?SetFocus@CXWnd@EQClasses@@QAEPAV12@XZ (public: class EQClasses::CXWnd * __thiscall EQClasses::CXWnd::SetFocus(void))
      236    ?SetFont@CXWnd@EQClasses@@QAEHPAX@Z (public: int __thiscall EQClasses::CXWnd::SetFont(void *))
      237    ?SetGameState@CEverQuest@EQClasses@@QAEXH@Z (public: void __thiscall EQClasses::CEverQuest::SetGameState(int))
      238    ?SetItem@CItemDisplayWnd@EQClasses@@QAEXPAVEQ_Item@2@_N@Z (public: void __thiscall EQClasses::CItemDisplayWnd::SetItem(class EQClasses::EQ_Item *,bool))
      239    ?SetItemColor@CListWnd@EQClasses@@QAEXHHK@Z (public: void __thiscall EQClasses::CListWnd::SetItemColor(int,int,unsigned long))
      240    ?SetItemData@CListWnd@EQClasses@@QAEXHI@Z (public: void __thiscall EQClasses::CListWnd::SetItemData(int,unsigned int))
      241    ?SetItemText@CListWnd@EQClasses@@QAEXHHPAVCXStr@2@@Z (public: void __thiscall EQClasses::CListWnd::SetItemText(int,int,class EQClasses::CXStr *))
      242    ?SetKeyTooltip@CXWnd@EQClasses@@QAEXHH@Z (public: void __thiscall EQClasses::CXWnd::SetKeyTooltip(int,int))
      243    ?SetMaxChars@CEditBaseWnd@EQClasses@@QAEXH@Z (public: void __thiscall EQClasses::CEditBaseWnd::SetMaxChars(int))
      244    ?SetMouseOver@CXWnd@EQClasses@@QAEX_N@Z (public: void __thiscall EQClasses::CXWnd::SetMouseOver(bool))
      245    ?SetNameSpriteState@EQPlayer@EQClasses@@QAEH_N@Z (public: int __thiscall EQClasses::EQPlayer::SetNameSpriteState(bool))
      246    ?SetNameSpriteTint@EQPlayer@EQClasses@@QAE_NXZ (public: bool __thiscall EQClasses::EQPlayer::SetNameSpriteTint(void))
      247    ?SetNumTicks@CSliderWnd@EQClasses@@QAEXH@Z (public: void __thiscall EQClasses::CSliderWnd::SetNumTicks(int))
      248    ?SetPage@CTabWnd@EQClasses@@QAEXH_N@Z (public: void __thiscall EQClasses::CTabWnd::SetPage(int,bool))
      249    ?SetPageRect@CTabWnd@EQClasses@@QAEXVCXRect@2@@Z (public: void __thiscall EQClasses::CTabWnd::SetPageRect(class EQClasses::CXRect))
      250    ?SetProgressBar@EQ_LoadingS@EQClasses@@QAEXHPBD@Z (public: void __thiscall EQClasses::EQ_LoadingS::SetProgressBar(int,char const *))
      251    ?SetSTMLText@CStmlWnd@EQClasses@@QAEXAAVCXStr@2@_NPAVSLinkInfo@2@@Z (public: void __thiscall EQClasses::CStmlWnd::SetSTMLText(class EQClasses::CXStr &,bool,class EQClasses::SLinkInfo *))
      252    ?SetSel@CEditBaseWnd@EQClasses@@QAEXHH@Z (public: void __thiscall EQClasses::CEditBaseWnd::SetSel(int,int))
      253    ?SetSpell@CItemDisplayWnd@EQClasses@@QAEXH_NH@Z (public: void __thiscall EQClasses::CItemDisplayWnd::SetSpell(int,bool,int))
      254    ?SetVScrollPos@CXWnd@EQClasses@@QAEHH@Z (public: int __thiscall EQClasses::CXWnd::SetVScrollPos(int))
      255    ?SetValue@CSliderWnd@EQClasses@@QAEXH@Z (public: void __thiscall EQClasses::CSliderWnd::SetValue(int))
      256    ?SetWindowTextA@CXWnd@EQClasses@@QAEXAAVCXStr@2@@Z (public: void __thiscall EQClasses::CXWnd::SetWindowTextA(class EQClasses::CXStr &))
      257    ?ShiftColumnSeparator@CListWnd@EQClasses@@QAEXHH@Z (public: void __thiscall EQClasses::CListWnd::ShiftColumnSeparator(int,int))
      258    ?Show@CXWnd@EQClasses@@QAEH_N0@Z (public: int __thiscall EQClasses::CXWnd::Show(bool,bool))
      259    ?SliderComplete@CInvSlot@EQClasses@@QAEXH@Z (public: void __thiscall EQClasses::CInvSlot::SliderComplete(int))
      260    ?StartFade@CXWnd@EQClasses@@QAEXEI@Z (public: void __thiscall EQClasses::CXWnd::StartFade(unsigned char,unsigned int))
      261    ?StripFirstSTMLLines@CStmlWnd@EQClasses@@QAEXH@Z (public: void __thiscall EQClasses::CStmlWnd::StripFirstSTMLLines(int))
      262    ?ToggleSel@CListWnd@EQClasses@@QAEXH@Z (public: void __thiscall EQClasses::CListWnd::ToggleSel(int))
      263    ?UpdateHistoryString@CStmlWnd@EQClasses@@QAEXHAAVCXStr@2@@Z (public: void __thiscall EQClasses::CStmlWnd::UpdateHistoryString(int,class EQClasses::CXStr &))
      264    ?UpdatePage@CTabWnd@EQClasses@@QAEXXZ (public: void __thiscall EQClasses::CTabWnd::UpdatePage(void))
      265    ?UseSkill@EQ_Character1@EQClasses@@QAEXEPAVEQPlayer@2@@Z (public: void __thiscall EQClasses::EQ_Character1::UseSkill(unsigned char,class EQClasses::EQPlayer *))
      266    ?UsesAlt@KeyCombo@EQClasses@@QBE_NXZ (public: bool __thiscall EQClasses::KeyCombo::UsesAlt(void)const )
      267    ?UsesCtrl@KeyCombo@EQClasses@@QBE_NXZ (public: bool __thiscall EQClasses::KeyCombo::UsesCtrl(void)const )
      268    ?UsesShift@KeyCombo@EQClasses@@QBE_NXZ (public: bool __thiscall EQClasses::KeyCombo::UsesShift(void)const )
      269    ?WndNotification@CChatWindow@EQClasses@@QAEHPAVCXWnd@2@IPAX@Z (public: int __thiscall EQClasses::CChatWindow::WndNotification(class EQClasses::CXWnd *,unsigned int,void *))
      270    ?WndNotification@CSidlScreenWnd@EQClasses@@QAEHPAVCXWnd@2@IPAX@Z (public: int __thiscall EQClasses::CSidlScreenWnd::WndNotification(class EQClasses::CXWnd *,unsigned int,void *))
      271    ?WndNotification@CXWnd@EQClasses@@QAEHPAV12@IPAX@Z (public: int __thiscall EQClasses::CXWnd::WndNotification(class EQClasses::CXWnd *,unsigned int,void *))
      272    ?WriteTextHD2@CDisplay@EQClasses@@SAHPBDHHH@Z (public: static int __cdecl EQClasses::CDisplay::WriteTextHD2(char const *,int,int,int))
      273    ?XMLRead@CXMLSOMDocumentBase@EQClasses@@QAE_NPAVCXStr@2@00@Z (public: bool __thiscall EQClasses::CXMLSOMDocumentBase::XMLRead(class EQClasses::CXStr *,class EQClasses::CXStr *,class EQClasses::CXStr *))
      274    ?doLoot@CEverQuest@EQClasses@@QAEXXZ (public: void __thiscall EQClasses::CEverQuest::doLoot(void))
      275    ?dsp_chat@CEverQuest@EQClasses@@QAEXPBDH_N@Z (public: void __thiscall EQClasses::CEverQuest::dsp_chat(char const *,int,bool))
      276    ?getString@StringTable@EQClasses@@QAEPADKPA_N@Z (public: char * __thiscall EQClasses::StringTable::getString(unsigned long,bool *))
      277    _ActorDefList
               exported name: ActorDefList
      278    _AddAlias
               exported name: AddAlias
      279    _AddCommand
               exported name: AddCommand
      280    _AddDetour
               exported name: AddDetour
      281    _AddDetourf
               exported name: AddDetourf
      282    _AddFilter
               exported name: AddFilter
      283    _AddMQ2Benchmark
               exported name: AddMQ2Benchmark
      284    _AddMQ2Data
               exported name: AddMQ2Data
      285    _AddMQ2DataVariable
               exported name: AddMQ2DataVariable
      286    _AddMQ2KeyBind
               exported name: AddMQ2KeyBind
      287    _AddMQ2Type
               exported name: AddMQ2Type
      288    _AddMacroLine
               exported name: AddMacroLine
      289    _AddNewAlertList
               exported name: AddNewAlertList
      290    _AddSubstitute
               exported name: AddSubstitute
      291    _AddWindow
               exported name: AddWindow
      292    _AddXMLFile
               exported name: AddXMLFile
      293    _Alert
               exported name: Alert
      294    _Alias
               exported name: Alias
      295    _AltAbility
               exported name: AltAbility
      296    _AppendCXStr
               exported name: AppendCXStr
      297    _AttackRanged
               exported name: AttackRanged
      298    _BATLWjYjGyMujXkkQzgFuZeApHb
               exported name: BATLWjYjGyMujXkkQzgFuZeApHb
      299    _BNolTAFbrIpECqJAAvobFFhIacM
               exported name: BNolTAFbrIpECqJAAvobFFhIacM
      300    _BankList
               exported name: BankList
      301    _BuffStackTest
               exported name: BuffStackTest
      302    _BuyItem
               exported name: BuyItem
      303    _Calculate
               exported name: Calculate
      304    _Call
               exported name: Call
      305    _CaptionCmd
               exported name: CaptionCmd
      306    _CaptionColorCmd
               exported name: CaptionColorCmd
      307    _Cast
               exported name: Cast
      308    _CastRay
               exported name: CastRay
      309    _CharInfo
               exported name: CharInfo
      310    _CheckAlertForRecursion
               exported name: CheckAlertForRecursion
      311    _CheckChatForEvent
               exported name: CheckChatForEvent
      312    _Cleanup
               exported name: Cleanup
      313    _CleanupName
               exported name: CleanupName
      314    _ClearErrorsCmd
               exported name: ClearErrorsCmd
      315    _ClearMQ2DataVariables
               exported name: ClearMQ2DataVariables
      316    _ClearSearchSpawn
               exported name: ClearSearchSpawn
      317    _Click
               exported name: Click
      318    _CombineCmd
               exported name: CombineCmd
      319    _CompareTimes
               exported name: CompareTimes
      320    _ConColor
               exported name: ConColor
      321    _ConvertCR
               exported name: ConvertCR
      322    _ConvertHotkeyNameToKeyName
               exported name: ConvertHotkeyNameToKeyName
      323    _ConvertItemTags
               exported name: ConvertItemTags
      324    _CountMatchingSpawns
               exported name: CountMatchingSpawns
      325    _CreateMQ2NewsWindow
               exported name: CreateMQ2NewsWindow
      326    _DataTypeTemp
               exported name: DataTypeTemp
      327    _DebugSpew
               exported name: DebugSpew
      328    _DebugSpewAlways
               exported name: DebugSpewAlways
      329    _DebugSpewFile
               exported name: DebugSpewFile
      330    _DebugSpewNoFile
               exported name: DebugSpewNoFile
      331    _DefaultFilters
               exported name: DefaultFilters
      332    _DegToRad
               exported name: DegToRad
      333    _Delay
               exported name: Delay
      334    _DeleteMQ2DataVariable
               exported name: DeleteMQ2DataVariable
      335    _DeleteMQ2NewsWindow
               exported name: DeleteMQ2NewsWindow
      336    _DescribeKeyCombo
               exported name: DescribeKeyCombo
      337    _DisplayLoginName
               exported name: DisplayLoginName
      338    _DisplayOverlayText
               exported name: DisplayOverlayText
      339    _DistanceToPoint
               exported name: DistanceToPoint
      340    _DistanceToSpawn3D
               exported name: DistanceToSpawn3D
      341    _DoAbility
               exported name: DoAbility
      342    _DoAltCmd
               exported name: DoAltCmd
      343    _DoCommandCmd
               exported name: DoCommandCmd
      344    _DoCtrlCmd
               exported name: DoCtrlCmd
      345    _DoEvents
               exported name: DoEvents
      346    _DoMappable
               exported name: DoMappable
      347    _DoShiftCmd
               exported name: DoShiftCmd
      348    _DoSocial
               exported name: DoSocial
      349    _DoTimedCmd
               exported name: DoTimedCmd
      350    _DoTimedCommands
               exported name: DoTimedCommands
      351    _DoorEnviroTarget
               exported name: DoorEnviroTarget
      352    _DoorTarget
               exported name: DoorTarget
      353    _Doors
               exported name: Doors
      354    _DrawHUD
               exported name: DrawHUD
      355    _DrawHUDParams
               exported name: DrawHUDParams
      356    _DrawHUDText
               exported name: DrawHUDText
      357    _DropCmd
               exported name: DropCmd
      358    _DropTimers
               exported name: DropTimers
      359    _DumpBinds
               exported name: DumpBinds
      360    _DumpBindsCommand
               exported name: DumpBindsCommand
      361    _DumpStack
               exported name: DumpStack
      362    _DzsDsUdlfx_xHjOLlWADUMZjTnG
               exported name: DzsDsUdlfx_xHjOLlWADUMZjTnG
      363    _EQADDR_ATTACK
               exported name: EQADDR_ATTACK
      364    _EQADDR_CMDLIST
               exported name: EQADDR_CMDLIST
      365    _EQADDR_CONVERTITEMTAGS
               exported name: EQADDR_CONVERTITEMTAGS
      366    _EQADDR_DIKEYBOARD
               exported name: EQADDR_DIKEYBOARD
      367    _EQADDR_DIMAIN
               exported name: EQADDR_DIMAIN
      368    _EQADDR_DIMOUSE
               exported name: EQADDR_DIMOUSE
      369    _EQADDR_DOABILITYAVAILABLE
               exported name: EQADDR_DOABILITYAVAILABLE
      370    _EQADDR_DOABILITYLIST
               exported name: EQADDR_DOABILITYLIST
      371    _EQADDR_ENCRYPTPAD0
               exported name: EQADDR_ENCRYPTPAD0
      372    _EQADDR_ENCRYPTPAD1
               exported name: EQADDR_ENCRYPTPAD1
      373    _EQADDR_ENCRYPTPAD2
               exported name: EQADDR_ENCRYPTPAD2
      374    _EQADDR_ENCRYPTPAD3
               exported name: EQADDR_ENCRYPTPAD3
      375    _EQADDR_ENCRYPTPAD4
               exported name: EQADDR_ENCRYPTPAD4
      376    _EQADDR_GWORLD
               exported name: EQADDR_GWORLD
      377    _EQADDR_HWND
               exported name: EQADDR_HWND
      378    _EQADDR_LASTTELL
               exported name: EQADDR_LASTTELL
      379    _EQADDR_MEMCHECK0
               exported name: EQADDR_MEMCHECK0
      380    _EQADDR_MEMCHECK1
               exported name: EQADDR_MEMCHECK1
      381    _EQADDR_MEMCHECK2
               exported name: EQADDR_MEMCHECK2
      382    _EQADDR_MEMCHECK3
               exported name: EQADDR_MEMCHECK3
      383    _EQADDR_MEMCHECK4
               exported name: EQADDR_MEMCHECK4
      384    _EQADDR_MOUSE
               exported name: EQADDR_MOUSE
      385    _EQADDR_MOUSECLICK
               exported name: EQADDR_MOUSECLICK
      386    _EQADDR_NOTINCHATMODE
               exported name: EQADDR_NOTINCHATMODE
      387    _EQADDR_RUNWALKSTATE
               exported name: EQADDR_RUNWALKSTATE
      388    _EQADDR_SERVERHOST
               exported name: EQADDR_SERVERHOST
      389    _EQADDR_SERVERNAME
               exported name: EQADDR_SERVERNAME
      390    _EQDestroyHeldItemOrMoney
               exported name: EQDestroyHeldItemOrMoney
      391    _EQMappableCommandList
               exported name: EQMappableCommandList
      392    _EQP_DistArray
               exported name: EQP_DistArray
      393    _Echo
               exported name: Echo
      394    _EndMacro
               exported name: EndMacro
      395    _EnduranceGained
               exported name: EnduranceGained
      396    _EnterMQ2Benchmark
               exported name: EnterMQ2Benchmark
      397    _EnviroTarget
               exported name: EnviroTarget
      398    _EstimatedDistanceToSpawn
               exported name: EstimatedDistanceToSpawn
      399    _EventMsg
               exported name: EventMsg
      400    _Exec
               exported name: Exec
      401    _ExecuteCmd
               exported name: ExecuteCmd
      402    _ExitMQ2Benchmark
               exported name: ExitMQ2Benchmark
      403    _FMxlyaJtDiZDNyHGoKXHTKnRpzC
               exported name: FMxlyaJtDiZDNyHGoKXHTKnRpzC
      404    _Face
               exported name: Face
      405    _FailIf
               exported name: FailIf
      406    _FatalError
               exported name: FatalError
      407    _Filter
               exported name: Filter
      408    _FindContainerForContents
               exported name: FindContainerForContents
      409    _FindInvSlot
               exported name: FindInvSlot
      410    _FindInvSlotForContents
               exported name: FindInvSlotForContents
      411    _FindMQ2Data
               exported name: FindMQ2Data
      412    _FindMQ2DataType
               exported name: FindMQ2DataType
      413    _FindMQ2DataVariable
               exported name: FindMQ2DataVariable
      414    _FindMQ2Window
               exported name: FindMQ2Window
      415    _FindMappableCommand
               exported name: FindMappableCommand
      416    _FindNextInvSlot
               exported name: FindNextInvSlot
      417    _FindSpeed
               exported name: FindSpeed
      418    _FindSpellListByName
               exported name: FindSpellListByName
      419    _FindVariableScope
               exported name: FindVariableScope
      420    _FixStringTable
               exported name: FixStringTable
      421    _For
               exported name: For
      422    _FormatSearchSpawn
               exported name: FormatSearchSpawn
      423    _FrHegHgomIgQphCFizePeKBMzYa
               exported name: FrHegHgomIgQphCFizePeKBMzYa
      424    _FreeAlertList
               exported name: FreeAlertList
      425    _FreeAlerts
               exported name: FreeAlerts
      426    _GLpOCyCpmkxIWqkuXpEOgTTQihF
               exported name: GLpOCyCpmkxIWqkuXpEOgTTQihF
      427    _GOupDcGBPcjPcAlquRlaAVAoBpM
               exported name: GOupDcGBPcjPcAlquRlaAVAoBpM
      428    _GetAAIndexByID
               exported name: GetAAIndexByID
      429    _GetAAIndexByName
               exported name: GetAAIndexByName
      430    _GetAlert
               exported name: GetAlert
      431    _GetArg
               exported name: GetArg
      432    _GetBuffID
               exported name: GetBuffID
      433    _GetCXStr
               exported name: GetCXStr
      434    _GetClosestAlert
               exported name: GetClosestAlert
      435    _GetDeityTeamByID
               exported name: GetDeityTeamByID
      436    _GetEQPath
               exported name: GetEQPath
      437    _GetEnviroContainer
               exported name: GetEnviroContainer
      438    _GetFastTime
               exported name: GetFastTime
      439    _GetFilenameFromFullPath
               exported name: GetFilenameFromFullPath
      440    _GetFriendlyNameForGroundItem
               exported name: GetFriendlyNameForGroundItem
      441    _GetFullZone
               exported name: GetFullZone
      442    _GetFuncParam
               exported name: GetFuncParam
      443    _GetGameDate
               exported name: GetGameDate
      444    _GetGameState
               exported name: GetGameState
      445    _GetGameTime
               exported name: GetGameTime
      446    _GetGuildByID
               exported name: GetGuildByID
      447    _GetGuildIDByName
               exported name: GetGuildIDByName
      448    _GetItemContentsByName
               exported name: GetItemContentsByName
      449    _GetItemContentsBySlotID
               exported name: GetItemContentsBySlotID
      450    _GetItemLink
               exported name: GetItemLink
      451    _GetItemLinkHash
               exported name: GetItemLinkHash
      452    _GetItemTimer
               exported name: GetItemTimer
      453    _GetLDoNTheme
               exported name: GetLDoNTheme
      454    _GetLabelFromEQ
               exported name: GetLabelFromEQ
      455    _GetLanguageIDByName
               exported name: GetLanguageIDByName
      456    _GetLightForSpawn
               exported name: GetLightForSpawn
      457    _GetLoginName
               exported name: GetLoginName
      458    _GetMQ2Benchmark
               exported name: GetMQ2Benchmark
      459    _GetMQ2KeyBind
               exported name: GetMQ2KeyBind
      460    _GetMeleeRange
               exported name: GetMeleeRange
      461    _GetModel
               exported name: GetModel
      462    _GetNextArg
               exported name: GetNextArg
      463    _GetParentWnd
               exported name: GetParentWnd
      464    _GetShortBuffID
               exported name: GetShortBuffID
      465    _GetShortZone
               exported name: GetShortZone
      466    _GetSkillIDFromName
               exported name: GetSkillIDFromName
      467    _GetSpellByName
               exported name: GetSpellByName
      468    _GetSpellDuration
               exported name: GetSpellDuration
      469    _GetSpellNameByID
               exported name: GetSpellNameByID
      470    _GetSubFromLine
               exported name: GetSubFromLine
      471    _GetZoneID
               exported name: GetZoneID
      472    _GoihDErsLleTRLDvIDwBOGCadHT
               exported name: GoihDErsLleTRLDvIDwBOGCadHT
      473    _Goto
               exported name: Goto
      474    _HealthGained
               exported name: HealthGained
      475    _Help
               exported name: Help
      476    _HideDoCommand
               exported name: HideDoCommand
      477    _HudCmd
               exported name: HudCmd
      478    _IUwgkMBSMQwTKtqpoYtrMbNnI_Q
               exported name: IUwgkMBSMQwTKtqpoYtrMbNnI_Q
      479    _Identify
               exported name: Identify
      480    _InHoverState
               exported name: InHoverState
      481    _Include
               exported name: Include
      482    _IniOutput
               exported name: IniOutput
      483    _InitializeChatHook
               exported name: InitializeChatHook
      484    _InitializeDisplayHook
               exported name: InitializeDisplayHook
      485    _InitializeMQ2Benchmarks
               exported name: InitializeMQ2Benchmarks
      486    _InitializeMQ2Commands
               exported name: InitializeMQ2Commands
      487    _InitializeMQ2DInput
               exported name: InitializeMQ2DInput
      488    _InitializeMQ2Data
               exported name: InitializeMQ2Data
      489    _InitializeMQ2DataTypes
               exported name: InitializeMQ2DataTypes
      490    _InitializeMQ2Detours
               exported name: InitializeMQ2Detours
      491    _InitializeMQ2KeyBinds
               exported name: InitializeMQ2KeyBinds
      492    _InitializeMQ2Plugins
               exported name: InitializeMQ2Plugins
      493    _InitializeMQ2Pulse
               exported name: InitializeMQ2Pulse
      494    _InitializeMQ2Spawns
               exported name: InitializeMQ2Spawns
      495    _InitializeMQ2Windows
               exported name: InitializeMQ2Windows
      496    _InitializeParser
               exported name: InitializeParser
      497    _IsAlert
               exported name: IsAlert
      498    _IsInGroup
               exported name: IsInGroup
      499    _IsInRaid
               exported name: IsInRaid
      500    _IsMouseWaiting
               exported name: IsMouseWaiting
      501    _IsMouseWaitingForButton
               exported name: IsMouseWaitingForButton
      502    _IsNamed
               exported name: IsNamed
      503    _IsPCNear
               exported name: IsPCNear
      504    _ItemSlotMap
               exported name: ItemSlotMap
      505    _ItemTarget
               exported name: ItemTarget
      506    _Items
               exported name: Items
      507    _JIXVHCOMgZBF_FxVxMokNETztQd
               exported name: JIXVHCOMgZBF_FxVxMokNETztQd
      508    _KDgUaImTgyIaZNxFnUEiELHqtOB
               exported name: KDgUaImTgyIaZNxFnUEiELHqtOB
      509    _KeepKeys
               exported name: KeepKeys
      510    _LightBrightness
               exported name: LightBrightness
      511    _ListMacros
               exported name: ListMacros
      512    _LoH_HT_Ready
               exported name: LoH_HT_Ready
      513    _LoadCfgCommand
               exported name: LoadCfgCommand
      514    _LoadCfgFile
               exported name: LoadCfgFile
      515    _LoadMQ2Plugin
               exported name: LoadMQ2Plugin
      516    _LoadSpells
               exported name: LoadSpells
      517    _Location
               exported name: Location
      518    _Look
               exported name: Look
      519    _LootAll
               exported name: LootAll
      520    _LtKxwkGzJnrNoyiFDiQnQupksFa
               exported name: LtKxwkGzJnrNoyiFDiQnQupksFa
      521    _MKWWANQnlkAdZDapsOngRcRJCuA
               exported name: MKWWANQnlkAdZDapsOngRcRJCuA
      522    _MQ2DataError
               exported name: MQ2DataError
      523    _MQ2Free
               exported name: MQ2Free
      524    _MQ2HandleKeyDown
               exported name: MQ2HandleKeyDown
      525    _MQ2HandleKeyUp
               exported name: MQ2HandleKeyUp
      526    _MQ2KeyBindCommand
               exported name: MQ2KeyBindCommand
      527    _MQ2Malloc
               exported name: MQ2Malloc
      528    _MQMsgBox
               exported name: MQMsgBox
      529    _MQToSTML
               exported name: MQToSTML
      530    _Macro
               exported name: Macro
      531    _MacroBeep
               exported name: MacroBeep
      532    _MacroError
               exported name: MacroError
      533    _MacroLog
               exported name: MacroLog
      534    _MacroPause
               exported name: MacroPause
      535    _ManaGained
               exported name: ManaGained
      536    _MemSpell
               exported name: MemSpell
      537    _MultilineCommand
               exported name: MultilineCommand
      538    _NewDeclareVar
               exported name: NewDeclareVar
      539    _NewDeleteVarCmd
               exported name: NewDeleteVarCmd
      540    _NewIf
               exported name: NewIf
      541    _NewUIINI
               exported name: NewUIINI
      542    _NewVarcalc
               exported name: NewVarcalc
      543    _NewVardata
               exported name: NewVardata
      544    _NewVarset
               exported name: NewVarset
      545    _Next
               exported name: Next
      546    _NoModKeyCmd
               exported name: NoModKeyCmd
      547    _NoParseCmd
               exported name: NoParseCmd
      548    _NthNearestSpawn
               exported name: NthNearestSpawn
      549    _OlkiJADNKSkAhmsVhKpdfkrDObR
               exported name: OlkiJADNKSkAhmsVhKpdfkrDObR
      550    _PI
               exported name: PI
      551    _PVPServer
               exported name: PVPServer
      552    _ParseKeyCombo
               exported name: ParseKeyCombo
      553    _ParseMQ2DataPortion
               exported name: ParseMQ2DataPortion
      554    _ParseMacroData
               exported name: ParseMacroData
      555    _ParseMacroParameter
               exported name: ParseMacroParameter
      556    _ParseSearchSpawn
               exported name: ParseSearchSpawn
      557    _ParseSearchSpawnArgs
               exported name: ParseSearchSpawnArgs
      558    _PlayerHasAAAbility
               exported name: PlayerHasAAAbility
      559    _PluginCmdSort
               exported name: PluginCmdSort
      560    _PluginCommand
               exported name: PluginCommand
      561    _PluginsAddGroundItem
               exported name: PluginsAddGroundItem
      562    _PluginsAddSpawn
               exported name: PluginsAddSpawn
      563    _PluginsBeginZone
               exported name: PluginsBeginZone
      564    _PluginsCleanUI
               exported name: PluginsCleanUI
      565    _PluginsDrawHUD
               exported name: PluginsDrawHUD
      566    _PluginsEndZone
               exported name: PluginsEndZone
      567    _PluginsIncomingChat
               exported name: PluginsIncomingChat
      568    _PluginsReloadUI
               exported name: PluginsReloadUI
      569    _PluginsRemoveGroundItem
               exported name: PluginsRemoveGroundItem
      570    _PluginsRemoveSpawn
               exported name: PluginsRemoveSpawn
      571    _PluginsSetGameState
               exported name: PluginsSetGameState
      572    _PluginsZoned
               exported name: PluginsZoned
      573    _PopupText
               exported name: PopupText
      574    _PressMQ2KeyBind
               exported name: PressMQ2KeyBind
      575    _ProcessGameEvents
               exported name: ProcessGameEvents
      576    _ProcessPendingGroundItems
               exported name: ProcessPendingGroundItems
      577    _PulsePlugins
               exported name: PulsePlugins
      578    _RemoveAlias
               exported name: RemoveAlias
      579    _RemoveCommand
               exported name: RemoveCommand
      580    _RemoveDetour
               exported name: RemoveDetour
      581    _RemoveMQ2Benchmark
               exported name: RemoveMQ2Benchmark
      582    _RemoveMQ2Data
               exported name: RemoveMQ2Data
      583    _RemoveMQ2KeyBind
               exported name: RemoveMQ2KeyBind
      584    _RemoveMQ2Type
               exported name: RemoveMQ2Type
      585    _RemoveSubstitute
               exported name: RemoveSubstitute
      586    _RemoveWindow
               exported name: RemoveWindow
      587    _RemoveXMLFile
               exported name: RemoveXMLFile
      588    _Return
               exported name: Return
      589    _RewriteAliases
               exported name: RewriteAliases
      590    _RewriteMQ2Plugins
               exported name: RewriteMQ2Plugins
      591    _RewriteSubstitutions
               exported name: RewriteSubstitutions
      592    _STMLToPlainText
               exported name: STMLToPlainText
      593    _SWhoFilter
               exported name: SWhoFilter
      594    _SearchThroughSpawns
               exported name: SearchThroughSpawns
      595    _SellItem
               exported name: SellItem
      596    _SendListSelect
               exported name: SendListSelect
      597    _SendWndClick
               exported name: SendWndClick
      598    _SendWndClick2
               exported name: SendWndClick2
      599    _SendWndNotification
               exported name: SendWndNotification
      600    _SetAutoRun
               exported name: SetAutoRun
      601    _SetCXStr
               exported name: SetCXStr
      602    _SetDisplaySWhoFilter
               exported name: SetDisplaySWhoFilter
      603    _SetError
               exported name: SetError
      604    _SetMQ2KeyBind
               exported name: SetMQ2KeyBind
      605    _SetNameSpriteState
               exported name: SetNameSpriteState
      606    _ShowSpellSlotInfo
               exported name: ShowSpellSlotInfo
      607    _ShutdownChatHook
               exported name: ShutdownChatHook
      608    _ShutdownDisplayHook
               exported name: ShutdownDisplayHook
      609    _ShutdownMQ2Benchmarks
               exported name: ShutdownMQ2Benchmarks
      610    _ShutdownMQ2Commands
               exported name: ShutdownMQ2Commands
      611    _ShutdownMQ2DInput
               exported name: ShutdownMQ2DInput
      612    _ShutdownMQ2Data
               exported name: ShutdownMQ2Data
      613    _ShutdownMQ2DataTypes
               exported name: ShutdownMQ2DataTypes
      614    _ShutdownMQ2Detours
               exported name: ShutdownMQ2Detours
      615    _ShutdownMQ2KeyBinds
               exported name: ShutdownMQ2KeyBinds
      616    _ShutdownMQ2Plugins
               exported name: ShutdownMQ2Plugins
      617    _ShutdownMQ2Pulse
               exported name: ShutdownMQ2Pulse
      618    _ShutdownMQ2Spawns
               exported name: ShutdownMQ2Spawns
      619    _ShutdownMQ2Windows
               exported name: ShutdownMQ2Windows
      620    _ShutdownParser
               exported name: ShutdownParser
      621    _Skills
               exported name: Skills
      622    _SlotValueCalculate
               exported name: SlotValueCalculate
      623    _SpawnByName
               exported name: SpawnByName
      624    _SpawnMatchesSearch
               exported name: SpawnMatchesSearch
      625    _SquelchCommand
               exported name: SquelchCommand
      626    _StateHeightMultiplier
               exported name: StateHeightMultiplier
      627    _StripMQChat
               exported name: StripMQChat
      628    _Substitute
               exported name: Substitute
      629    _SuperWho
               exported name: SuperWho
      630    _SuperWhoTarget
               exported name: SuperWhoTarget
      631    _SyntaxError
               exported name: SyntaxError
      632    _Target
               exported name: Target
      633    _ThreadID
               exported name: ThreadID
      634    _TimedCommand
               exported name: TimedCommand
      635    _Unload
               exported name: Unload
      636    _UnloadMQ2Plugin
               exported name: UnloadMQ2Plugin
      637    _UnloadMQ2Plugins
               exported name: UnloadMQ2Plugins
      638    _UpdateItemInfo
               exported name: UpdateItemInfo
      639    _UpdateMQ2SpawnSort
               exported name: UpdateMQ2SpawnSort
      640    _UseAbility
               exported name: UseAbility
      641    _WereWeZoning
               exported name: WereWeZoning
      642    _Where
               exported name: Where
      643    _WindowState
               exported name: WindowState
      644    _WriteChatColor
               exported name: WriteChatColor
      645    _WriteChatf
               exported name: WriteChatf
      646    _WriteFilterNames
               exported name: WriteFilterNames
      647    _XAoLrjCjkyquFXGklzCFZZJAUHx
               exported name: XAoLrjCjkyquFXGklzCFZZJAUHx
      648    _XoLWprFnwGgdjZlpDscgkHxJNQp
               exported name: XoLWprFnwGgdjZlpDscgkHxJNQp
      649    _arqsXnhpHvymVBQurAOsfIyQDOP
               exported name: arqsXnhpHvymVBQurAOsfIyQDOP
      650    _bAllErrorsDumpStack
               exported name: bAllErrorsDumpStack
      651    _bAllErrorsFatal
               exported name: bAllErrorsFatal
      652    _bAllErrorsLog
               exported name: bAllErrorsLog
      653    _bAllowCommandParse
               exported name: bAllowCommandParse
      654    _bDetMouse
               exported name: bDetMouse
      655    _bLaxColor
               exported name: bLaxColor
      656    _bRunNextCommand
               exported name: bRunNextCommand
      657    _bmBeginZone
               exported name: bmBeginZone
      658    _bmCalculate
               exported name: bmCalculate
      659    _bmEndZone
               exported name: bmEndZone
      660    _bmParseMacroParameter
               exported name: bmParseMacroParameter
      661    _bmPluginsCleanUI
               exported name: bmPluginsCleanUI
      662    _bmPluginsDrawHUD
               exported name: bmPluginsDrawHUD
      663    _bmPluginsIncomingChat
               exported name: bmPluginsIncomingChat
      664    _bmPluginsOnZoned
               exported name: bmPluginsOnZoned
      665    _bmPluginsPulse
               exported name: bmPluginsPulse
      666    _bmPluginsReloadUI
               exported name: bmPluginsReloadUI
      667    _bmPluginsSetGameState
               exported name: bmPluginsSetGameState
      668    _bmUpdateSpawnCaptions
               exported name: bmUpdateSpawnCaptions
      669    _bmUpdateSpawnSort
               exported name: bmUpdateSpawnSort
      670    _bmWriteChatColor
               exported name: bmWriteChatColor
      671    _cdMVwYDMrDMFkjdVmhdkY_IzEuK
               exported name: cdMVwYDMrDMFkjdVmhdkY_IzEuK
      672    _cmdCast
               exported name: cmdCast
      673    _cmdCharInfo
               exported name: cmdCharInfo
      674    _cmdDoAbility
               exported name: cmdDoAbility
      675    _cmdFace
               exported name: cmdFace
      676    _cmdFilter
               exported name: cmdFilter
      677    _cmdHelp
               exported name: cmdHelp
      678    _cmdLocation
               exported name: cmdLocation
      679    _cmdTarget
               exported name: cmdTarget
      680    _cmdWho
               exported name: cmdWho
      681    _cmdWhoTarget
               exported name: cmdWhoTarget
      682    _dGNCpDkAVKvHNFhQQGWYyCfFrdh
               exported name: dGNCpDkAVKvHNFhQQGWYyCfFrdh
      683    _dataAltAbility
               exported name: dataAltAbility
      684    _dataBool
               exported name: dataBool
      685    _dataCharacter
               exported name: dataCharacter
      686    _dataCorpse
               exported name: dataCorpse
      687    _dataCursor
               exported name: dataCursor
      688    _dataDefined
               exported name: dataDefined
      689    _dataDoorTarget
               exported name: dataDoorTarget
      690    _dataDynamicZone
               exported name: dataDynamicZone
      691    _dataFindItem
               exported name: dataFindItem
      692    _dataFindItemBank
               exported name: dataFindItemBank
      693    _dataFindItemBankCount
               exported name: dataFindItemBankCount
      694    _dataFindItemCount
               exported name: dataFindItemCount
      695    _dataFloat
               exported name: dataFloat
      696    _dataFriends
               exported name: dataFriends
      697    _dataGameTime
               exported name: dataGameTime
      698    _dataGroundItem
               exported name: dataGroundItem
      699    _dataGroup
               exported name: dataGroup
      700    _dataHeading
               exported name: dataHeading
      701    _dataIf
               exported name: dataIf
      702    _dataIni
               exported name: dataIni
      703    _dataInt
               exported name: dataInt
      704    _dataInvSlot
               exported name: dataInvSlot
      705    _dataItemTarget
               exported name: dataItemTarget
      706    _dataLastSpawn
               exported name: dataLastSpawn
      707    _dataLineOfSight
               exported name: dataLineOfSight
      708    _dataMacro
               exported name: dataMacro
      709    _dataMacroQuest
               exported name: dataMacroQuest
      710    _dataMath
               exported name: dataMath
      711    _dataMerchant
               exported name: dataMerchant
      712    _dataNamingSpawn
               exported name: dataNamingSpawn
      713    _dataNearestSpawn
               exported name: dataNearestSpawn
      714    _dataPlugin
               exported name: dataPlugin
      715    _dataRaid
               exported name: dataRaid
      716    _dataSelect
               exported name: dataSelect
      717    _dataSelectedItem
               exported name: dataSelectedItem
      718    _dataSkill
               exported name: dataSkill
      719    _dataSpawn
               exported name: dataSpawn
      720    _dataSpawnCount
               exported name: dataSpawnCount
      721    _dataSpell
               exported name: dataSpell
      722    _dataString
               exported name: dataString
      723    _dataSwitch
               exported name: dataSwitch
      724    _dataTarget
               exported name: dataTarget
      725    _dataTime
               exported name: dataTime
      726    _dataWindow
               exported name: dataWindow
      727    _dataZone
               exported name: dataZone
      728    _do_ranged
               exported name: do_ranged
      729    _dsp_chat_no_events
               exported name: dsp_chat_no_events
      730    _eSuxNlOGjVagBGLAfOUxGnyPMbm
               exported name: eSuxNlOGjVagBGLAfOUxGnyPMbm
      731    _fYoAnxLfdIoECzBqASMQQplKwVw
               exported name: fYoAnxLfdIoECzBqASMQQplKwVw
      732    _gDelay
               exported name: gDelay
      733    _gDelayCondition
               exported name: gDelayCondition
      734    _gDelayedCommands
               exported name: gDelayedCommands
      735    _gDiKeyID
               exported name: gDiKeyID
      736    _gDiKeyName
               exported name: gDiKeyName
      737    _gEventChat
               exported name: gEventChat
      738    _gEventFunc
               exported name: gEventFunc
      739    _gEventQueue
               exported name: gEventQueue
      740    _gFaceAngle
               exported name: gFaceAngle
      741    _gFilterCustom
               exported name: gFilterCustom
      742    _gFilterDebug
               exported name: gFilterDebug
      743    _gFilterEncumber
               exported name: gFilterEncumber
      744    _gFilterFood
               exported name: gFilterFood
      745    _gFilterMQ
               exported name: gFilterMQ
      746    _gFilterMQ2DataErrors
               exported name: gFilterMQ2DataErrors
      747    _gFilterMacro
               exported name: gFilterMacro
      748    _gFilterMoney
               exported name: gFilterMoney
      749    _gFilterSWho
               exported name: gFilterSWho
      750    _gFilterSkillsAll
               exported name: gFilterSkillsAll
      751    _gFilterSkillsIncrease
               exported name: gFilterSkillsIncrease
      752    _gFilterTarget
               exported name: gFilterTarget
      753    _gGameState
               exported name: gGameState
      754    _gInClick
               exported name: gInClick
      755    _gItemDB
               exported name: gItemDB
      756    _gKeepKeys
               exported name: gKeepKeys
      757    _gLClickedObject
               exported name: gLClickedObject
      758    _gLastFind
               exported name: gLastFind
      759    _gLookAngle
               exported name: gLookAngle
      760    _gMQCaptions
               exported name: gMQCaptions
      761    _gMQPauseOnChat
               exported name: gMQPauseOnChat
      762    _gMacroBlock
               exported name: gMacroBlock
      763    _gMacroPause
               exported name: gMacroPause
      764    _gMacroStack
               exported name: gMacroStack
      765    _gMacroSubLookupMap
               exported name: gMacroSubLookupMap
      766    _gMaxSpawnCaptions
               exported name: gMaxSpawnCaptions
      767    _gMaxTurbo
               exported name: gMaxTurbo
      768    _gMouseData
               exported name: gMouseData
      769    _gMouseLeftClickInProgress
               exported name: gMouseLeftClickInProgress
      770    _gMouseRightClickInProgress
               exported name: gMouseRightClickInProgress
      771    _gReturn
               exported name: gReturn
      772    _gRunning
               exported name: gRunning
      773    _gSpawnCount
               exported name: gSpawnCount
      774    _gSpewToFile
               exported name: gSpewToFile
      775    _gStringTableFixed
               exported name: gStringTableFixed
      776    _gTimer
               exported name: gTimer
      777    _gTurbo
               exported name: gTurbo
      778    _gZFilter
               exported name: gZFilter
      779    _gZoning
               exported name: gZoning
      780    _g_Loaded
               exported name: g_Loaded
      781    _g_bInDXMouse
               exported name: g_bInDXMouse
      782    _g_ppDrawHandler
               exported name: g_ppDrawHandler
      783    _gbAlwaysDrawMQHUD
               exported name: gbAlwaysDrawMQHUD
      784    _gbDoAutoRun
               exported name: gbDoAutoRun
      785    _gbHUDUnderUI
               exported name: gbHUDUnderUI
      786    _gbInChat
               exported name: gbInChat
      787    _gbInDAcquire
               exported name: gbInDAcquire
      788    _gbInDInput
               exported name: gbInDInput
      789    _gbInDState
               exported name: gbInDState
      790    _gbInZone
               exported name: gbInZone
      791    _gbMQ2LoadingMsg
               exported name: gbMQ2LoadingMsg
      792    _gbMoving
               exported name: gbMoving
      793    _gbUnload
               exported name: gbUnload
      794    _get_melee_range
               exported name: get_melee_range
      795    _ghInstance
               exported name: ghInstance
      796    _ghModule
               exported name: ghModule
      797    _gnNormalEQMappableCommands
               exported name: gnNormalEQMappableCommands
      798    _gpAlertList
               exported name: gpAlertList
      799    _gpAutoFire
               exported name: gpAutoFire
      800    _gpFilters
               exported name: gpFilters
      801    _gpHook
               exported name: gpHook
      802    _gpPCNames
               exported name: gpPCNames
      803    _gpShiftKeyDown
               exported name: gpShiftKeyDown
      804    _gpShowNames
               exported name: gpShowNames
      805    _gpbAltTimerReady
               exported name: gpbAltTimerReady
      806    _gpbRangedAttackReady
               exported name: gpbRangedAttackReady
      807    _gpbShowNetStatus
               exported name: gpbShowNetStatus
      808    _gszEQPath
               exported name: gszEQPath
      809    _gszINIFilename
               exported name: gszINIFilename
      810    _gszINIPath
               exported name: gszINIPath
      811    _gszItemDB
               exported name: gszItemDB
      812    _gszLastMQ2DataError
               exported name: gszLastMQ2DataError
      813    _gszLastNormalError
               exported name: gszLastNormalError
      814    _gszLastSyntaxError
               exported name: gszLastSyntaxError
      815    _gszLogPath
               exported name: gszLogPath
      816    _gszMacroName
               exported name: gszMacroName
      817    _gszMacroPath
               exported name: gszMacroPath
      818    _gszSpawnCorpseName
               exported name: gszSpawnCorpseName
      819    _gszSpawnNPCName
               exported name: gszSpawnNPCName
      820    _gszSpawnPetName
               exported name: gszSpawnPetName
      821    _gszSpawnPlayerName
               exported name: gszSpawnPlayerName
      822    _gszVersion
               exported name: gszVersion
      823    _iauEIgrNecuWgxCVCVzzeRfDiRa
               exported name: iauEIgrNecuWgxCVCVzzeRfDiRa
      824    _koNhhENsglATvLhvmDaBjGYazHx
               exported name: koNhhENsglATvLhvmDaBjGYazHx
      825    _mBeQHvQANqBAaCbfEdKKgIoyVcy
               exported name: mBeQHvQANqBAaCbfEdKKgIoyVcy
      826    _mTyUwJasGAOlvQvfJCGFotStcnY
               exported name: mTyUwJasGAOlvQvfJCGFotStcnY
      827    _nColorAdjective
               exported name: nColorAdjective
      828    _nColorAdjectiveYou
               exported name: nColorAdjectiveYou
      829    _nColorExpletive
               exported name: nColorExpletive
      830    _nColorFatalError
               exported name: nColorFatalError
      831    _nColorMQ2DataError
               exported name: nColorMQ2DataError
      832    _nColorMacroError
               exported name: nColorMacroError
      833    _nColorSyntaxError
               exported name: nColorSyntaxError
      834    _nIBVlCsMCZXFvFTVbMTkrEozPQz
               exported name: nIBVlCsMCZXFvFTVbMTkrEozPQz
      835    _pAliases
               exported name: pAliases
      836    _pAltAbilityType
               exported name: pAltAbilityType
      837    _pArgbType
               exported name: pArgbType
      838    _pArrayType
               exported name: pArrayType
      839    _pBodyType
               exported name: pBodyType
      840    _pBoolType
               exported name: pBoolType
      841    _pBuffType
               exported name: pBuffType
      842    _pByteType
               exported name: pByteType
      843    _pCharacterType
               exported name: pCharacterType
      844    _pClassType
               exported name: pClassType
      845    _pCommands
               exported name: pCommands
      846    _pCorpseType
               exported name: pCorpseType
      847    _pCurrentZoneType
               exported name: pCurrentZoneType
      848    _pDZMemberType
               exported name: pDZMemberType
      849    _pDefines
               exported name: pDefines
      850    _pDeityType
               exported name: pDeityType
      851    _pDoorTarget
               exported name: pDoorTarget
      852    _pDynamicZone
               exported name: pDynamicZone
      853    _pDynamicZoneType
               exported name: pDynamicZoneType
      854    _pEQMisc
               exported name: pEQMisc
      855    _pEventBlech
               exported name: pEventBlech
      856    _pEventList
               exported name: pEventList
      857    _pEvolvingItemType
               exported name: pEvolvingItemType
      858    _pFellowshipMemberType
               exported name: pFellowshipMemberType
      859    _pFellowshipType
               exported name: pFellowshipType
      860    _pFloatType
               exported name: pFloatType
      861    _pFriendsType
               exported name: pFriendsType
      862    _pGlobalVariables
               exported name: pGlobalVariables
      863    _pGroundTarget
               exported name: pGroundTarget
      864    _pGroundType
               exported name: pGroundType
      865    _pGroupMemberType
               exported name: pGroupMemberType
      866    _pGroupType
               exported name: pGroupType
      867    _pGuild
               exported name: pGuild
      868    _pGuildList
               exported name: pGuildList
      869    _pHeadingType
               exported name: pHeadingType
      870    _pIntType
               exported name: pIntType
      871    _pInvSlotType
               exported name: pInvSlotType
      872    _pItemType
               exported name: pItemType
      873    _pMQ2Blech
               exported name: pMQ2Blech
      874    _pMacroQuestType
               exported name: pMacroQuestType
      875    _pMacroType
               exported name: pMacroType
      876    _pMacroVariables
               exported name: pMacroVariables
      877    _pMathType
               exported name: pMathType
      878    _pMerchantType
               exported name: pMerchantType
      879    _pMouseLook
               exported name: pMouseLook
      880    _pNamingSpawn
               exported name: pNamingSpawn
      881    _pPluginType
               exported name: pPluginType
      882    _pPlugins
               exported name: pPlugins
      883    _pRaceType
               exported name: pRaceType
      884    _pRaid
               exported name: pRaid
      885    _pRaidMemberType
               exported name: pRaidMemberType
      886    _pRaidType
               exported name: pRaidType
      887    _pScreenMode
               exported name: pScreenMode
      888    _pScreenX
               exported name: pScreenX
      889    _pScreenXMax
               exported name: pScreenXMax
      890    _pScreenY
               exported name: pScreenY
      891    _pScreenYMax
               exported name: pScreenYMax
      892    _pSkillType
               exported name: pSkillType
      893    _pSocialList
               exported name: pSocialList
      894    _pSpawnType
               exported name: pSpawnType
      895    _pSpellSets
               exported name: pSpellSets
      896    _pSpellType
               exported name: pSpellType
      897    _pStringType
               exported name: pStringType
      898    _pSubs
               exported name: pSubs
      899    _pSwitchType
               exported name: pSwitchType
      900    _pTargetType
               exported name: pTargetType
      901    _pTicksType
               exported name: pTicksType
      902    _pTimeType
               exported name: pTimeType
      903    _pTimerType
               exported name: pTimerType
      904    _pTributeActive
               exported name: pTributeActive
      905    _pTypeType
               exported name: pTypeType
      906    _pWHOSORTCompare
               exported name: pWHOSORTCompare
      907    _pWindowType
               exported name: pWindowType
      908    _pXMLFiles
               exported name: pXMLFiles
      909    _pXfpGxHTMSHw_CSFTnuEFAbqZhr
               exported name: pXfpGxHTMSHw_CSFTnuEFAbqZhr
      910    _pZoneInfo
               exported name: pZoneInfo
      911    _pZoneType
               exported name: pZoneType
      912    _p_oqrbDcZLYngoTLATfXdCtcPpC
               exported name: p_oqrbDcZLYngoTLATfXdCtcPpC
      913    _pgCurrentSocial
               exported name: pgCurrentSocial
      914    _pgHotkeyPage
               exported name: pgHotkeyPage
      915    _ppAAWnd
               exported name: ppAAWnd
      916    _ppActionsWnd
               exported name: ppActionsWnd
      917    _ppActiveBanker
               exported name: ppActiveBanker
      918    _ppActiveCorpse
               exported name: ppActiveCorpse
      919    _ppActiveGMaster
               exported name: ppActiveGMaster
      920    _ppActiveMerchant
               exported name: ppActiveMerchant
      921    _ppAlarmWnd
               exported name: ppAlarmWnd
      922    _ppAltAdvManager
               exported name: ppAltAdvManager
      923    _ppAuraMgr
               exported name: ppAuraMgr
      924    _ppBankWnd
               exported name: ppBankWnd
      925    _ppBazaarSearchWnd
               exported name: ppBazaarSearchWnd
      926    _ppBazaarWnd
               exported name: ppBazaarWnd
      927    _ppBodyTintWnd
               exported name: ppBodyTintWnd
      928    _ppBookWnd
               exported name: ppBookWnd
      929    _ppBreathWnd
               exported name: ppBreathWnd
      930    _ppBuffWindowNORMAL
               exported name: ppBuffWindowNORMAL
      931    _ppBuffWindowSHORT
               exported name: ppBuffWindowSHORT
      932    _ppBugReportWnd
               exported name: ppBugReportWnd
      933    _ppCDBStr
               exported name: ppCDBStr
      934    _ppCSkillMgr
               exported name: ppCSkillMgr
      935    _ppCastSpellWnd
               exported name: ppCastSpellWnd
      936    _ppCastingWnd
               exported name: ppCastingWnd
      937    _ppCharData
               exported name: ppCharData
      938    _ppCharSpawn
               exported name: ppCharSpawn
      939    _ppChatManager
               exported name: ppChatManager
      940    _ppColorPickerWnd
               exported name: ppColorPickerWnd
      941    _ppCombatAbilityWnd
               exported name: ppCombatAbilityWnd
      942    _ppCompassWnd
               exported name: ppCompassWnd
      943    _ppConnection
               exported name: ppConnection
      944    _ppContainerMgr
               exported name: ppContainerMgr
      945    _ppContextMenuManager
               exported name: ppContextMenuManager
      946    _ppControlledPlayer
               exported name: ppControlledPlayer
      947    _ppCurrentMapLabel
               exported name: ppCurrentMapLabel
      948    _ppCursorAttachment
               exported name: ppCursorAttachment
      949    _ppDZMember
               exported name: ppDZMember
      950    _ppDZTimerInfo
               exported name: ppDZTimerInfo
      951    _ppDisplay
               exported name: ppDisplay
      952    _ppEQChatMgr
               exported name: ppEQChatMgr
      953    _ppEditLabelWnd
               exported name: ppEditLabelWnd
      954    _ppEverQuest
               exported name: ppEverQuest
      955    _ppFacePick
               exported name: ppFacePick
      956    _ppFeedbackWnd
               exported name: ppFeedbackWnd
      957    _ppFileSelectionWnd
               exported name: ppFileSelectionWnd
      958    _ppFriendsWnd
               exported name: ppFriendsWnd
      959    _ppGemsGameWnd
               exported name: ppGemsGameWnd
      960    _ppGiveWnd
               exported name: ppGiveWnd
      961    _ppGroupSearchFiltersWnd
               exported name: ppGroupSearchFiltersWnd
      962    _ppGroupSearchWnd
               exported name: ppGroupSearchWnd
      963    _ppGroupWnd
               exported name: ppGroupWnd
      964    _ppGuildMgmtWnd
               exported name: ppGuildMgmtWnd
      965    _ppHotButtonWnd
               exported name: ppHotButtonWnd
      966    _ppInspectWnd
               exported name: ppInspectWnd
      967    _ppInvSlotMgr
               exported name: ppInvSlotMgr
      968    _ppInventoryWnd
               exported name: ppInventoryWnd
      969    _ppItemList
               exported name: ppItemList
      970    _ppJournalCatWnd
               exported name: ppJournalCatWnd
      971    _ppJournalTextWnd
               exported name: ppJournalTextWnd
      972    _ppKeypressHandler
               exported name: ppKeypressHandler
      973    _ppLoadskinWnd
               exported name: ppLoadskinWnd
      974    _ppLocalPlayer
               exported name: ppLocalPlayer
      975    _ppLootWnd
               exported name: ppLootWnd
      976    _ppMapToolbarWnd
               exported name: ppMapToolbarWnd
      977    _ppMapViewWnd
               exported name: ppMapViewWnd
      978    _ppMerchantWnd
               exported name: ppMerchantWnd
      979    _ppMusicPlayerWnd
               exported name: ppMusicPlayerWnd
      980    _ppNoteWnd
               exported name: ppNoteWnd
      981    _ppOptionsWnd
               exported name: ppOptionsWnd
      982    _ppPCData
               exported name: ppPCData
      983    _ppPetInfoWnd
               exported name: ppPetInfoWnd
      984    _ppPetitionQWnd
               exported name: ppPetitionQWnd
      985    _ppPlayerNotesWnd
               exported name: ppPlayerNotesWnd
      986    _ppPlayerWnd
               exported name: ppPlayerWnd
      987    _ppPotionBeltWnd
               exported name: ppPotionBeltWnd
      988    _ppQuantityWnd
               exported name: ppQuantityWnd
      989    _ppRaidOptionsWnd
               exported name: ppRaidOptionsWnd
      990    _ppRaidWnd
               exported name: ppRaidWnd
      991    _ppSelectorWnd
               exported name: ppSelectorWnd
      992    _ppSidlMgr
               exported name: ppSidlMgr
      993    _ppSkillMgr
               exported name: ppSkillMgr
      994    _ppSkillsSelectWnd
               exported name: ppSkillsSelectWnd
      995    _ppSkillsWnd
               exported name: ppSkillsWnd
      996    _ppSocialEditWnd
               exported name: ppSocialEditWnd
      997    _ppSoulmarkWnd
               exported name: ppSoulmarkWnd
      998    _ppSpawnManager
               exported name: ppSpawnManager
      999    _ppSpellBookWnd
               exported name: ppSpellBookWnd
     1000    _ppSpellMgr
               exported name: ppSpellMgr
     1001    _ppStoryWnd
               exported name: ppStoryWnd
     1002    _ppStringTable
               exported name: ppStringTable
     1003    _ppSwitchMgr
               exported name: ppSwitchMgr
     1004    _ppTarget
               exported name: ppTarget
     1005    _ppTargetWnd
               exported name: ppTargetWnd
     1006    _ppTaskMember
               exported name: ppTaskMember
     1007    _ppTextEntryWnd
               exported name: ppTextEntryWnd
     1008    _ppTextOverlay
               exported name: ppTextOverlay
     1009    _ppTimeLeftWnd
               exported name: ppTimeLeftWnd
     1010    _ppTrackingWnd
               exported name: ppTrackingWnd
     1011    _ppTradeTarget
               exported name: ppTradeTarget
     1012    _ppTradeWnd
               exported name: ppTradeWnd
     1013    _ppTrainWnd
               exported name: ppTrainWnd
     1014    _ppVideoModesWnd
               exported name: ppVideoModesWnd
     1015    _ppWndMgr
               exported name: ppWndMgr
     1016    _ppWorldData
               exported name: ppWorldData
     1017    _qYnuuWwkxBPzJeEvRqsLdreVnzo
               exported name: qYnuuWwkxBPzJeEvRqsLdreVnzo
     1018    _qfRDcmbLsasbRWVuHfJDlcslJYJ
               exported name: qfRDcmbLsasbRWVuHfJDlcslJYJ
     1019    _smTdds_dzsjvglAaWEwOHFZBxdU
               exported name: smTdds_dzsjvglAaWEwOHFZBxdU
     1020    _sogWLranaGLdOZQpZsygGHbJrQU
               exported name: sogWLranaGLdOZQpZsygGHbJrQU
     1021    _szAugRestrictions
               exported name: szAugRestrictions
     1022    _szBodyType
               exported name: szBodyType
     1023    _szColorAdjective
               exported name: szColorAdjective
     1024    _szColorAdjectiveYou
               exported name: szColorAdjectiveYou
     1025    _szColorExpletive
               exported name: szColorExpletive
     1026    _szColorFatalError
               exported name: szColorFatalError
     1027    _szColorMQ2DataError
               exported name: szColorMQ2DataError
     1028    _szColorMacroError
               exported name: szColorMacroError
     1029    _szColorSyntaxError
               exported name: szColorSyntaxError
     1030    _szCombineTypes
               exported name: szCombineTypes
     1031    _szDeityTeam
               exported name: szDeityTeam
     1032    _szDmgBonusType
               exported name: szDmgBonusType
     1033    _szEQMappableCommands
               exported name: szEQMappableCommands
     1034    _szGender
               exported name: szGender
     1035    _szGuildStatus
               exported name: szGuildStatus
     1036    _szHeading
               exported name: szHeading
     1037    _szHeadingNormal
               exported name: szHeadingNormal
     1038    _szHeadingNormalShort
               exported name: szHeadingNormalShort
     1039    _szHeadingShort
               exported name: szHeadingShort
     1040    _szInnates
               exported name: szInnates
     1041    _szItemName
               exported name: szItemName
     1042    _szItemName4xx
               exported name: szItemName4xx
     1043    _szItemSlot
               exported name: szItemSlot
     1044    _szItemTypes
               exported name: szItemTypes
     1045    _szLastCommand
               exported name: szLastCommand
     1046    _szLights
               exported name: szLights
     1047    _szSize
               exported name: szSize
     1048    _szSkills
               exported name: szSkills
     1049    _szSpawnType
               exported name: szSpawnType
     1050    _thrMsgBox@4
     1051    _tnmfgsoqmimuq_tVsrP_nuEdK_u
               exported name: tnmfgsoqmimuq_tVsrP_nuEdK_u
     1052    _u_QEsUDcTGfgQefQzRqdZNigGFF
               exported name: u_QEsUDcTGfgQefQzRqdZNigGFF
     1053    _ujiBbwIHIqccaniLwylhZseyKVS
               exported name: ujiBbwIHIqccaniLwylhZseyKVS
     1054    _zHETMwCGEKGCARzAADdTFymPgRw
               exported name: zHETMwCGEKGCARzAADdTFymPgRw
