 MQ2Main

 Timestamp is 4d3d7c7d (Mon Jan 24 08:19:57 2011)

 Preferred load address is 03000000

 Start         Length     Name                   Class
 0001:00000000 0008010fH .text                   CODE
 0001:00080110 0000011eH .text$x                 CODE
 0001:00080230 0000043fH .text$yc                CODE
 0001:00080670 000003cfH .text$yd                CODE
 0002:00000000 000001d8H .idata$5                DATA
 0002:000001d8 00000004H .CRT$XCA                DATA
 0002:000001dc 00000030H .CRT$XCU                DATA
 0002:0000020c 00000004H .CRT$XCZ                DATA
 0002:00000210 00000004H .CRT$XIA                DATA
 0002:00000214 00000018H .CRT$XIC                DATA
 0002:0000022c 00000004H .CRT$XIZ                DATA
 0002:00000230 00000004H .CRT$XPA                DATA
 0002:00000234 00000004H .CRT$XPX                DATA
 0002:00000238 00000004H .CRT$XPXA               DATA
 0002:0000023c 00000004H .CRT$XPZ                DATA
 0002:00000240 00000004H .CRT$XTA                DATA
 0002:00000244 00000004H .CRT$XTZ                DATA
 0002:00000250 0001abc0H .rdata                  DATA
 0002:0001ae10 00000066H .rdata$debug            DATA
 0002:0001ae78 0000113cH .rdata$r                DATA
 0002:0001bfc0 00000050H .rdata$sxdata           DATA
 0002:0001c010 00000004H .rtc$IAA                DATA
 0002:0001c014 00000004H .rtc$IZZ                DATA
 0002:0001c018 00000004H .rtc$TAA                DATA
 0002:0001c01c 00000004H .rtc$TZZ                DATA
 0002:0001c020 00001034H .xdata$x                DATA
 0002:0001d054 00000050H .idata$2                DATA
 0002:0001d0a4 00000014H .idata$3                DATA
 0002:0001d0b8 000001d8H .idata$4                DATA
 0002:0001d290 0000088aH .idata$6                DATA
 0002:0001db20 00008bafH .edata                  DATA
 0003:00000000 0000b1d0H .data                   DATA
 0003:0000b1e0 000152ccH .bss                    DATA

  Address         Publics by Value              Rva+Base       Lib:Object

 0000:00000000       __except_list              00000000     <absolute>
 0000:00000014       ___safe_se_handler_count   00000014     <absolute>
 0000:00000000       ___ImageBase               03000000     <linker-defined>
 0001:00000000       ??0CSidlScreenWnd@EQClasses@@QAE@XZ 03001000 f i EQClasses.obj
 0001:00000010       ??0CXRect@EQClasses@@QAE@HHHH@Z 03001010 f i EQClasses.obj
 0001:00000030       ??0CXRect@EQClasses@@QAE@XZ 03001030 f i EQClasses.obj
 0001:00000040       ??0KeyCombo@EQClasses@@QAE@E_N00@Z 03001040 f i EQClasses.obj
 0001:00000060       ??0KeyCombo@EQClasses@@QAE@XZ 03001060 f i EQClasses.obj
 0001:00000070       ?Clear@KeyCombo@EQClasses@@QAEXXZ 03001070 f i EQClasses.obj
 0001:00000080       ?UsesAlt@KeyCombo@EQClasses@@QBE_NXZ 03001080 f i EQClasses.obj
 0001:00000090       ?UsesCtrl@KeyCombo@EQClasses@@QBE_NXZ 03001090 f i EQClasses.obj
 0001:000000a0       ?UsesShift@KeyCombo@EQClasses@@QBE_NXZ 030010a0 f i EQClasses.obj
 0001:000000b0       ??8KeyCombo@EQClasses@@QAEHABV01@@Z 030010b0 f i EQClasses.obj
 0001:000000d0       ?GetKey@KeyCombo@EQClasses@@QBEIXZ 030010d0 f i EQClasses.obj
 0001:000000e0       ??_I@YGXPAXIHP6EX0@Z@Z     030010e0 f i EQClasses.obj
 0001:00000120       ?GetItemLinkHash@EQ_Item@EQClasses@@QAEPADPADH@Z 03001120 f   EQClasses.obj
 0001:00000130       ?CanDrop@EQ_Item@EQClasses@@QAEHH@Z 03001130 f   EQClasses.obj
 0001:00000140       ?Max_Endurance@EQ_Character1@EQClasses@@QAEHH@Z 03001140 f   EQClasses.obj
 0001:00000150       ?Max_Mana@EQ_Character1@EQClasses@@QAEHH@Z 03001150 f   EQClasses.obj
 0001:00000160       ?Max_HP@EQ_Character1@EQClasses@@QAEHHH@Z 03001160 f   EQClasses.obj
 0001:00000170       ?DoCombatAbility@EQ_Character@EQClasses@@QAEXH@Z 03001170 f   EQClasses.obj
 0001:00000180       ??_VCChatWindow@EQClasses@@SAXPAX@Z 03001180 f   EQClasses.obj
 0001:00000190       ?IsValid@CXWnd@EQClasses@@QBE_NXZ 03001190 f   EQClasses.obj
 0001:000001a0       ?WndNotification@CXWnd@EQClasses@@QAEHPAV12@IPAX@Z 030011a0 f   EQClasses.obj
 0001:000001b0       ?OnResize@CXWnd@EQClasses@@QAEHHH@Z 030011b0 f   EQClasses.obj
 0001:000001c0       ?Show@CXWnd@EQClasses@@QAEH_N0@Z 030011c0 f   EQClasses.obj
 0001:000001d0       ?SetVScrollPos@CXWnd@EQClasses@@QAEHH@Z 030011d0 f   EQClasses.obj
 0001:000001e0       ?SetWindowTextA@CXWnd@EQClasses@@QAEXAAVCXStr@2@@Z 030011e0 f   EQClasses.obj
 0001:000001f0       ?HandleLButtonDown@CXWnd@EQClasses@@QAEHPAVCXPoint@2@I@Z 030011f0 f   EQClasses.obj
 0001:00000200       ?HandleLButtonUp@CXWnd@EQClasses@@QAEHPAVCXPoint@2@I@Z 03001200 f   EQClasses.obj
 0001:00000210       ?HandleLButtonHeld@CXWnd@EQClasses@@QAEHPAVCXPoint@2@I@Z 03001210 f   EQClasses.obj
 0001:00000220       ?HandleLButtonUpAfterHeld@CXWnd@EQClasses@@QAEHPAVCXPoint@2@I@Z 03001220 f   EQClasses.obj
 0001:00000230       ?HandleRButtonDown@CXWnd@EQClasses@@QAEHPAVCXPoint@2@I@Z 03001230 f   EQClasses.obj
 0001:00000240       ?HandleRButtonUp@CXWnd@EQClasses@@QAEHPAVCXPoint@2@I@Z 03001240 f   EQClasses.obj
 0001:00000250       ?HandleRButtonHeld@CXWnd@EQClasses@@QAEHPAVCXPoint@2@I@Z 03001250 f   EQClasses.obj
 0001:00000260       ?HandleRButtonUpAfterHeld@CXWnd@EQClasses@@QAEHPAVCXPoint@2@I@Z 03001260 f   EQClasses.obj
 0001:00000270       ?OnMinimizeBox@CXWnd@EQClasses@@QAEHXZ 03001270 f   EQClasses.obj
 0001:00000280       ?SetFont@CXWnd@EQClasses@@QAEHPAX@Z 03001280 f   EQClasses.obj
 0001:00000290       ?DeleteAll@CListWnd@EQClasses@@QAEXXZ 03001290 f   EQClasses.obj
 0001:000002a0       ??0CXStr@EQClasses@@QAE@ABV01@@Z 030012a0 f   EQClasses.obj
 0001:000002b0       ??1CXStr@EQClasses@@QAE@XZ 030012b0 f   EQClasses.obj
 0001:000002c0       ?SetMaxChars@CEditBaseWnd@EQClasses@@QAEXH@Z 030012c0 f   EQClasses.obj
 0001:000002d0       ?GetNumBankSlots@CBankWnd@EQClasses@@QBEHXZ 030012d0 f   EQClasses.obj
 0001:000002e0       ?CenterPoint@CXRect@EQClasses@@QBE?AVCXPoint@2@XZ 030012e0 f   EQClasses.obj
 0001:000002f0       ?HandleBazaarMsg@CBazaarSearchWnd@EQClasses@@QAEXPADH@Z 030012f0 f   EQClasses.obj
 0001:00000300       ?GetWindowTextA@CXWnd@EQClasses@@QBE?AVCXStr@2@XZ 03001300 f   EQClasses.obj
 0001:00000310       ??0CXStr@EQClasses@@QAE@XZ 03001310 f   EQClasses.obj
 0001:00000320       ?GetRGBAFromIndex@CChatManager@EQClasses@@QAEKH@Z 03001320 f   EQClasses.obj
 0001:00000330       ?InitContextMenu@CChatManager@EQClasses@@QAEHPAVCChatWindow@2@@Z 03001330 f   EQClasses.obj
 0001:00000340       ?GetSTMLText@CStmlWnd@EQClasses@@QBEPAVCXStr@2@AAPAV32@@Z 03001340 f   EQClasses.obj
 0001:00000350       ?WndNotification@CChatWindow@EQClasses@@QAEHPAVCXWnd@2@IPAX@Z 03001350 f   EQClasses.obj
 0001:00000360       ?HandleCombine@CContainerWnd@EQClasses@@QAEXXZ 03001360 f   EQClasses.obj
 0001:00000370       ?DoHotButton@CHotButtonWnd@EQClasses@@QAEXHH@Z 03001370 f   EQClasses.obj
 0001:00000380       ?SliderComplete@CInvSlot@EQClasses@@QAEXH@Z 03001380 f   EQClasses.obj
 0001:00000390       ?HandleRButtonUp@CInvSlot@EQClasses@@QAEXPAVCXPoint@2@@Z 03001390 f   EQClasses.obj
 0001:000003a0       ?MoveItem@CInvSlotMgr@EQClasses@@QAEHHHHH@Z 030013a0 f   EQClasses.obj
 0001:000003b0       ?FindInvSlot@CInvSlotMgr@EQClasses@@QAEPAVCInvSlot@2@H@Z 030013b0 f   EQClasses.obj
 0001:000003c0       ?SetItem@CItemDisplayWnd@EQClasses@@QAEXPAVEQ_Item@2@_N@Z 030013c0 f   EQClasses.obj
 0001:000003d0       ?SetSpell@CItemDisplayWnd@EQClasses@@QAEXH_NH@Z 030013d0 f   EQClasses.obj
 0001:000003e0       ?Clear@MapViewMap@EQClasses@@QAEXXZ 030013e0 f   EQClasses.obj
 0001:000003f0       ?SaveEx@MapViewMap@EQClasses@@QAEXPADH@Z 030013f0 f   EQClasses.obj
 0001:00000400       ?SelectBuySellSlot@CMerchantWnd@EQClasses@@QAEXHPAVCTextureAnimation@2@@Z 03001400 f   EQClasses.obj
 0001:00000410       ?DisplayBuyOrSellPrice@CMerchantWnd@EQClasses@@QAEX_NPAVEQ_Item@2@@Z 03001410 f   EQClasses.obj
 0001:00000420       ?RequestBuyItem@CMerchantWnd@EQClasses@@QAEXH@Z 03001420 f   EQClasses.obj
 0001:00000430       ?RequestSellItem@CMerchantWnd@EQClasses@@QAEXH@Z 03001430 f   EQClasses.obj
 0001:00000440       ?MemorizeSet@CSpellBookWnd@EQClasses@@QAEXPAHH@Z 03001440 f   EQClasses.obj
 0001:00000450       ?FindMemberByName@CGuild@EQClasses@@QAEPAVGuildMember@2@PAD@Z 03001450 f   EQClasses.obj
 0001:00000460       ?ReloadUI@CDisplay@EQClasses@@QAEX_N@Z 03001460 f   EQClasses.obj
 0001:00000470       ?CleanGameUI@CDisplay@EQClasses@@QAEXXZ 03001470 f   EQClasses.obj
 0001:00000480       ?GetWorldFilePath@CDisplay@EQClasses@@QAE?B_NPADPBD@Z 03001480 f   EQClasses.obj
 0001:00000490       ?GetUserDefinedColor@CDisplay@EQClasses@@SAKH@Z 03001490 f   EQClasses.obj
 0001:000004a0       ?WriteTextHD2@CDisplay@EQClasses@@SAHPBDHHH@Z 030014a0 f   EQClasses.obj
 0001:000004b0       ?GetClickedActor@CDisplay@EQClasses@@QAEPAUT3D_tagACTORINSTANCE@2@KKKPAX0@Z 030014b0 f   EQClasses.obj
 0001:000004c0       ?GetAltAbility@AltAdvManager@EQClasses@@QAEPAU_ALTABILITY@EQData@@H@Z 030014c0 f   EQClasses.obj
 0001:000004d0       ?IsAbilityReady@AltAdvManager@EQClasses@@QAE_NPAVEQ_PC@2@PAU_ALTABILITY@EQData@@PAH@Z 030014d0 f   EQClasses.obj
 0001:000004e0       ?GetCalculatedTimer@AltAdvManager@EQClasses@@QAEKPAVEQ_PC@2@PAU_ALTABILITY@EQData@@@Z 030014e0 f   EQClasses.obj
 0001:000004f0       ?Cur_HP@EQ_Character1@EQClasses@@QAEHHE@Z 030014f0 f   EQClasses.obj
 0001:00000500       ?UseSkill@EQ_Character1@EQClasses@@QAEXEPAVEQPlayer@2@@Z 03001500 f   EQClasses.obj
 0001:00000510       ?GetFocusCastingTimeModifier@EQ_Character1@EQClasses@@QAE?BHPBVEQ_Spell@2@PAPAVEQ_Equipment@2@@Z 03001510 f   EQClasses.obj
 0001:00000520       ?GetFocusRangeModifier@EQ_Character1@EQClasses@@QAE?BHPBVEQ_Spell@2@PAPAVEQ_Equipment@2@@Z 03001520 f   EQClasses.obj
 0001:00000530       ?CastSpell@EQ_Character1@EQClasses@@QAEEEHPAPAVEQ_Item@2@HHHHHH_NH@Z 03001530 f   EQClasses.obj
 0001:00000540       ?GetAACastingTimeModifier@EQ_Character1@EQClasses@@QAE?BHPBVEQ_Spell@2@@Z 03001540 f   EQClasses.obj
 0001:00000550       ?GetConLevel@EQ_Character@EQClasses@@QAEKPAVEQPlayer@2@@Z 03001550 f   EQClasses.obj
 0001:00000560       ?IsStackable@EQ_Item@EQClasses@@QAE_NXZ 03001560 f   EQClasses.obj
 0001:00000570       ?SetProgressBar@EQ_LoadingS@EQClasses@@QAEXHPBD@Z 03001570 f   EQClasses.obj
 0001:00000580       ?GetItemTimerValue@EQ_PC@EQClasses@@QAEKPAVEQ_Item@2@@Z 03001580 f   EQClasses.obj
 0001:00000590       ?GetAltAbilityIndex@EQ_PC@EQClasses@@QAEHH@Z 03001590 f   EQClasses.obj
 0001:000005a0       ?GetCombatAbility@EQ_PC@EQClasses@@QAEHH@Z 030015a0 f   EQClasses.obj
 0001:000005b0       ?GetCombatAbilityTimer@EQ_PC@EQClasses@@QAEKH@Z 030015b0 f   EQClasses.obj
 0001:000005c0       ?HasLoreItem@EQ_PC@EQClasses@@QAEKPAVEQ_Item@2@@Z 030015c0 f   EQClasses.obj
 0001:000005d0       ?DestroyHeldItemOrMoney@EQ_PC@EQClasses@@QAEXXZ 030015d0 f   EQClasses.obj
 0001:000005e0       ??0EQItemList@EQClasses@@QAE@XZ 030015e0 f   EQClasses.obj
 0001:000005f0       ??1EQItemList@EQClasses@@QAE@XZ 030015f0 f   EQClasses.obj
 0001:00000600       ??0EQPlayer@EQClasses@@QAE@PAV01@EIEPAD@Z 03001600 f   EQClasses.obj
 0001:00000610       ??1EQPlayer@EQClasses@@QAE@XZ 03001610 f   EQClasses.obj
 0001:00000620       ?DoAttack@EQPlayer@EQClasses@@QAEHEEPAV12@@Z 03001620 f   EQClasses.obj
 0001:00000630       ?SetNameSpriteState@EQPlayer@EQClasses@@QAEH_N@Z 03001630 f   EQClasses.obj
 0001:00000640       ?ChangeBoneStringSprite@EQPlayer@EQClasses@@QAEPAUS3D_STRINGSPRITE@2@PAUT3D_DAG@2@PAD@Z 03001640 f   EQClasses.obj
 0001:00000650       ?SetNameSpriteTint@EQPlayer@EQClasses@@QAE_NXZ 03001650 f   EQClasses.obj
 0001:00000660       ?IsBodyType@EQPlayer@EQClasses@@QAE_NIHH@Z 03001660 f   EQClasses.obj
 0001:00000670       ?GetSpawnByID@EQPlayerManager@EQClasses@@QAEPAVEQPlayer@2@H@Z 03001670 f   EQClasses.obj
 0001:00000680       ?GetSpawnByName@EQPlayerManager@EQClasses@@QAEPAVEQPlayer@2@PAD@Z 03001680 f   EQClasses.obj
 0001:00000690       ?GetClassDesc@CEverQuest@EQClasses@@QAEPADH@Z 03001690 f   EQClasses.obj
 0001:000006a0       ?GetClassThreeLetterCode@CEverQuest@EQClasses@@QAEPADH@Z 030016a0 f   EQClasses.obj
 0001:000006b0       ?GetBodyTypeDesc@CEverQuest@EQClasses@@QAEPADH@Z 030016b0 f   EQClasses.obj
 0001:000006c0       ?GetLangDesc@CEverQuest@EQClasses@@QAEPADH@Z 030016c0 f   EQClasses.obj
 0001:000006d0       ?GetRaceDesc@CEverQuest@EQClasses@@QAEPADH@Z 030016d0 f   EQClasses.obj
 0001:000006e0       ?GetDeityDesc@CEverQuest@EQClasses@@QAEPADH@Z 030016e0 f   EQClasses.obj
 0001:000006f0       ?DropHeldItemOnGround@CEverQuest@EQClasses@@QAEXH@Z 030016f0 f   EQClasses.obj
 0001:00000700       ?LMouseUp@CEverQuest@EQClasses@@QAEXHH@Z 03001700 f   EQClasses.obj
 0001:00000710       ?LeftClickedOnPlayer@CEverQuest@EQClasses@@QAEXPAVEQPlayer@2@@Z 03001710 f   EQClasses.obj
 0001:00000720       ?RightClickedOnPlayer@CEverQuest@EQClasses@@QAEXPAVEQPlayer@2@@Z 03001720 f   EQClasses.obj
 0001:00000730       ?dsp_chat@CEverQuest@EQClasses@@QAEXPBDH_N@Z 03001730 f   EQClasses.obj
 0001:00000740       ?DoTellWindow@CEverQuest@EQClasses@@QAEXPAD00PAXH_N@Z 03001740 f   EQClasses.obj
 0001:00000750       ?Emote@CEverQuest@EQClasses@@QAEXXZ 03001750 f   EQClasses.obj
 0001:00000760       ?EnterZone@CEverQuest@EQClasses@@QAEXPAUHWND__@@@Z 03001760 f   EQClasses.obj
 0001:00000770       ?doLoot@CEverQuest@EQClasses@@QAEXXZ 03001770 f   EQClasses.obj
 0001:00000780       ?InterpretCmd@CEverQuest@EQClasses@@QAEXPAVEQPlayer@2@PAD@Z 03001780 f   EQClasses.obj
 0001:00000790       ?RMouseUp@CEverQuest@EQClasses@@QAEXHH@Z 03001790 f   EQClasses.obj
 0001:000007a0       ?ClickedPlayer@CEverQuest@EQClasses@@QAEPAVEQPlayer@2@HH@Z 030017a0 f   EQClasses.obj
 0001:000007b0       ?SetGameState@CEverQuest@EQClasses@@QAEXH@Z 030017b0 f   EQClasses.obj
 0001:000007c0       ?AttachKeyToEqCommand@KeypressHandler@EQClasses@@QAE_NABVKeyCombo@2@I@Z 030017c0 f   EQClasses.obj
 0001:000007d0       ?AttachAltKeyToEqCommand@KeypressHandler@EQClasses@@QAE_NABVKeyCombo@2@I@Z 030017d0 f   EQClasses.obj
 0001:000007e0       ?HandleKeyDown@KeypressHandler@EQClasses@@QAE_NABVKeyCombo@2@@Z 030017e0 f   EQClasses.obj
 0001:000007f0       ?HandleKeyUp@KeypressHandler@EQClasses@@QAE_NABVKeyCombo@2@@Z 030017f0 f   EQClasses.obj
 0001:00000800       ?SaveKeymapping@KeypressHandler@EQClasses@@QAEXIABVKeyCombo@2@H@Z 03001800 f   EQClasses.obj
 0001:00000810       ?ClearCommandStateArray@KeypressHandler@EQClasses@@QAEXXZ 03001810 f   EQClasses.obj
 0001:00000820       ?getString@StringTable@EQClasses@@QAEPADKPA_N@Z 03001820 f   EQClasses.obj
 0001:00000830       ??1CSidlScreenWnd@EQClasses@@QAE@XZ 03001830 f   EQClasses.obj
 0001:00000840       ?WndNotification@CSidlScreenWnd@EQClasses@@QAEHPAVCXWnd@2@IPAX@Z 03001840 f   EQClasses.obj
 0001:00000850       ??0CSidlScreenWnd@EQClasses@@QAE@PAVCXWnd@1@PAVCXStr@1@HHPAD@Z 03001850 f   EQClasses.obj
 0001:00000860       ??0CSidlScreenWnd@EQClasses@@QAE@PAVCXWnd@1@VCXStr@1@@Z 03001860 f   EQClasses.obj
 0001:00000880       ?Init@CSidlScreenWnd@EQClasses@@QAEXHPAVCXStr@2@HHH@Z 03001880 f   EQClasses.obj
 0001:00000890       ?LoadSidlScreen@CSidlScreenWnd@EQClasses@@QAEXXZ 03001890 f   EQClasses.obj
 0001:000008a0       ?CalculateVSBRange@CSidlScreenWnd@EQClasses@@QAEXXZ 030018a0 f   EQClasses.obj
 0001:000008b0       ?CalculateHSBRange@CSidlScreenWnd@EQClasses@@QAEXXZ 030018b0 f   EQClasses.obj
 0001:000008c0       ?DrawSidlPiece@CSidlScreenWnd@EQClasses@@QBEHPAVCScreenPieceTemplate@2@VCXRect@2@1@Z 030018c0 f   EQClasses.obj
 0001:000008d0       ?GetSidlPiece@CSidlScreenWnd@EQClasses@@QBEPAVCScreenPieceTemplate@2@PAVCXStr@2@@Z 030018d0 f   EQClasses.obj
 0001:000008e0       ?CreateChildrenFromSidl@CSidlScreenWnd@EQClasses@@QAEXXZ 030018e0 f   EQClasses.obj
 0001:000008f0       ?EnableIniStorage@CSidlScreenWnd@EQClasses@@QAEXHPAD@Z 030018f0 f   EQClasses.obj
 0001:00000900       ?ConvertToRes@CSidlScreenWnd@EQClasses@@QAEHHHHH@Z 03001900 f   EQClasses.obj
 0001:00000910       ?GetChildItem@CSidlScreenWnd@EQClasses@@QAEPAVCXWnd@2@ABVCXStr@2@@Z 03001910 f   EQClasses.obj
 0001:00000920       ?LoadIniListWnd@CSidlScreenWnd@EQClasses@@QAEXPAVCListWnd@2@PAD@Z 03001920 f   EQClasses.obj
 0001:00000930       ?SetFocus@CXWnd@EQClasses@@QAEPAV12@XZ 03001930 f   EQClasses.obj
 0001:00000940       ?ClrFocus@CXWnd@EQClasses@@QAEXXZ 03001940 f   EQClasses.obj
 0001:00000950       ?Refade@CXWnd@EQClasses@@QAEXXZ 03001950 f   EQClasses.obj
 0001:00000960       ?Move@CXWnd@EQClasses@@QAEHVCXPoint@2@@Z 03001960 f   EQClasses.obj
 0001:00000970       ?Move@CXWnd@EQClasses@@QAEHVCXRect@2@@Z 03001970 f   EQClasses.obj
 0001:00000980       ?ProcessTransition@CXWnd@EQClasses@@QAEHXZ 03001980 f   EQClasses.obj
 0001:00000990       ?BringToTop@CXWnd@EQClasses@@QAEX_N@Z 03001990 f   EQClasses.obj
 0001:000009a0       ?StartFade@CXWnd@EQClasses@@QAEXEI@Z 030019a0 f   EQClasses.obj
 0001:000009b0       ?IsReallyVisible@CXWnd@EQClasses@@QBE_NXZ 030019b0 f   EQClasses.obj
 0001:000009c0       ?GetChildWndAt@CXWnd@EQClasses@@QBEPAV12@VCXPoint@2@@Z 030019c0 f   EQClasses.obj
 0001:000009d0       ?DoAllDrawing@CXWnd@EQClasses@@QBEHXZ 030019d0 f   EQClasses.obj
 0001:000009e0       ?DrawChildren@CXWnd@EQClasses@@QBEHXZ 030019e0 f   EQClasses.obj
 0001:000009f0       ?DrawColoredRect@CXWnd@EQClasses@@SAHVCXRect@2@K0@Z 030019f0 f   EQClasses.obj
 0001:00000a00       ?GetTooltipRect@CXWnd@EQClasses@@SA?AVCXRect@2@VCXSize@2@@Z 03001a00 f   EQClasses.obj
 0001:00000a10       ?DrawTooltipAtPoint@CXWnd@EQClasses@@QBEXVCXPoint@2@@Z 03001a10 f   EQClasses.obj
 0001:00000a20       ?Center@CXWnd@EQClasses@@QAEXXZ 03001a20 f   EQClasses.obj
 0001:00000a30       ?Right@CXWnd@EQClasses@@QAEXXZ 03001a30 f   EQClasses.obj
 0001:00000a40       ?GetClientClipRect@CXWnd@EQClasses@@QBE?AVCXRect@2@XZ 03001a40 f   EQClasses.obj
 0001:00000a50       ?GetScreenClipRect@CXWnd@EQClasses@@QBE?AVCXRect@2@XZ 03001a50 f   EQClasses.obj
 0001:00000a60       ?IsActive@CXWnd@EQClasses@@QBE_NXZ 03001a60 f   EQClasses.obj
 0001:00000a70       ?IsDescendantOf@CXWnd@EQClasses@@QBE_NPBV12@@Z 03001a70 f   EQClasses.obj
 0001:00000a80       ?GetBorderFrame@CXWnd@EQClasses@@QBEPBVCTAFrameDraw@2@XZ 03001a80 f   EQClasses.obj
 0001:00000a90       ?GetScreenRect@CXWnd@EQClasses@@QBE?AVCXRect@2@XZ 03001a90 f   EQClasses.obj
 0001:00000aa0       ?Resize@CXWnd@EQClasses@@QAEHHH@Z 03001aa0 f   EQClasses.obj
 0001:00000ab0       ?GetChildItem@CXWnd@EQClasses@@QAEPAV12@ABVCXStr@2@@Z 03001ab0 f   EQClasses.obj
 0001:00000ac0       ?SetMouseOver@CXWnd@EQClasses@@QAEX_N@Z 03001ac0 f   EQClasses.obj
 0001:00000ad0       ?SetKeyTooltip@CXWnd@EQClasses@@QAEXHH@Z 03001ad0 f   EQClasses.obj
 0001:00000ae0       ?DrawTooltip@CXWnd@EQClasses@@QBEHPBV12@@Z 03001ae0 f   EQClasses.obj
 0001:00000af0       ??0CXStr@EQClasses@@QAE@PBD@Z 03001af0 f   EQClasses.obj
 0001:00000b00       ??4CXStr@EQClasses@@QAEAAV01@PBD@Z 03001b00 f   EQClasses.obj
 0001:00000b10       ??YCXStr@EQClasses@@QAEXPBD@Z 03001b10 f   EQClasses.obj
 0001:00000b20       ?GetCurSel@CListWnd@EQClasses@@QBEHXZ 03001b20 f   EQClasses.obj
 0001:00000b30       ?GetItemData@CListWnd@EQClasses@@QBEIH@Z 03001b30 f   EQClasses.obj
 0001:00000b40       ?GetItemText@CListWnd@EQClasses@@QBEPAVCXStr@2@PAV32@HH@Z 03001b40 f   EQClasses.obj
 0001:00000b50       ?GetItemIcon@CListWnd@EQClasses@@QBEPBVCTextureAnimation@2@HH@Z 03001b50 f   EQClasses.obj
 0001:00000b60       ?GetColumnWidth@CListWnd@EQClasses@@QBEHH@Z 03001b60 f   EQClasses.obj
 0001:00000b70       ?SetColumnWidth@CListWnd@EQClasses@@QAEXHH@Z 03001b70 f   EQClasses.obj
 0001:00000b80       ?ShiftColumnSeparator@CListWnd@EQClasses@@QAEXHH@Z 03001b80 f   EQClasses.obj
 0001:00000b90       ?GetColumnMinWidth@CListWnd@EQClasses@@QBEHH@Z 03001b90 f   EQClasses.obj
 0001:00000ba0       ?SetColumnJustification@CListWnd@EQClasses@@QAEXHH@Z 03001ba0 f   EQClasses.obj
 0001:00000bb0       ?AddLine@CListWnd@EQClasses@@QAEHPBVSListWndLine@2@@Z 03001bb0 f   EQClasses.obj
 0001:00000bc0       ?AddString@CListWnd@EQClasses@@QAEHPAVCXStr@2@KIPBVCTextureAnimation@2@PBD@Z 03001bc0 f   EQClasses.obj
 0001:00000bd0       ?RemoveLine@CListWnd@EQClasses@@QAEXH@Z 03001bd0 f   EQClasses.obj
 0001:00000be0       ?SetCurSel@CListWnd@EQClasses@@QAEXH@Z 03001be0 f   EQClasses.obj
 0001:00000bf0       ?ToggleSel@CListWnd@EQClasses@@QAEXH@Z 03001bf0 f   EQClasses.obj
 0001:00000c00       ?ExtendSel@CListWnd@EQClasses@@QAEXH@Z 03001c00 f   EQClasses.obj
 0001:00000c10       ?ClearAllSel@CListWnd@EQClasses@@QAEXXZ 03001c10 f   EQClasses.obj
 0001:00000c20       ?SetItemData@CListWnd@EQClasses@@QAEXHI@Z 03001c20 f   EQClasses.obj
 0001:00000c30       ?SetItemText@CListWnd@EQClasses@@QAEXHHPAVCXStr@2@@Z 03001c30 f   EQClasses.obj
 0001:00000c40       ?SetItemColor@CListWnd@EQClasses@@QAEXHHK@Z 03001c40 f   EQClasses.obj
 0001:00000c50       ?AddColumn@CListWnd@EQClasses@@QAEHVCXStr@2@HII@Z 03001c50 f   EQClasses.obj
 0001:00000c60       ?AddColumn@CListWnd@EQClasses@@QAEHVCXStr@2@PAVCTextureAnimation@2@HII11@Z 03001c60 f   EQClasses.obj
 0001:00000c70       ?GetItemHeight@CListWnd@EQClasses@@QBEHH@Z 03001c70 f   EQClasses.obj
 0001:00000c80       ?CalculateVSBRange@CListWnd@EQClasses@@QAEXXZ 03001c80 f   EQClasses.obj
 0001:00000c90       ?CalculateFirstVisibleLine@CListWnd@EQClasses@@QAEXXZ 03001c90 f   EQClasses.obj
 0001:00000ca0       ?EnsureVisible@CListWnd@EQClasses@@QAEXH@Z 03001ca0 f   EQClasses.obj
 0001:00000cb0       ?GetItemRect@CListWnd@EQClasses@@QBE?AVCXRect@2@HH@Z 03001cb0 f   EQClasses.obj
 0001:00000cc0       ?GetItemAtPoint@CListWnd@EQClasses@@QBEHVCXPoint@2@@Z 03001cc0 f   EQClasses.obj
 0001:00000cd0       ?GetItemAtPoint@CListWnd@EQClasses@@QBEXVCXPoint@2@PAH1@Z 03001cd0 f   EQClasses.obj
 0001:00000ce0       ?CloseAndUpdateEditWindow@CListWnd@EQClasses@@QAEXXZ 03001ce0 f   EQClasses.obj
 0001:00000cf0       ?SetColors@CListWnd@EQClasses@@QAEXKKK@Z 03001cf0 f   EQClasses.obj
 0001:00000d00       ?GetSeparatorRect@CListWnd@EQClasses@@QBE?AVCXRect@2@H@Z 03001d00 f   EQClasses.obj
 0001:00000d10       ?GetHeaderRect@CListWnd@EQClasses@@QBE?AVCXRect@2@H@Z 03001d10 f   EQClasses.obj
 0001:00000d20       ?MakeStmlColorTag@CStmlWnd@EQClasses@@SA?AVCXStr@2@K@Z 03001d20 f   EQClasses.obj
 0001:00000d30       ?MakeWndNotificationTag@CStmlWnd@EQClasses@@SA?AVCXStr@2@IAAV32@0@Z 03001d30 f   EQClasses.obj
 0001:00000d40       ?GetNextTagPiece@CStmlWnd@EQClasses@@QAEGAAVCXStr@2@PAV32@PAHP6A_NG@Z_N@Z 03001d40 f   EQClasses.obj
 0001:00000d50       ?FastForwardToEndOfTag@CStmlWnd@EQClasses@@QAEGAAVCXStr@2@PAV32@PAHD@Z 03001d50 f   EQClasses.obj
 0001:00000d60       ?InitializeWindowVariables@CStmlWnd@EQClasses@@QAEXXZ 03001d60 f   EQClasses.obj
 0001:00000d70       ?GetThisChar@CStmlWnd@EQClasses@@QAEGHAAVCXStr@2@@Z 03001d70 f   EQClasses.obj
 0001:00000d80       ?GetVisiableText@CStmlWnd@EQClasses@@QBE?AVCXStr@2@AAV32@VCXRect@2@@Z 03001d80 f   EQClasses.obj
 0001:00000d90       ?ForceParseNow@CStmlWnd@EQClasses@@QAEXXZ 03001d90 f   EQClasses.obj
 0001:00000da0       ?CalculateVSBRange@CStmlWnd@EQClasses@@QAEXH@Z 03001da0 f   EQClasses.obj
 0001:00000db0       ?StripFirstSTMLLines@CStmlWnd@EQClasses@@QAEXH@Z 03001db0 f   EQClasses.obj
 0001:00000dc0       ?CanBreakAtCharacter@CStmlWnd@EQClasses@@SA_NG@Z 03001dc0 f   EQClasses.obj
 0001:00000dd0       ?UpdateHistoryString@CStmlWnd@EQClasses@@QAEXHAAVCXStr@2@@Z 03001dd0 f   EQClasses.obj
 0001:00000de0       ?SetSTMLText@CStmlWnd@EQClasses@@QAEXAAVCXStr@2@_NPAVSLinkInfo@2@@Z 03001de0 f   EQClasses.obj
 0001:00000df0       ?GetCurrentPage@CTabWnd@EQClasses@@QBEPAVCPageWnd@2@XZ 03001df0 f   EQClasses.obj
 0001:00000e00       ?GetTabRect@CTabWnd@EQClasses@@QBE?AVCXRect@2@H@Z 03001e00 f   EQClasses.obj
 0001:00000e10       ?GetTabInnerRect@CTabWnd@EQClasses@@QBE?AVCXRect@2@H@Z 03001e10 f   EQClasses.obj
 0001:00000e20       ?GetPageClientRect@CTabWnd@EQClasses@@QBE?AVCXRect@2@XZ 03001e20 f   EQClasses.obj
 0001:00000e30       ?GetPageInnerRect@CTabWnd@EQClasses@@QBE?AVCXRect@2@XZ 03001e30 f   EQClasses.obj
 0001:00000e40       ?SetPage@CTabWnd@EQClasses@@QAEXH_N@Z 03001e40 f   EQClasses.obj
 0001:00000e50       ?InsertPage@CTabWnd@EQClasses@@QAEXPAVCPageWnd@2@H@Z 03001e50 f   EQClasses.obj
 0001:00000e60       ?SetPageRect@CTabWnd@EQClasses@@QAEXVCXRect@2@@Z 03001e60 f   EQClasses.obj
 0001:00000e70       ?UpdatePage@CTabWnd@EQClasses@@QAEXXZ 03001e70 f   EQClasses.obj
 0001:00000e80       ?IndexInBounds@CTabWnd@EQClasses@@QBE_NH@Z 03001e80 f   EQClasses.obj
 0001:00000e90       ?GetPageFromTabIndex@CTabWnd@EQClasses@@QBEPAVCPageWnd@2@H@Z 03001e90 f   EQClasses.obj
 0001:00000ea0       ?DrawTab@CTabWnd@EQClasses@@QBEHH@Z 03001ea0 f   EQClasses.obj
 0001:00000eb0       ?DrawCurrentPage@CTabWnd@EQClasses@@QBEHXZ 03001eb0 f   EQClasses.obj
 0001:00000ec0       ?XMLRead@CXMLSOMDocumentBase@EQClasses@@QAE_NPAVCXStr@2@00@Z 03001ec0 f   EQClasses.obj
 0001:00000ed0       ?SetCheck@CButtonWnd@EQClasses@@QAEX_N@Z 03001ed0 f   EQClasses.obj
 0001:00000ee0       ?GetListRect@CComboWnd@EQClasses@@QBE?AVCXRect@2@XZ 03001ee0 f   EQClasses.obj
 0001:00000ef0       ?SetColors@CComboWnd@EQClasses@@QAEXKKK@Z 03001ef0 f   EQClasses.obj
 0001:00000f00       ?InsertChoice@CComboWnd@EQClasses@@QAEXPAVCXStr@2@K@Z 03001f00 f   EQClasses.obj
 0001:00000f10       ?SetChoice@CComboWnd@EQClasses@@QAEXH@Z 03001f10 f   EQClasses.obj
 0001:00000f20       ?GetCurChoice@CComboWnd@EQClasses@@QBEHXZ 03001f20 f   EQClasses.obj
 0001:00000f30       ?DeleteAll@CComboWnd@EQClasses@@QAEXXZ 03001f30 f   EQClasses.obj
 0001:00000f40       ?GetTextRect@CComboWnd@EQClasses@@QBE?AVCXRect@2@XZ 03001f40 f   EQClasses.obj
 0001:00000f50       ?DrawWindows@CXWndManager@EQClasses@@QBEHXZ 03001f50 f   EQClasses.obj
 0001:00000f60       ?DrawCursor@CXWndManager@EQClasses@@QBEHXZ 03001f60 f   EQClasses.obj
 0001:00000f70       ?RemoveWnd@CXWndManager@EQClasses@@QAEHPAVCXWnd@2@@Z 03001f70 f   EQClasses.obj
 0001:00000f80       ?GetKeyboardFlags@CXWndManager@EQClasses@@QBEIXZ 03001f80 f   EQClasses.obj
 0001:00000f90       ?HandleKeyboardMsg@CXWndManager@EQClasses@@QAEHI_N@Z 03001f90 f   EQClasses.obj
 0001:00000fa0       ?GetLineForPrintableChar@CEditWnd@EQClasses@@QBEHH@Z 03001fa0 f   EQClasses.obj
 0001:00000fb0       ?SelectableCharFromPoint@CEditWnd@EQClasses@@QBEHVCXPoint@2@@Z 03001fb0 f   EQClasses.obj
 0001:00000fc0       ?GetCharIndexPt@CEditWnd@EQClasses@@QBE?AVCXPoint@2@H@Z 03001fc0 f   EQClasses.obj
 0001:00000fd0       ?GetSelStartPt@CEditWnd@EQClasses@@QBE?AVCXPoint@2@XZ 03001fd0 f   EQClasses.obj
 0001:00000fe0       ?SetEditable@CEditWnd@EQClasses@@QAEX_N@Z 03001fe0 f   EQClasses.obj
 0001:00000ff0       ?GetSTMLSafeText@CEditWnd@EQClasses@@QAE?AVCXStr@2@XZ 03001ff0 f   EQClasses.obj
 0001:00001000       ?DrawWrappedText@CTextureFont@EQClasses@@QBEHPAVCXStr@2@HHHPAVCXRect@2@KGH@Z 03002000 f   EQClasses.obj
 0001:00001010       ?FindScreenPieceTemplate@CSidlManager@EQClasses@@QBEPAVCScreenPieceTemplate@2@PAVCXStr@2@@Z 03002010 f   EQClasses.obj
 0001:00001020       ?SetValue@CSliderWnd@EQClasses@@QAEXH@Z 03002020 f   EQClasses.obj
 0001:00001030       ?SetNumTicks@CSliderWnd@EQClasses@@QAEXH@Z 03002030 f   EQClasses.obj
 0001:00001040       ?GetValue@CSliderWnd@EQClasses@@QBEHXZ 03002040 f   EQClasses.obj
 0001:00001050       ?SetSel@CEditBaseWnd@EQClasses@@QAEXHH@Z 03002050 f   EQClasses.obj
 0001:00001060       ?GetXMLData@CXMLDataManager@EQClasses@@QAEPAVCXMLData@2@HH@Z 03002060 f   EQClasses.obj
 0001:00001070       ?CalcFillRect@CGaugeWnd@EQClasses@@QBE?AVCXRect@2@PAV32@H@Z 03002070 f   EQClasses.obj
 0001:00001080       ?CalcLinesFillRect@CGaugeWnd@EQClasses@@QBE?AVCXRect@2@PAV32@H@Z 03002080 f   EQClasses.obj
 0001:00001090       ?DisplayText@CTextOverlay@EQClasses@@QAEXPADHHHHHH@Z 03002090 f   EQClasses.obj
 0001:000010a0       ?GetString@CDBStr@EQClasses@@QAEPADHHPAH@Z 030020a0 f   EQClasses.obj
 0001:000010b0       ?GetActiveFavorCost@EQMisc@EQClasses@@QAEHXZ 030020b0 f   EQClasses.obj
 0001:000010c0       ?GetSkillCap@CSkillMgr@EQClasses@@QAEKPAVEQ_Character@2@HHH@Z 030020c0 f   EQClasses.obj
 0001:000010d0       ?GetNumberOfFriends@CChatService@EQClasses@@QAEHXZ 030020d0 f   EQClasses.obj
 0001:000010e0       ?GetFriendName@CChatService@EQClasses@@QAEPADH@Z 030020e0 f   EQClasses.obj
 0001:000010f0       ?GetAltCurrency@OtherCharData@EQClasses@@QAEKKK@Z 030020f0 f   EQClasses.obj
 0001:00001100       ?bogus@@YAXXZ              03002100 f   EQClasses.obj
 0001:00001110       ?GetXMLData@CXWnd@EQClasses@@QAEPAVCXMLData@2@XZ 03002110 f   EQClasses.obj
 0001:00001140       ?GetXMLData@CSidlScreenWnd@EQClasses@@QAEPAVCXMLData@2@XZ 03002140 f   EQClasses.obj
 0001:00001170       ?RecurseAndFindName@@YAPAVCXWnd@EQClasses@@PAV12@PAD@Z 03002170 f   EQClasses.obj
 0001:00001250       ?GetChildItem@CXWnd@EQClasses@@QAEPAV12@PAD@Z 03002250 f   EQClasses.obj
 0001:00001270       ?GetChildItem@CSidlScreenWnd@EQClasses@@QAEPAVCXWnd@2@PAD@Z 03002270 f   EQClasses.obj
 0001:00001290       ?FindScreenPieceTemplate@CSidlManager@EQClasses@@QAEPAVCScreenPieceTemplate@2@PAD@Z 03002290 f   EQClasses.obj
 0001:000012c0       ?InsertChoice@CComboWnd@EQClasses@@QAEXPAD@Z 030022c0 f   EQClasses.obj
 0001:000012f0       ?AddString@CListWnd@EQClasses@@QAEHPADKIPBVCTextureAnimation@2@PBD@Z 030022f0 f   EQClasses.obj
 0001:00001330       ?AppendSTML@CStmlWnd@EQClasses@@QAEAAVCXSize@2@PAV32@VCXStr@2@@Z 03002330 f   EQClasses.obj
 0001:00001340       ??0CChatWindow@EQClasses@@QAE@PAVCXWnd@1@@Z 03002340 f   EQClasses.obj
 0001:00001350       ??0CMapViewWnd@EQClasses@@QAE@PAVCXWnd@1@@Z 03002350 f   EQClasses.obj
 0001:00001360       ?GetType@CXWnd@EQClasses@@QAE?AW4UIType@EQUIStructs@@XZ 03002360 f   EQClasses.obj
 0001:00001380       ?GetType@CSidlScreenWnd@EQClasses@@QAE?AW4UIType@EQUIStructs@@XZ 03002380 f   EQClasses.obj
 0001:000013a0       ?proc@@YGJHIJ@Z            030023a0 f   MQ2Auth.obj
 0001:000013c0       _koNhhENsglATvLhvmDaBjGYazHx 030023c0 f   MQ2Auth.obj
 0001:000013e0       _BATLWjYjGyMujXkkQzgFuZeApHb 030023e0 f   MQ2Auth.obj
 0001:00001400       _smTdds_dzsjvglAaWEwOHFZBxdU 03002400 f   MQ2Auth.obj
 0001:00001420       _dGNCpDkAVKvHNFhQQGWYyCfFrdh 03002420 f   MQ2Auth.obj
 0001:00001440       _zHETMwCGEKGCARzAADdTFymPgRw 03002440 f   MQ2Auth.obj
 0001:00001460       _iauEIgrNecuWgxCVCVzzeRfDiRa 03002460 f   MQ2Auth.obj
 0001:00001480       _cdMVwYDMrDMFkjdVmhdkY_IzEuK 03002480 f   MQ2Auth.obj
 0001:000014a0       _MKWWANQnlkAdZDapsOngRcRJCuA 030024a0 f   MQ2Auth.obj
 0001:000014c0       _tnmfgsoqmimuq_tVsrP_nuEdK_u 030024c0 f   MQ2Auth.obj
 0001:000014e0       _IUwgkMBSMQwTKtqpoYtrMbNnI_Q 030024e0 f   MQ2Auth.obj
 0001:00001500       _JIXVHCOMgZBF_FxVxMokNETztQd 03002500 f   MQ2Auth.obj
 0001:00001520       _sogWLranaGLdOZQpZsygGHbJrQU 03002520 f   MQ2Auth.obj
 0001:00001540       _FMxlyaJtDiZDNyHGoKXHTKnRpzC 03002540 f   MQ2Auth.obj
 0001:00001560       _qYnuuWwkxBPzJeEvRqsLdreVnzo 03002560 f   MQ2Auth.obj
 0001:00001580       _GOupDcGBPcjPcAlquRlaAVAoBpM 03002580 f   MQ2Auth.obj
 0001:000015a0       _p_oqrbDcZLYngoTLATfXdCtcPpC 030025a0 f   MQ2Auth.obj
 0001:000015c0       _pXfpGxHTMSHw_CSFTnuEFAbqZhr 030025c0 f   MQ2Auth.obj
 0001:000015e0       _GLpOCyCpmkxIWqkuXpEOgTTQihF 030025e0 f   MQ2Auth.obj
 0001:00001600       _mBeQHvQANqBAaCbfEdKKgIoyVcy 03002600 f   MQ2Auth.obj
 0001:00001620       _BNolTAFbrIpECqJAAvobFFhIacM 03002620 f   MQ2Auth.obj
 0001:00001640       _u_QEsUDcTGfgQefQzRqdZNigGFF 03002640 f   MQ2Auth.obj
 0001:00001660       _LtKxwkGzJnrNoyiFDiQnQupksFa 03002660 f   MQ2Auth.obj
 0001:00001680       _DzsDsUdlfx_xHjOLlWADUMZjTnG 03002680 f   MQ2Auth.obj
 0001:000016a0       _mTyUwJasGAOlvQvfJCGFotStcnY 030026a0 f   MQ2Auth.obj
 0001:000016c0       _GoihDErsLleTRLDvIDwBOGCadHT 030026c0 f   MQ2Auth.obj
 0001:000016e0       _XAoLrjCjkyquFXGklzCFZZJAUHx 030026e0 f   MQ2Auth.obj
 0001:00001700       _KDgUaImTgyIaZNxFnUEiELHqtOB 03002700 f   MQ2Auth.obj
 0001:00001720       _arqsXnhpHvymVBQurAOsfIyQDOP 03002720 f   MQ2Auth.obj
 0001:00001740       _fYoAnxLfdIoECzBqASMQQplKwVw 03002740 f   MQ2Auth.obj
 0001:00001760       _ujiBbwIHIqccaniLwylhZseyKVS 03002760 f   MQ2Auth.obj
 0001:00001780       _FrHegHgomIgQphCFizePeKBMzYa 03002780 f   MQ2Auth.obj
 0001:000017a0       _qfRDcmbLsasbRWVuHfJDlcslJYJ 030027a0 f   MQ2Auth.obj
 0001:000017c0       _eSuxNlOGjVagBGLAfOUxGnyPMbm 030027c0 f   MQ2Auth.obj
 0001:000017e0       _OlkiJADNKSkAhmsVhKpdfkrDObR 030027e0 f   MQ2Auth.obj
 0001:00001800       _nIBVlCsMCZXFvFTVbMTkrEozPQz 03002800 f   MQ2Auth.obj
 0001:00001820       _XoLWprFnwGgdjZlpDscgkHxJNQp 03002820 f   MQ2Auth.obj
 0001:00001840       ?Lock@CAutoLock@MQ2Internal@@QAEXXZ 03002840 f i MQ2Benchmarks.obj
 0001:00001860       ?Unlock@CAutoLock@MQ2Internal@@QAEXXZ 03002860 f i MQ2Benchmarks.obj
 0001:00001880       ??0CAutoLock@MQ2Internal@@QAE@PAU_RTL_CRITICAL_SECTION@@@Z 03002880 f i MQ2Benchmarks.obj
 0001:000018b0       ??1CAutoLock@MQ2Internal@@QAE@XZ 030028b0 f i MQ2Benchmarks.obj
 0001:000018d0       ??1?$CIndex@PAU_MQBENCH@MQ2Internal@@@MQ2Internal@@QAE@XZ 030028d0 f i MQ2Benchmarks.obj
 0001:00001910       ?Cleanup@?$CIndex@PAU_MQBENCH@MQ2Internal@@@MQ2Internal@@QAEXXZ 03002910 f i MQ2Benchmarks.obj
 0001:00001950       ??A?$CIndex@PAU_MQBENCH@MQ2Internal@@@MQ2Internal@@QAEAAPAU_MQBENCH@1@K@Z 03002950 f i MQ2Benchmarks.obj
 0001:00001960       ?Resize@?$CIndex@PAU_MQBENCH@MQ2Internal@@@MQ2Internal@@QAEXK@Z 03002960 f i MQ2Benchmarks.obj
 0001:00001a10       _RemoveMQ2Benchmark        03002a10 f   MQ2Benchmarks.obj
 0001:00001a50       _EnterMQ2Benchmark         03002a50 f   MQ2Benchmarks.obj
 0001:00001a80       _ExitMQ2Benchmark          03002a80 f   MQ2Benchmarks.obj
 0001:00001b00       _GetMQ2Benchmark           03002b00 f   MQ2Benchmarks.obj
 0001:00001b40       ?SpewMQ2BenchmarksToChat@@YAXPAU_SPAWNINFO@EQData@@PAD@Z 03002b40 f   MQ2Benchmarks.obj
 0001:00001cc0       ?SpewMQ2Benchmarks@@YAXXZ  03002cc0 f   MQ2Benchmarks.obj
 0001:00001d90       ??_G?$CIndex@PAU_MQBENCH@MQ2Internal@@@MQ2Internal@@QAEPAXI@Z 03002d90 f i MQ2Benchmarks.obj
 0001:00001de0       ??0?$CIndex@PAU_MQBENCH@MQ2Internal@@@MQ2Internal@@QAE@K@Z 03002de0 f i MQ2Benchmarks.obj
 0001:00001e10       ?GetUnused@?$CIndex@PAU_MQBENCH@MQ2Internal@@@MQ2Internal@@QAEKXZ 03002e10 f i MQ2Benchmarks.obj
 0001:00001e60       _AddMQ2Benchmark           03002e60 f   MQ2Benchmarks.obj
 0001:00001ed0       _InitializeMQ2Benchmarks   03002ed0 f   MQ2Benchmarks.obj
 0001:00001f40       _ShutdownMQ2Benchmarks     03002f40 f   MQ2Benchmarks.obj
 0001:00001fd0       ?strstr@@YAPADPADPBD@Z     03002fd0 f i MQ2ChatHook.obj
 0001:00001fe0       ??0bad_alloc@std@@QAE@PBD@Z 03002fe0 f i MQ2ChatHook.obj
 0001:00002000       ??1bad_alloc@std@@UAE@XZ   03003000 f i MQ2ChatHook.obj
 0001:00002010       ??_Ebad_alloc@std@@UAEPAXI@Z 03003010 f i MQ2ChatHook.obj
 0001:00002010       ??_Gbad_alloc@std@@UAEPAXI@Z 03003010 f i MQ2ChatHook.obj
 0001:00002040       ??2@YAPAXIPAX@Z            03003040 f i MQ2ChatHook.obj
 0001:00002050       ?assign@?$char_traits@D@std@@SAXAADABD@Z 03003050 f i MQ2ChatHook.obj
 0001:00002060       ?length@?$char_traits@D@std@@SAIPBD@Z 03003060 f i MQ2ChatHook.obj
 0001:00002080       ?_Copy_s@?$char_traits@D@std@@SAPADPADIPBDI@Z 03003080 f i MQ2ChatHook.obj
 0001:000020b0       ?_Move_s@?$char_traits@D@std@@SAPADPADIPBDI@Z 030030b0 f i MQ2ChatHook.obj
 0001:000020e0       ??0_Aux_cont@std@@QAE@QBV_Container_base_aux@1@@Z 030030e0 f i MQ2ChatHook.obj
 0001:000020f0       ?_Getcont@_Aux_cont@std@@QBEPBV_Container_base_aux@2@XZ 030030f0 f i MQ2ChatHook.obj
 0001:00002100       ??0_Container_base_aux@std@@QAE@XZ 03003100 f i MQ2ChatHook.obj
 0001:00002110       ??1_Container_base_aux@std@@QAE@XZ 03003110 f i MQ2ChatHook.obj
 0001:00002120       ??0_Iterator_base_aux@std@@QAE@XZ 03003120 f i MQ2ChatHook.obj
 0001:00002130       ?_Set_container@_Iterator_base_aux@std@@QAEXQBV_Container_base_aux@2@@Z 03003130 f i MQ2ChatHook.obj
 0001:00002140       ?_Getmycont@_Iterator_base_aux@std@@QBEPBV_Container_base_aux@2@XZ 03003140 f i MQ2ChatHook.obj
 0001:00002150       ?_Same_container@_Iterator_base_aux@std@@QBE_NABV12@@Z 03003150 f i MQ2ChatHook.obj
 0001:00002170       ?_Has_container@_Iterator_base_aux@std@@QBE_NXZ 03003170 f i MQ2ChatHook.obj
 0001:00002180       ??1BlechNode@@QAE@XZ       03003180 f i MQ2ChatHook.obj
 0001:00002230       ??_GBlechNode@@QAEPAXI@Z   03003230 f i MQ2ChatHook.obj
 0001:00002250       ?Initialize@Blech@@AAEXXZ  03003250 f i MQ2ChatHook.obj
 0001:000022a0       ?Trampoline@CChatHook@@QAEXPADKK@Z 030032a0 f   MQ2ChatHook.obj
 0001:000022c0       ?TellWnd_Trampoline@CChatHook@@QAEXPAD00PAXH_N@Z 030032c0 f   MQ2ChatHook.obj
 0001:000022e0       _dsp_chat_no_events        030032e0 f   MQ2ChatHook.obj
 0001:00002300       ?MQ2DataVariableLookup@@YGIPAD0@Z 03003300 f   MQ2ChatHook.obj
 0001:00002360       ?size@?$basic_string@DU?$char_traits@D@std@@V?$allocator@D@2@@std@@QBEIXZ 03003360 f i MQ2ChatHook.obj
 0001:00002370       ?_Myptr@?$basic_string@DU?$char_traits@D@std@@V?$allocator@D@2@@std@@IBEPBDXZ 03003370 f i MQ2ChatHook.obj
 0001:00002380       ??0?$allocator@D@std@@QAE@XZ 03003380 f i MQ2ChatHook.obj
 0001:00002390       ??0?$allocator@U?$pair@$$CBIPAU_BLECHEVENT@@@std@@@std@@QAE@XZ 03003390 f i MQ2ChatHook.obj
 0001:000023a0       ??8const_iterator@?$_Tree@V?$_Tmap_traits@IPAU_BLECHEVENT@@U?$less@I@std@@V?$allocator@U?$pair@$$CBIPAU_BLECHEVENT@@@std@@@3@$0A@@std@@@std@@QBE_NABV012@@Z 030033a0 f i MQ2ChatHook.obj
 0001:000023d0       ?_Mynode@const_iterator@?$_Tree@V?$_Tmap_traits@IPAU_BLECHEVENT@@U?$less@I@std@@V?$allocator@U?$pair@$$CBIPAU_BLECHEVENT@@@std@@@3@$0A@@std@@@std@@QBEPAU_Node@?$_Tree_nod@V?$_Tmap_traits@IPAU_BLECHEVENT@@U?$less@I@std@@V?$allocator@U?$pair@$$CBIPAU_BLECHEVENT@@@std@@@3@$0A@@std@@@3@XZ 030033d0 f i MQ2ChatHook.obj
 0001:000023e0       ?_Myptr@?$basic_string@DU?$char_traits@D@std@@V?$allocator@D@2@@std@@IAEPADXZ 030033e0 f i MQ2ChatHook.obj
 0001:000023f0       ??0?$allocator@D@std@@QAE@ABV01@@Z 030033f0 f i MQ2ChatHook.obj
 0001:00002400       ?deallocate@?$allocator@D@std@@QAEXPADI@Z 03003400 f i MQ2ChatHook.obj
 0001:00002410       ?_Isnil@?$_Tree@V?$_Tmap_traits@IPAU_BLECHEVENT@@U?$less@I@std@@V?$allocator@U?$pair@$$CBIPAU_BLECHEVENT@@@std@@@3@$0A@@std@@@std@@KAAADPAU_Node@?$_Tree_nod@V?$_Tmap_traits@IPAU_BLECHEVENT@@U?$less@I@std@@V?$allocator@U?$pair@$$CBIPAU_BLECHEVENT@@@std@@@3@$0A@@std@@@2@@Z 03003410 f i MQ2ChatHook.obj
 0001:00002420       ?_Left@?$_Tree@V?$_Tmap_traits@IPAU_BLECHEVENT@@U?$less@I@std@@V?$allocator@U?$pair@$$CBIPAU_BLECHEVENT@@@std@@@3@$0A@@std@@@std@@KAAAPAU_Node@?$_Tree_nod@V?$_Tmap_traits@IPAU_BLECHEVENT@@U?$less@I@std@@V?$allocator@U?$pair@$$CBIPAU_BLECHEVENT@@@std@@@3@$0A@@std@@@2@PAU342@@Z 03003420 f i MQ2ChatHook.obj
 0001:00002430       ?_Parent@?$_Tree@V?$_Tmap_traits@IPAU_BLECHEVENT@@U?$less@I@std@@V?$allocator@U?$pair@$$CBIPAU_BLECHEVENT@@@std@@@3@$0A@@std@@@std@@KAAAPAU_Node@?$_Tree_nod@V?$_Tmap_traits@IPAU_BLECHEVENT@@U?$less@I@std@@V?$allocator@U?$pair@$$CBIPAU_BLECHEVENT@@@std@@@3@$0A@@std@@@2@PAU342@@Z 03003430 f i MQ2ChatHook.obj
 0001:00002440       ?_Right@?$_Tree@V?$_Tmap_traits@IPAU_BLECHEVENT@@U?$less@I@std@@V?$allocator@U?$pair@$$CBIPAU_BLECHEVENT@@@std@@@3@$0A@@std@@@std@@KAAAPAU_Node@?$_Tree_nod@V?$_Tmap_traits@IPAU_BLECHEVENT@@U?$less@I@std@@V?$allocator@U?$pair@$$CBIPAU_BLECHEVENT@@@std@@@3@$0A@@std@@@2@PAU342@@Z 03003440 f i MQ2ChatHook.obj
 0001:00002450       ?_Myval@?$_Tree@V?$_Tmap_traits@IPAU_BLECHEVENT@@U?$less@I@std@@V?$allocator@U?$pair@$$CBIPAU_BLECHEVENT@@@std@@@3@$0A@@std@@@std@@KAAAU?$pair@$$CBIPAU_BLECHEVENT@@@2@PAU_Node@?$_Tree_nod@V?$_Tmap_traits@IPAU_BLECHEVENT@@U?$less@I@std@@V?$allocator@U?$pair@$$CBIPAU_BLECHEVENT@@@std@@@3@$0A@@std@@@2@@Z 03003450 f i MQ2ChatHook.obj
 0001:00002460       ??0?$allocator@U?$pair@$$CBIPAU_BLECHEVENT@@@std@@@std@@QAE@ABV01@@Z 03003460 f i MQ2ChatHook.obj
 0001:00002470       ?deallocate@?$allocator@V_Aux_cont@std@@@std@@QAEXPAV_Aux_cont@2@I@Z 03003470 f i MQ2ChatHook.obj
 0001:00002480       ?deallocate@?$allocator@U_Node@?$_Tree_nod@V?$_Tmap_traits@IPAU_BLECHEVENT@@U?$less@I@std@@V?$allocator@U?$pair@$$CBIPAU_BLECHEVENT@@@std@@@3@$0A@@std@@@std@@@std@@QAEXPAU_Node@?$_Tree_nod@V?$_Tmap_traits@IPAU_BLECHEVENT@@U?$less@I@std@@V?$allocator@U?$pair@$$CBIPAU_BLECHEVENT@@@std@@@3@$0A@@std@@@2@I@Z 03003480 f i MQ2ChatHook.obj
 0001:00002490       ??Dconst_iterator@?$_Tree@V?$_Tmap_traits@IPAU_BLECHEVENT@@U?$less@I@std@@V?$allocator@U?$pair@$$CBIPAU_BLECHEVENT@@@std@@@3@$0A@@std@@@std@@QBEABU?$pair@$$CBIPAU_BLECHEVENT@@@2@XZ 03003490 f i MQ2ChatHook.obj
 0001:000024c0       ??0?$_Iterator_with_base@Ubidirectional_iterator_tag@std@@U?$pair@$$CBIPAU_BLECHEVENT@@@2@HPBU32@ABU32@V_Iterator_base_aux@2@@std@@QAE@XZ 030034c0 f i MQ2ChatHook.obj
 0001:000024d0       ?_Inside@?$basic_string@DU?$char_traits@D@std@@V?$allocator@D@2@@std@@IAE_NPBD@Z 030034d0 f i MQ2ChatHook.obj
 0001:00002510       ?_Color@?$_Tree@V?$_Tmap_traits@IPAU_BLECHEVENT@@U?$less@I@std@@V?$allocator@U?$pair@$$CBIPAU_BLECHEVENT@@@std@@@3@$0A@@std@@@std@@KAAADPAU_Node@?$_Tree_nod@V?$_Tmap_traits@IPAU_BLECHEVENT@@U?$less@I@std@@V?$allocator@U?$pair@$$CBIPAU_BLECHEVENT@@@std@@@3@$0A@@std@@@2@@Z 03003510 f i MQ2ChatHook.obj
 0001:00002520       ?_Max@?$_Tree@V?$_Tmap_traits@IPAU_BLECHEVENT@@U?$less@I@std@@V?$allocator@U?$pair@$$CBIPAU_BLECHEVENT@@@std@@@3@$0A@@std@@@std@@KAPAU_Node@?$_Tree_nod@V?$_Tmap_traits@IPAU_BLECHEVENT@@U?$less@I@std@@V?$allocator@U?$pair@$$CBIPAU_BLECHEVENT@@@std@@@3@$0A@@std@@@2@PAU342@@Z 03003520 f i MQ2ChatHook.obj
 0001:00002540       ?_Min@?$_Tree@V?$_Tmap_traits@IPAU_BLECHEVENT@@U?$less@I@std@@V?$allocator@U?$pair@$$CBIPAU_BLECHEVENT@@@std@@@3@$0A@@std@@@std@@KAPAU_Node@?$_Tree_nod@V?$_Tmap_traits@IPAU_BLECHEVENT@@U?$less@I@std@@V?$allocator@U?$pair@$$CBIPAU_BLECHEVENT@@@std@@@3@$0A@@std@@@2@PAU342@@Z 03003540 f i MQ2ChatHook.obj
 0001:00002560       ?_Inc@const_iterator@?$_Tree@V?$_Tmap_traits@IPAU_BLECHEVENT@@U?$less@I@std@@V?$allocator@U?$pair@$$CBIPAU_BLECHEVENT@@@std@@@3@$0A@@std@@@std@@QAEXXZ 03003560 f i MQ2ChatHook.obj
 0001:000025d0       ?max_size@?$allocator@D@std@@QBEIXZ 030035d0 f i MQ2ChatHook.obj
 0001:000025e0       ??$swap@D@std@@YAXAAD0@Z   030035e0 f i MQ2ChatHook.obj
 0001:00002600       ??$_Destroy@U_Node@?$_Tree_nod@V?$_Tmap_traits@IPAU_BLECHEVENT@@U?$less@I@std@@V?$allocator@U?$pair@$$CBIPAU_BLECHEVENT@@@std@@@3@$0A@@std@@@std@@@std@@YAXPAU_Node@?$_Tree_nod@V?$_Tmap_traits@IPAU_BLECHEVENT@@U?$less@I@std@@V?$allocator@U?$pair@$$CBIPAU_BLECHEVENT@@@std@@@3@$0A@@std@@@0@@Z 03003600 f i MQ2ChatHook.obj
 0001:00002610       ??$_Destroy@PAU_Node@?$_Tree_nod@V?$_Tmap_traits@IPAU_BLECHEVENT@@U?$less@I@std@@V?$allocator@U?$pair@$$CBIPAU_BLECHEVENT@@@std@@@3@$0A@@std@@@std@@@std@@YAXPAPAU_Node@?$_Tree_nod@V?$_Tmap_traits@IPAU_BLECHEVENT@@U?$less@I@std@@V?$allocator@U?$pair@$$CBIPAU_BLECHEVENT@@@std@@@3@$0A@@std@@@0@@Z 03003610 f i MQ2ChatHook.obj
 0001:00002620       ??$?0U?$pair@$$CBIPAU_BLECHEVENT@@@std@@@?$allocator@PAU_Node@?$_Tree_nod@V?$_Tmap_traits@IPAU_BLECHEVENT@@U?$less@I@std@@V?$allocator@U?$pair@$$CBIPAU_BLECHEVENT@@@std@@@3@$0A@@std@@@std@@@std@@QAE@ABV?$allocator@U?$pair@$$CBIPAU_BLECHEVENT@@@std@@@1@@Z 03003620 f i MQ2ChatHook.obj
 0001:00002630       ??$_Allocate@D@std@@YAPADIPAD@Z 03003630 f i MQ2ChatHook.obj
 0001:00002690       ??$?0U?$pair@$$CBIPAU_BLECHEVENT@@@std@@@?$allocator@U_Node@?$_Tree_nod@V?$_Tmap_traits@IPAU_BLECHEVENT@@U?$less@I@std@@V?$allocator@U?$pair@$$CBIPAU_BLECHEVENT@@@std@@@3@$0A@@std@@@std@@@std@@QAE@ABV?$allocator@U?$pair@$$CBIPAU_BLECHEVENT@@@std@@@1@@Z 03003690 f i MQ2ChatHook.obj
 0001:000026a0       ??$_Allocate@U_Node@?$_Tree_nod@V?$_Tmap_traits@IPAU_BLECHEVENT@@U?$less@I@std@@V?$allocator@U?$pair@$$CBIPAU_BLECHEVENT@@@std@@@3@$0A@@std@@@std@@@std@@YAPAU_Node@?$_Tree_nod@V?$_Tmap_traits@IPAU_BLECHEVENT@@U?$less@I@std@@V?$allocator@U?$pair@$$CBIPAU_BLECHEVENT@@@std@@@3@$0A@@std@@@0@IPAU120@@Z 030036a0 f i MQ2ChatHook.obj
 0001:00002700       ??$_Construct@PAU_Node@?$_Tree_nod@V?$_Tmap_traits@IPAU_BLECHEVENT@@U?$less@I@std@@V?$allocator@U?$pair@$$CBIPAU_BLECHEVENT@@@std@@@3@$0A@@std@@@std@@PAU123@@std@@YAXPAPAU_Node@?$_Tree_nod@V?$_Tmap_traits@IPAU_BLECHEVENT@@U?$less@I@std@@V?$allocator@U?$pair@$$CBIPAU_BLECHEVENT@@@std@@@3@$0A@@std@@@0@ABQAU120@@Z 03003700 f i MQ2ChatHook.obj
 0001:00002720       ??$?0U?$pair@$$CBIPAU_BLECHEVENT@@@std@@@?$allocator@V_Aux_cont@std@@@std@@QAE@ABV?$allocator@U?$pair@$$CBIPAU_BLECHEVENT@@@std@@@1@@Z 03003720 f i MQ2ChatHook.obj
 0001:00002730       ??$_Allocate@V_Aux_cont@std@@@std@@YAPAV_Aux_cont@0@IPAV10@@Z 03003730 f i MQ2ChatHook.obj
 0001:00002790       ??0bad_alloc@std@@QAE@ABV01@@Z 03003790 f i MQ2ChatHook.obj
 0001:000027b0       ??$_Char_traits_cat@U?$char_traits@D@std@@@std@@YA?AU_Secure_char_traits_tag@0@XZ 030037b0 f i MQ2ChatHook.obj
 0001:000027c0       ??$copy_s@U?$char_traits@D@std@@@_Traits_helper@std@@YAPADPADIPBDIU_Secure_char_traits_tag@1@@Z 030037c0 f i MQ2ChatHook.obj
 0001:000027f0       ??$move_s@U?$char_traits@D@std@@@_Traits_helper@std@@YAPADPADIPBDIU_Secure_char_traits_tag@1@@Z 030037f0 f i MQ2ChatHook.obj
 0001:00002820       ?Detour@CChatHook@@QAEXPADKK@Z 03003820 f i MQ2ChatHook.obj
 0001:000028f0       ?TellWnd_Detour@CChatHook@@QAEXPAD00PAXH_N@Z 030038f0 f i MQ2ChatHook.obj
 0001:000029a0       ??9const_iterator@?$_Tree@V?$_Tmap_traits@IPAU_BLECHEVENT@@U?$less@I@std@@V?$allocator@U?$pair@$$CBIPAU_BLECHEVENT@@@std@@@3@$0A@@std@@@std@@QBE_NABV012@@Z 030039a0 f i MQ2ChatHook.obj
 0001:000029d0       ??0?$_String_val@DV?$allocator@D@std@@@std@@IAE@V?$allocator@D@1@@Z 030039d0 f i MQ2ChatHook.obj
 0001:000029e0       ??0?$_String_val@DV?$allocator@D@std@@@std@@QAE@ABV01@@Z 030039e0 f i MQ2ChatHook.obj
 0001:000029f0       ?_Lmost@?$_Tree@V?$_Tmap_traits@IPAU_BLECHEVENT@@U?$less@I@std@@V?$allocator@U?$pair@$$CBIPAU_BLECHEVENT@@@std@@@3@$0A@@std@@@std@@IBEAAPAU_Node@?$_Tree_nod@V?$_Tmap_traits@IPAU_BLECHEVENT@@U?$less@I@std@@V?$allocator@U?$pair@$$CBIPAU_BLECHEVENT@@@std@@@3@$0A@@std@@@2@XZ 030039f0 f i MQ2ChatHook.obj
 0001:00002a00       ?_Rmost@?$_Tree@V?$_Tmap_traits@IPAU_BLECHEVENT@@U?$less@I@std@@V?$allocator@U?$pair@$$CBIPAU_BLECHEVENT@@@std@@@3@$0A@@std@@@std@@IBEAAPAU_Node@?$_Tree_nod@V?$_Tmap_traits@IPAU_BLECHEVENT@@U?$less@I@std@@V?$allocator@U?$pair@$$CBIPAU_BLECHEVENT@@@std@@@3@$0A@@std@@@2@XZ 03003a00 f i MQ2ChatHook.obj
 0001:00002a10       ?_Root@?$_Tree@V?$_Tmap_traits@IPAU_BLECHEVENT@@U?$less@I@std@@V?$allocator@U?$pair@$$CBIPAU_BLECHEVENT@@@std@@@3@$0A@@std@@@std@@IBEAAPAU_Node@?$_Tree_nod@V?$_Tmap_traits@IPAU_BLECHEVENT@@U?$less@I@std@@V?$allocator@U?$pair@$$CBIPAU_BLECHEVENT@@@std@@@3@$0A@@std@@@2@XZ 03003a10 f i MQ2ChatHook.obj
 0001:00002a20       ??1?$_Container_base_aux_alloc_real@V?$allocator@U?$pair@$$CBIPAU_BLECHEVENT@@@std@@@std@@@std@@IAE@XZ 03003a20 f i MQ2ChatHook.obj
 0001:00002a30       ??Diterator@?$_Tree@V?$_Tmap_traits@IPAU_BLECHEVENT@@U?$less@I@std@@V?$allocator@U?$pair@$$CBIPAU_BLECHEVENT@@@std@@@3@$0A@@std@@@std@@QBEAAU?$pair@$$CBIPAU_BLECHEVENT@@@2@XZ 03003a30 f i MQ2ChatHook.obj
 0001:00002a60       ?_Eos@?$basic_string@DU?$char_traits@D@std@@V?$allocator@D@2@@std@@IAEXI@Z 03003a60 f i MQ2ChatHook.obj
 0001:00002a80       ?destroy@?$allocator@U_Node@?$_Tree_nod@V?$_Tmap_traits@IPAU_BLECHEVENT@@U?$less@I@std@@V?$allocator@U?$pair@$$CBIPAU_BLECHEVENT@@@std@@@3@$0A@@std@@@std@@@std@@QAEXPAU_Node@?$_Tree_nod@V?$_Tmap_traits@IPAU_BLECHEVENT@@U?$less@I@std@@V?$allocator@U?$pair@$$CBIPAU_BLECHEVENT@@@std@@@3@$0A@@std@@@2@@Z 03003a80 f i MQ2ChatHook.obj
 0001:00002a90       ?destroy@?$allocator@PAU_Node@?$_Tree_nod@V?$_Tmap_traits@IPAU_BLECHEVENT@@U?$less@I@std@@V?$allocator@U?$pair@$$CBIPAU_BLECHEVENT@@@std@@@3@$0A@@std@@@std@@@std@@QAEXPAPAU_Node@?$_Tree_nod@V?$_Tmap_traits@IPAU_BLECHEVENT@@U?$less@I@std@@V?$allocator@U?$pair@$$CBIPAU_BLECHEVENT@@@std@@@3@$0A@@std@@@2@@Z 03003a90 f i MQ2ChatHook.obj
 0001:00002aa0       ??Econst_iterator@?$_Tree@V?$_Tmap_traits@IPAU_BLECHEVENT@@U?$less@I@std@@V?$allocator@U?$pair@$$CBIPAU_BLECHEVENT@@@std@@@3@$0A@@std@@@std@@QAEAAV012@XZ 03003aa0 f i MQ2ChatHook.obj
 0001:00002ab0       ??Econst_iterator@?$_Tree@V?$_Tmap_traits@IPAU_BLECHEVENT@@U?$less@I@std@@V?$allocator@U?$pair@$$CBIPAU_BLECHEVENT@@@std@@@3@$0A@@std@@@std@@QAE?AV012@H@Z 03003ab0 f i MQ2ChatHook.obj
 0001:00002ad0       ??0?$_Bidit@U?$pair@$$CBIPAU_BLECHEVENT@@@std@@HPBU12@ABU12@@std@@QAE@XZ 03003ad0 f i MQ2ChatHook.obj
 0001:00002ae0       ?max_size@?$basic_string@DU?$char_traits@D@std@@V?$allocator@D@2@@std@@QBEIXZ 03003ae0 f i MQ2ChatHook.obj
 0001:00002af0       ?_Lrotate@?$_Tree@V?$_Tmap_traits@IPAU_BLECHEVENT@@U?$less@I@std@@V?$allocator@U?$pair@$$CBIPAU_BLECHEVENT@@@std@@@3@$0A@@std@@@std@@IAEXPAU_Node@?$_Tree_nod@V?$_Tmap_traits@IPAU_BLECHEVENT@@U?$less@I@std@@V?$allocator@U?$pair@$$CBIPAU_BLECHEVENT@@@std@@@3@$0A@@std@@@2@@Z 03003af0 f i MQ2ChatHook.obj
 0001:00002b40       ?_Rrotate@?$_Tree@V?$_Tmap_traits@IPAU_BLECHEVENT@@U?$less@I@std@@V?$allocator@U?$pair@$$CBIPAU_BLECHEVENT@@@std@@@3@$0A@@std@@@std@@IAEXPAU_Node@?$_Tree_nod@V?$_Tmap_traits@IPAU_BLECHEVENT@@U?$less@I@std@@V?$allocator@U?$pair@$$CBIPAU_BLECHEVENT@@@std@@@3@$0A@@std@@@2@@Z 03003b40 f i MQ2ChatHook.obj
 0001:00002ba0       ?allocate@?$allocator@D@std@@QAEPADI@Z 03003ba0 f i MQ2ChatHook.obj
 0001:00002bc0       ?allocate@?$allocator@U_Node@?$_Tree_nod@V?$_Tmap_traits@IPAU_BLECHEVENT@@U?$less@I@std@@V?$allocator@U?$pair@$$CBIPAU_BLECHEVENT@@@std@@@3@$0A@@std@@@std@@@std@@QAEPAU_Node@?$_Tree_nod@V?$_Tmap_traits@IPAU_BLECHEVENT@@U?$less@I@std@@V?$allocator@U?$pair@$$CBIPAU_BLECHEVENT@@@std@@@3@$0A@@std@@@2@I@Z 03003bc0 f i MQ2ChatHook.obj
 0001:00002be0       ?construct@?$allocator@PAU_Node@?$_Tree_nod@V?$_Tmap_traits@IPAU_BLECHEVENT@@U?$less@I@std@@V?$allocator@U?$pair@$$CBIPAU_BLECHEVENT@@@std@@@3@$0A@@std@@@std@@@std@@QAEXPAPAU_Node@?$_Tree_nod@V?$_Tmap_traits@IPAU_BLECHEVENT@@U?$less@I@std@@V?$allocator@U?$pair@$$CBIPAU_BLECHEVENT@@@std@@@3@$0A@@std@@@2@ABQAU342@@Z 03003be0 f i MQ2ChatHook.obj
 0001:00002c00       ?allocate@?$allocator@V_Aux_cont@std@@@std@@QAEPAV_Aux_cont@2@I@Z 03003c00 f i MQ2ChatHook.obj
 0001:00002c20       ??$copy_s@U?$char_traits@D@std@@@_Traits_helper@std@@YAPADPADIPBDI@Z 03003c20 f i MQ2ChatHook.obj
 0001:00002c50       ??$move_s@U?$char_traits@D@std@@@_Traits_helper@std@@YAPADPADIPBDI@Z 03003c50 f i MQ2ChatHook.obj
 0001:00002c80       ??Citerator@?$_Tree@V?$_Tmap_traits@IPAU_BLECHEVENT@@U?$less@I@std@@V?$allocator@U?$pair@$$CBIPAU_BLECHEVENT@@@std@@@3@$0A@@std@@@std@@QBEPAU?$pair@$$CBIPAU_BLECHEVENT@@@2@XZ 03003c80 f i MQ2ChatHook.obj
 0001:00002cb0       ??1?$_Tmap_traits@IPAU_BLECHEVENT@@U?$less@I@std@@V?$allocator@U?$pair@$$CBIPAU_BLECHEVENT@@@std@@@3@$0A@@std@@QAE@XZ 03003cb0 f i MQ2ChatHook.obj
 0001:00002cc0       ?_Tidy@?$basic_string@DU?$char_traits@D@std@@V?$allocator@D@2@@std@@IAEX_NI@Z 03003cc0 f i MQ2ChatHook.obj
 0001:00002d10       ?_Erase@?$_Tree@V?$_Tmap_traits@IPAU_BLECHEVENT@@U?$less@I@std@@V?$allocator@U?$pair@$$CBIPAU_BLECHEVENT@@@std@@@3@$0A@@std@@@std@@IAEXPAU_Node@?$_Tree_nod@V?$_Tmap_traits@IPAU_BLECHEVENT@@U?$less@I@std@@V?$allocator@U?$pair@$$CBIPAU_BLECHEVENT@@@std@@@3@$0A@@std@@@2@@Z 03003d10 f i MQ2ChatHook.obj
 0001:00002d50       ??Eiterator@?$_Tree@V?$_Tmap_traits@IPAU_BLECHEVENT@@U?$less@I@std@@V?$allocator@U?$pair@$$CBIPAU_BLECHEVENT@@@std@@@3@$0A@@std@@@std@@QAEAAV012@XZ 03003d50 f i MQ2ChatHook.obj
 0001:00002d60       ?erase@?$basic_string@DU?$char_traits@D@std@@V?$allocator@D@2@@std@@QAEAAV12@II@Z 03003d60 f i MQ2ChatHook.obj
 0001:00002df0       ??0const_iterator@?$_Tree@V?$_Tmap_traits@IPAU_BLECHEVENT@@U?$less@I@std@@V?$allocator@U?$pair@$$CBIPAU_BLECHEVENT@@@std@@@3@$0A@@std@@@std@@QAE@PAU_Node@?$_Tree_nod@V?$_Tmap_traits@IPAU_BLECHEVENT@@U?$less@I@std@@V?$allocator@U?$pair@$$CBIPAU_BLECHEVENT@@@std@@@3@$0A@@std@@@2@PBV12@@Z 03003df0 f i MQ2ChatHook.obj
 0001:00002e20       ?_Copy@?$basic_string@DU?$char_traits@D@std@@V?$allocator@D@2@@std@@IAEXII@Z 03003e20 f i MQ2ChatHook.obj
 0001:00002f70       ?_Buynode@?$_Tree@V?$_Tmap_traits@IPAU_BLECHEVENT@@U?$less@I@std@@V?$allocator@U?$pair@$$CBIPAU_BLECHEVENT@@@std@@@3@$0A@@std@@@std@@IAEPAU_Node@?$_Tree_nod@V?$_Tmap_traits@IPAU_BLECHEVENT@@U?$less@I@std@@V?$allocator@U?$pair@$$CBIPAU_BLECHEVENT@@@std@@@3@$0A@@std@@@2@XZ 03003f70 f i MQ2ChatHook.obj
 0001:00003010       ??0?$_Container_base_aux_alloc_real@V?$allocator@U?$pair@$$CBIPAU_BLECHEVENT@@@std@@@std@@@std@@IAE@V?$allocator@U?$pair@$$CBIPAU_BLECHEVENT@@@std@@@1@@Z 03004010 f i MQ2ChatHook.obj
 0001:00003040       ??1?$basic_string@DU?$char_traits@D@std@@V?$allocator@D@2@@std@@QAE@XZ 03004040 f i MQ2ChatHook.obj
 0001:00003070       ?clear@?$_Tree@V?$_Tmap_traits@IPAU_BLECHEVENT@@U?$less@I@std@@V?$allocator@U?$pair@$$CBIPAU_BLECHEVENT@@@std@@@3@$0A@@std@@@std@@QAEXXZ 03004070 f i MQ2ChatHook.obj
 0001:000030a0       ??Eiterator@?$_Tree@V?$_Tmap_traits@IPAU_BLECHEVENT@@U?$less@I@std@@V?$allocator@U?$pair@$$CBIPAU_BLECHEVENT@@@std@@@3@$0A@@std@@@std@@QAE?AV012@H@Z 030040a0 f i MQ2ChatHook.obj
 0001:000030c0       ??1?$_Tree_nod@V?$_Tmap_traits@IPAU_BLECHEVENT@@U?$less@I@std@@V?$allocator@U?$pair@$$CBIPAU_BLECHEVENT@@@std@@@3@$0A@@std@@@std@@QAE@XZ 030040c0 f i MQ2ChatHook.obj
 0001:000030d0       ??0iterator@?$_Tree@V?$_Tmap_traits@IPAU_BLECHEVENT@@U?$less@I@std@@V?$allocator@U?$pair@$$CBIPAU_BLECHEVENT@@@std@@@3@$0A@@std@@@std@@QAE@PAU_Node@?$_Tree_nod@V?$_Tmap_traits@IPAU_BLECHEVENT@@U?$less@I@std@@V?$allocator@U?$pair@$$CBIPAU_BLECHEVENT@@@std@@@3@$0A@@std@@@2@PBV12@@Z 030040d0 f i MQ2ChatHook.obj
 0001:00003100       ?_Grow@?$basic_string@DU?$char_traits@D@std@@V?$allocator@D@2@@std@@IAE_NI_N@Z 03004100 f i MQ2ChatHook.obj
 0001:000031c0       ?_Make_iter@?$_Tree@V?$_Tmap_traits@IPAU_BLECHEVENT@@U?$less@I@std@@V?$allocator@U?$pair@$$CBIPAU_BLECHEVENT@@@std@@@3@$0A@@std@@@std@@QBE?AViterator@12@Vconst_iterator@12@@Z 030041c0 f i MQ2ChatHook.obj
 0001:000031f0       ?_Init@?$_Tree@V?$_Tmap_traits@IPAU_BLECHEVENT@@U?$less@I@std@@V?$allocator@U?$pair@$$CBIPAU_BLECHEVENT@@@std@@@3@$0A@@std@@@std@@IAEXXZ 030041f0 f i MQ2ChatHook.obj
 0001:00003220       ??0?$_Tmap_traits@IPAU_BLECHEVENT@@U?$less@I@std@@V?$allocator@U?$pair@$$CBIPAU_BLECHEVENT@@@std@@@3@$0A@@std@@QAE@U?$less@I@1@V?$allocator@U?$pair@$$CBIPAU_BLECHEVENT@@@std@@@1@@Z 03004220 f i MQ2ChatHook.obj
 0001:00003250       ??1logic_error@std@@UAE@XZ 03004250 f i MQ2ChatHook.obj
 0001:00003290       ?c_str@?$basic_string@DU?$char_traits@D@std@@V?$allocator@D@2@@std@@QBEPBDXZ 03004290 f i MQ2ChatHook.obj
 0001:000032a0       ?what@logic_error@std@@UBEPBDXZ 030042a0 f i MQ2ChatHook.obj
 0001:000032b0       ??_Glogic_error@std@@UAEPAXI@Z 030042b0 f i MQ2ChatHook.obj
 0001:000032b0       ??_Elogic_error@std@@UAEPAXI@Z 030042b0 f i MQ2ChatHook.obj
 0001:00003300       ?begin@?$_Tree@V?$_Tmap_traits@IPAU_BLECHEVENT@@U?$less@I@std@@V?$allocator@U?$pair@$$CBIPAU_BLECHEVENT@@@std@@@3@$0A@@std@@@std@@QAE?AViterator@12@XZ 03004300 f i MQ2ChatHook.obj
 0001:00003320       ?end@?$_Tree@V?$_Tmap_traits@IPAU_BLECHEVENT@@U?$less@I@std@@V?$allocator@U?$pair@$$CBIPAU_BLECHEVENT@@@std@@@3@$0A@@std@@@std@@QAE?AViterator@12@XZ 03004320 f i MQ2ChatHook.obj
 0001:00003340       ??1?$_Tree_ptr@V?$_Tmap_traits@IPAU_BLECHEVENT@@U?$less@I@std@@V?$allocator@U?$pair@$$CBIPAU_BLECHEVENT@@@std@@@3@$0A@@std@@@std@@QAE@XZ 03004340 f i MQ2ChatHook.obj
 0001:00003350       ?assign@?$basic_string@DU?$char_traits@D@std@@V?$allocator@D@2@@std@@QAEAAV12@ABV12@II@Z 03004350 f i MQ2ChatHook.obj
 0001:00003430       ?assign@?$basic_string@DU?$char_traits@D@std@@V?$allocator@D@2@@std@@QAEAAV12@PBDI@Z 03004430 f i MQ2ChatHook.obj
 0001:00003510       ??0?$_Tree_nod@V?$_Tmap_traits@IPAU_BLECHEVENT@@U?$less@I@std@@V?$allocator@U?$pair@$$CBIPAU_BLECHEVENT@@@std@@@3@$0A@@std@@@std@@IAE@ABU?$less@I@1@V?$allocator@U?$pair@$$CBIPAU_BLECHEVENT@@@std@@@1@@Z 03004510 f i MQ2ChatHook.obj
 0001:00003540       ?Cleanup@Blech@@AAEXXZ     03004540 f i MQ2ChatHook.obj
 0001:00003640       ??0?$basic_string@DU?$char_traits@D@std@@V?$allocator@D@2@@std@@QAE@ABV01@@Z 03004640 f i MQ2ChatHook.obj
 0001:00003670       ??1?$_Tree_val@V?$_Tmap_traits@IPAU_BLECHEVENT@@U?$less@I@std@@V?$allocator@U?$pair@$$CBIPAU_BLECHEVENT@@@std@@@3@$0A@@std@@@std@@QAE@XZ 03004670 f i MQ2ChatHook.obj
 0001:00003680       ?assign@?$basic_string@DU?$char_traits@D@std@@V?$allocator@D@2@@std@@QAEAAV12@PBD@Z 03004680 f i MQ2ChatHook.obj
 0001:000036b0       ??0?$_Tree_ptr@V?$_Tmap_traits@IPAU_BLECHEVENT@@U?$less@I@std@@V?$allocator@U?$pair@$$CBIPAU_BLECHEVENT@@@std@@@3@$0A@@std@@@std@@IAE@ABU?$less@I@1@V?$allocator@U?$pair@$$CBIPAU_BLECHEVENT@@@std@@@1@@Z 030046b0 f i MQ2ChatHook.obj
 0001:000036e0       ??0logic_error@std@@QAE@ABV?$basic_string@DU?$char_traits@D@std@@V?$allocator@D@2@@1@@Z 030046e0 f i MQ2ChatHook.obj
 0001:00003720       ??0out_of_range@std@@QAE@ABV?$basic_string@DU?$char_traits@D@std@@V?$allocator@D@2@@1@@Z 03004720 f i MQ2ChatHook.obj
 0001:00003760       ??1out_of_range@std@@UAE@XZ 03004760 f i MQ2ChatHook.obj
 0001:000037a0       ??_Eout_of_range@std@@UAEPAXI@Z 030047a0 f i MQ2ChatHook.obj
 0001:000037a0       ??_Gout_of_range@std@@UAEPAXI@Z 030047a0 f i MQ2ChatHook.obj
 0001:000037f0       ??0?$basic_string@DU?$char_traits@D@std@@V?$allocator@D@2@@std@@QAE@PBD@Z 030047f0 f i MQ2ChatHook.obj
 0001:00003830       ?erase@?$_Tree@V?$_Tmap_traits@IPAU_BLECHEVENT@@U?$less@I@std@@V?$allocator@U?$pair@$$CBIPAU_BLECHEVENT@@@std@@@3@$0A@@std@@@std@@QAE?AViterator@12@Vconst_iterator@12@@Z 03004830 f i MQ2ChatHook.obj
 0001:00003af0       ??0logic_error@std@@QAE@ABV01@@Z 03004af0 f i MQ2ChatHook.obj
 0001:00003b30       ??0?$_Tree_val@V?$_Tmap_traits@IPAU_BLECHEVENT@@U?$less@I@std@@V?$allocator@U?$pair@$$CBIPAU_BLECHEVENT@@@std@@@3@$0A@@std@@@std@@IAE@ABU?$less@I@1@V?$allocator@U?$pair@$$CBIPAU_BLECHEVENT@@@std@@@1@@Z 03004b30 f i MQ2ChatHook.obj
 0001:00003b60       ??0out_of_range@std@@QAE@ABV01@@Z 03004b60 f i MQ2ChatHook.obj
 0001:00003ba0       ??0?$_Tree@V?$_Tmap_traits@IPAU_BLECHEVENT@@U?$less@I@std@@V?$allocator@U?$pair@$$CBIPAU_BLECHEVENT@@@std@@@3@$0A@@std@@@std@@QAE@ABU?$less@I@1@ABV?$allocator@U?$pair@$$CBIPAU_BLECHEVENT@@@std@@@1@@Z 03004ba0 f i MQ2ChatHook.obj
 0001:00003bf0       ?erase@?$_Tree@V?$_Tmap_traits@IPAU_BLECHEVENT@@U?$less@I@std@@V?$allocator@U?$pair@$$CBIPAU_BLECHEVENT@@@std@@@3@$0A@@std@@@std@@QAE?AViterator@12@Vconst_iterator@12@0@Z 03004bf0 f i MQ2ChatHook.obj
 0001:00003cd0       ?_Tidy@?$_Tree@V?$_Tmap_traits@IPAU_BLECHEVENT@@U?$less@I@std@@V?$allocator@U?$pair@$$CBIPAU_BLECHEVENT@@@std@@@3@$0A@@std@@@std@@IAEXXZ 03004cd0 f i MQ2ChatHook.obj
 0001:00003d10       ??1?$_Tree@V?$_Tmap_traits@IPAU_BLECHEVENT@@U?$less@I@std@@V?$allocator@U?$pair@$$CBIPAU_BLECHEVENT@@@std@@@3@$0A@@std@@@std@@QAE@XZ 03004d10 f i MQ2ChatHook.obj
 0001:00003d50       ??1?$map@IPAU_BLECHEVENT@@U?$less@I@std@@V?$allocator@U?$pair@$$CBIPAU_BLECHEVENT@@@std@@@3@@std@@QAE@XZ 03004d50 f i MQ2ChatHook.obj
 0001:00003d90       ??0?$map@IPAU_BLECHEVENT@@U?$less@I@std@@V?$allocator@U?$pair@$$CBIPAU_BLECHEVENT@@@std@@@3@@std@@QAE@XZ 03004d90 f i MQ2ChatHook.obj
 0001:00003de0       ??0Blech@@QAE@DDP6GIPAD0@Z@Z 03004de0 f i MQ2ChatHook.obj
 0001:00003e90       ??1Blech@@QAE@XZ           03004e90 f i MQ2ChatHook.obj
 0001:00003ee0       _InitializeChatHook        03004ee0 f   MQ2ChatHook.obj
 0001:00003f80       ??_GBlech@@QAEPAXI@Z       03004f80 f i MQ2ChatHook.obj
 0001:00003fa0       _ShutdownChatHook          03004fa0 f   MQ2ChatHook.obj
 0001:00003ff0       _DrawHUDText               03004ff0 f   MQ2CleanUI.obj
 0001:00004090       ?SetProgressBar_Trampoline@EQ_LoadingSHook@@QAEXHPBD@Z 03005090 f   MQ2CleanUI.obj
 0001:000040b0       ?DrawHUD_Trampoline@@YAKKKKK@Z 030050b0 f   MQ2CleanUI.obj
 0001:000040d0       ?CleanUI_Trampoline@CDisplayHook@@QAEXXZ 030050d0 f   MQ2CleanUI.obj
 0001:000040f0       ?ReloadUI_Trampoline@CDisplayHook@@QAEXH@Z 030050f0 f   MQ2CleanUI.obj
 0001:00004110       _ShutdownDisplayHook       03005110 f   MQ2CleanUI.obj
 0001:00004150       ?CleanUI_Detour@CDisplayHook@@QAEXXZ 03005150 f i MQ2CleanUI.obj
 0001:00004180       ?ReloadUI_Detour@CDisplayHook@@QAEXH@Z 03005180 f i MQ2CleanUI.obj
 0001:000041b0       ?DrawHUD_Detour@@YAKKKKK@Z 030051b0 f   MQ2CleanUI.obj
 0001:00004240       _DrawHUD                   03005240 f   MQ2CleanUI.obj
 0001:000042f0       ?SetProgressBar_Detour@EQ_LoadingSHook@@QAEXHPBD@Z 030052f0 f i MQ2CleanUI.obj
 0001:00004310       _InitializeDisplayHook     03005310 f   MQ2CleanUI.obj
 0001:00004390       _HideDoCommand             03005390 f   MQ2CommandAPI.obj
 0001:000047f0       ?Trampoline@CCommandHook@@QAEXPAU_SPAWNINFO@EQData@@PAD@Z 030057f0 f   MQ2CommandAPI.obj
 0001:00004810       _AddCommand                03005810 f   MQ2CommandAPI.obj
 0001:000048c0       _RemoveCommand             030058c0 f   MQ2CommandAPI.obj
 0001:00004950       _AddAlias                  03005950 f   MQ2CommandAPI.obj
 0001:00004af0       _RemoveAlias               03005af0 f   MQ2CommandAPI.obj
 0001:00004b60       _AddSubstitute             03005b60 f   MQ2CommandAPI.obj
 0001:00004d00       _RemoveSubstitute          03005d00 f   MQ2CommandAPI.obj
 0001:00004d70       _ShutdownMQ2Commands       03005d70 f   MQ2CommandAPI.obj
 0001:00004e50       _DoTimedCommands           03005e50 f   MQ2CommandAPI.obj
 0001:00004eb0       _TimedCommand              03005eb0 f   MQ2CommandAPI.obj
 0001:00004f40       ?replace@?$basic_string@DU?$char_traits@D@std@@V?$allocator@D@2@@std@@QAEAAV12@IIABV12@II@Z 03005f40 f i MQ2CommandAPI.obj
 0001:000052f0       ?replace@?$basic_string@DU?$char_traits@D@std@@V?$allocator@D@2@@std@@QAEAAV12@IIPBDI@Z 030062f0 f i MQ2CommandAPI.obj
 0001:000054d0       ??4?$basic_string@DU?$char_traits@D@std@@V?$allocator@D@2@@std@@QAEAAV01@PBD@Z 030064d0 f i MQ2CommandAPI.obj
 0001:00005500       ?replace@?$basic_string@DU?$char_traits@D@std@@V?$allocator@D@2@@std@@QAEAAV12@IIPBD@Z 03006500 f i MQ2CommandAPI.obj
 0001:00005530       ?Detour@CCommandHook@@QAEXPAU_SPAWNINFO@EQData@@PAD@Z 03006530 f i MQ2CommandAPI.obj
 0001:00005a80       _InitializeMQ2Commands     03006a80 f   MQ2CommandAPI.obj
 0001:00006cd0       ?strchr@@YAPADPADH@Z       03007cd0 f i MQ2Commands.obj
 0001:00006ce0       _atan2f                    03007ce0 f i MQ2Commands.obj
 0001:00006d00       _sqrtf                     03007d00 f i MQ2Commands.obj
 0001:00006d20       ?atan2@@YAMMM@Z            03007d20 f i MQ2Commands.obj
 0001:00006d40       ?compare@?$char_traits@D@std@@SAHPBD0I@Z 03007d40 f i MQ2Commands.obj
 0001:00006f30       _Unload                    03007f30 f   MQ2Commands.obj
 0001:00006f80       _ListMacros                03007f80 f   MQ2Commands.obj
 0001:00007220       _Items                     03008220 f   MQ2Commands.obj
 0001:000074a0       _ItemTarget                030084a0 f   MQ2Commands.obj
 0001:000077b0       _Doors                     030087b0 f   MQ2Commands.obj
 0001:00007a00       _DoorTarget                03008a00 f   MQ2Commands.obj
 0001:00007e50       _CharInfo                  03008e50 f   MQ2Commands.obj
 0001:00007f20       _UpdateItemInfo            03008f20 f   MQ2Commands.obj
 0001:000083b0       _MemSpell                  030093b0 f   MQ2Commands.obj
 0001:000085a0       _BuyItem                   030095a0 f   MQ2Commands.obj
 0001:00008650       _SellItem                  03009650 f   MQ2Commands.obj
 0001:00008700       _Help                      03009700 f   MQ2Commands.obj
 0001:00008890       ?CmdCmd@@YAXPAU_SPAWNINFO@EQData@@PAD@Z 03009890 f   MQ2Commands.obj
 0001:000088a0       _PluginCmdSort             030098a0 f   MQ2Commands.obj
 0001:000088f0       _MacroBeep                 030098f0 f   MQ2Commands.obj
 0001:00008970       _SWhoFilter                03009970 f   MQ2Commands.obj
 0001:00008e40       _Filter                    03009e40 f   MQ2Commands.obj
 0001:00009e00       _DebugSpewFile             0300ae00 f   MQ2Commands.obj
 0001:00009ed0       _Identify                  0300aed0 f   MQ2Commands.obj
 0001:0000abc0       _Location                  0300bbc0 f   MQ2Commands.obj
 0001:0000ac80       _Alert                     0300bc80 f   MQ2Commands.obj
 0001:0000b130       _SuperWhoTarget            0300c130 f   MQ2Commands.obj
 0001:0000b1c0       _SuperWho                  0300c1c0 f   MQ2Commands.obj
 0001:0000b480       _SetError                  0300c480 f   MQ2Commands.obj
 0001:0000b4d0       _MQMsgBox                  0300c4d0 f   MQ2Commands.obj
 0001:0000b550       _MacroLog                  0300c550 f   MQ2Commands.obj
 0001:0000b750       _Face                      0300c750 f   MQ2Commands.obj
 0001:0000bee0       _Look                      0300cee0 f   MQ2Commands.obj
 0001:0000bf90       _Where                     0300cf90 f   MQ2Commands.obj
 0001:0000c210       _DoAbility                 0300d210 f   MQ2Commands.obj
 0001:0000c5c0       _LoadSpells                0300d5c0 f   MQ2Commands.obj
 0001:0000c8c0       _Cast                      0300d8c0 f   MQ2Commands.obj
 0001:0000cc30       _Target                    0300dc30 f   MQ2Commands.obj
 0001:0000cf60       _Skills                    0300df60 f   MQ2Commands.obj
 0001:0000d170       _MacroPause                0300e170 f   MQ2Commands.obj
 0001:0000d3d0       _SetAutoRun                0300e3d0 f   MQ2Commands.obj
 0001:0000d460       _Alias                     0300e460 f   MQ2Commands.obj
 0001:0000d6b0       _Substitute                0300e6b0 f   MQ2Commands.obj
 0001:0000d900       _IniOutput                 0300e900 f   MQ2Commands.obj
 0001:0000db60       _BankList                  0300eb60 f   MQ2Commands.obj
 0001:0000dcf0       _WindowState               0300ecf0 f   MQ2Commands.obj
 0001:0000deb0       _KeepKeys                  0300eeb0 f   MQ2Commands.obj
 0001:0000e010       _DisplayLoginName          0300f010 f   MQ2Commands.obj
 0001:0000e050       _PluginCommand             0300f050 f   MQ2Commands.obj
 0001:0000e2b0       _EQDestroyHeldItemOrMoney  0300f2b0 f   MQ2Commands.obj
 0001:0000e2c0       _Exec                      0300f2c0 f   MQ2Commands.obj
 0001:0000e480       _DoMappable                0300f480 f   MQ2Commands.obj
 0001:0000e680       _PopupText                 0300f680 f   MQ2Commands.obj
 0001:0000e6b0       _MultilineCommand          0300f6b0 f   MQ2Commands.obj
 0001:0000e7b0       _do_ranged                 0300f7b0 f   MQ2Commands.obj
 0001:0000e810       _LoadCfgCommand            0300f810 f   MQ2Commands.obj
 0001:0000e850       _DumpBindsCommand          0300f850 f   MQ2Commands.obj
 0001:0000e8a0       _SquelchCommand            0300f8a0 f   MQ2Commands.obj
 0001:0000e8e0       _DoCommandCmd              0300f8e0 f   MQ2Commands.obj
 0001:0000e910       _DoAltCmd                  0300f910 f   MQ2Commands.obj
 0001:0000e960       _DoShiftCmd                0300f960 f   MQ2Commands.obj
 0001:0000e9c0       _DoCtrlCmd                 0300f9c0 f   MQ2Commands.obj
 0001:0000ea10       _NoModKeyCmd               0300fa10 f   MQ2Commands.obj
 0001:0000ea60       _DoSocial                  0300fa60 f   MQ2Commands.obj
 0001:0000ecd0       _DoTimedCmd                0300fcd0 f   MQ2Commands.obj
 0001:0000ed60       _ClearErrorsCmd            0300fd60 f   MQ2Commands.obj
 0001:0000ed80       _CombineCmd                0300fd80 f   MQ2Commands.obj
 0001:0000ede0       _DropCmd                   0300fde0 f   MQ2Commands.obj
 0001:0000ee20       _HudCmd                    0300fe20 f   MQ2Commands.obj
 0001:0000ef10       _CaptionCmd                0300ff10 f   MQ2Commands.obj
 0001:0000f250       _NoParseCmd                03010250 f   MQ2Commands.obj
 0001:0000f290       _Echo                      03010290 f   MQ2Commands.obj
 0001:0000f330       _LootAll                   03010330 f   MQ2Commands.obj
 0001:0000f350       ??0?$CIndex@PAU_MQ2TypeMember@MQ2Internal@@@MQ2Internal@@QAE@XZ 03010350 f i MQ2Commands.obj
 0001:0000f370       ??1?$CIndex@PAU_MQ2TypeMember@MQ2Internal@@@MQ2Internal@@QAE@XZ 03010370 f i MQ2Commands.obj
 0001:0000f3b0       ?Cleanup@?$CIndex@PAU_MQ2TypeMember@MQ2Internal@@@MQ2Internal@@QAEXXZ 030103b0 f i MQ2Commands.obj
 0001:0000f3f0       ??A?$CIndex@PAU_MQ2TypeMember@MQ2Internal@@@MQ2Internal@@QAEAAPAU_MQ2TypeMember@1@K@Z 030103f0 f i MQ2Commands.obj
 0001:0000f400       ?Resize@?$CIndex@PAU_MQ2TypeMember@MQ2Internal@@@MQ2Internal@@QAEXK@Z 03010400 f i MQ2Commands.obj
 0001:0000f4b0       ??0?$allocator@U?$pair@$$CBV?$basic_string@DU?$char_traits@D@std@@V?$allocator@D@2@@std@@K@std@@@std@@QAE@XZ 030104b0 f i MQ2Commands.obj
 0001:0000f4c0       ??8const_iterator@?$_Tree@V?$_Tmap_traits@V?$basic_string@DU?$char_traits@D@std@@V?$allocator@D@2@@std@@KU?$less@V?$basic_string@DU?$char_traits@D@std@@V?$allocator@D@2@@std@@@2@V?$allocator@U?$pair@$$CBV?$basic_string@DU?$char_traits@D@std@@V?$allocator@D@2@@std@@K@std@@@2@$0A@@std@@@std@@QBE_NABV012@@Z 030104c0 f i MQ2Commands.obj
 0001:0000f4f0       ?_Mynode@const_iterator@?$_Tree@V?$_Tmap_traits@V?$basic_string@DU?$char_traits@D@std@@V?$allocator@D@2@@std@@KU?$less@V?$basic_string@DU?$char_traits@D@std@@V?$allocator@D@2@@std@@@2@V?$allocator@U?$pair@$$CBV?$basic_string@DU?$char_traits@D@std@@V?$allocator@D@2@@std@@K@std@@@2@$0A@@std@@@std@@QBEPAU_Node@?$_Tree_nod@V?$_Tmap_traits@V?$basic_string@DU?$char_traits@D@std@@V?$allocator@D@2@@std@@KU?$less@V?$basic_string@DU?$char_traits@D@std@@V?$allocator@D@2@@std@@@2@V?$allocator@U?$pair@$$CBV?$basic_string@DU?$char_traits@D@std@@V?$allocator@D@2@@std@@K@std@@@2@$0A@@std@@@3@XZ 030104f0 f i MQ2Commands.obj
 0001:0000f500       ?_Isnil@?$_Tree@V?$_Tmap_traits@V?$basic_string@DU?$char_traits@D@std@@V?$allocator@D@2@@std@@KU?$less@V?$basic_string@DU?$char_traits@D@std@@V?$allocator@D@2@@std@@@2@V?$allocator@U?$pair@$$CBV?$basic_string@DU?$char_traits@D@std@@V?$allocator@D@2@@std@@K@std@@@2@$0A@@std@@@std@@KAAADPAU_Node@?$_Tree_nod@V?$_Tmap_traits@V?$basic_string@DU?$char_traits@D@std@@V?$allocator@D@2@@std@@KU?$less@V?$basic_string@DU?$char_traits@D@std@@V?$allocator@D@2@@std@@@2@V?$allocator@U?$pair@$$CBV?$basic_string@DU?$char_traits@D@std@@V?$allocator@D@2@@std@@K@std@@@2@$0A@@std@@@2@@Z 03010500 f i MQ2Commands.obj
 0001:0000f510       ?_Left@?$_Tree@V?$_Tmap_traits@V?$basic_string@DU?$char_traits@D@std@@V?$allocator@D@2@@std@@KU?$less@V?$basic_string@DU?$char_traits@D@std@@V?$allocator@D@2@@std@@@2@V?$allocator@U?$pair@$$CBV?$basic_string@DU?$char_traits@D@std@@V?$allocator@D@2@@std@@K@std@@@2@$0A@@std@@@std@@KAAAPAU_Node@?$_Tree_nod@V?$_Tmap_traits@V?$basic_string@DU?$char_traits@D@std@@V?$allocator@D@2@@std@@KU?$less@V?$basic_string@DU?$char_traits@D@std@@V?$allocator@D@2@@std@@@2@V?$allocator@U?$pair@$$CBV?$basic_string@DU?$char_traits@D@std@@V?$allocator@D@2@@std@@K@std@@@2@$0A@@std@@@2@PAU342@@Z 03010510 f i MQ2Commands.obj
 0001:0000f520       ?_Parent@?$_Tree@V?$_Tmap_traits@V?$basic_string@DU?$char_traits@D@std@@V?$allocator@D@2@@std@@KU?$less@V?$basic_string@DU?$char_traits@D@std@@V?$allocator@D@2@@std@@@2@V?$allocator@U?$pair@$$CBV?$basic_string@DU?$char_traits@D@std@@V?$allocator@D@2@@std@@K@std@@@2@$0A@@std@@@std@@KAAAPAU_Node@?$_Tree_nod@V?$_Tmap_traits@V?$basic_string@DU?$char_traits@D@std@@V?$allocator@D@2@@std@@KU?$less@V?$basic_string@DU?$char_traits@D@std@@V?$allocator@D@2@@std@@@2@V?$allocator@U?$pair@$$CBV?$basic_string@DU?$char_traits@D@std@@V?$allocator@D@2@@std@@K@std@@@2@$0A@@std@@@2@PAU342@@Z 03010520 f i MQ2Commands.obj
 0001:0000f530       ?_Right@?$_Tree@V?$_Tmap_traits@V?$basic_string@DU?$char_traits@D@std@@V?$allocator@D@2@@std@@KU?$less@V?$basic_string@DU?$char_traits@D@std@@V?$allocator@D@2@@std@@@2@V?$allocator@U?$pair@$$CBV?$basic_string@DU?$char_traits@D@std@@V?$allocator@D@2@@std@@K@std@@@2@$0A@@std@@@std@@KAAAPAU_Node@?$_Tree_nod@V?$_Tmap_traits@V?$basic_string@DU?$char_traits@D@std@@V?$allocator@D@2@@std@@KU?$less@V?$basic_string@DU?$char_traits@D@std@@V?$allocator@D@2@@std@@@2@V?$allocator@U?$pair@$$CBV?$basic_string@DU?$char_traits@D@std@@V?$allocator@D@2@@std@@K@std@@@2@$0A@@std@@@2@PAU342@@Z 03010530 f i MQ2Commands.obj
 0001:0000f540       ?_Myval@?$_Tree@V?$_Tmap_traits@V?$basic_string@DU?$char_traits@D@std@@V?$allocator@D@2@@std@@KU?$less@V?$basic_string@DU?$char_traits@D@std@@V?$allocator@D@2@@std@@@2@V?$allocator@U?$pair@$$CBV?$basic_string@DU?$char_traits@D@std@@V?$allocator@D@2@@std@@K@std@@@2@$0A@@std@@@std@@KAAAU?$pair@$$CBV?$basic_string@DU?$char_traits@D@std@@V?$allocator@D@2@@std@@K@2@PAU_Node@?$_Tree_nod@V?$_Tmap_traits@V?$basic_string@DU?$char_traits@D@std@@V?$allocator@D@2@@std@@KU?$less@V?$basic_string@DU?$char_traits@D@std@@V?$allocator@D@2@@std@@@2@V?$allocator@U?$pair@$$CBV?$basic_string@DU?$char_traits@D@std@@V?$allocator@D@2@@std@@K@std@@@2@$0A@@std@@@2@@Z 03010540 f i MQ2Commands.obj
 0001:0000f550       ?size@?$_Tree@V?$_Tmap_traits@V?$basic_string@DU?$char_traits@D@std@@V?$allocator@D@2@@std@@KU?$less@V?$basic_string@DU?$char_traits@D@std@@V?$allocator@D@2@@std@@@2@V?$allocator@U?$pair@$$CBV?$basic_string@DU?$char_traits@D@std@@V?$allocator@D@2@@std@@K@std@@@2@$0A@@std@@@std@@QBEIXZ 03010550 f i MQ2Commands.obj
 0001:0000f560       ?_Rmost@?$_Tree@V?$_Tmap_traits@V?$basic_string@DU?$char_traits@D@std@@V?$allocator@D@2@@std@@KU?$less@V?$basic_string@DU?$char_traits@D@std@@V?$allocator@D@2@@std@@@2@V?$allocator@U?$pair@$$CBV?$basic_string@DU?$char_traits@D@std@@V?$allocator@D@2@@std@@K@std@@@2@$0A@@std@@@std@@IBEAAPAU_Node@?$_Tree_nod@V?$_Tmap_traits@V?$basic_string@DU?$char_traits@D@std@@V?$allocator@D@2@@std@@KU?$less@V?$basic_string@DU?$char_traits@D@std@@V?$allocator@D@2@@std@@@2@V?$allocator@U?$pair@$$CBV?$basic_string@DU?$char_traits@D@std@@V?$allocator@D@2@@std@@K@std@@@2@$0A@@std@@@2@XZ 03010560 f i MQ2Commands.obj
 0001:0000f570       ?_Kfn@?$_Tmap_traits@V?$basic_string@DU?$char_traits@D@std@@V?$allocator@D@2@@std@@KU?$less@V?$basic_string@DU?$char_traits@D@std@@V?$allocator@D@2@@std@@@2@V?$allocator@U?$pair@$$CBV?$basic_string@DU?$char_traits@D@std@@V?$allocator@D@2@@std@@K@std@@@2@$0A@@std@@SAABV?$basic_string@DU?$char_traits@D@std@@V?$allocator@D@2@@2@ABU?$pair@$$CBV?$basic_string@DU?$char_traits@D@std@@V?$allocator@D@2@@std@@K@2@@Z 03010570 f i MQ2Commands.obj
 0001:0000f580       ??0?$allocator@U?$pair@$$CBV?$basic_string@DU?$char_traits@D@std@@V?$allocator@D@2@@std@@K@std@@@std@@QAE@ABV01@@Z 03010580 f i MQ2Commands.obj
 0001:0000f590       ?deallocate@?$allocator@U_Node@?$_Tree_nod@V?$_Tmap_traits@V?$basic_string@DU?$char_traits@D@std@@V?$allocator@D@2@@std@@KU?$less@V?$basic_string@DU?$char_traits@D@std@@V?$allocator@D@2@@std@@@2@V?$allocator@U?$pair@$$CBV?$basic_string@DU?$char_traits@D@std@@V?$allocator@D@2@@std@@K@std@@@2@$0A@@std@@@std@@@std@@QAEXPAU_Node@?$_Tree_nod@V?$_Tmap_traits@V?$basic_string@DU?$char_traits@D@std@@V?$allocator@D@2@@std@@KU?$less@V?$basic_string@DU?$char_traits@D@std@@V?$allocator@D@2@@std@@@2@V?$allocator@U?$pair@$$CBV?$basic_string@DU?$char_traits@D@std@@V?$allocator@D@2@@std@@K@std@@@2@$0A@@std@@@2@I@Z 03010590 f i MQ2Commands.obj
 0001:0000f5a0       ??Dconst_iterator@?$_Tree@V?$_Tmap_traits@V?$basic_string@DU?$char_traits@D@std@@V?$allocator@D@2@@std@@KU?$less@V?$basic_string@DU?$char_traits@D@std@@V?$allocator@D@2@@std@@@2@V?$allocator@U?$pair@$$CBV?$basic_string@DU?$char_traits@D@std@@V?$allocator@D@2@@std@@K@std@@@2@$0A@@std@@@std@@QBEABU?$pair@$$CBV?$basic_string@DU?$char_traits@D@std@@V?$allocator@D@2@@std@@K@2@XZ 030105a0 f i MQ2Commands.obj
 0001:0000f5d0       ??0?$_Iterator_with_base@Ubidirectional_iterator_tag@std@@U?$pair@$$CBV?$basic_string@DU?$char_traits@D@std@@V?$allocator@D@2@@std@@K@2@HPBU32@ABU32@V_Iterator_base_aux@2@@std@@QAE@XZ 030105d0 f i MQ2Commands.obj
 0001:0000f5e0       ?_Color@?$_Tree@V?$_Tmap_traits@V?$basic_string@DU?$char_traits@D@std@@V?$allocator@D@2@@std@@KU?$less@V?$basic_string@DU?$char_traits@D@std@@V?$allocator@D@2@@std@@@2@V?$allocator@U?$pair@$$CBV?$basic_string@DU?$char_traits@D@std@@V?$allocator@D@2@@std@@K@std@@@2@$0A@@std@@@std@@KAAADPAU_Node@?$_Tree_nod@V?$_Tmap_traits@V?$basic_string@DU?$char_traits@D@std@@V?$allocator@D@2@@std@@KU?$less@V?$basic_string@DU?$char_traits@D@std@@V?$allocator@D@2@@std@@@2@V?$allocator@U?$pair@$$CBV?$basic_string@DU?$char_traits@D@std@@V?$allocator@D@2@@std@@K@std@@@2@$0A@@std@@@2@@Z 030105e0 f i MQ2Commands.obj
 0001:0000f5f0       ?_Lmost@?$_Tree@V?$_Tmap_traits@V?$basic_string@DU?$char_traits@D@std@@V?$allocator@D@2@@std@@KU?$less@V?$basic_string@DU?$char_traits@D@std@@V?$allocator@D@2@@std@@@2@V?$allocator@U?$pair@$$CBV?$basic_string@DU?$char_traits@D@std@@V?$allocator@D@2@@std@@K@std@@@2@$0A@@std@@@std@@IBEAAPAU_Node@?$_Tree_nod@V?$_Tmap_traits@V?$basic_string@DU?$char_traits@D@std@@V?$allocator@D@2@@std@@KU?$less@V?$basic_string@DU?$char_traits@D@std@@V?$allocator@D@2@@std@@@2@V?$allocator@U?$pair@$$CBV?$basic_string@DU?$char_traits@D@std@@V?$allocator@D@2@@std@@K@std@@@2@$0A@@std@@@2@XZ 030105f0 f i MQ2Commands.obj
 0001:0000f600       ?_Root@?$_Tree@V?$_Tmap_traits@V?$basic_string@DU?$char_traits@D@std@@V?$allocator@D@2@@std@@KU?$less@V?$basic_string@DU?$char_traits@D@std@@V?$allocator@D@2@@std@@@2@V?$allocator@U?$pair@$$CBV?$basic_string@DU?$char_traits@D@std@@V?$allocator@D@2@@std@@K@std@@@2@$0A@@std@@@std@@IBEAAPAU_Node@?$_Tree_nod@V?$_Tmap_traits@V?$basic_string@DU?$char_traits@D@std@@V?$allocator@D@2@@std@@KU?$less@V?$basic_string@DU?$char_traits@D@std@@V?$allocator@D@2@@std@@@2@V?$allocator@U?$pair@$$CBV?$basic_string@DU?$char_traits@D@std@@V?$allocator@D@2@@std@@K@std@@@2@$0A@@std@@@2@XZ 03010600 f i MQ2Commands.obj
 0001:0000f610       ?_Rrotate@?$_Tree@V?$_Tmap_traits@V?$basic_string@DU?$char_traits@D@std@@V?$allocator@D@2@@std@@KU?$less@V?$basic_string@DU?$char_traits@D@std@@V?$allocator@D@2@@std@@@2@V?$allocator@U?$pair@$$CBV?$basic_string@DU?$char_traits@D@std@@V?$allocator@D@2@@std@@K@std@@@2@$0A@@std@@@std@@IAEXPAU_Node@?$_Tree_nod@V?$_Tmap_traits@V?$basic_string@DU?$char_traits@D@std@@V?$allocator@D@2@@std@@KU?$less@V?$basic_string@DU?$char_traits@D@std@@V?$allocator@D@2@@std@@@2@V?$allocator@U?$pair@$$CBV?$basic_string@DU?$char_traits@D@std@@V?$allocator@D@2@@std@@K@std@@@2@$0A@@std@@@2@@Z 03010610 f i MQ2Commands.obj
 0001:0000f670       ??9const_iterator@?$_Tree@V?$_Tmap_traits@V?$basic_string@DU?$char_traits@D@std@@V?$allocator@D@2@@std@@KU?$less@V?$basic_string@DU?$char_traits@D@std@@V?$allocator@D@2@@std@@@2@V?$allocator@U?$pair@$$CBV?$basic_string@DU?$char_traits@D@std@@V?$allocator@D@2@@std@@K@std@@@2@$0A@@std@@@std@@QBE_NABV012@@Z 03010670 f i MQ2Commands.obj
 0001:0000f6a0       ??0?$pair@Viterator@?$_Tree@V?$_Tmap_traits@V?$basic_string@DU?$char_traits@D@std@@V?$allocator@D@2@@std@@KU?$less@V?$basic_string@DU?$char_traits@D@std@@V?$allocator@D@2@@std@@@2@V?$allocator@U?$pair@$$CBV?$basic_string@DU?$char_traits@D@std@@V?$allocator@D@2@@std@@K@std@@@2@$0A@@std@@@std@@_N@std@@QAE@ABViterator@?$_Tree@V?$_Tmap_traits@V?$basic_string@DU?$char_traits@D@std@@V?$allocator@D@2@@std@@KU?$less@V?$basic_string@DU?$char_traits@D@std@@V?$allocator@D@2@@std@@@2@V?$allocator@U?$pair@$$CBV?$basic_string@DU?$char_traits@D@std@@V?$allocator@D@2@@std@@K@std@@@2@$0A@@std@@@1@AB_N@Z 030106a0 f i MQ2Commands.obj
 0001:0000f6c0       ?_Max@?$_Tree@V?$_Tmap_traits@V?$basic_string@DU?$char_traits@D@std@@V?$allocator@D@2@@std@@KU?$less@V?$basic_string@DU?$char_traits@D@std@@V?$allocator@D@2@@std@@@2@V?$allocator@U?$pair@$$CBV?$basic_string@DU?$char_traits@D@std@@V?$allocator@D@2@@std@@K@std@@@2@$0A@@std@@@std@@KAPAU_Node@?$_Tree_nod@V?$_Tmap_traits@V?$basic_string@DU?$char_traits@D@std@@V?$allocator@D@2@@std@@KU?$less@V?$basic_string@DU?$char_traits@D@std@@V?$allocator@D@2@@std@@@2@V?$allocator@U?$pair@$$CBV?$basic_string@DU?$char_traits@D@std@@V?$allocator@D@2@@std@@K@std@@@2@$0A@@std@@@2@PAU342@@Z 030106c0 f i MQ2Commands.obj
 0001:0000f6e0       ?_Min@?$_Tree@V?$_Tmap_traits@V?$basic_string@DU?$char_traits@D@std@@V?$allocator@D@2@@std@@KU?$less@V?$basic_string@DU?$char_traits@D@std@@V?$allocator@D@2@@std@@@2@V?$allocator@U?$pair@$$CBV?$basic_string@DU?$char_traits@D@std@@V?$allocator@D@2@@std@@K@std@@@2@$0A@@std@@@std@@KAPAU_Node@?$_Tree_nod@V?$_Tmap_traits@V?$basic_string@DU?$char_traits@D@std@@V?$allocator@D@2@@std@@KU?$less@V?$basic_string@DU?$char_traits@D@std@@V?$allocator@D@2@@std@@@2@V?$allocator@U?$pair@$$CBV?$basic_string@DU?$char_traits@D@std@@V?$allocator@D@2@@std@@K@std@@@2@$0A@@std@@@2@PAU342@@Z 030106e0 f i MQ2Commands.obj
 0001:0000f700       ?max_size@?$allocator@U?$pair@$$CBV?$basic_string@DU?$char_traits@D@std@@V?$allocator@D@2@@std@@K@std@@@std@@QBEIXZ 03010700 f i MQ2Commands.obj
 0001:0000f710       ??$_Destroy@PAU_Node@?$_Tree_nod@V?$_Tmap_traits@V?$basic_string@DU?$char_traits@D@std@@V?$allocator@D@2@@std@@KU?$less@V?$basic_string@DU?$char_traits@D@std@@V?$allocator@D@2@@std@@@2@V?$allocator@U?$pair@$$CBV?$basic_string@DU?$char_traits@D@std@@V?$allocator@D@2@@std@@K@std@@@2@$0A@@std@@@std@@@std@@YAXPAPAU_Node@?$_Tree_nod@V?$_Tmap_traits@V?$basic_string@DU?$char_traits@D@std@@V?$allocator@D@2@@std@@KU?$less@V?$basic_string@DU?$char_traits@D@std@@V?$allocator@D@2@@std@@@2@V?$allocator@U?$pair@$$CBV?$basic_string@DU?$char_traits@D@std@@V?$allocator@D@2@@std@@K@std@@@2@$0A@@std@@@0@@Z 03010710 f i MQ2Commands.obj
 0001:0000f720       ??$?0U?$pair@$$CBV?$basic_string@DU?$char_traits@D@std@@V?$allocator@D@2@@std@@K@std@@@?$allocator@PAU_Node@?$_Tree_nod@V?$_Tmap_traits@V?$basic_string@DU?$char_traits@D@std@@V?$allocator@D@2@@std@@KU?$less@V?$basic_string@DU?$char_traits@D@std@@V?$allocator@D@2@@std@@@2@V?$allocator@U?$pair@$$CBV?$basic_string@DU?$char_traits@D@std@@V?$allocator@D@2@@std@@K@std@@@2@$0A@@std@@@std@@@std@@QAE@ABV?$allocator@U?$pair@$$CBV?$basic_string@DU?$char_traits@D@std@@V?$allocator@D@2@@std@@K@std@@@1@@Z 03010720 f i MQ2Commands.obj
 0001:0000f730       ??$?0U?$pair@$$CBV?$basic_string@DU?$char_traits@D@std@@V?$allocator@D@2@@std@@K@std@@@?$allocator@U_Node@?$_Tree_nod@V?$_Tmap_traits@V?$basic_string@DU?$char_traits@D@std@@V?$allocator@D@2@@std@@KU?$less@V?$basic_string@DU?$char_traits@D@std@@V?$allocator@D@2@@std@@@2@V?$allocator@U?$pair@$$CBV?$basic_string@DU?$char_traits@D@std@@V?$allocator@D@2@@std@@K@std@@@2@$0A@@std@@@std@@@std@@QAE@ABV?$allocator@U?$pair@$$CBV?$basic_string@DU?$char_traits@D@std@@V?$allocator@D@2@@std@@K@std@@@1@@Z 03010730 f i MQ2Commands.obj
 0001:0000f740       ??$_Allocate@U_Node@?$_Tree_nod@V?$_Tmap_traits@V?$basic_string@DU?$char_traits@D@std@@V?$allocator@D@2@@std@@KU?$less@V?$basic_string@DU?$char_traits@D@std@@V?$allocator@D@2@@std@@@2@V?$allocator@U?$pair@$$CBV?$basic_string@DU?$char_traits@D@std@@V?$allocator@D@2@@std@@K@std@@@2@$0A@@std@@@std@@@std@@YAPAU_Node@?$_Tree_nod@V?$_Tmap_traits@V?$basic_string@DU?$char_traits@D@std@@V?$allocator@D@2@@std@@KU?$less@V?$basic_string@DU?$char_traits@D@std@@V?$allocator@D@2@@std@@@2@V?$allocator@U?$pair@$$CBV?$basic_string@DU?$char_traits@D@std@@V?$allocator@D@2@@std@@K@std@@@2@$0A@@std@@@0@IPAU120@@Z 03010740 f i MQ2Commands.obj
 0001:0000f7a0       ??$_Construct@PAU_Node@?$_Tree_nod@V?$_Tmap_traits@V?$basic_string@DU?$char_traits@D@std@@V?$allocator@D@2@@std@@KU?$less@V?$basic_string@DU?$char_traits@D@std@@V?$allocator@D@2@@std@@@2@V?$allocator@U?$pair@$$CBV?$basic_string@DU?$char_traits@D@std@@V?$allocator@D@2@@std@@K@std@@@2@$0A@@std@@@std@@PAU123@@std@@YAXPAPAU_Node@?$_Tree_nod@V?$_Tmap_traits@V?$basic_string@DU?$char_traits@D@std@@V?$allocator@D@2@@std@@KU?$less@V?$basic_string@DU?$char_traits@D@std@@V?$allocator@D@2@@std@@@2@V?$allocator@U?$pair@$$CBV?$basic_string@DU?$char_traits@D@std@@V?$allocator@D@2@@std@@K@std@@@2@$0A@@std@@@0@ABQAU120@@Z 030107a0 f i MQ2Commands.obj
 0001:0000f7c0       ??$?0U?$pair@$$CBV?$basic_string@DU?$char_traits@D@std@@V?$allocator@D@2@@std@@K@std@@@?$allocator@V_Aux_cont@std@@@std@@QAE@ABV?$allocator@U?$pair@$$CBV?$basic_string@DU?$char_traits@D@std@@V?$allocator@D@2@@std@@K@std@@@1@@Z 030107c0 f i MQ2Commands.obj
 0001:0000f7d0       ?GetUnused@?$CIndex@PAU_MQ2TypeMember@MQ2Internal@@@MQ2Internal@@QAEKXZ 030107d0 f i MQ2Commands.obj
 0001:0000f820       ?compare@?$basic_string@DU?$char_traits@D@std@@V?$allocator@D@2@@std@@QBEHIIPBDI@Z 03010820 f i MQ2Commands.obj
 0001:0000f890       ?_Key@?$_Tree@V?$_Tmap_traits@V?$basic_string@DU?$char_traits@D@std@@V?$allocator@D@2@@std@@KU?$less@V?$basic_string@DU?$char_traits@D@std@@V?$allocator@D@2@@std@@@2@V?$allocator@U?$pair@$$CBV?$basic_string@DU?$char_traits@D@std@@V?$allocator@D@2@@std@@K@std@@@2@$0A@@std@@@std@@KAABV?$basic_string@DU?$char_traits@D@std@@V?$allocator@D@2@@2@PAU_Node@?$_Tree_nod@V?$_Tmap_traits@V?$basic_string@DU?$char_traits@D@std@@V?$allocator@D@2@@std@@KU?$less@V?$basic_string@DU?$char_traits@D@std@@V?$allocator@D@2@@std@@@2@V?$allocator@U?$pair@$$CBV?$basic_string@DU?$char_traits@D@std@@V?$allocator@D@2@@std@@K@std@@@2@$0A@@std@@@2@@Z 03010890 f i MQ2Commands.obj
 0001:0000f8a0       ??1?$_Container_base_aux_alloc_real@V?$allocator@U?$pair@$$CBV?$basic_string@DU?$char_traits@D@std@@V?$allocator@D@2@@std@@K@std@@@std@@@std@@IAE@XZ 030108a0 f i MQ2Commands.obj
 0001:0000f8b0       ??Diterator@?$_Tree@V?$_Tmap_traits@V?$basic_string@DU?$char_traits@D@std@@V?$allocator@D@2@@std@@KU?$less@V?$basic_string@DU?$char_traits@D@std@@V?$allocator@D@2@@std@@@2@V?$allocator@U?$pair@$$CBV?$basic_string@DU?$char_traits@D@std@@V?$allocator@D@2@@std@@K@std@@@2@$0A@@std@@@std@@QBEAAU?$pair@$$CBV?$basic_string@DU?$char_traits@D@std@@V?$allocator@D@2@@std@@K@2@XZ 030108b0 f i MQ2Commands.obj
 0001:0000f8e0       ?destroy@?$allocator@PAU_Node@?$_Tree_nod@V?$_Tmap_traits@V?$basic_string@DU?$char_traits@D@std@@V?$allocator@D@2@@std@@KU?$less@V?$basic_string@DU?$char_traits@D@std@@V?$allocator@D@2@@std@@@2@V?$allocator@U?$pair@$$CBV?$basic_string@DU?$char_traits@D@std@@V?$allocator@D@2@@std@@K@std@@@2@$0A@@std@@@std@@@std@@QAEXPAPAU_Node@?$_Tree_nod@V?$_Tmap_traits@V?$basic_string@DU?$char_traits@D@std@@V?$allocator@D@2@@std@@KU?$less@V?$basic_string@DU?$char_traits@D@std@@V?$allocator@D@2@@std@@@2@V?$allocator@U?$pair@$$CBV?$basic_string@DU?$char_traits@D@std@@V?$allocator@D@2@@std@@K@std@@@2@$0A@@std@@@2@@Z 030108e0 f i MQ2Commands.obj
 0001:0000f8f0       ??0?$_Bidit@U?$pair@$$CBV?$basic_string@DU?$char_traits@D@std@@V?$allocator@D@2@@std@@K@std@@HPBU12@ABU12@@std@@QAE@XZ 030108f0 f i MQ2Commands.obj
 0001:0000f900       ?max_size@?$_Tree@V?$_Tmap_traits@V?$basic_string@DU?$char_traits@D@std@@V?$allocator@D@2@@std@@KU?$less@V?$basic_string@DU?$char_traits@D@std@@V?$allocator@D@2@@std@@@2@V?$allocator@U?$pair@$$CBV?$basic_string@DU?$char_traits@D@std@@V?$allocator@D@2@@std@@K@std@@@2@$0A@@std@@@std@@QBEIXZ 03010900 f i MQ2Commands.obj
 0001:0000f910       ?_Lrotate@?$_Tree@V?$_Tmap_traits@V?$basic_string@DU?$char_traits@D@std@@V?$allocator@D@2@@std@@KU?$less@V?$basic_string@DU?$char_traits@D@std@@V?$allocator@D@2@@std@@@2@V?$allocator@U?$pair@$$CBV?$basic_string@DU?$char_traits@D@std@@V?$allocator@D@2@@std@@K@std@@@2@$0A@@std@@@std@@IAEXPAU_Node@?$_Tree_nod@V?$_Tmap_traits@V?$basic_string@DU?$char_traits@D@std@@V?$allocator@D@2@@std@@KU?$less@V?$basic_string@DU?$char_traits@D@std@@V?$allocator@D@2@@std@@@2@V?$allocator@U?$pair@$$CBV?$basic_string@DU?$char_traits@D@std@@V?$allocator@D@2@@std@@K@std@@@2@$0A@@std@@@2@@Z 03010910 f i MQ2Commands.obj
 0001:0000f960       ??0const_iterator@?$_Tree@V?$_Tmap_traits@V?$basic_string@DU?$char_traits@D@std@@V?$allocator@D@2@@std@@KU?$less@V?$basic_string@DU?$char_traits@D@std@@V?$allocator@D@2@@std@@@2@V?$allocator@U?$pair@$$CBV?$basic_string@DU?$char_traits@D@std@@V?$allocator@D@2@@std@@K@std@@@2@$0A@@std@@@std@@QAE@PAU_Node@?$_Tree_nod@V?$_Tmap_traits@V?$basic_string@DU?$char_traits@D@std@@V?$allocator@D@2@@std@@KU?$less@V?$basic_string@DU?$char_traits@D@std@@V?$allocator@D@2@@std@@@2@V?$allocator@U?$pair@$$CBV?$basic_string@DU?$char_traits@D@std@@V?$allocator@D@2@@std@@K@std@@@2@$0A@@std@@@2@PBV12@@Z 03010960 f i MQ2Commands.obj
 0001:0000f990       ?_Dec@const_iterator@?$_Tree@V?$_Tmap_traits@V?$basic_string@DU?$char_traits@D@std@@V?$allocator@D@2@@std@@KU?$less@V?$basic_string@DU?$char_traits@D@std@@V?$allocator@D@2@@std@@@2@V?$allocator@U?$pair@$$CBV?$basic_string@DU?$char_traits@D@std@@V?$allocator@D@2@@std@@K@std@@@2@$0A@@std@@@std@@QAEXXZ 03010990 f i MQ2Commands.obj
 0001:0000fa20       ?_Inc@const_iterator@?$_Tree@V?$_Tmap_traits@V?$basic_string@DU?$char_traits@D@std@@V?$allocator@D@2@@std@@KU?$less@V?$basic_string@DU?$char_traits@D@std@@V?$allocator@D@2@@std@@@2@V?$allocator@U?$pair@$$CBV?$basic_string@DU?$char_traits@D@std@@V?$allocator@D@2@@std@@K@std@@@2@$0A@@std@@@std@@QAEXXZ 03010a20 f i MQ2Commands.obj
 0001:0000fa90       ?allocate@?$allocator@U_Node@?$_Tree_nod@V?$_Tmap_traits@V?$basic_string@DU?$char_traits@D@std@@V?$allocator@D@2@@std@@KU?$less@V?$basic_string@DU?$char_traits@D@std@@V?$allocator@D@2@@std@@@2@V?$allocator@U?$pair@$$CBV?$basic_string@DU?$char_traits@D@std@@V?$allocator@D@2@@std@@K@std@@@2@$0A@@std@@@std@@@std@@QAEPAU_Node@?$_Tree_nod@V?$_Tmap_traits@V?$basic_string@DU?$char_traits@D@std@@V?$allocator@D@2@@std@@KU?$less@V?$basic_string@DU?$char_traits@D@std@@V?$allocator@D@2@@std@@@2@V?$allocator@U?$pair@$$CBV?$basic_string@DU?$char_traits@D@std@@V?$allocator@D@2@@std@@K@std@@@2@$0A@@std@@@2@I@Z 03010a90 f i MQ2Commands.obj
 0001:0000fab0       ?construct@?$allocator@PAU_Node@?$_Tree_nod@V?$_Tmap_traits@V?$basic_string@DU?$char_traits@D@std@@V?$allocator@D@2@@std@@KU?$less@V?$basic_string@DU?$char_traits@D@std@@V?$allocator@D@2@@std@@@2@V?$allocator@U?$pair@$$CBV?$basic_string@DU?$char_traits@D@std@@V?$allocator@D@2@@std@@K@std@@@2@$0A@@std@@@std@@@std@@QAEXPAPAU_Node@?$_Tree_nod@V?$_Tmap_traits@V?$basic_string@DU?$char_traits@D@std@@V?$allocator@D@2@@std@@KU?$less@V?$basic_string@DU?$char_traits@D@std@@V?$allocator@D@2@@std@@@2@V?$allocator@U?$pair@$$CBV?$basic_string@DU?$char_traits@D@std@@V?$allocator@D@2@@std@@K@std@@@2@$0A@@std@@@2@ABQAU342@@Z 03010ab0 f i MQ2Commands.obj
 0001:0000fad0       ?compare@?$basic_string@DU?$char_traits@D@std@@V?$allocator@D@2@@std@@QBEHABV12@@Z 03010ad0 f i MQ2Commands.obj
 0001:0000fb10       ??1?$_Tmap_traits@V?$basic_string@DU?$char_traits@D@std@@V?$allocator@D@2@@std@@KU?$less@V?$basic_string@DU?$char_traits@D@std@@V?$allocator@D@2@@std@@@2@V?$allocator@U?$pair@$$CBV?$basic_string@DU?$char_traits@D@std@@V?$allocator@D@2@@std@@K@std@@@2@$0A@@std@@QAE@XZ 03010b10 f i MQ2Commands.obj
 0001:0000fb20       ??0iterator@?$_Tree@V?$_Tmap_traits@V?$basic_string@DU?$char_traits@D@std@@V?$allocator@D@2@@std@@KU?$less@V?$basic_string@DU?$char_traits@D@std@@V?$allocator@D@2@@std@@@2@V?$allocator@U?$pair@$$CBV?$basic_string@DU?$char_traits@D@std@@V?$allocator@D@2@@std@@K@std@@@2@$0A@@std@@@std@@QAE@PAU_Node@?$_Tree_nod@V?$_Tmap_traits@V?$basic_string@DU?$char_traits@D@std@@V?$allocator@D@2@@std@@KU?$less@V?$basic_string@DU?$char_traits@D@std@@V?$allocator@D@2@@std@@@2@V?$allocator@U?$pair@$$CBV?$basic_string@DU?$char_traits@D@std@@V?$allocator@D@2@@std@@K@std@@@2@$0A@@std@@@2@PBV12@@Z 03010b20 f i MQ2Commands.obj
 0001:0000fb50       ??0const_iterator@?$_Tree@V?$_Tmap_traits@V?$basic_string@DU?$char_traits@D@std@@V?$allocator@D@2@@std@@KU?$less@V?$basic_string@DU?$char_traits@D@std@@V?$allocator@D@2@@std@@@2@V?$allocator@U?$pair@$$CBV?$basic_string@DU?$char_traits@D@std@@V?$allocator@D@2@@std@@K@std@@@2@$0A@@std@@@std@@QAE@XZ 03010b50 f i MQ2Commands.obj
 0001:0000fb60       ??Econst_iterator@?$_Tree@V?$_Tmap_traits@V?$basic_string@DU?$char_traits@D@std@@V?$allocator@D@2@@std@@KU?$less@V?$basic_string@DU?$char_traits@D@std@@V?$allocator@D@2@@std@@@2@V?$allocator@U?$pair@$$CBV?$basic_string@DU?$char_traits@D@std@@V?$allocator@D@2@@std@@K@std@@@2@$0A@@std@@@std@@QAEAAV012@XZ 03010b60 f i MQ2Commands.obj
 0001:0000fb70       ??Fconst_iterator@?$_Tree@V?$_Tmap_traits@V?$basic_string@DU?$char_traits@D@std@@V?$allocator@D@2@@std@@KU?$less@V?$basic_string@DU?$char_traits@D@std@@V?$allocator@D@2@@std@@@2@V?$allocator@U?$pair@$$CBV?$basic_string@DU?$char_traits@D@std@@V?$allocator@D@2@@std@@K@std@@@2@$0A@@std@@@std@@QAEAAV012@XZ 03010b70 f i MQ2Commands.obj
 0001:0000fb80       ?_Make_iter@?$_Tree@V?$_Tmap_traits@V?$basic_string@DU?$char_traits@D@std@@V?$allocator@D@2@@std@@KU?$less@V?$basic_string@DU?$char_traits@D@std@@V?$allocator@D@2@@std@@@2@V?$allocator@U?$pair@$$CBV?$basic_string@DU?$char_traits@D@std@@V?$allocator@D@2@@std@@K@std@@@2@$0A@@std@@@std@@QBE?AViterator@12@Vconst_iterator@12@@Z 03010b80 f i MQ2Commands.obj
 0001:0000fbb0       ?_Buynode@?$_Tree@V?$_Tmap_traits@V?$basic_string@DU?$char_traits@D@std@@V?$allocator@D@2@@std@@KU?$less@V?$basic_string@DU?$char_traits@D@std@@V?$allocator@D@2@@std@@@2@V?$allocator@U?$pair@$$CBV?$basic_string@DU?$char_traits@D@std@@V?$allocator@D@2@@std@@K@std@@@2@$0A@@std@@@std@@IAEPAU_Node@?$_Tree_nod@V?$_Tmap_traits@V?$basic_string@DU?$char_traits@D@std@@V?$allocator@D@2@@std@@KU?$less@V?$basic_string@DU?$char_traits@D@std@@V?$allocator@D@2@@std@@@2@V?$allocator@U?$pair@$$CBV?$basic_string@DU?$char_traits@D@std@@V?$allocator@D@2@@std@@K@std@@@2@$0A@@std@@@2@XZ 03010bb0 f i MQ2Commands.obj
 0001:0000fc50       ??Fiterator@?$_Tree@V?$_Tmap_traits@V?$basic_string@DU?$char_traits@D@std@@V?$allocator@D@2@@std@@KU?$less@V?$basic_string@DU?$char_traits@D@std@@V?$allocator@D@2@@std@@@2@V?$allocator@U?$pair@$$CBV?$basic_string@DU?$char_traits@D@std@@V?$allocator@D@2@@std@@K@std@@@2@$0A@@std@@@std@@QAEAAV012@XZ 03010c50 f i MQ2Commands.obj
 0001:0000fc60       ??Econst_iterator@?$_Tree@V?$_Tmap_traits@V?$basic_string@DU?$char_traits@D@std@@V?$allocator@D@2@@std@@KU?$less@V?$basic_string@DU?$char_traits@D@std@@V?$allocator@D@2@@std@@@2@V?$allocator@U?$pair@$$CBV?$basic_string@DU?$char_traits@D@std@@V?$allocator@D@2@@std@@K@std@@@2@$0A@@std@@@std@@QAE?AV012@H@Z 03010c60 f i MQ2Commands.obj
 0001:0000fc80       ??0?$_Container_base_aux_alloc_real@V?$allocator@U?$pair@$$CBV?$basic_string@DU?$char_traits@D@std@@V?$allocator@D@2@@std@@K@std@@@std@@@std@@IAE@V?$allocator@U?$pair@$$CBV?$basic_string@DU?$char_traits@D@std@@V?$allocator@D@2@@std@@K@std@@@1@@Z 03010c80 f i MQ2Commands.obj
 0001:0000fcb0       ??$?MDU?$char_traits@D@std@@V?$allocator@D@1@@std@@YA_NABV?$basic_string@DU?$char_traits@D@std@@V?$allocator@D@2@@0@0@Z 03010cb0 f i MQ2Commands.obj
 0001:0000fce0       ??1?$pair@$$CBV?$basic_string@DU?$char_traits@D@std@@V?$allocator@D@2@@std@@K@std@@QAE@XZ 03010ce0 f i MQ2Commands.obj
 0001:0000fd10       ??1?$_Tree_nod@V?$_Tmap_traits@V?$basic_string@DU?$char_traits@D@std@@V?$allocator@D@2@@std@@KU?$less@V?$basic_string@DU?$char_traits@D@std@@V?$allocator@D@2@@std@@@2@V?$allocator@U?$pair@$$CBV?$basic_string@DU?$char_traits@D@std@@V?$allocator@D@2@@std@@K@std@@@2@$0A@@std@@@std@@QAE@XZ 03010d10 f i MQ2Commands.obj
 0001:0000fd20       ?end@?$_Tree@V?$_Tmap_traits@V?$basic_string@DU?$char_traits@D@std@@V?$allocator@D@2@@std@@KU?$less@V?$basic_string@DU?$char_traits@D@std@@V?$allocator@D@2@@std@@@2@V?$allocator@U?$pair@$$CBV?$basic_string@DU?$char_traits@D@std@@V?$allocator@D@2@@std@@K@std@@@2@$0A@@std@@@std@@QAE?AViterator@12@XZ 03010d20 f i MQ2Commands.obj
 0001:0000fd40       ??R?$less@V?$basic_string@DU?$char_traits@D@std@@V?$allocator@D@2@@std@@@std@@QBE_NABV?$basic_string@DU?$char_traits@D@std@@V?$allocator@D@2@@1@0@Z 03010d40 f i MQ2Commands.obj
 0001:0000fd80       ?begin@?$_Tree@V?$_Tmap_traits@V?$basic_string@DU?$char_traits@D@std@@V?$allocator@D@2@@std@@KU?$less@V?$basic_string@DU?$char_traits@D@std@@V?$allocator@D@2@@std@@@2@V?$allocator@U?$pair@$$CBV?$basic_string@DU?$char_traits@D@std@@V?$allocator@D@2@@std@@K@std@@@2@$0A@@std@@@std@@QAE?AViterator@12@XZ 03010d80 f i MQ2Commands.obj
 0001:0000fda0       ?_Init@?$_Tree@V?$_Tmap_traits@V?$basic_string@DU?$char_traits@D@std@@V?$allocator@D@2@@std@@KU?$less@V?$basic_string@DU?$char_traits@D@std@@V?$allocator@D@2@@std@@@2@V?$allocator@U?$pair@$$CBV?$basic_string@DU?$char_traits@D@std@@V?$allocator@D@2@@std@@K@std@@@2@$0A@@std@@@std@@IAEXXZ 03010da0 f i MQ2Commands.obj
 0001:0000fdd0       ?_Lbound@?$_Tree@V?$_Tmap_traits@V?$basic_string@DU?$char_traits@D@std@@V?$allocator@D@2@@std@@KU?$less@V?$basic_string@DU?$char_traits@D@std@@V?$allocator@D@2@@std@@@2@V?$allocator@U?$pair@$$CBV?$basic_string@DU?$char_traits@D@std@@V?$allocator@D@2@@std@@K@std@@@2@$0A@@std@@@std@@IBEPAU_Node@?$_Tree_nod@V?$_Tmap_traits@V?$basic_string@DU?$char_traits@D@std@@V?$allocator@D@2@@std@@KU?$less@V?$basic_string@DU?$char_traits@D@std@@V?$allocator@D@2@@std@@@2@V?$allocator@U?$pair@$$CBV?$basic_string@DU?$char_traits@D@std@@V?$allocator@D@2@@std@@K@std@@@2@$0A@@std@@@2@ABV?$basic_string@DU?$char_traits@D@std@@V?$allocator@D@2@@2@@Z 03010dd0 f i MQ2Commands.obj
 0001:0000fe60       ??0?$_Tmap_traits@V?$basic_string@DU?$char_traits@D@std@@V?$allocator@D@2@@std@@KU?$less@V?$basic_string@DU?$char_traits@D@std@@V?$allocator@D@2@@std@@@2@V?$allocator@U?$pair@$$CBV?$basic_string@DU?$char_traits@D@std@@V?$allocator@D@2@@std@@K@std@@@2@$0A@@std@@QAE@U?$less@V?$basic_string@DU?$char_traits@D@std@@V?$allocator@D@2@@std@@@1@V?$allocator@U?$pair@$$CBV?$basic_string@DU?$char_traits@D@std@@V?$allocator@D@2@@std@@K@std@@@1@@Z 03010e60 f i MQ2Commands.obj
 0001:0000fe90       ??1_Node@?$_Tree_nod@V?$_Tmap_traits@V?$basic_string@DU?$char_traits@D@std@@V?$allocator@D@2@@std@@KU?$less@V?$basic_string@DU?$char_traits@D@std@@V?$allocator@D@2@@std@@@2@V?$allocator@U?$pair@$$CBV?$basic_string@DU?$char_traits@D@std@@V?$allocator@D@2@@std@@K@std@@@2@$0A@@std@@@std@@QAE@XZ 03010e90 f i MQ2Commands.obj
 0001:0000fec0       ??1?$_Tree_ptr@V?$_Tmap_traits@V?$basic_string@DU?$char_traits@D@std@@V?$allocator@D@2@@std@@KU?$less@V?$basic_string@DU?$char_traits@D@std@@V?$allocator@D@2@@std@@@2@V?$allocator@U?$pair@$$CBV?$basic_string@DU?$char_traits@D@std@@V?$allocator@D@2@@std@@K@std@@@2@$0A@@std@@@std@@QAE@XZ 03010ec0 f i MQ2Commands.obj
 0001:0000fed0       ?lower_bound@?$_Tree@V?$_Tmap_traits@V?$basic_string@DU?$char_traits@D@std@@V?$allocator@D@2@@std@@KU?$less@V?$basic_string@DU?$char_traits@D@std@@V?$allocator@D@2@@std@@@2@V?$allocator@U?$pair@$$CBV?$basic_string@DU?$char_traits@D@std@@V?$allocator@D@2@@std@@K@std@@@2@$0A@@std@@@std@@QAE?AViterator@12@ABV?$basic_string@DU?$char_traits@D@std@@V?$allocator@D@2@@2@@Z 03010ed0 f i MQ2Commands.obj
 0001:0000ff00       ??0?$_Tree_nod@V?$_Tmap_traits@V?$basic_string@DU?$char_traits@D@std@@V?$allocator@D@2@@std@@KU?$less@V?$basic_string@DU?$char_traits@D@std@@V?$allocator@D@2@@std@@@2@V?$allocator@U?$pair@$$CBV?$basic_string@DU?$char_traits@D@std@@V?$allocator@D@2@@std@@K@std@@@2@$0A@@std@@@std@@IAE@ABU?$less@V?$basic_string@DU?$char_traits@D@std@@V?$allocator@D@2@@std@@@1@V?$allocator@U?$pair@$$CBV?$basic_string@DU?$char_traits@D@std@@V?$allocator@D@2@@std@@K@std@@@1@@Z 03010f00 f i MQ2Commands.obj
 0001:0000ff30       ??_G_Node@?$_Tree_nod@V?$_Tmap_traits@V?$basic_string@DU?$char_traits@D@std@@V?$allocator@D@2@@std@@KU?$less@V?$basic_string@DU?$char_traits@D@std@@V?$allocator@D@2@@std@@@2@V?$allocator@U?$pair@$$CBV?$basic_string@DU?$char_traits@D@std@@V?$allocator@D@2@@std@@K@std@@@2@$0A@@std@@@std@@QAEPAXI@Z 03010f30 f i MQ2Commands.obj
 0001:0000ff70       ??1?$_Tree_val@V?$_Tmap_traits@V?$basic_string@DU?$char_traits@D@std@@V?$allocator@D@2@@std@@KU?$less@V?$basic_string@DU?$char_traits@D@std@@V?$allocator@D@2@@std@@@2@V?$allocator@U?$pair@$$CBV?$basic_string@DU?$char_traits@D@std@@V?$allocator@D@2@@std@@K@std@@@2@$0A@@std@@@std@@QAE@XZ 03010f70 f i MQ2Commands.obj
 0001:0000ff80       ??0?$pair@$$CBV?$basic_string@DU?$char_traits@D@std@@V?$allocator@D@2@@std@@K@std@@QAE@ABV?$basic_string@DU?$char_traits@D@std@@V?$allocator@D@2@@1@ABK@Z 03010f80 f i MQ2Commands.obj
 0001:0000ffb0       ??0?$_Tree_ptr@V?$_Tmap_traits@V?$basic_string@DU?$char_traits@D@std@@V?$allocator@D@2@@std@@KU?$less@V?$basic_string@DU?$char_traits@D@std@@V?$allocator@D@2@@std@@@2@V?$allocator@U?$pair@$$CBV?$basic_string@DU?$char_traits@D@std@@V?$allocator@D@2@@std@@K@std@@@2@$0A@@std@@@std@@IAE@ABU?$less@V?$basic_string@DU?$char_traits@D@std@@V?$allocator@D@2@@std@@@1@V?$allocator@U?$pair@$$CBV?$basic_string@DU?$char_traits@D@std@@V?$allocator@D@2@@std@@K@std@@@1@@Z 03010fb0 f i MQ2Commands.obj
 0001:0000ffe0       ??0?$pair@$$CBV?$basic_string@DU?$char_traits@D@std@@V?$allocator@D@2@@std@@K@std@@QAE@ABU01@@Z 03010fe0 f i MQ2Commands.obj
 0001:00010010       ??$_Destroy@U_Node@?$_Tree_nod@V?$_Tmap_traits@V?$basic_string@DU?$char_traits@D@std@@V?$allocator@D@2@@std@@KU?$less@V?$basic_string@DU?$char_traits@D@std@@V?$allocator@D@2@@std@@@2@V?$allocator@U?$pair@$$CBV?$basic_string@DU?$char_traits@D@std@@V?$allocator@D@2@@std@@K@std@@@2@$0A@@std@@@std@@@std@@YAXPAU_Node@?$_Tree_nod@V?$_Tmap_traits@V?$basic_string@DU?$char_traits@D@std@@V?$allocator@D@2@@std@@KU?$less@V?$basic_string@DU?$char_traits@D@std@@V?$allocator@D@2@@std@@@2@V?$allocator@U?$pair@$$CBV?$basic_string@DU?$char_traits@D@std@@V?$allocator@D@2@@std@@K@std@@@2@$0A@@std@@@0@@Z 03011010 f i MQ2Commands.obj
 0001:00010040       ??0length_error@std@@QAE@ABV?$basic_string@DU?$char_traits@D@std@@V?$allocator@D@2@@1@@Z 03011040 f i MQ2Commands.obj
 0001:00010080       ??1length_error@std@@UAE@XZ 03011080 f i MQ2Commands.obj
 0001:000100c0       ??_Elength_error@std@@UAEPAXI@Z 030110c0 f i MQ2Commands.obj
 0001:000100c0       ??_Glength_error@std@@UAEPAXI@Z 030110c0 f i MQ2Commands.obj
 0001:00010110       ??0?$_Tree_val@V?$_Tmap_traits@V?$basic_string@DU?$char_traits@D@std@@V?$allocator@D@2@@std@@KU?$less@V?$basic_string@DU?$char_traits@D@std@@V?$allocator@D@2@@std@@@2@V?$allocator@U?$pair@$$CBV?$basic_string@DU?$char_traits@D@std@@V?$allocator@D@2@@std@@K@std@@@2@$0A@@std@@@std@@IAE@ABU?$less@V?$basic_string@DU?$char_traits@D@std@@V?$allocator@D@2@@std@@@1@V?$allocator@U?$pair@$$CBV?$basic_string@DU?$char_traits@D@std@@V?$allocator@D@2@@std@@K@std@@@1@@Z 03011110 f i MQ2Commands.obj
 0001:00010140       ?destroy@?$allocator@U_Node@?$_Tree_nod@V?$_Tmap_traits@V?$basic_string@DU?$char_traits@D@std@@V?$allocator@D@2@@std@@KU?$less@V?$basic_string@DU?$char_traits@D@std@@V?$allocator@D@2@@std@@@2@V?$allocator@U?$pair@$$CBV?$basic_string@DU?$char_traits@D@std@@V?$allocator@D@2@@std@@K@std@@@2@$0A@@std@@@std@@@std@@QAEXPAU_Node@?$_Tree_nod@V?$_Tmap_traits@V?$basic_string@DU?$char_traits@D@std@@V?$allocator@D@2@@std@@KU?$less@V?$basic_string@DU?$char_traits@D@std@@V?$allocator@D@2@@std@@@2@V?$allocator@U?$pair@$$CBV?$basic_string@DU?$char_traits@D@std@@V?$allocator@D@2@@std@@K@std@@@2@$0A@@std@@@2@@Z 03011140 f i MQ2Commands.obj
 0001:00010170       ??0_Node@?$_Tree_nod@V?$_Tmap_traits@V?$basic_string@DU?$char_traits@D@std@@V?$allocator@D@2@@std@@KU?$less@V?$basic_string@DU?$char_traits@D@std@@V?$allocator@D@2@@std@@@2@V?$allocator@U?$pair@$$CBV?$basic_string@DU?$char_traits@D@std@@V?$allocator@D@2@@std@@K@std@@@2@$0A@@std@@@std@@QAE@PAU012@00ABU?$pair@$$CBV?$basic_string@DU?$char_traits@D@std@@V?$allocator@D@2@@std@@K@2@D@Z 03011170 f i MQ2Commands.obj
 0001:000101d0       ??0?$_Tree@V?$_Tmap_traits@V?$basic_string@DU?$char_traits@D@std@@V?$allocator@D@2@@std@@KU?$less@V?$basic_string@DU?$char_traits@D@std@@V?$allocator@D@2@@std@@@2@V?$allocator@U?$pair@$$CBV?$basic_string@DU?$char_traits@D@std@@V?$allocator@D@2@@std@@K@std@@@2@$0A@@std@@@std@@QAE@ABU?$less@V?$basic_string@DU?$char_traits@D@std@@V?$allocator@D@2@@std@@@1@ABV?$allocator@U?$pair@$$CBV?$basic_string@DU?$char_traits@D@std@@V?$allocator@D@2@@std@@K@std@@@1@@Z 030111d0 f i MQ2Commands.obj
 0001:00010220       ?erase@?$_Tree@V?$_Tmap_traits@V?$basic_string@DU?$char_traits@D@std@@V?$allocator@D@2@@std@@KU?$less@V?$basic_string@DU?$char_traits@D@std@@V?$allocator@D@2@@std@@@2@V?$allocator@U?$pair@$$CBV?$basic_string@DU?$char_traits@D@std@@V?$allocator@D@2@@std@@K@std@@@2@$0A@@std@@@std@@QAE?AViterator@12@Vconst_iterator@12@@Z 03011220 f i MQ2Commands.obj
 0001:00010500       ?_Buynode@?$_Tree@V?$_Tmap_traits@V?$basic_string@DU?$char_traits@D@std@@V?$allocator@D@2@@std@@KU?$less@V?$basic_string@DU?$char_traits@D@std@@V?$allocator@D@2@@std@@@2@V?$allocator@U?$pair@$$CBV?$basic_string@DU?$char_traits@D@std@@V?$allocator@D@2@@std@@K@std@@@2@$0A@@std@@@std@@IAEPAU_Node@?$_Tree_nod@V?$_Tmap_traits@V?$basic_string@DU?$char_traits@D@std@@V?$allocator@D@2@@std@@KU?$less@V?$basic_string@DU?$char_traits@D@std@@V?$allocator@D@2@@std@@@2@V?$allocator@U?$pair@$$CBV?$basic_string@DU?$char_traits@D@std@@V?$allocator@D@2@@std@@K@std@@@2@$0A@@std@@@2@PAU342@00ABU?$pair@$$CBV?$basic_string@DU?$char_traits@D@std@@V?$allocator@D@2@@std@@K@2@D@Z 03011500 f i MQ2Commands.obj
 0001:00010590       ?_Erase@?$_Tree@V?$_Tmap_traits@V?$basic_string@DU?$char_traits@D@std@@V?$allocator@D@2@@std@@KU?$less@V?$basic_string@DU?$char_traits@D@std@@V?$allocator@D@2@@std@@@2@V?$allocator@U?$pair@$$CBV?$basic_string@DU?$char_traits@D@std@@V?$allocator@D@2@@std@@K@std@@@2@$0A@@std@@@std@@IAEXPAU_Node@?$_Tree_nod@V?$_Tmap_traits@V?$basic_string@DU?$char_traits@D@std@@V?$allocator@D@2@@std@@KU?$less@V?$basic_string@DU?$char_traits@D@std@@V?$allocator@D@2@@std@@@2@V?$allocator@U?$pair@$$CBV?$basic_string@DU?$char_traits@D@std@@V?$allocator@D@2@@std@@K@std@@@2@$0A@@std@@@2@@Z 03011590 f i MQ2Commands.obj
 0001:000105f0       ?_Insert@?$_Tree@V?$_Tmap_traits@V?$basic_string@DU?$char_traits@D@std@@V?$allocator@D@2@@std@@KU?$less@V?$basic_string@DU?$char_traits@D@std@@V?$allocator@D@2@@std@@@2@V?$allocator@U?$pair@$$CBV?$basic_string@DU?$char_traits@D@std@@V?$allocator@D@2@@std@@K@std@@@2@$0A@@std@@@std@@IAE?AViterator@12@_NPAU_Node@?$_Tree_nod@V?$_Tmap_traits@V?$basic_string@DU?$char_traits@D@std@@V?$allocator@D@2@@std@@KU?$less@V?$basic_string@DU?$char_traits@D@std@@V?$allocator@D@2@@std@@@2@V?$allocator@U?$pair@$$CBV?$basic_string@DU?$char_traits@D@std@@V?$allocator@D@2@@std@@K@std@@@2@$0A@@std@@@2@ABU?$pair@$$CBV?$basic_string@DU?$char_traits@D@std@@V?$allocator@D@2@@std@@K@2@@Z 030115f0 f i MQ2Commands.obj
 0001:000107e0       ??0length_error@std@@QAE@ABV01@@Z 030117e0 f i MQ2Commands.obj
 0001:00010820       ?clear@?$_Tree@V?$_Tmap_traits@V?$basic_string@DU?$char_traits@D@std@@V?$allocator@D@2@@std@@KU?$less@V?$basic_string@DU?$char_traits@D@std@@V?$allocator@D@2@@std@@@2@V?$allocator@U?$pair@$$CBV?$basic_string@DU?$char_traits@D@std@@V?$allocator@D@2@@std@@K@std@@@2@$0A@@std@@@std@@QAEXXZ 03011820 f i MQ2Commands.obj
 0001:00010850       ?insert@?$_Tree@V?$_Tmap_traits@V?$basic_string@DU?$char_traits@D@std@@V?$allocator@D@2@@std@@KU?$less@V?$basic_string@DU?$char_traits@D@std@@V?$allocator@D@2@@std@@@2@V?$allocator@U?$pair@$$CBV?$basic_string@DU?$char_traits@D@std@@V?$allocator@D@2@@std@@K@std@@@2@$0A@@std@@@std@@QAE?AU?$pair@Viterator@?$_Tree@V?$_Tmap_traits@V?$basic_string@DU?$char_traits@D@std@@V?$allocator@D@2@@std@@KU?$less@V?$basic_string@DU?$char_traits@D@std@@V?$allocator@D@2@@std@@@2@V?$allocator@U?$pair@$$CBV?$basic_string@DU?$char_traits@D@std@@V?$allocator@D@2@@std@@K@std@@@2@$0A@@std@@@std@@_N@2@ABU?$pair@$$CBV?$basic_string@DU?$char_traits@D@std@@V?$allocator@D@2@@std@@K@2@@Z 03011850 f i MQ2Commands.obj
 0001:000109b0       ?erase@?$_Tree@V?$_Tmap_traits@V?$basic_string@DU?$char_traits@D@std@@V?$allocator@D@2@@std@@KU?$less@V?$basic_string@DU?$char_traits@D@std@@V?$allocator@D@2@@std@@@2@V?$allocator@U?$pair@$$CBV?$basic_string@DU?$char_traits@D@std@@V?$allocator@D@2@@std@@K@std@@@2@$0A@@std@@@std@@QAE?AViterator@12@Vconst_iterator@12@0@Z 030119b0 f i MQ2Commands.obj
 0001:00010a90       ?insert@?$_Tree@V?$_Tmap_traits@V?$basic_string@DU?$char_traits@D@std@@V?$allocator@D@2@@std@@KU?$less@V?$basic_string@DU?$char_traits@D@std@@V?$allocator@D@2@@std@@@2@V?$allocator@U?$pair@$$CBV?$basic_string@DU?$char_traits@D@std@@V?$allocator@D@2@@std@@K@std@@@2@$0A@@std@@@std@@QAE?AViterator@12@Vconst_iterator@12@ABU?$pair@$$CBV?$basic_string@DU?$char_traits@D@std@@V?$allocator@D@2@@std@@K@2@@Z 03011a90 f i MQ2Commands.obj
 0001:00010cc0       ?_Tidy@?$_Tree@V?$_Tmap_traits@V?$basic_string@DU?$char_traits@D@std@@V?$allocator@D@2@@std@@KU?$less@V?$basic_string@DU?$char_traits@D@std@@V?$allocator@D@2@@std@@@2@V?$allocator@U?$pair@$$CBV?$basic_string@DU?$char_traits@D@std@@V?$allocator@D@2@@std@@K@std@@@2@$0A@@std@@@std@@IAEXXZ 03011cc0 f i MQ2Commands.obj
 0001:00010d00       ??A?$map@V?$basic_string@DU?$char_traits@D@std@@V?$allocator@D@2@@std@@KU?$less@V?$basic_string@DU?$char_traits@D@std@@V?$allocator@D@2@@std@@@2@V?$allocator@U?$pair@$$CBV?$basic_string@DU?$char_traits@D@std@@V?$allocator@D@2@@std@@K@std@@@2@@std@@QAEAAKABV?$basic_string@DU?$char_traits@D@std@@V?$allocator@D@2@@1@@Z 03011d00 f i MQ2Commands.obj
 0001:00010df0       ??1?$_Tree@V?$_Tmap_traits@V?$basic_string@DU?$char_traits@D@std@@V?$allocator@D@2@@std@@KU?$less@V?$basic_string@DU?$char_traits@D@std@@V?$allocator@D@2@@std@@@2@V?$allocator@U?$pair@$$CBV?$basic_string@DU?$char_traits@D@std@@V?$allocator@D@2@@std@@K@std@@@2@$0A@@std@@@std@@QAE@XZ 03011df0 f i MQ2Commands.obj
 0001:00010e30       ?AddMember@MQ2Type@MQ2Internal@@IAEHKPAD@Z 03011e30 f i MQ2Commands.obj
 0001:00010f30       ??1?$map@V?$basic_string@DU?$char_traits@D@std@@V?$allocator@D@2@@std@@KU?$less@V?$basic_string@DU?$char_traits@D@std@@V?$allocator@D@2@@std@@@2@V?$allocator@U?$pair@$$CBV?$basic_string@DU?$char_traits@D@std@@V?$allocator@D@2@@std@@K@std@@@2@@std@@QAE@XZ 03011f30 f i MQ2Commands.obj
 0001:00010f70       ??0?$map@V?$basic_string@DU?$char_traits@D@std@@V?$allocator@D@2@@std@@KU?$less@V?$basic_string@DU?$char_traits@D@std@@V?$allocator@D@2@@std@@@2@V?$allocator@U?$pair@$$CBV?$basic_string@DU?$char_traits@D@std@@V?$allocator@D@2@@std@@K@std@@@2@@std@@QAE@XZ 03011f70 f i MQ2Commands.obj
 0001:00010fc0       ??0MQ2Type@MQ2Internal@@QAE@PAD@Z 03011fc0 f i MQ2Commands.obj
 0001:00011050       ?InitVariable@MQ2Type@MQ2Internal@@UAEXAAU_MQ2VarPtr@2@@Z 03012050 f i MQ2Commands.obj
 0001:00011060       ?FreeVariable@MQ2Type@MQ2Internal@@UAEXAAU_MQ2VarPtr@2@@Z 03012060 f i MQ2Commands.obj
 0001:00011070       ?ToString@MQ2Type@MQ2Internal@@UAE_NU_MQ2VarPtr@2@PAD@Z 03012070 f i MQ2Commands.obj
 0001:00011090       ??1MQ2Type@MQ2Internal@@QAE@XZ 03012090 f i MQ2Commands.obj
 0001:00011130       ??0MQ2TicksType@@QAE@XZ    03012130 f i MQ2Commands.obj
 0001:000111c0       ?ToString@MQ2TicksType@@UAE_NU_MQ2VarPtr@MQ2Internal@@PAD@Z 030121c0 f i MQ2Commands.obj
 0001:000111e0       ?FromData@MQ2TicksType@@UAE_NAAU_MQ2VarPtr@MQ2Internal@@AAU_MQ2TypeVar@3@@Z 030121e0 f i MQ2Commands.obj
 0001:00011200       ?FromString@MQ2TicksType@@UAE_NAAU_MQ2VarPtr@MQ2Internal@@PAD@Z 03012200 f i MQ2Commands.obj
 0001:00011220       ??1MQ2TicksType@@QAE@XZ    03012220 f i MQ2Commands.obj
 0001:00011230       _AltAbility                03012230 f   MQ2Commands.obj
 0001:00011ad0       _dataSpawn                 03012ad0 f   MQ2Data.obj
 0001:00011bb0       _dataSelect                03012bb0 f   MQ2Data.obj
 0001:00011cd0       _dataTarget                03012cd0 f   MQ2Data.obj
 0001:00011d00       _dataCharacter             03012d00 f   MQ2Data.obj
 0001:00011d30       _dataSpell                 03012d30 f   MQ2Data.obj
 0001:00011dd0       _dataSwitch                03012dd0 f   MQ2Data.obj
 0001:00011e00       _dataGroundItem            03012e00 f   MQ2Data.obj
 0001:00011e30       _dataMerchant              03012e30 f   MQ2Data.obj
 0001:00011e60       _dataCorpse                03012e60 f   MQ2Data.obj
 0001:00011e90       _dataWindow                03012e90 f   MQ2Data.obj
 0001:00011ec0       _dataMacro                 03012ec0 f   MQ2Data.obj
 0001:00011ef0       _dataMacroQuest            03012ef0 f   MQ2Data.obj
 0001:00011f10       _dataMath                  03012f10 f   MQ2Data.obj
 0001:00011f30       _dataZone                  03012f30 f   MQ2Data.obj
 0001:00011ff0       _dataInt                   03012ff0 f   MQ2Data.obj
 0001:00012020       _dataString                03013020 f   MQ2Data.obj
 0001:00012030       _dataFloat                 03013030 f   MQ2Data.obj
 0001:00012060       _dataHeading               03013060 f   MQ2Data.obj
 0001:00012180       _dataBool                  03013180 f   MQ2Data.obj
 0001:00012220       _dataGroup                 03013220 f   MQ2Data.obj
 0001:00012240       _dataIf                    03013240 f   MQ2Data.obj
 0001:00012320       _dataCursor                03013320 f   MQ2Data.obj
 0001:00012360       _dataLastSpawn             03013360 f   MQ2Data.obj
 0001:00012430       _dataNearestSpawn          03013430 f   MQ2Data.obj
 0001:00012560       _dataSpawnCount            03013560 f   MQ2Data.obj
 0001:000125f0       _dataTime                  030135f0 f   MQ2Data.obj
 0001:00012620       _dataGameTime              03013620 f   MQ2Data.obj
 0001:000126b0       _dataIni                   030136b0 f   MQ2Data.obj
 0001:00012960       _dataDefined               03013960 f   MQ2Data.obj
 0001:000129a0       _dataSelectedItem          030139a0 f   MQ2Data.obj
 0001:000129e0       _dataFindItemBank          030139e0 f   MQ2Data.obj
 0001:00012c40       _dataFindItem              03013c40 f   MQ2Data.obj
 0001:00012ed0       _dataFindItemCount         03013ed0 f   MQ2Data.obj
 0001:00013140       _dataFindItemBankCount     03014140 f   MQ2Data.obj
 0001:000133b0       _dataPlugin                030143b0 f   MQ2Data.obj
 0001:00013470       _dataSkill                 03014470 f   MQ2Data.obj
 0001:00013550       _dataAltAbility            03014550 f   MQ2Data.obj
 0001:00013640       _dataRaid                  03014640 f   MQ2Data.obj
 0001:00013660       _dataNamingSpawn           03014660 f   MQ2Data.obj
 0001:00013690       _dataLineOfSight           03014690 f   MQ2Data.obj
 0001:00013870       _dataDoorTarget            03014870 f   MQ2Data.obj
 0001:00013890       _dataItemTarget            03014890 f   MQ2Data.obj
 0001:000138b0       _dataDynamicZone           030148b0 f   MQ2Data.obj
 0001:000138d0       _dataFriends               030148d0 f   MQ2Data.obj
 0001:000138f0       _dataInvSlot               030148f0 f   MQ2Data.obj
 0001:00013a30       ?GetName@MQ2Type@MQ2Internal@@QAEPADXZ 03014a30 f i MQ2DataAPI.obj
 0001:00013a40       ?GetElement@CDataArray@MQ2Internal@@QAEHPADAAU_MQ2TypeVar@2@@Z 03014a40 f i MQ2DataAPI.obj
 0001:00013bc0       ??0?$CIndex@PAVMQ2Type@MQ2Internal@@@MQ2Internal@@QAE@XZ 03014bc0 f i MQ2DataAPI.obj
 0001:00013be0       ??1?$CIndex@PAVMQ2Type@MQ2Internal@@@MQ2Internal@@QAE@XZ 03014be0 f i MQ2DataAPI.obj
 0001:00013c20       ??A?$CIndex@PAVMQ2Type@MQ2Internal@@@MQ2Internal@@QAEAAPAVMQ2Type@1@K@Z 03014c20 f i MQ2DataAPI.obj
 0001:00013c30       ??0?$CIndex@PAU_MQ2DataItem@MQ2Internal@@@MQ2Internal@@QAE@XZ 03014c30 f i MQ2DataAPI.obj
 0001:00013c50       ??1?$CIndex@PAU_MQ2DataItem@MQ2Internal@@@MQ2Internal@@QAE@XZ 03014c50 f i MQ2DataAPI.obj
 0001:00013c90       ?Cleanup@?$CIndex@PAU_MQ2DataItem@MQ2Internal@@@MQ2Internal@@QAEXXZ 03014c90 f i MQ2DataAPI.obj
 0001:00013cd0       ??A?$CIndex@PAU_MQ2DataItem@MQ2Internal@@@MQ2Internal@@QAEAAPAU_MQ2DataItem@1@K@Z 03014cd0 f i MQ2DataAPI.obj
 0001:00013ce0       ?Resize@?$CIndex@PAVMQ2Type@MQ2Internal@@@MQ2Internal@@QAEXK@Z 03014ce0 f i MQ2DataAPI.obj
 0001:00013d90       ?Resize@?$CIndex@PAU_MQ2DataItem@MQ2Internal@@@MQ2Internal@@QAEXK@Z 03014d90 f i MQ2DataAPI.obj
 0001:00013e40       _ShutdownMQ2Data           03014e40 f   MQ2DataAPI.obj
 0001:00013e50       ?GetUnused@?$CIndex@PAVMQ2Type@MQ2Internal@@@MQ2Internal@@QAEKXZ 03014e50 f i MQ2DataAPI.obj
 0001:00013ea0       ?GetUnused@?$CIndex@PAU_MQ2DataItem@MQ2Internal@@@MQ2Internal@@QAEKXZ 03014ea0 f i MQ2DataAPI.obj
 0001:00013ef0       ?FindMember@MQ2Type@MQ2Internal@@QAEPAU_MQ2TypeMember@2@PAD@Z 03014ef0 f i MQ2DataAPI.obj
 0001:00013f80       ?InheritedMember@MQ2Type@MQ2Internal@@QAEHPAD@Z 03014f80 f i MQ2DataAPI.obj
 0001:00013fb0       _FindMQ2DataType           03014fb0 f   MQ2DataAPI.obj
 0001:00014040       _AddMQ2Type                03015040 f   MQ2DataAPI.obj
 0001:000140e0       _RemoveMQ2Type             030150e0 f   MQ2DataAPI.obj
 0001:000141d0       _FindMQ2Data               030151d0 f i MQ2DataAPI.obj
 0001:00014260       _AddMQ2Data                03015260 f   MQ2DataAPI.obj
 0001:00014320       _RemoveMQ2Data             03015320 f   MQ2DataAPI.obj
 0001:00014410       ?dataType@@YAHPADAAU_MQ2TypeVar@MQ2Internal@@@Z 03015410 f   MQ2DataAPI.obj
 0001:00014440       _InitializeMQ2Data         03015440 f   MQ2DataAPI.obj
 0001:00014710       _ParseMQ2DataPortion       03015710 f   MQ2DataAPI.obj
 0001:00014bd0       _ParseMacroData            03015bd0 f   MQ2DataAPI.obj
 0001:00014dd0       _fabsf                     03015dd0 f i MQ2DataTypes.obj
 0001:00014de0       ?fabs@@YAMM@Z              03015de0 f i MQ2DataTypes.obj
 0001:00014df0       ?SetInheritance@MQ2Type@MQ2Internal@@QAEXPAV12@@Z 03015df0 f i MQ2DataTypes.obj
 0001:00015460       ?ToString@MQ2AltAbilityType@@UAE_NU_MQ2VarPtr@MQ2Internal@@PAD@Z 03016460 f   MQ2DataTypes.obj
 0001:00015490       ?ToString@MQ2GroupType@@UAE_NU_MQ2VarPtr@MQ2Internal@@PAD@Z 03016490 f   MQ2DataTypes.obj
 0001:000154f0       ?ToString@MQ2GroupMemberType@@UAE_NU_MQ2VarPtr@MQ2Internal@@PAD@Z 030164f0 f   MQ2DataTypes.obj
 0001:000155f0       ?GetMemberName@MQ2Type@MQ2Internal@@QAEPADK@Z 030165f0 f i MQ2DataTypes.obj
 0001:00015630       ?GetMemberID@MQ2Type@MQ2Internal@@QAEHPADAAK@Z 03016630 f i MQ2DataTypes.obj
 0001:000156d0       ?GetMember@MQ2TypeType@@UAE_NU_MQ2VarPtr@MQ2Internal@@PAD1AAU_MQ2TypeVar@3@@Z 030166d0 f   MQ2DataTypes.obj
 0001:00015780       ?GetMember@MQ2PluginType@@UAE_NU_MQ2VarPtr@MQ2Internal@@PAD1AAU_MQ2TypeVar@3@@Z 03016780 f   MQ2DataTypes.obj
 0001:000157e0       ?GetMember@MQ2FloatType@@UAE_NU_MQ2VarPtr@MQ2Internal@@PAD1AAU_MQ2TypeVar@3@@Z 030167e0 f   MQ2DataTypes.obj
 0001:000158f0       ?GetMember@MQ2IntType@@UAE_NU_MQ2VarPtr@MQ2Internal@@PAD1AAU_MQ2TypeVar@3@@Z 030168f0 f   MQ2DataTypes.obj
 0001:00015990       ?GetMember@MQ2StringType@@UAE_NU_MQ2VarPtr@MQ2Internal@@PAD1AAU_MQ2TypeVar@3@@Z 03016990 f   MQ2DataTypes.obj
 0001:00016410       ?GetMember@MQ2ArrayType@@UAE_NU_MQ2VarPtr@MQ2Internal@@PAD1AAU_MQ2TypeVar@3@@Z 03017410 f   MQ2DataTypes.obj
 0001:000164b0       ?GetMember@MQ2MathType@@UAE_NU_MQ2VarPtr@MQ2Internal@@PAD1AAU_MQ2TypeVar@3@@Z 030174b0 f   MQ2DataTypes.obj
 0001:00016990       ?GetMember@MQ2MacroType@@UAE_NU_MQ2VarPtr@MQ2Internal@@PAD1AAU_MQ2TypeVar@3@@Z 03017990 f   MQ2DataTypes.obj
 0001:00016ab0       ?GetMember@MQ2TicksType@@UAE_NU_MQ2VarPtr@MQ2Internal@@PAD1AAU_MQ2TypeVar@3@@Z 03017ab0 f   MQ2DataTypes.obj
 0001:00016d00       ?GetMember@MQ2ArgbType@@UAE_NU_MQ2VarPtr@MQ2Internal@@PAD1AAU_MQ2TypeVar@3@@Z 03017d00 f   MQ2DataTypes.obj
 0001:00016de0       ?GetMember@MQ2SpawnType@@UAE_NU_MQ2VarPtr@MQ2Internal@@PAD1AAU_MQ2TypeVar@3@@Z 03017de0 f   MQ2DataTypes.obj
 0001:000187e0       ?GetMember@MQ2BuffType@@UAE_NU_MQ2VarPtr@MQ2Internal@@PAD1AAU_MQ2TypeVar@3@@Z 030197e0 f   MQ2DataTypes.obj
 0001:000189c0       ?GetMember@MQ2CharacterType@@UAE_NU_MQ2VarPtr@MQ2Internal@@PAD1AAU_MQ2TypeVar@3@@Z 030199c0 f   MQ2DataTypes.obj
 0001:0001c480       ?GetMember@MQ2SpellType@@UAE_NU_MQ2VarPtr@MQ2Internal@@PAD1AAU_MQ2TypeVar@3@@Z 0301d480 f   MQ2DataTypes.obj
 0001:0001cfd0       ?GetMember@MQ2ItemType@@UAE_NU_MQ2VarPtr@MQ2Internal@@PAD1AAU_MQ2TypeVar@3@@Z 0301dfd0 f   MQ2DataTypes.obj
 0001:0001ee10       ?GetMember@MQ2WindowType@@UAE_NU_MQ2VarPtr@MQ2Internal@@PAD1AAU_MQ2TypeVar@3@@Z 0301fe10 f   MQ2DataTypes.obj
 0001:0001f6b0       ?GetMember@MQ2CurrentZoneType@@UAE_NU_MQ2VarPtr@MQ2Internal@@PAD1AAU_MQ2TypeVar@3@@Z 030206b0 f   MQ2DataTypes.obj
 0001:0001f810       ?GetMember@MQ2ZoneType@@UAE_NU_MQ2VarPtr@MQ2Internal@@PAD1AAU_MQ2TypeVar@3@@Z 03020810 f   MQ2DataTypes.obj
 0001:0001f890       ?GetMember@MQ2BodyType@@UAE_NU_MQ2VarPtr@MQ2Internal@@PAD1AAU_MQ2TypeVar@3@@Z 03020890 f   MQ2DataTypes.obj
 0001:0001f910       ?GetMember@MQ2DeityType@@UAE_NU_MQ2VarPtr@MQ2Internal@@PAD1AAU_MQ2TypeVar@3@@Z 03020910 f   MQ2DataTypes.obj
 0001:0001f9a0       ?GetMember@MQ2ClassType@@UAE_NU_MQ2VarPtr@MQ2Internal@@PAD1AAU_MQ2TypeVar@3@@Z 030209a0 f   MQ2DataTypes.obj
 0001:0001fbc0       ?GetMember@MQ2RaceType@@UAE_NU_MQ2VarPtr@MQ2Internal@@PAD1AAU_MQ2TypeVar@3@@Z 03020bc0 f   MQ2DataTypes.obj
 0001:0001fc20       ?GetMember@MQ2SwitchType@@UAE_NU_MQ2VarPtr@MQ2Internal@@PAD1AAU_MQ2TypeVar@3@@Z 03020c20 f   MQ2DataTypes.obj
 0001:0001ff20       ?GetMember@MQ2GroundType@@UAE_NU_MQ2VarPtr@MQ2Internal@@PAD1AAU_MQ2TypeVar@3@@Z 03020f20 f   MQ2DataTypes.obj
 0001:00020150       ?GetMember@MQ2MacroQuestType@@UAE_NU_MQ2VarPtr@MQ2Internal@@PAD1AAU_MQ2TypeVar@3@@Z 03021150 f   MQ2DataTypes.obj
 0001:00020640       ?GetMember@MQ2TimeType@@UAE_NU_MQ2VarPtr@MQ2Internal@@PAD1AAU_MQ2TypeVar@3@@Z 03021640 f   MQ2DataTypes.obj
 0001:00020880       ?GetMember@MQ2HeadingType@@UAE_NU_MQ2VarPtr@MQ2Internal@@PAD1AAU_MQ2TypeVar@3@@Z 03021880 f   MQ2DataTypes.obj
 0001:000209d0       ?GetMember@MQ2CorpseType@@UAE_NU_MQ2VarPtr@MQ2Internal@@PAD1AAU_MQ2TypeVar@3@@Z 030219d0 f   MQ2DataTypes.obj
 0001:00020c20       ?GetMember@MQ2MerchantType@@UAE_NU_MQ2VarPtr@MQ2Internal@@PAD1AAU_MQ2TypeVar@3@@Z 03021c20 f   MQ2DataTypes.obj
 0001:00020f60       ?GetMember@MQ2InvSlotType@@UAE_NU_MQ2VarPtr@MQ2Internal@@PAD1AAU_MQ2TypeVar@3@@Z 03021f60 f   MQ2DataTypes.obj
 0001:00021430       ?GetMember@MQ2TimerType@@UAE_NU_MQ2VarPtr@MQ2Internal@@PAD1AAU_MQ2TypeVar@3@@Z 03022430 f   MQ2DataTypes.obj
 0001:00021490       ?GetMember@MQ2SkillType@@UAE_NU_MQ2VarPtr@MQ2Internal@@PAD1AAU_MQ2TypeVar@3@@Z 03022490 f   MQ2DataTypes.obj
 0001:00021680       ?GetMember@MQ2AltAbilityType@@UAE_NU_MQ2VarPtr@MQ2Internal@@PAD1AAU_MQ2TypeVar@3@@Z 03022680 f   MQ2DataTypes.obj
 0001:000218a0       ?GetMember@MQ2GroupType@@UAE_NU_MQ2VarPtr@MQ2Internal@@PAD1AAU_MQ2TypeVar@3@@Z 030228a0 f   MQ2DataTypes.obj
 0001:00021ce0       ?GetMember@MQ2GroupMemberType@@UAE_NU_MQ2VarPtr@MQ2Internal@@PAD1AAU_MQ2TypeVar@3@@Z 03022ce0 f   MQ2DataTypes.obj
 0001:00021f90       ?GetMember@MQ2RaidType@@UAE_NU_MQ2VarPtr@MQ2Internal@@PAD1AAU_MQ2TypeVar@3@@Z 03022f90 f   MQ2DataTypes.obj
 0001:00022310       ?GetMember@MQ2RaidMemberType@@UAE_NU_MQ2VarPtr@MQ2Internal@@PAD1AAU_MQ2TypeVar@3@@Z 03023310 f   MQ2DataTypes.obj
 0001:00022520       ?GetMember@MQ2EvolvingItemType@@UAE_NU_MQ2VarPtr@MQ2Internal@@PAD1AAU_MQ2TypeVar@3@@Z 03023520 f   MQ2DataTypes.obj
 0001:000225d0       ?GetMember@MQ2DynamicZoneType@@UAE_NU_MQ2VarPtr@MQ2Internal@@PAD1AAU_MQ2TypeVar@3@@Z 030235d0 f   MQ2DataTypes.obj
 0001:000227a0       ?GetMember@MQ2DZMemberType@@UAE_NU_MQ2VarPtr@MQ2Internal@@PAD1AAU_MQ2TypeVar@3@@Z 030237a0 f   MQ2DataTypes.obj
 0001:00022880       ?GetMember@MQ2FellowshipType@@UAE_NU_MQ2VarPtr@MQ2Internal@@PAD1AAU_MQ2TypeVar@3@@Z 03023880 f   MQ2DataTypes.obj
 0001:00022ab0       ?GetMember@MQ2FellowshipMemberType@@UAE_NU_MQ2VarPtr@MQ2Internal@@PAD1AAU_MQ2TypeVar@3@@Z 03023ab0 f   MQ2DataTypes.obj
 0001:00022bb0       ?GetMember@MQ2FriendsType@@UAE_NU_MQ2VarPtr@MQ2Internal@@PAD1AAU_MQ2TypeVar@3@@Z 03023bb0 f   MQ2DataTypes.obj
 0001:00022c90       ?GetMember@MQ2TargetType@@UAE_NU_MQ2VarPtr@MQ2Internal@@PAD1AAU_MQ2TypeVar@3@@Z 03023c90 f   MQ2DataTypes.obj
 0001:00023050       ??0MQ2BoolType@@QAE@XZ     03024050 f i MQ2DataTypes.obj
 0001:00023070       ?GetMember@MQ2BoolType@@UAE_NU_MQ2VarPtr@MQ2Internal@@PAD1AAU_MQ2TypeVar@3@@Z 03024070 f i MQ2DataTypes.obj
 0001:00023080       ?ToString@MQ2BoolType@@UAE_NU_MQ2VarPtr@MQ2Internal@@PAD@Z 03024080 f i MQ2DataTypes.obj
 0001:000230c0       ?FromData@MQ2BoolType@@UAE_NAAU_MQ2VarPtr@MQ2Internal@@AAU_MQ2TypeVar@3@@Z 030240c0 f i MQ2DataTypes.obj
 0001:000230e0       ?FromString@MQ2BoolType@@UAE_NAAU_MQ2VarPtr@MQ2Internal@@PAD@Z 030240e0 f i MQ2DataTypes.obj
 0001:00023130       ??1MQ2BoolType@@QAE@XZ     03024130 f i MQ2DataTypes.obj
 0001:00023140       ??0MQ2IntType@@QAE@XZ      03024140 f i MQ2DataTypes.obj
 0001:00023190       ?ToString@MQ2IntType@@UAE_NU_MQ2VarPtr@MQ2Internal@@PAD@Z 03024190 f i MQ2DataTypes.obj
 0001:000231b0       ?FromData@MQ2IntType@@UAE_NAAU_MQ2VarPtr@MQ2Internal@@AAU_MQ2TypeVar@3@@Z 030241b0 f i MQ2DataTypes.obj
 0001:000231d0       ?FromString@MQ2IntType@@UAE_NAAU_MQ2VarPtr@MQ2Internal@@PAD@Z 030241d0 f i MQ2DataTypes.obj
 0001:000231f0       ??1MQ2IntType@@QAE@XZ      030241f0 f i MQ2DataTypes.obj
 0001:00023200       ??0MQ2ArgbType@@QAE@XZ     03024200 f i MQ2DataTypes.obj
 0001:00023260       ?ToString@MQ2ArgbType@@UAE_NU_MQ2VarPtr@MQ2Internal@@PAD@Z 03024260 f i MQ2DataTypes.obj
 0001:00023280       ?FromData@MQ2ArgbType@@UAE_NAAU_MQ2VarPtr@MQ2Internal@@AAU_MQ2TypeVar@3@@Z 03024280 f i MQ2DataTypes.obj
 0001:000232a0       ?FromString@MQ2ArgbType@@UAE_NAAU_MQ2VarPtr@MQ2Internal@@PAD@Z 030242a0 f i MQ2DataTypes.obj
 0001:000232c0       ??1MQ2ArgbType@@QAE@XZ     030242c0 f i MQ2DataTypes.obj
 0001:000232d0       ??0MQ2ByteType@@QAE@XZ     030242d0 f i MQ2DataTypes.obj
 0001:000232f0       ?GetMember@MQ2ByteType@@UAE_NU_MQ2VarPtr@MQ2Internal@@PAD1AAU_MQ2TypeVar@3@@Z 030242f0 f i MQ2DataTypes.obj
 0001:00023300       ?ToString@MQ2ByteType@@UAE_NU_MQ2VarPtr@MQ2Internal@@PAD@Z 03024300 f i MQ2DataTypes.obj
 0001:00023320       ?FromData@MQ2ByteType@@UAE_NAAU_MQ2VarPtr@MQ2Internal@@AAU_MQ2TypeVar@3@@Z 03024320 f i MQ2DataTypes.obj
 0001:00023340       ?FromString@MQ2ByteType@@UAE_NAAU_MQ2VarPtr@MQ2Internal@@PAD@Z 03024340 f i MQ2DataTypes.obj
 0001:00023360       ??1MQ2ByteType@@QAE@XZ     03024360 f i MQ2DataTypes.obj
 0001:00023370       ??0MQ2StringType@@QAE@XZ   03024370 f i MQ2DataTypes.obj
 0001:00023480       ?ToString@MQ2StringType@@UAE_NU_MQ2VarPtr@MQ2Internal@@PAD@Z 03024480 f i MQ2DataTypes.obj
 0001:000234a0       ?InitVariable@MQ2StringType@@UAEXAAU_MQ2VarPtr@MQ2Internal@@@Z 030244a0 f i MQ2DataTypes.obj
 0001:000234d0       ?FreeVariable@MQ2StringType@@UAEXAAU_MQ2VarPtr@MQ2Internal@@@Z 030244d0 f i MQ2DataTypes.obj
 0001:000234e0       ?FromData@MQ2StringType@@UAE_NAAU_MQ2VarPtr@MQ2Internal@@AAU_MQ2TypeVar@3@@Z 030244e0 f i MQ2DataTypes.obj
 0001:00023510       ?FromString@MQ2StringType@@UAE_NAAU_MQ2VarPtr@MQ2Internal@@PAD@Z 03024510 f i MQ2DataTypes.obj
 0001:00023530       ??1MQ2StringType@@QAE@XZ   03024530 f i MQ2DataTypes.obj
 0001:00023540       ??0MQ2FloatType@@QAE@XZ    03024540 f i MQ2DataTypes.obj
 0001:000235a0       ?ToString@MQ2FloatType@@UAE_NU_MQ2VarPtr@MQ2Internal@@PAD@Z 030245a0 f i MQ2DataTypes.obj
 0001:000235d0       ?FromData@MQ2FloatType@@UAE_NAAU_MQ2VarPtr@MQ2Internal@@AAU_MQ2TypeVar@3@@Z 030245d0 f i MQ2DataTypes.obj
 0001:00023610       ?FromString@MQ2FloatType@@UAE_NAAU_MQ2VarPtr@MQ2Internal@@PAD@Z 03024610 f i MQ2DataTypes.obj
 0001:00023630       ??1MQ2FloatType@@QAE@XZ    03024630 f i MQ2DataTypes.obj
 0001:00023640       ??0MQ2SpawnType@@QAE@XZ    03024640 f i MQ2DataTypes.obj
 0001:00023b90       ?ToString@MQ2SpawnType@@UAE_NU_MQ2VarPtr@MQ2Internal@@PAD@Z 03024b90 f i MQ2DataTypes.obj
 0001:00023bc0       ?InitVariable@MQ2SpawnType@@UAEXAAU_MQ2VarPtr@MQ2Internal@@@Z 03024bc0 f i MQ2DataTypes.obj
 0001:00023bf0       ?FreeVariable@MQ2SpawnType@@UAEXAAU_MQ2VarPtr@MQ2Internal@@@Z 03024bf0 f i MQ2DataTypes.obj
 0001:00023c00       ?FromData@MQ2SpawnType@@UAE_NAAU_MQ2VarPtr@MQ2Internal@@AAU_MQ2TypeVar@3@@Z 03024c00 f i MQ2DataTypes.obj
 0001:00023c60       ?FromString@MQ2SpawnType@@UAE_NAAU_MQ2VarPtr@MQ2Internal@@PAD@Z 03024c60 f i MQ2DataTypes.obj
 0001:00023ca0       ??1MQ2SpawnType@@QAE@XZ    03024ca0 f i MQ2DataTypes.obj
 0001:00023cb0       ??0MQ2CharacterType@@QAE@XZ 03024cb0 f i MQ2DataTypes.obj
 0001:000246d0       ?ToString@MQ2CharacterType@@UAE_NU_MQ2VarPtr@MQ2Internal@@PAD@Z 030256d0 f i MQ2DataTypes.obj
 0001:00024700       ?InitVariable@MQ2CharacterType@@UAEXAAU_MQ2VarPtr@MQ2Internal@@@Z 03025700 f i MQ2DataTypes.obj
 0001:00024730       ?FreeVariable@MQ2CharacterType@@UAEXAAU_MQ2VarPtr@MQ2Internal@@@Z 03025730 f i MQ2DataTypes.obj
 0001:00024740       ?FromData@MQ2CharacterType@@UAE_NAAU_MQ2VarPtr@MQ2Internal@@AAU_MQ2TypeVar@3@@Z 03025740 f i MQ2DataTypes.obj
 0001:00024770       ?FromString@MQ2CharacterType@@UAE_NAAU_MQ2VarPtr@MQ2Internal@@PAD@Z 03025770 f i MQ2DataTypes.obj
 0001:00024780       ??1MQ2CharacterType@@QAE@XZ 03025780 f i MQ2DataTypes.obj
 0001:00024790       ??0MQ2SpellType@@QAE@XZ    03025790 f i MQ2DataTypes.obj
 0001:00024930       ?ToString@MQ2SpellType@@UAE_NU_MQ2VarPtr@MQ2Internal@@PAD@Z 03025930 f i MQ2DataTypes.obj
 0001:00024960       ?InitVariable@MQ2SpellType@@UAEXAAU_MQ2VarPtr@MQ2Internal@@@Z 03025960 f i MQ2DataTypes.obj
 0001:00024990       ?FreeVariable@MQ2SpellType@@UAEXAAU_MQ2VarPtr@MQ2Internal@@@Z 03025990 f i MQ2DataTypes.obj
 0001:000249a0       ?FromData@MQ2SpellType@@UAE_NAAU_MQ2VarPtr@MQ2Internal@@AAU_MQ2TypeVar@3@@Z 030259a0 f i MQ2DataTypes.obj
 0001:000249d0       ?FromString@MQ2SpellType@@UAE_NAAU_MQ2VarPtr@MQ2Internal@@PAD@Z 030259d0 f i MQ2DataTypes.obj
 0001:000249e0       ??1MQ2SpellType@@QAE@XZ    030259e0 f i MQ2DataTypes.obj
 0001:000249f0       ??0MQ2BuffType@@QAE@XZ     030259f0 f i MQ2DataTypes.obj
 0001:00024a70       ?ToString@MQ2BuffType@@UAE_NU_MQ2VarPtr@MQ2Internal@@PAD@Z 03025a70 f i MQ2DataTypes.obj
 0001:00024ac0       ?InitVariable@MQ2BuffType@@UAEXAAU_MQ2VarPtr@MQ2Internal@@@Z 03025ac0 f i MQ2DataTypes.obj
 0001:00024af0       ?FreeVariable@MQ2BuffType@@UAEXAAU_MQ2VarPtr@MQ2Internal@@@Z 03025af0 f i MQ2DataTypes.obj
 0001:00024b00       ?FromData@MQ2BuffType@@UAE_NAAU_MQ2VarPtr@MQ2Internal@@AAU_MQ2TypeVar@3@@Z 03025b00 f i MQ2DataTypes.obj
 0001:00024b50       ?FromString@MQ2BuffType@@UAE_NAAU_MQ2VarPtr@MQ2Internal@@PAD@Z 03025b50 f i MQ2DataTypes.obj
 0001:00024b60       ??1MQ2BuffType@@QAE@XZ     03025b60 f i MQ2DataTypes.obj
 0001:00024b70       ??0MQ2ItemType@@QAE@XZ     03025b70 f i MQ2DataTypes.obj
 0001:000252b0       ?ToString@MQ2ItemType@@UAE_NU_MQ2VarPtr@MQ2Internal@@PAD@Z 030262b0 f i MQ2DataTypes.obj
 0001:000252e0       ?InitVariable@MQ2ItemType@@UAEXAAU_MQ2VarPtr@MQ2Internal@@@Z 030262e0 f i MQ2DataTypes.obj
 0001:00025310       ?FreeVariable@MQ2ItemType@@UAEXAAU_MQ2VarPtr@MQ2Internal@@@Z 03026310 f i MQ2DataTypes.obj
 0001:00025320       ?FromData@MQ2ItemType@@UAE_NAAU_MQ2VarPtr@MQ2Internal@@AAU_MQ2TypeVar@3@@Z 03026320 f i MQ2DataTypes.obj
 0001:00025350       ?FromString@MQ2ItemType@@UAE_NAAU_MQ2VarPtr@MQ2Internal@@PAD@Z 03026350 f i MQ2DataTypes.obj
 0001:00025360       ??1MQ2ItemType@@QAE@XZ     03026360 f i MQ2DataTypes.obj
 0001:00025370       ??0MQ2SwitchType@@QAE@XZ   03026370 f i MQ2DataTypes.obj
 0001:00025450       ?ToString@MQ2SwitchType@@UAE_NU_MQ2VarPtr@MQ2Internal@@PAD@Z 03026450 f i MQ2DataTypes.obj
 0001:00025480       ?InitVariable@MQ2SwitchType@@UAEXAAU_MQ2VarPtr@MQ2Internal@@@Z 03026480 f i MQ2DataTypes.obj
 0001:000254b0       ?FreeVariable@MQ2SwitchType@@UAEXAAU_MQ2VarPtr@MQ2Internal@@@Z 030264b0 f i MQ2DataTypes.obj
 0001:000254c0       ?FromData@MQ2SwitchType@@UAE_NAAU_MQ2VarPtr@MQ2Internal@@AAU_MQ2TypeVar@3@@Z 030264c0 f i MQ2DataTypes.obj
 0001:000254f0       ?FromString@MQ2SwitchType@@UAE_NAAU_MQ2VarPtr@MQ2Internal@@PAD@Z 030264f0 f i MQ2DataTypes.obj
 0001:00025500       ??1MQ2SwitchType@@QAE@XZ   03026500 f i MQ2DataTypes.obj
 0001:00025510       ??0MQ2GroundType@@QAE@XZ   03026510 f i MQ2DataTypes.obj
 0001:000255b0       ?ToString@MQ2GroundType@@UAE_NU_MQ2VarPtr@MQ2Internal@@PAD@Z 030265b0 f i MQ2DataTypes.obj
 0001:000255e0       ?InitVariable@MQ2GroundType@@UAEXAAU_MQ2VarPtr@MQ2Internal@@@Z 030265e0 f i MQ2DataTypes.obj
 0001:00025600       ?FreeVariable@MQ2GroundType@@UAEXAAU_MQ2VarPtr@MQ2Internal@@@Z 03026600 f i MQ2DataTypes.obj
 0001:00025610       ?FromData@MQ2GroundType@@UAE_NAAU_MQ2VarPtr@MQ2Internal@@AAU_MQ2TypeVar@3@@Z 03026610 f i MQ2DataTypes.obj
 0001:00025640       ?FromString@MQ2GroundType@@UAE_NAAU_MQ2VarPtr@MQ2Internal@@PAD@Z 03026640 f i MQ2DataTypes.obj
 0001:00025650       ??1MQ2GroundType@@QAE@XZ   03026650 f i MQ2DataTypes.obj
 0001:00025660       ??0MQ2CorpseType@@QAE@XZ   03026660 f i MQ2DataTypes.obj
 0001:000256b0       ?ToString@MQ2CorpseType@@UAE_NU_MQ2VarPtr@MQ2Internal@@PAD@Z 030266b0 f i MQ2DataTypes.obj
 0001:00025700       ?FromData@MQ2CorpseType@@UAE_NAAU_MQ2VarPtr@MQ2Internal@@AAU_MQ2TypeVar@3@@Z 03026700 f i MQ2DataTypes.obj
 0001:00025710       ?FromString@MQ2CorpseType@@UAE_NAAU_MQ2VarPtr@MQ2Internal@@PAD@Z 03026710 f i MQ2DataTypes.obj
 0001:00025720       ??1MQ2CorpseType@@QAE@XZ   03026720 f i MQ2DataTypes.obj
 0001:00025730       ??0MQ2MerchantType@@QAE@XZ 03026730 f i MQ2DataTypes.obj
 0001:00025790       ?ToString@MQ2MerchantType@@UAE_NU_MQ2VarPtr@MQ2Internal@@PAD@Z 03026790 f i MQ2DataTypes.obj
 0001:000257e0       ?FromData@MQ2MerchantType@@UAE_NAAU_MQ2VarPtr@MQ2Internal@@AAU_MQ2TypeVar@3@@Z 030267e0 f i MQ2DataTypes.obj
 0001:000257f0       ?FromString@MQ2MerchantType@@UAE_NAAU_MQ2VarPtr@MQ2Internal@@PAD@Z 030267f0 f i MQ2DataTypes.obj
 0001:00025800       ??1MQ2MerchantType@@QAE@XZ 03026800 f i MQ2DataTypes.obj
 0001:00025810       ??0MQ2WindowType@@QAE@XZ   03026810 f i MQ2DataTypes.obj
 0001:000259f0       ?ToString@MQ2WindowType@@UAE_NU_MQ2VarPtr@MQ2Internal@@PAD@Z 030269f0 f i MQ2DataTypes.obj
 0001:00025a40       ?FromData@MQ2WindowType@@UAE_NAAU_MQ2VarPtr@MQ2Internal@@AAU_MQ2TypeVar@3@@Z 03026a40 f i MQ2DataTypes.obj
 0001:00025a70       ?FromString@MQ2WindowType@@UAE_NAAU_MQ2VarPtr@MQ2Internal@@PAD@Z 03026a70 f i MQ2DataTypes.obj
 0001:00025a90       ??1MQ2WindowType@@QAE@XZ   03026a90 f i MQ2DataTypes.obj
 0001:00025aa0       ??0MQ2MacroType@@QAE@XZ    03026aa0 f i MQ2DataTypes.obj
 0001:00025b10       ?ToString@MQ2MacroType@@UAE_NU_MQ2VarPtr@MQ2Internal@@PAD@Z 03026b10 f i MQ2DataTypes.obj
 0001:00025b40       ?FromData@MQ2MacroType@@UAE_NAAU_MQ2VarPtr@MQ2Internal@@AAU_MQ2TypeVar@3@@Z 03026b40 f i MQ2DataTypes.obj
 0001:00025b50       ?FromString@MQ2MacroType@@UAE_NAAU_MQ2VarPtr@MQ2Internal@@PAD@Z 03026b50 f i MQ2DataTypes.obj
 0001:00025b60       ??1MQ2MacroType@@QAE@XZ    03026b60 f i MQ2DataTypes.obj
 0001:00025b70       ??0MQ2ZoneType@@QAE@XZ     03026b70 f i MQ2DataTypes.obj
 0001:00025bc0       ?ToString@MQ2ZoneType@@UAE_NU_MQ2VarPtr@MQ2Internal@@PAD@Z 03026bc0 f i MQ2DataTypes.obj
 0001:00025be0       ?FromData@MQ2ZoneType@@UAE_NAAU_MQ2VarPtr@MQ2Internal@@AAU_MQ2TypeVar@3@@Z 03026be0 f i MQ2DataTypes.obj
 0001:00025c30       ?FromString@MQ2ZoneType@@UAE_NAAU_MQ2VarPtr@MQ2Internal@@PAD@Z 03026c30 f i MQ2DataTypes.obj
 0001:00025c40       ??1MQ2ZoneType@@QAE@XZ     03026c40 f i MQ2DataTypes.obj
 0001:00025c50       ??0MQ2CurrentZoneType@@QAE@XZ 03026c50 f i MQ2DataTypes.obj
 0001:00025d30       ?ToString@MQ2CurrentZoneType@@UAE_NU_MQ2VarPtr@MQ2Internal@@PAD@Z 03026d30 f i MQ2DataTypes.obj
 0001:00025d50       ?FromData@MQ2CurrentZoneType@@UAE_NAAU_MQ2VarPtr@MQ2Internal@@AAU_MQ2TypeVar@3@@Z 03026d50 f i MQ2DataTypes.obj
 0001:00025d80       ?FromString@MQ2CurrentZoneType@@UAE_NAAU_MQ2VarPtr@MQ2Internal@@PAD@Z 03026d80 f i MQ2DataTypes.obj
 0001:00025d90       ??1MQ2CurrentZoneType@@QAE@XZ 03026d90 f i MQ2DataTypes.obj
 0001:00025da0       ??0MQ2MacroQuestType@@QAE@XZ 03026da0 f i MQ2DataTypes.obj
 0001:00025ef0       ?ToString@MQ2MacroQuestType@@UAE_NU_MQ2VarPtr@MQ2Internal@@PAD@Z 03026ef0 f i MQ2DataTypes.obj
 0001:00025f00       ?FromData@MQ2MacroQuestType@@UAE_NAAU_MQ2VarPtr@MQ2Internal@@AAU_MQ2TypeVar@3@@Z 03026f00 f i MQ2DataTypes.obj
 0001:00025f10       ?FromString@MQ2MacroQuestType@@UAE_NAAU_MQ2VarPtr@MQ2Internal@@PAD@Z 03026f10 f i MQ2DataTypes.obj
 0001:00025f20       ??1MQ2MacroQuestType@@QAE@XZ 03026f20 f i MQ2DataTypes.obj
 0001:00025f30       ??0MQ2MathType@@QAE@XZ     03026f30 f i MQ2DataTypes.obj
 0001:00026010       ?ToString@MQ2MathType@@UAE_NU_MQ2VarPtr@MQ2Internal@@PAD@Z 03027010 f i MQ2DataTypes.obj
 0001:00026020       ?FromData@MQ2MathType@@UAE_NAAU_MQ2VarPtr@MQ2Internal@@AAU_MQ2TypeVar@3@@Z 03027020 f i MQ2DataTypes.obj
 0001:00026030       ?FromString@MQ2MathType@@UAE_NAAU_MQ2VarPtr@MQ2Internal@@PAD@Z 03027030 f i MQ2DataTypes.obj
 0001:00026040       ??1MQ2MathType@@QAE@XZ     03027040 f i MQ2DataTypes.obj
 0001:00026050       ??0MQ2RaceType@@QAE@XZ     03027050 f i MQ2DataTypes.obj
 0001:00026090       ?ToString@MQ2RaceType@@UAE_NU_MQ2VarPtr@MQ2Internal@@PAD@Z 03027090 f i MQ2DataTypes.obj
 0001:000260c0       ?FromData@MQ2RaceType@@UAE_NAAU_MQ2VarPtr@MQ2Internal@@AAU_MQ2TypeVar@3@@Z 030270c0 f i MQ2DataTypes.obj
 0001:000260e0       ?FromString@MQ2RaceType@@UAE_NAAU_MQ2VarPtr@MQ2Internal@@PAD@Z 030270e0 f i MQ2DataTypes.obj
 0001:00026100       ??1MQ2RaceType@@QAE@XZ     03027100 f i MQ2DataTypes.obj
 0001:00026110       ??0MQ2ClassType@@QAE@XZ    03027110 f i MQ2DataTypes.obj
 0001:000261d0       ?ToString@MQ2ClassType@@UAE_NU_MQ2VarPtr@MQ2Internal@@PAD@Z 030271d0 f i MQ2DataTypes.obj
 0001:000261f0       ?FromData@MQ2ClassType@@UAE_NAAU_MQ2VarPtr@MQ2Internal@@AAU_MQ2TypeVar@3@@Z 030271f0 f i MQ2DataTypes.obj
 0001:00026210       ?FromString@MQ2ClassType@@UAE_NAAU_MQ2VarPtr@MQ2Internal@@PAD@Z 03027210 f i MQ2DataTypes.obj
 0001:00026230       ??1MQ2ClassType@@QAE@XZ    03027230 f i MQ2DataTypes.obj
 0001:00026240       ??0MQ2BodyType@@QAE@XZ     03027240 f i MQ2DataTypes.obj
 0001:00026280       ?ToString@MQ2BodyType@@UAE_NU_MQ2VarPtr@MQ2Internal@@PAD@Z 03027280 f i MQ2DataTypes.obj
 0001:000262b0       ?FromData@MQ2BodyType@@UAE_NAAU_MQ2VarPtr@MQ2Internal@@AAU_MQ2TypeVar@3@@Z 030272b0 f i MQ2DataTypes.obj
 0001:000262d0       ?FromString@MQ2BodyType@@UAE_NAAU_MQ2VarPtr@MQ2Internal@@PAD@Z 030272d0 f i MQ2DataTypes.obj
 0001:000262f0       ??1MQ2BodyType@@QAE@XZ     030272f0 f i MQ2DataTypes.obj
 0001:00026300       ??0MQ2DeityType@@QAE@XZ    03027300 f i MQ2DataTypes.obj
 0001:00026350       ?ToString@MQ2DeityType@@UAE_NU_MQ2VarPtr@MQ2Internal@@PAD@Z 03027350 f i MQ2DataTypes.obj
 0001:00026380       ?FromData@MQ2DeityType@@UAE_NAAU_MQ2VarPtr@MQ2Internal@@AAU_MQ2TypeVar@3@@Z 03027380 f i MQ2DataTypes.obj
 0001:000263a0       ?FromString@MQ2DeityType@@UAE_NAAU_MQ2VarPtr@MQ2Internal@@PAD@Z 030273a0 f i MQ2DataTypes.obj
 0001:000263c0       ??1MQ2DeityType@@QAE@XZ    030273c0 f i MQ2DataTypes.obj
 0001:000263d0       ??0MQ2TimeType@@QAE@XZ     030273d0 f i MQ2DataTypes.obj
 0001:00026490       ?ToString@MQ2TimeType@@UAE_NU_MQ2VarPtr@MQ2Internal@@PAD@Z 03027490 f i MQ2DataTypes.obj
 0001:000264c0       ?InitVariable@MQ2TimeType@@UAEXAAU_MQ2VarPtr@MQ2Internal@@@Z 030274c0 f i MQ2DataTypes.obj
 0001:000264f0       ?FreeVariable@MQ2TimeType@@UAEXAAU_MQ2VarPtr@MQ2Internal@@@Z 030274f0 f i MQ2DataTypes.obj
 0001:00026500       ?FromData@MQ2TimeType@@UAE_NAAU_MQ2VarPtr@MQ2Internal@@AAU_MQ2TypeVar@3@@Z 03027500 f i MQ2DataTypes.obj
 0001:00026530       ?FromString@MQ2TimeType@@UAE_NAAU_MQ2VarPtr@MQ2Internal@@PAD@Z 03027530 f i MQ2DataTypes.obj
 0001:00026540       ??1MQ2TimeType@@QAE@XZ     03027540 f i MQ2DataTypes.obj
 0001:00026550       ??0MQ2TypeType@@QAE@XZ     03027550 f i MQ2DataTypes.obj
 0001:00026590       ?ToString@MQ2TypeType@@UAE_NU_MQ2VarPtr@MQ2Internal@@PAD@Z 03027590 f i MQ2DataTypes.obj
 0001:000265b0       ?FromData@MQ2TypeType@@UAE_NAAU_MQ2VarPtr@MQ2Internal@@AAU_MQ2TypeVar@3@@Z 030275b0 f i MQ2DataTypes.obj
 0001:000265d0       ?FromString@MQ2TypeType@@UAE_NAAU_MQ2VarPtr@MQ2Internal@@PAD@Z 030275d0 f i MQ2DataTypes.obj
 0001:000265f0       ??1MQ2TypeType@@QAE@XZ     030275f0 f i MQ2DataTypes.obj
 0001:00026600       ??0MQ2HeadingType@@QAE@XZ  03027600 f i MQ2DataTypes.obj
 0001:00026660       ?ToString@MQ2HeadingType@@UAE_NU_MQ2VarPtr@MQ2Internal@@PAD@Z 03027660 f i MQ2DataTypes.obj
 0001:000266b0       ?FromData@MQ2HeadingType@@UAE_NAAU_MQ2VarPtr@MQ2Internal@@AAU_MQ2TypeVar@3@@Z 030276b0 f i MQ2DataTypes.obj
 0001:000266f0       ?FromString@MQ2HeadingType@@UAE_NAAU_MQ2VarPtr@MQ2Internal@@PAD@Z 030276f0 f i MQ2DataTypes.obj
 0001:00026710       ??1MQ2HeadingType@@QAE@XZ  03027710 f i MQ2DataTypes.obj
 0001:00026720       ??0MQ2InvSlotType@@QAE@XZ  03027720 f i MQ2DataTypes.obj
 0001:00026780       ?ToString@MQ2InvSlotType@@UAE_NU_MQ2VarPtr@MQ2Internal@@PAD@Z 03027780 f i MQ2DataTypes.obj
 0001:000267a0       ?FromData@MQ2InvSlotType@@UAE_NAAU_MQ2VarPtr@MQ2Internal@@AAU_MQ2TypeVar@3@@Z 030277a0 f i MQ2DataTypes.obj
 0001:000267c0       ?FromString@MQ2InvSlotType@@UAE_NAAU_MQ2VarPtr@MQ2Internal@@PAD@Z 030277c0 f i MQ2DataTypes.obj
 0001:000268f0       ??0MQ2PluginType@@QAE@XZ   030278f0 f i MQ2DataTypes.obj
 0001:00026930       ?ToString@MQ2PluginType@@UAE_NU_MQ2VarPtr@MQ2Internal@@PAD@Z 03027930 f i MQ2DataTypes.obj
 0001:00026960       ?FromData@MQ2PluginType@@UAE_NAAU_MQ2VarPtr@MQ2Internal@@AAU_MQ2TypeVar@3@@Z 03027960 f i MQ2DataTypes.obj
 0001:00026990       ?FromString@MQ2PluginType@@UAE_NAAU_MQ2VarPtr@MQ2Internal@@PAD@Z 03027990 f i MQ2DataTypes.obj
 0001:000269a0       ??1MQ2PluginType@@QAE@XZ   030279a0 f i MQ2DataTypes.obj
 0001:000269b0       ??0MQ2SkillType@@QAE@XZ    030279b0 f i MQ2DataTypes.obj
 0001:00026a30       ?ToString@MQ2SkillType@@UAE_NU_MQ2VarPtr@MQ2Internal@@PAD@Z 03027a30 f i MQ2DataTypes.obj
 0001:00026a80       ?FromData@MQ2SkillType@@UAE_NAAU_MQ2VarPtr@MQ2Internal@@AAU_MQ2TypeVar@3@@Z 03027a80 f i MQ2DataTypes.obj
 0001:00026ab0       ?FromString@MQ2SkillType@@UAE_NAAU_MQ2VarPtr@MQ2Internal@@PAD@Z 03027ab0 f i MQ2DataTypes.obj
 0001:00026ac0       ??1MQ2SkillType@@QAE@XZ    03027ac0 f i MQ2DataTypes.obj
 0001:00026ad0       ??0MQ2AltAbilityType@@QAE@XZ 03027ad0 f i MQ2DataTypes.obj
 0001:00026bb0       ?FromData@MQ2AltAbilityType@@UAE_NAAU_MQ2VarPtr@MQ2Internal@@AAU_MQ2TypeVar@3@@Z 03027bb0 f i MQ2DataTypes.obj
 0001:00026be0       ?FromString@MQ2AltAbilityType@@UAE_NAAU_MQ2VarPtr@MQ2Internal@@PAD@Z 03027be0 f i MQ2DataTypes.obj
 0001:00026bf0       ??1MQ2AltAbilityType@@QAE@XZ 03027bf0 f i MQ2DataTypes.obj
 0001:00026c00       ??0MQ2TimerType@@QAE@XZ    03027c00 f i MQ2DataTypes.obj
 0001:00026c40       ?ToString@MQ2TimerType@@UAE_NU_MQ2VarPtr@MQ2Internal@@PAD@Z 03027c40 f i MQ2DataTypes.obj
 0001:00026c60       ?InitVariable@MQ2TimerType@@UAEXAAU_MQ2VarPtr@MQ2Internal@@@Z 03027c60 f i MQ2DataTypes.obj
 0001:00026cb0       ?FreeVariable@MQ2TimerType@@UAEXAAU_MQ2VarPtr@MQ2Internal@@@Z 03027cb0 f i MQ2DataTypes.obj
 0001:00026cf0       ?FromData@MQ2TimerType@@UAE_NAAU_MQ2VarPtr@MQ2Internal@@AAU_MQ2TypeVar@3@@Z 03027cf0 f i MQ2DataTypes.obj
 0001:00026d50       ?FromString@MQ2TimerType@@UAE_NAAU_MQ2VarPtr@MQ2Internal@@PAD@Z 03027d50 f i MQ2DataTypes.obj
 0001:00026e20       ??1MQ2TimerType@@QAE@XZ    03027e20 f i MQ2DataTypes.obj
 0001:00026e30       ??0MQ2ArrayType@@QAE@XZ    03027e30 f i MQ2DataTypes.obj
 0001:00026e70       ??1CDataArray@MQ2Internal@@QAE@XZ 03027e70 f i MQ2DataTypes.obj
 0001:00026ec0       ?ToString@MQ2ArrayType@@UAE_NU_MQ2VarPtr@MQ2Internal@@PAD@Z 03027ec0 f i MQ2DataTypes.obj
 0001:00026ed0       ?InitVariable@MQ2ArrayType@@UAEXAAU_MQ2VarPtr@MQ2Internal@@@Z 03027ed0 f i MQ2DataTypes.obj
 0001:00026ee0       ?FromData@MQ2ArrayType@@UAE_NAAU_MQ2VarPtr@MQ2Internal@@AAU_MQ2TypeVar@3@@Z 03027ee0 f i MQ2DataTypes.obj
 0001:00026ef0       ?FromString@MQ2ArrayType@@UAE_NAAU_MQ2VarPtr@MQ2Internal@@PAD@Z 03027ef0 f i MQ2DataTypes.obj
 0001:00026f00       ??_GCDataArray@MQ2Internal@@QAEPAXI@Z 03027f00 f i MQ2DataTypes.obj
 0001:00026f20       ?FreeVariable@MQ2ArrayType@@UAEXAAU_MQ2VarPtr@MQ2Internal@@@Z 03027f20 f i MQ2DataTypes.obj
 0001:00026f40       ??1MQ2ArrayType@@QAE@XZ    03027f40 f i MQ2DataTypes.obj
 0001:00026f50       ??0MQ2GroupType@@QAE@XZ    03027f50 f i MQ2DataTypes.obj
 0001:00026fd0       ?FromData@MQ2GroupType@@UAE_NAAU_MQ2VarPtr@MQ2Internal@@AAU_MQ2TypeVar@3@@Z 03027fd0 f i MQ2DataTypes.obj
 0001:00026fe0       ?FromString@MQ2GroupType@@UAE_NAAU_MQ2VarPtr@MQ2Internal@@PAD@Z 03027fe0 f i MQ2DataTypes.obj
 0001:00026ff0       ??1MQ2GroupType@@QAE@XZ    03027ff0 f i MQ2DataTypes.obj
 0001:00027000       ??0MQ2GroupMemberType@@QAE@XZ 03028000 f i MQ2DataTypes.obj
 0001:00027090       ?FromData@MQ2GroupMemberType@@UAE_NAAU_MQ2VarPtr@MQ2Internal@@AAU_MQ2TypeVar@3@@Z 03028090 f i MQ2DataTypes.obj
 0001:000270c0       ?FromString@MQ2GroupMemberType@@UAE_NAAU_MQ2VarPtr@MQ2Internal@@PAD@Z 030280c0 f i MQ2DataTypes.obj
 0001:000270d0       ??1MQ2GroupMemberType@@QAE@XZ 030280d0 f i MQ2DataTypes.obj
 0001:000270e0       ??0MQ2RaidType@@QAE@XZ     030280e0 f i MQ2DataTypes.obj
 0001:000271a0       ?ToString@MQ2RaidType@@UAE_NU_MQ2VarPtr@MQ2Internal@@PAD@Z 030281a0 f i MQ2DataTypes.obj
 0001:000271b0       ?FromData@MQ2RaidType@@UAE_NAAU_MQ2VarPtr@MQ2Internal@@AAU_MQ2TypeVar@3@@Z 030281b0 f i MQ2DataTypes.obj
 0001:000271c0       ?FromString@MQ2RaidType@@UAE_NAAU_MQ2VarPtr@MQ2Internal@@PAD@Z 030281c0 f i MQ2DataTypes.obj
 0001:000271d0       ??1MQ2RaidType@@QAE@XZ     030281d0 f i MQ2DataTypes.obj
 0001:000271e0       ??0MQ2RaidMemberType@@QAE@XZ 030281e0 f i MQ2DataTypes.obj
 0001:00027270       ?ToString@MQ2RaidMemberType@@UAE_NU_MQ2VarPtr@MQ2Internal@@PAD@Z 03028270 f i MQ2DataTypes.obj
 0001:000272c0       ?FromData@MQ2RaidMemberType@@UAE_NAAU_MQ2VarPtr@MQ2Internal@@AAU_MQ2TypeVar@3@@Z 030282c0 f i MQ2DataTypes.obj
 0001:000272f0       ?FromString@MQ2RaidMemberType@@UAE_NAAU_MQ2VarPtr@MQ2Internal@@PAD@Z 030282f0 f i MQ2DataTypes.obj
 0001:00027300       ??1MQ2RaidMemberType@@QAE@XZ 03028300 f i MQ2DataTypes.obj
 0001:00027310       ??0MQ2EvolvingItemType@@QAE@XZ 03028310 f i MQ2DataTypes.obj
 0001:00027360       ?ToString@MQ2EvolvingItemType@@UAE_NU_MQ2VarPtr@MQ2Internal@@PAD@Z 03028360 f i MQ2DataTypes.obj
 0001:000273b0       ?FromData@MQ2EvolvingItemType@@UAE_NAAU_MQ2VarPtr@MQ2Internal@@AAU_MQ2TypeVar@3@@Z 030283b0 f i MQ2DataTypes.obj
 0001:000273c0       ?FromString@MQ2EvolvingItemType@@UAE_NAAU_MQ2VarPtr@MQ2Internal@@PAD@Z 030283c0 f i MQ2DataTypes.obj
 0001:000273d0       ??1MQ2EvolvingItemType@@QAE@XZ 030283d0 f i MQ2DataTypes.obj
 0001:000273e0       ??0MQ2DynamicZoneType@@QAE@XZ 030283e0 f i MQ2DataTypes.obj
 0001:00027440       ?ToString@MQ2DynamicZoneType@@UAE_NU_MQ2VarPtr@MQ2Internal@@PAD@Z 03028440 f i MQ2DataTypes.obj
 0001:00027480       ?FromData@MQ2DynamicZoneType@@UAE_NAAU_MQ2VarPtr@MQ2Internal@@AAU_MQ2TypeVar@3@@Z 03028480 f i MQ2DataTypes.obj
 0001:00027490       ?FromString@MQ2DynamicZoneType@@UAE_NAAU_MQ2VarPtr@MQ2Internal@@PAD@Z 03028490 f i MQ2DataTypes.obj
 0001:000274a0       ??1MQ2DynamicZoneType@@QAE@XZ 030284a0 f i MQ2DataTypes.obj
 0001:000274b0       ??0MQ2DZMemberType@@QAE@XZ 030284b0 f i MQ2DataTypes.obj
 0001:000274f0       ?ToString@MQ2DZMemberType@@UAE_NU_MQ2VarPtr@MQ2Internal@@PAD@Z 030284f0 f i MQ2DataTypes.obj
 0001:00027510       ?FromData@MQ2DZMemberType@@UAE_NAAU_MQ2VarPtr@MQ2Internal@@AAU_MQ2TypeVar@3@@Z 03028510 f i MQ2DataTypes.obj
 0001:00027520       ?FromString@MQ2DZMemberType@@UAE_NAAU_MQ2VarPtr@MQ2Internal@@PAD@Z 03028520 f i MQ2DataTypes.obj
 0001:00027530       ??0MQ2FellowshipType@@QAE@XZ 03028530 f i MQ2DataTypes.obj
 0001:000275f0       ?ToString@MQ2FellowshipType@@UAE_NU_MQ2VarPtr@MQ2Internal@@PAD@Z 030285f0 f i MQ2DataTypes.obj
 0001:00027640       ?FromData@MQ2FellowshipType@@UAE_NAAU_MQ2VarPtr@MQ2Internal@@AAU_MQ2TypeVar@3@@Z 03028640 f i MQ2DataTypes.obj
 0001:00027650       ?FromString@MQ2FellowshipType@@UAE_NAAU_MQ2VarPtr@MQ2Internal@@PAD@Z 03028650 f i MQ2DataTypes.obj
 0001:00027660       ??0MQ2FellowshipMemberType@@QAE@XZ 03028660 f i MQ2DataTypes.obj
 0001:000276c0       ?ToString@MQ2FellowshipMemberType@@UAE_NU_MQ2VarPtr@MQ2Internal@@PAD@Z 030286c0 f i MQ2DataTypes.obj
 0001:000276e0       ?FromData@MQ2FellowshipMemberType@@UAE_NAAU_MQ2VarPtr@MQ2Internal@@AAU_MQ2TypeVar@3@@Z 030286e0 f i MQ2DataTypes.obj
 0001:000276f0       ?FromString@MQ2FellowshipMemberType@@UAE_NAAU_MQ2VarPtr@MQ2Internal@@PAD@Z 030286f0 f i MQ2DataTypes.obj
 0001:00027700       ??0MQ2FriendsType@@QAE@XZ  03028700 f i MQ2DataTypes.obj
 0001:00027730       ?ToString@MQ2FriendsType@@UAE_NU_MQ2VarPtr@MQ2Internal@@PAD@Z 03028730 f i MQ2DataTypes.obj
 0001:00027770       ?FromData@MQ2FriendsType@@UAE_NAAU_MQ2VarPtr@MQ2Internal@@AAU_MQ2TypeVar@3@@Z 03028770 f i MQ2DataTypes.obj
 0001:00027780       ?FromString@MQ2FriendsType@@UAE_NAAU_MQ2VarPtr@MQ2Internal@@PAD@Z 03028780 f i MQ2DataTypes.obj
 0001:00027790       ??1MQ2FriendsType@@QAE@XZ  03028790 f i MQ2DataTypes.obj
 0001:000277a0       ??0MQ2TargetType@@QAE@XZ   030287a0 f i MQ2DataTypes.obj
 0001:000277f0       ?ToString@MQ2TargetType@@UAE_NU_MQ2VarPtr@MQ2Internal@@PAD@Z 030287f0 f i MQ2DataTypes.obj
 0001:00027820       ?InitVariable@MQ2TargetType@@UAEXAAU_MQ2VarPtr@MQ2Internal@@@Z 03028820 f i MQ2DataTypes.obj
 0001:00027850       ?FreeVariable@MQ2TargetType@@UAEXAAU_MQ2VarPtr@MQ2Internal@@@Z 03028850 f i MQ2DataTypes.obj
 0001:00027860       ?FromData@MQ2TargetType@@UAE_NAAU_MQ2VarPtr@MQ2Internal@@AAU_MQ2TypeVar@3@@Z 03028860 f i MQ2DataTypes.obj
 0001:000278c0       ?FromString@MQ2TargetType@@UAE_NAAU_MQ2VarPtr@MQ2Internal@@PAD@Z 030288c0 f i MQ2DataTypes.obj
 0001:00027900       ??1MQ2TargetType@@QAE@XZ   03028900 f i MQ2DataTypes.obj
 0001:00027910       _InitializeMQ2DataTypes    03028910 f   MQ2DataTypes.obj
 0001:000281f0       ??_GMQ2SpawnType@@QAEPAXI@Z 030291f0 f i MQ2DataTypes.obj
 0001:00028220       ??_GMQ2FloatType@@QAEPAXI@Z 03029220 f i MQ2DataTypes.obj
 0001:00028250       ??_GMQ2IntType@@QAEPAXI@Z  03029250 f i MQ2DataTypes.obj
 0001:00028280       ??_GMQ2ByteType@@QAEPAXI@Z 03029280 f i MQ2DataTypes.obj
 0001:000282b0       ??_GMQ2StringType@@QAEPAXI@Z 030292b0 f i MQ2DataTypes.obj
 0001:000282e0       ??_GMQ2BuffType@@QAEPAXI@Z 030292e0 f i MQ2DataTypes.obj
 0001:00028310       ??_GMQ2SpellType@@QAEPAXI@Z 03029310 f i MQ2DataTypes.obj
 0001:00028340       ??_GMQ2TicksType@@QAEPAXI@Z 03029340 f i MQ2DataTypes.obj
 0001:00028370       ??_GMQ2CharacterType@@QAEPAXI@Z 03029370 f i MQ2DataTypes.obj
 0001:000283a0       ??_GMQ2ClassType@@QAEPAXI@Z 030293a0 f i MQ2DataTypes.obj
 0001:000283d0       ??_GMQ2RaceType@@QAEPAXI@Z 030293d0 f i MQ2DataTypes.obj
 0001:00028400       ??_GMQ2GroundType@@QAEPAXI@Z 03029400 f i MQ2DataTypes.obj
 0001:00028430       ??_GMQ2SwitchType@@QAEPAXI@Z 03029430 f i MQ2DataTypes.obj
 0001:00028460       ??_GMQ2MacroType@@QAEPAXI@Z 03029460 f i MQ2DataTypes.obj
 0001:00028490       ??_GMQ2MacroQuestType@@QAEPAXI@Z 03029490 f i MQ2DataTypes.obj
 0001:000284c0       ??_GMQ2MathType@@QAEPAXI@Z 030294c0 f i MQ2DataTypes.obj
 0001:000284f0       ??_GMQ2WindowType@@QAEPAXI@Z 030294f0 f i MQ2DataTypes.obj
 0001:00028520       ??_GMQ2MerchantType@@QAEPAXI@Z 03029520 f i MQ2DataTypes.obj
 0001:00028550       ??_GMQ2ZoneType@@QAEPAXI@Z 03029550 f i MQ2DataTypes.obj
 0001:00028580       ??_GMQ2ItemType@@QAEPAXI@Z 03029580 f i MQ2DataTypes.obj
 0001:000285b0       ??_GMQ2BoolType@@QAEPAXI@Z 030295b0 f i MQ2DataTypes.obj
 0001:000285e0       ??_GMQ2BodyType@@QAEPAXI@Z 030295e0 f i MQ2DataTypes.obj
 0001:00028610       ??_GMQ2DeityType@@QAEPAXI@Z 03029610 f i MQ2DataTypes.obj
 0001:00028640       ??_GMQ2ArgbType@@QAEPAXI@Z 03029640 f i MQ2DataTypes.obj
 0001:00028670       ??_GMQ2CorpseType@@QAEPAXI@Z 03029670 f i MQ2DataTypes.obj
 0001:000286a0       ??_GMQ2CurrentZoneType@@QAEPAXI@Z 030296a0 f i MQ2DataTypes.obj
 0001:000286d0       ??_GMQ2TypeType@@QAEPAXI@Z 030296d0 f i MQ2DataTypes.obj
 0001:00028700       ??_GMQ2TimeType@@QAEPAXI@Z 03029700 f i MQ2DataTypes.obj
 0001:00028730       ??_GMQ2HeadingType@@QAEPAXI@Z 03029730 f i MQ2DataTypes.obj
 0001:00028760       ??_GMQ2ArrayType@@QAEPAXI@Z 03029760 f i MQ2DataTypes.obj
 0001:00028790       ??_GMQ2TimerType@@QAEPAXI@Z 03029790 f i MQ2DataTypes.obj
 0001:000287c0       ??_GMQ2PluginType@@QAEPAXI@Z 030297c0 f i MQ2DataTypes.obj
 0001:000287f0       ??_GMQ2SkillType@@QAEPAXI@Z 030297f0 f i MQ2DataTypes.obj
 0001:00028820       ??_GMQ2AltAbilityType@@QAEPAXI@Z 03029820 f i MQ2DataTypes.obj
 0001:00028850       ??_GMQ2RaidType@@QAEPAXI@Z 03029850 f i MQ2DataTypes.obj
 0001:00028880       ??_GMQ2RaidMemberType@@QAEPAXI@Z 03029880 f i MQ2DataTypes.obj
 0001:000288b0       ??_GMQ2GroupType@@QAEPAXI@Z 030298b0 f i MQ2DataTypes.obj
 0001:000288e0       ??_GMQ2GroupMemberType@@QAEPAXI@Z 030298e0 f i MQ2DataTypes.obj
 0001:00028910       ??_GMQ2EvolvingItemType@@QAEPAXI@Z 03029910 f i MQ2DataTypes.obj
 0001:00028940       ??_GMQ2DynamicZoneType@@QAEPAXI@Z 03029940 f i MQ2DataTypes.obj
 0001:00028970       ??_GMQ2FriendsType@@QAEPAXI@Z 03029970 f i MQ2DataTypes.obj
 0001:000289a0       ??_GMQ2TargetType@@QAEPAXI@Z 030299a0 f i MQ2DataTypes.obj
 0001:000289d0       _ShutdownMQ2DataTypes      030299d0 f   MQ2DataTypes.obj
 0001:00028f40       ?stristr@Blech@@SAPBDPBD0@Z 03029f40 f i MQ2DataVars.obj
 0001:00029000       ?FreeExecution@Blech@@AAEXPAU_BLECHEXECUTE@@@Z 0302a000 f i MQ2DataVars.obj
 0001:00029050       ?ProcessExecutionList@Blech@@AAEIPAPAU_BLECHEXECUTE@@@Z 0302a050 f i MQ2DataVars.obj
 0001:000290c0       ?QueueEvent@Blech@@AAEXPAPAU_BLECHEXECUTE@@PAU_BLECHEVENT@@PAU_BLECHVALUE@@@Z 0302a0c0 f i MQ2DataVars.obj
 0001:00029150       ?QueueEvents@Blech@@AAEXPAPAU_BLECHEXECUTE@@PAVBlechNode@@PBDI@Z 0302a150 f i MQ2DataVars.obj
 0001:00029600       ?Chew@Blech@@AAEIPAVBlechNode@@PBD@Z 0302a600 f i MQ2DataVars.obj
 0001:000298f0       ??0CDataArray@MQ2Internal@@QAE@PAVMQ2Type@1@PAD1@Z 0302a8f0 f i MQ2DataVars.obj
 0001:00029a00       ?GetElement@CDataArray@MQ2Internal@@QAEHPAD@Z 0302aa00 f i MQ2DataVars.obj
 0001:00029b40       _FindVariableScope         0302ab40 f   MQ2DataVars.obj
 0001:00029bb0       ??0?$allocator@U?$pair@$$CBV?$basic_string@DU?$char_traits@D@std@@V?$allocator@D@2@@std@@PAU_DATAVAR@MQ2Internal@@@std@@@std@@QAE@XZ 0302abb0 f i MQ2DataVars.obj
 0001:00029bc0       ??8const_iterator@?$_Tree@V?$_Tmap_traits@V?$basic_string@DU?$char_traits@D@std@@V?$allocator@D@2@@std@@PAU_DATAVAR@MQ2Internal@@U?$less@V?$basic_string@DU?$char_traits@D@std@@V?$allocator@D@2@@std@@@2@V?$allocator@U?$pair@$$CBV?$basic_string@DU?$char_traits@D@std@@V?$allocator@D@2@@std@@PAU_DATAVAR@MQ2Internal@@@std@@@2@$0A@@std@@@std@@QBE_NABV012@@Z 0302abc0 f i MQ2DataVars.obj
 0001:00029bf0       ?_Mynode@const_iterator@?$_Tree@V?$_Tmap_traits@V?$basic_string@DU?$char_traits@D@std@@V?$allocator@D@2@@std@@PAU_DATAVAR@MQ2Internal@@U?$less@V?$basic_string@DU?$char_traits@D@std@@V?$allocator@D@2@@std@@@2@V?$allocator@U?$pair@$$CBV?$basic_string@DU?$char_traits@D@std@@V?$allocator@D@2@@std@@PAU_DATAVAR@MQ2Internal@@@std@@@2@$0A@@std@@@std@@QBEPAU_Node@?$_Tree_nod@V?$_Tmap_traits@V?$basic_string@DU?$char_traits@D@std@@V?$allocator@D@2@@std@@PAU_DATAVAR@MQ2Internal@@U?$less@V?$basic_string@DU?$char_traits@D@std@@V?$allocator@D@2@@std@@@2@V?$allocator@U?$pair@$$CBV?$basic_string@DU?$char_traits@D@std@@V?$allocator@D@2@@std@@PAU_DATAVAR@MQ2Internal@@@std@@@2@$0A@@std@@@3@XZ 0302abf0 f i MQ2DataVars.obj
 0001:00029c00       ?_Isnil@?$_Tree@V?$_Tmap_traits@V?$basic_string@DU?$char_traits@D@std@@V?$allocator@D@2@@std@@PAU_DATAVAR@MQ2Internal@@U?$less@V?$basic_string@DU?$char_traits@D@std@@V?$allocator@D@2@@std@@@2@V?$allocator@U?$pair@$$CBV?$basic_string@DU?$char_traits@D@std@@V?$allocator@D@2@@std@@PAU_DATAVAR@MQ2Internal@@@std@@@2@$0A@@std@@@std@@KAAADPAU_Node@?$_Tree_nod@V?$_Tmap_traits@V?$basic_string@DU?$char_traits@D@std@@V?$allocator@D@2@@std@@PAU_DATAVAR@MQ2Internal@@U?$less@V?$basic_string@DU?$char_traits@D@std@@V?$allocator@D@2@@std@@@2@V?$allocator@U?$pair@$$CBV?$basic_string@DU?$char_traits@D@std@@V?$allocator@D@2@@std@@PAU_DATAVAR@MQ2Internal@@@std@@@2@$0A@@std@@@2@@Z 0302ac00 f i MQ2DataVars.obj
 0001:00029c10       ?_Left@?$_Tree@V?$_Tmap_traits@V?$basic_string@DU?$char_traits@D@std@@V?$allocator@D@2@@std@@PAU_DATAVAR@MQ2Internal@@U?$less@V?$basic_string@DU?$char_traits@D@std@@V?$allocator@D@2@@std@@@2@V?$allocator@U?$pair@$$CBV?$basic_string@DU?$char_traits@D@std@@V?$allocator@D@2@@std@@PAU_DATAVAR@MQ2Internal@@@std@@@2@$0A@@std@@@std@@KAAAPAU_Node@?$_Tree_nod@V?$_Tmap_traits@V?$basic_string@DU?$char_traits@D@std@@V?$allocator@D@2@@std@@PAU_DATAVAR@MQ2Internal@@U?$less@V?$basic_string@DU?$char_traits@D@std@@V?$allocator@D@2@@std@@@2@V?$allocator@U?$pair@$$CBV?$basic_string@DU?$char_traits@D@std@@V?$allocator@D@2@@std@@PAU_DATAVAR@MQ2Internal@@@std@@@2@$0A@@std@@@2@PAU342@@Z 0302ac10 f i MQ2DataVars.obj
 0001:00029c20       ?_Parent@?$_Tree@V?$_Tmap_traits@V?$basic_string@DU?$char_traits@D@std@@V?$allocator@D@2@@std@@PAU_DATAVAR@MQ2Internal@@U?$less@V?$basic_string@DU?$char_traits@D@std@@V?$allocator@D@2@@std@@@2@V?$allocator@U?$pair@$$CBV?$basic_string@DU?$char_traits@D@std@@V?$allocator@D@2@@std@@PAU_DATAVAR@MQ2Internal@@@std@@@2@$0A@@std@@@std@@KAAAPAU_Node@?$_Tree_nod@V?$_Tmap_traits@V?$basic_string@DU?$char_traits@D@std@@V?$allocator@D@2@@std@@PAU_DATAVAR@MQ2Internal@@U?$less@V?$basic_string@DU?$char_traits@D@std@@V?$allocator@D@2@@std@@@2@V?$allocator@U?$pair@$$CBV?$basic_string@DU?$char_traits@D@std@@V?$allocator@D@2@@std@@PAU_DATAVAR@MQ2Internal@@@std@@@2@$0A@@std@@@2@PAU342@@Z 0302ac20 f i MQ2DataVars.obj
 0001:00029c30       ?_Right@?$_Tree@V?$_Tmap_traits@V?$basic_string@DU?$char_traits@D@std@@V?$allocator@D@2@@std@@PAU_DATAVAR@MQ2Internal@@U?$less@V?$basic_string@DU?$char_traits@D@std@@V?$allocator@D@2@@std@@@2@V?$allocator@U?$pair@$$CBV?$basic_string@DU?$char_traits@D@std@@V?$allocator@D@2@@std@@PAU_DATAVAR@MQ2Internal@@@std@@@2@$0A@@std@@@std@@KAAAPAU_Node@?$_Tree_nod@V?$_Tmap_traits@V?$basic_string@DU?$char_traits@D@std@@V?$allocator@D@2@@std@@PAU_DATAVAR@MQ2Internal@@U?$less@V?$basic_string@DU?$char_traits@D@std@@V?$allocator@D@2@@std@@@2@V?$allocator@U?$pair@$$CBV?$basic_string@DU?$char_traits@D@std@@V?$allocator@D@2@@std@@PAU_DATAVAR@MQ2Internal@@@std@@@2@$0A@@std@@@2@PAU342@@Z 0302ac30 f i MQ2DataVars.obj
 0001:00029c40       ?_Myval@?$_Tree@V?$_Tmap_traits@V?$basic_string@DU?$char_traits@D@std@@V?$allocator@D@2@@std@@PAU_DATAVAR@MQ2Internal@@U?$less@V?$basic_string@DU?$char_traits@D@std@@V?$allocator@D@2@@std@@@2@V?$allocator@U?$pair@$$CBV?$basic_string@DU?$char_traits@D@std@@V?$allocator@D@2@@std@@PAU_DATAVAR@MQ2Internal@@@std@@@2@$0A@@std@@@std@@KAAAU?$pair@$$CBV?$basic_string@DU?$char_traits@D@std@@V?$allocator@D@2@@std@@PAU_DATAVAR@MQ2Internal@@@2@PAU_Node@?$_Tree_nod@V?$_Tmap_traits@V?$basic_string@DU?$char_traits@D@std@@V?$allocator@D@2@@std@@PAU_DATAVAR@MQ2Internal@@U?$less@V?$basic_string@DU?$char_traits@D@std@@V?$allocator@D@2@@std@@@2@V?$allocator@U?$pair@$$CBV?$basic_string@DU?$char_traits@D@std@@V?$allocator@D@2@@std@@PAU_DATAVAR@MQ2Internal@@@std@@@2@$0A@@std@@@2@@Z 0302ac40 f i MQ2DataVars.obj
 0001:00029c50       ?size@?$_Tree@V?$_Tmap_traits@V?$basic_string@DU?$char_traits@D@std@@V?$allocator@D@2@@std@@PAU_DATAVAR@MQ2Internal@@U?$less@V?$basic_string@DU?$char_traits@D@std@@V?$allocator@D@2@@std@@@2@V?$allocator@U?$pair@$$CBV?$basic_string@DU?$char_traits@D@std@@V?$allocator@D@2@@std@@PAU_DATAVAR@MQ2Internal@@@std@@@2@$0A@@std@@@std@@QBEIXZ 0302ac50 f i MQ2DataVars.obj
 0001:00029c60       ?_Rmost@?$_Tree@V?$_Tmap_traits@V?$basic_string@DU?$char_traits@D@std@@V?$allocator@D@2@@std@@PAU_DATAVAR@MQ2Internal@@U?$less@V?$basic_string@DU?$char_traits@D@std@@V?$allocator@D@2@@std@@@2@V?$allocator@U?$pair@$$CBV?$basic_string@DU?$char_traits@D@std@@V?$allocator@D@2@@std@@PAU_DATAVAR@MQ2Internal@@@std@@@2@$0A@@std@@@std@@IBEAAPAU_Node@?$_Tree_nod@V?$_Tmap_traits@V?$basic_string@DU?$char_traits@D@std@@V?$allocator@D@2@@std@@PAU_DATAVAR@MQ2Internal@@U?$less@V?$basic_string@DU?$char_traits@D@std@@V?$allocator@D@2@@std@@@2@V?$allocator@U?$pair@$$CBV?$basic_string@DU?$char_traits@D@std@@V?$allocator@D@2@@std@@PAU_DATAVAR@MQ2Internal@@@std@@@2@$0A@@std@@@2@XZ 0302ac60 f i MQ2DataVars.obj
 0001:00029c70       ?_Kfn@?$_Tmap_traits@V?$basic_string@DU?$char_traits@D@std@@V?$allocator@D@2@@std@@PAU_DATAVAR@MQ2Internal@@U?$less@V?$basic_string@DU?$char_traits@D@std@@V?$allocator@D@2@@std@@@2@V?$allocator@U?$pair@$$CBV?$basic_string@DU?$char_traits@D@std@@V?$allocator@D@2@@std@@PAU_DATAVAR@MQ2Internal@@@std@@@2@$0A@@std@@SAABV?$basic_string@DU?$char_traits@D@std@@V?$allocator@D@2@@2@ABU?$pair@$$CBV?$basic_string@DU?$char_traits@D@std@@V?$allocator@D@2@@std@@PAU_DATAVAR@MQ2Internal@@@2@@Z 0302ac70 f i MQ2DataVars.obj
 0001:00029c80       ??0?$allocator@U?$pair@$$CBV?$basic_string@DU?$char_traits@D@std@@V?$allocator@D@2@@std@@PAU_DATAVAR@MQ2Internal@@@std@@@std@@QAE@ABV01@@Z 0302ac80 f i MQ2DataVars.obj
 0001:00029c90       ?deallocate@?$allocator@U_Node@?$_Tree_nod@V?$_Tmap_traits@V?$basic_string@DU?$char_traits@D@std@@V?$allocator@D@2@@std@@PAU_DATAVAR@MQ2Internal@@U?$less@V?$basic_string@DU?$char_traits@D@std@@V?$allocator@D@2@@std@@@2@V?$allocator@U?$pair@$$CBV?$basic_string@DU?$char_traits@D@std@@V?$allocator@D@2@@std@@PAU_DATAVAR@MQ2Internal@@@std@@@2@$0A@@std@@@std@@@std@@QAEXPAU_Node@?$_Tree_nod@V?$_Tmap_traits@V?$basic_string@DU?$char_traits@D@std@@V?$allocator@D@2@@std@@PAU_DATAVAR@MQ2Internal@@U?$less@V?$basic_string@DU?$char_traits@D@std@@V?$allocator@D@2@@std@@@2@V?$allocator@U?$pair@$$CBV?$basic_string@DU?$char_traits@D@std@@V?$allocator@D@2@@std@@PAU_DATAVAR@MQ2Internal@@@std@@@2@$0A@@std@@@2@I@Z 0302ac90 f i MQ2DataVars.obj
 0001:00029ca0       ??Dconst_iterator@?$_Tree@V?$_Tmap_traits@V?$basic_string@DU?$char_traits@D@std@@V?$allocator@D@2@@std@@PAU_DATAVAR@MQ2Internal@@U?$less@V?$basic_string@DU?$char_traits@D@std@@V?$allocator@D@2@@std@@@2@V?$allocator@U?$pair@$$CBV?$basic_string@DU?$char_traits@D@std@@V?$allocator@D@2@@std@@PAU_DATAVAR@MQ2Internal@@@std@@@2@$0A@@std@@@std@@QBEABU?$pair@$$CBV?$basic_string@DU?$char_traits@D@std@@V?$allocator@D@2@@std@@PAU_DATAVAR@MQ2Internal@@@2@XZ 0302aca0 f i MQ2DataVars.obj
 0001:00029cd0       ??0?$_Iterator_with_base@Ubidirectional_iterator_tag@std@@U?$pair@$$CBV?$basic_string@DU?$char_traits@D@std@@V?$allocator@D@2@@std@@PAU_DATAVAR@MQ2Internal@@@2@HPBU32@ABU32@V_Iterator_base_aux@2@@std@@QAE@XZ 0302acd0 f i MQ2DataVars.obj
 0001:00029ce0       ?_Color@?$_Tree@V?$_Tmap_traits@V?$basic_string@DU?$char_traits@D@std@@V?$allocator@D@2@@std@@PAU_DATAVAR@MQ2Internal@@U?$less@V?$basic_string@DU?$char_traits@D@std@@V?$allocator@D@2@@std@@@2@V?$allocator@U?$pair@$$CBV?$basic_string@DU?$char_traits@D@std@@V?$allocator@D@2@@std@@PAU_DATAVAR@MQ2Internal@@@std@@@2@$0A@@std@@@std@@KAAADPAU_Node@?$_Tree_nod@V?$_Tmap_traits@V?$basic_string@DU?$char_traits@D@std@@V?$allocator@D@2@@std@@PAU_DATAVAR@MQ2Internal@@U?$less@V?$basic_string@DU?$char_traits@D@std@@V?$allocator@D@2@@std@@@2@V?$allocator@U?$pair@$$CBV?$basic_string@DU?$char_traits@D@std@@V?$allocator@D@2@@std@@PAU_DATAVAR@MQ2Internal@@@std@@@2@$0A@@std@@@2@@Z 0302ace0 f i MQ2DataVars.obj
 0001:00029cf0       ?_Lmost@?$_Tree@V?$_Tmap_traits@V?$basic_string@DU?$char_traits@D@std@@V?$allocator@D@2@@std@@PAU_DATAVAR@MQ2Internal@@U?$less@V?$basic_string@DU?$char_traits@D@std@@V?$allocator@D@2@@std@@@2@V?$allocator@U?$pair@$$CBV?$basic_string@DU?$char_traits@D@std@@V?$allocator@D@2@@std@@PAU_DATAVAR@MQ2Internal@@@std@@@2@$0A@@std@@@std@@IBEAAPAU_Node@?$_Tree_nod@V?$_Tmap_traits@V?$basic_string@DU?$char_traits@D@std@@V?$allocator@D@2@@std@@PAU_DATAVAR@MQ2Internal@@U?$less@V?$basic_string@DU?$char_traits@D@std@@V?$allocator@D@2@@std@@@2@V?$allocator@U?$pair@$$CBV?$basic_string@DU?$char_traits@D@std@@V?$allocator@D@2@@std@@PAU_DATAVAR@MQ2Internal@@@std@@@2@$0A@@std@@@2@XZ 0302acf0 f i MQ2DataVars.obj
 0001:00029d00       ?_Root@?$_Tree@V?$_Tmap_traits@V?$basic_string@DU?$char_traits@D@std@@V?$allocator@D@2@@std@@PAU_DATAVAR@MQ2Internal@@U?$less@V?$basic_string@DU?$char_traits@D@std@@V?$allocator@D@2@@std@@@2@V?$allocator@U?$pair@$$CBV?$basic_string@DU?$char_traits@D@std@@V?$allocator@D@2@@std@@PAU_DATAVAR@MQ2Internal@@@std@@@2@$0A@@std@@@std@@IBEAAPAU_Node@?$_Tree_nod@V?$_Tmap_traits@V?$basic_string@DU?$char_traits@D@std@@V?$allocator@D@2@@std@@PAU_DATAVAR@MQ2Internal@@U?$less@V?$basic_string@DU?$char_traits@D@std@@V?$allocator@D@2@@std@@@2@V?$allocator@U?$pair@$$CBV?$basic_string@DU?$char_traits@D@std@@V?$allocator@D@2@@std@@PAU_DATAVAR@MQ2Internal@@@std@@@2@$0A@@std@@@2@XZ 0302ad00 f i MQ2DataVars.obj
 0001:00029d10       ?_Rrotate@?$_Tree@V?$_Tmap_traits@V?$basic_string@DU?$char_traits@D@std@@V?$allocator@D@2@@std@@PAU_DATAVAR@MQ2Internal@@U?$less@V?$basic_string@DU?$char_traits@D@std@@V?$allocator@D@2@@std@@@2@V?$allocator@U?$pair@$$CBV?$basic_string@DU?$char_traits@D@std@@V?$allocator@D@2@@std@@PAU_DATAVAR@MQ2Internal@@@std@@@2@$0A@@std@@@std@@IAEXPAU_Node@?$_Tree_nod@V?$_Tmap_traits@V?$basic_string@DU?$char_traits@D@std@@V?$allocator@D@2@@std@@PAU_DATAVAR@MQ2Internal@@U?$less@V?$basic_string@DU?$char_traits@D@std@@V?$allocator@D@2@@std@@@2@V?$allocator@U?$pair@$$CBV?$basic_string@DU?$char_traits@D@std@@V?$allocator@D@2@@std@@PAU_DATAVAR@MQ2Internal@@@std@@@2@$0A@@std@@@2@@Z 0302ad10 f i MQ2DataVars.obj
 0001:00029d70       ??9const_iterator@?$_Tree@V?$_Tmap_traits@V?$basic_string@DU?$char_traits@D@std@@V?$allocator@D@2@@std@@PAU_DATAVAR@MQ2Internal@@U?$less@V?$basic_string@DU?$char_traits@D@std@@V?$allocator@D@2@@std@@@2@V?$allocator@U?$pair@$$CBV?$basic_string@DU?$char_traits@D@std@@V?$allocator@D@2@@std@@PAU_DATAVAR@MQ2Internal@@@std@@@2@$0A@@std@@@std@@QBE_NABV012@@Z 0302ad70 f i MQ2DataVars.obj
 0001:00029da0       ??0?$pair@Viterator@?$_Tree@V?$_Tmap_traits@V?$basic_string@DU?$char_traits@D@std@@V?$allocator@D@2@@std@@PAU_DATAVAR@MQ2Internal@@U?$less@V?$basic_string@DU?$char_traits@D@std@@V?$allocator@D@2@@std@@@2@V?$allocator@U?$pair@$$CBV?$basic_string@DU?$char_traits@D@std@@V?$allocator@D@2@@std@@PAU_DATAVAR@MQ2Internal@@@std@@@2@$0A@@std@@@std@@_N@std@@QAE@ABViterator@?$_Tree@V?$_Tmap_traits@V?$basic_string@DU?$char_traits@D@std@@V?$allocator@D@2@@std@@PAU_DATAVAR@MQ2Internal@@U?$less@V?$basic_string@DU?$char_traits@D@std@@V?$allocator@D@2@@std@@@2@V?$allocator@U?$pair@$$CBV?$basic_string@DU?$char_traits@D@std@@V?$allocator@D@2@@std@@PAU_DATAVAR@MQ2Internal@@@std@@@2@$0A@@std@@@1@AB_N@Z 0302ada0 f i MQ2DataVars.obj
 0001:00029dc0       ?_Max@?$_Tree@V?$_Tmap_traits@V?$basic_string@DU?$char_traits@D@std@@V?$allocator@D@2@@std@@PAU_DATAVAR@MQ2Internal@@U?$less@V?$basic_string@DU?$char_traits@D@std@@V?$allocator@D@2@@std@@@2@V?$allocator@U?$pair@$$CBV?$basic_string@DU?$char_traits@D@std@@V?$allocator@D@2@@std@@PAU_DATAVAR@MQ2Internal@@@std@@@2@$0A@@std@@@std@@KAPAU_Node@?$_Tree_nod@V?$_Tmap_traits@V?$basic_string@DU?$char_traits@D@std@@V?$allocator@D@2@@std@@PAU_DATAVAR@MQ2Internal@@U?$less@V?$basic_string@DU?$char_traits@D@std@@V?$allocator@D@2@@std@@@2@V?$allocator@U?$pair@$$CBV?$basic_string@DU?$char_traits@D@std@@V?$allocator@D@2@@std@@PAU_DATAVAR@MQ2Internal@@@std@@@2@$0A@@std@@@2@PAU342@@Z 0302adc0 f i MQ2DataVars.obj
 0001:00029de0       ?_Min@?$_Tree@V?$_Tmap_traits@V?$basic_string@DU?$char_traits@D@std@@V?$allocator@D@2@@std@@PAU_DATAVAR@MQ2Internal@@U?$less@V?$basic_string@DU?$char_traits@D@std@@V?$allocator@D@2@@std@@@2@V?$allocator@U?$pair@$$CBV?$basic_string@DU?$char_traits@D@std@@V?$allocator@D@2@@std@@PAU_DATAVAR@MQ2Internal@@@std@@@2@$0A@@std@@@std@@KAPAU_Node@?$_Tree_nod@V?$_Tmap_traits@V?$basic_string@DU?$char_traits@D@std@@V?$allocator@D@2@@std@@PAU_DATAVAR@MQ2Internal@@U?$less@V?$basic_string@DU?$char_traits@D@std@@V?$allocator@D@2@@std@@@2@V?$allocator@U?$pair@$$CBV?$basic_string@DU?$char_traits@D@std@@V?$allocator@D@2@@std@@PAU_DATAVAR@MQ2Internal@@@std@@@2@$0A@@std@@@2@PAU342@@Z 0302ade0 f i MQ2DataVars.obj
 0001:00029e00       ?max_size@?$allocator@U?$pair@$$CBV?$basic_string@DU?$char_traits@D@std@@V?$allocator@D@2@@std@@PAU_DATAVAR@MQ2Internal@@@std@@@std@@QBEIXZ 0302ae00 f i MQ2DataVars.obj
 0001:00029e10       ??$_Destroy@PAU_Node@?$_Tree_nod@V?$_Tmap_traits@V?$basic_string@DU?$char_traits@D@std@@V?$allocator@D@2@@std@@PAU_DATAVAR@MQ2Internal@@U?$less@V?$basic_string@DU?$char_traits@D@std@@V?$allocator@D@2@@std@@@2@V?$allocator@U?$pair@$$CBV?$basic_string@DU?$char_traits@D@std@@V?$allocator@D@2@@std@@PAU_DATAVAR@MQ2Internal@@@std@@@2@$0A@@std@@@std@@@std@@YAXPAPAU_Node@?$_Tree_nod@V?$_Tmap_traits@V?$basic_string@DU?$char_traits@D@std@@V?$allocator@D@2@@std@@PAU_DATAVAR@MQ2Internal@@U?$less@V?$basic_string@DU?$char_traits@D@std@@V?$allocator@D@2@@std@@@2@V?$allocator@U?$pair@$$CBV?$basic_string@DU?$char_traits@D@std@@V?$allocator@D@2@@std@@PAU_DATAVAR@MQ2Internal@@@std@@@2@$0A@@std@@@0@@Z 0302ae10 f i MQ2DataVars.obj
 0001:00029e20       ??$?0U?$pair@$$CBV?$basic_string@DU?$char_traits@D@std@@V?$allocator@D@2@@std@@PAU_DATAVAR@MQ2Internal@@@std@@@?$allocator@PAU_Node@?$_Tree_nod@V?$_Tmap_traits@V?$basic_string@DU?$char_traits@D@std@@V?$allocator@D@2@@std@@PAU_DATAVAR@MQ2Internal@@U?$less@V?$basic_string@DU?$char_traits@D@std@@V?$allocator@D@2@@std@@@2@V?$allocator@U?$pair@$$CBV?$basic_string@DU?$char_traits@D@std@@V?$allocator@D@2@@std@@PAU_DATAVAR@MQ2Internal@@@std@@@2@$0A@@std@@@std@@@std@@QAE@ABV?$allocator@U?$pair@$$CBV?$basic_string@DU?$char_traits@D@std@@V?$allocator@D@2@@std@@PAU_DATAVAR@MQ2Internal@@@std@@@1@@Z 0302ae20 f i MQ2DataVars.obj
 0001:00029e30       ??$?0U?$pair@$$CBV?$basic_string@DU?$char_traits@D@std@@V?$allocator@D@2@@std@@PAU_DATAVAR@MQ2Internal@@@std@@@?$allocator@U_Node@?$_Tree_nod@V?$_Tmap_traits@V?$basic_string@DU?$char_traits@D@std@@V?$allocator@D@2@@std@@PAU_DATAVAR@MQ2Internal@@U?$less@V?$basic_string@DU?$char_traits@D@std@@V?$allocator@D@2@@std@@@2@V?$allocator@U?$pair@$$CBV?$basic_string@DU?$char_traits@D@std@@V?$allocator@D@2@@std@@PAU_DATAVAR@MQ2Internal@@@std@@@2@$0A@@std@@@std@@@std@@QAE@ABV?$allocator@U?$pair@$$CBV?$basic_string@DU?$char_traits@D@std@@V?$allocator@D@2@@std@@PAU_DATAVAR@MQ2Internal@@@std@@@1@@Z 0302ae30 f i MQ2DataVars.obj
 0001:00029e40       ??$_Allocate@U_Node@?$_Tree_nod@V?$_Tmap_traits@V?$basic_string@DU?$char_traits@D@std@@V?$allocator@D@2@@std@@PAU_DATAVAR@MQ2Internal@@U?$less@V?$basic_string@DU?$char_traits@D@std@@V?$allocator@D@2@@std@@@2@V?$allocator@U?$pair@$$CBV?$basic_string@DU?$char_traits@D@std@@V?$allocator@D@2@@std@@PAU_DATAVAR@MQ2Internal@@@std@@@2@$0A@@std@@@std@@@std@@YAPAU_Node@?$_Tree_nod@V?$_Tmap_traits@V?$basic_string@DU?$char_traits@D@std@@V?$allocator@D@2@@std@@PAU_DATAVAR@MQ2Internal@@U?$less@V?$basic_string@DU?$char_traits@D@std@@V?$allocator@D@2@@std@@@2@V?$allocator@U?$pair@$$CBV?$basic_string@DU?$char_traits@D@std@@V?$allocator@D@2@@std@@PAU_DATAVAR@MQ2Internal@@@std@@@2@$0A@@std@@@0@IPAU120@@Z 0302ae40 f i MQ2DataVars.obj
 0001:00029ea0       ??$_Construct@PAU_Node@?$_Tree_nod@V?$_Tmap_traits@V?$basic_string@DU?$char_traits@D@std@@V?$allocator@D@2@@std@@PAU_DATAVAR@MQ2Internal@@U?$less@V?$basic_string@DU?$char_traits@D@std@@V?$allocator@D@2@@std@@@2@V?$allocator@U?$pair@$$CBV?$basic_string@DU?$char_traits@D@std@@V?$allocator@D@2@@std@@PAU_DATAVAR@MQ2Internal@@@std@@@2@$0A@@std@@@std@@PAU123@@std@@YAXPAPAU_Node@?$_Tree_nod@V?$_Tmap_traits@V?$basic_string@DU?$char_traits@D@std@@V?$allocator@D@2@@std@@PAU_DATAVAR@MQ2Internal@@U?$less@V?$basic_string@DU?$char_traits@D@std@@V?$allocator@D@2@@std@@@2@V?$allocator@U?$pair@$$CBV?$basic_string@DU?$char_traits@D@std@@V?$allocator@D@2@@std@@PAU_DATAVAR@MQ2Internal@@@std@@@2@$0A@@std@@@0@ABQAU120@@Z 0302aea0 f i MQ2DataVars.obj
 0001:00029ec0       ??$?0U?$pair@$$CBV?$basic_string@DU?$char_traits@D@std@@V?$allocator@D@2@@std@@PAU_DATAVAR@MQ2Internal@@@std@@@?$allocator@V_Aux_cont@std@@@std@@QAE@ABV?$allocator@U?$pair@$$CBV?$basic_string@DU?$char_traits@D@std@@V?$allocator@D@2@@std@@PAU_DATAVAR@MQ2Internal@@@std@@@1@@Z 0302aec0 f i MQ2DataVars.obj
 0001:00029ed0       ?Feed@Blech@@QAEIPBD@Z     0302aed0 f i MQ2DataVars.obj
 0001:00029f20       ?_Key@?$_Tree@V?$_Tmap_traits@V?$basic_string@DU?$char_traits@D@std@@V?$allocator@D@2@@std@@PAU_DATAVAR@MQ2Internal@@U?$less@V?$basic_string@DU?$char_traits@D@std@@V?$allocator@D@2@@std@@@2@V?$allocator@U?$pair@$$CBV?$basic_string@DU?$char_traits@D@std@@V?$allocator@D@2@@std@@PAU_DATAVAR@MQ2Internal@@@std@@@2@$0A@@std@@@std@@KAABV?$basic_string@DU?$char_traits@D@std@@V?$allocator@D@2@@2@PAU_Node@?$_Tree_nod@V?$_Tmap_traits@V?$basic_string@DU?$char_traits@D@std@@V?$allocator@D@2@@std@@PAU_DATAVAR@MQ2Internal@@U?$less@V?$basic_string@DU?$char_traits@D@std@@V?$allocator@D@2@@std@@@2@V?$allocator@U?$pair@$$CBV?$basic_string@DU?$char_traits@D@std@@V?$allocator@D@2@@std@@PAU_DATAVAR@MQ2Internal@@@std@@@2@$0A@@std@@@2@@Z 0302af20 f i MQ2DataVars.obj
 0001:00029f30       ??1?$_Container_base_aux_alloc_real@V?$allocator@U?$pair@$$CBV?$basic_string@DU?$char_traits@D@std@@V?$allocator@D@2@@std@@PAU_DATAVAR@MQ2Internal@@@std@@@std@@@std@@IAE@XZ 0302af30 f i MQ2DataVars.obj
 0001:00029f40       ??Diterator@?$_Tree@V?$_Tmap_traits@V?$basic_string@DU?$char_traits@D@std@@V?$allocator@D@2@@std@@PAU_DATAVAR@MQ2Internal@@U?$less@V?$basic_string@DU?$char_traits@D@std@@V?$allocator@D@2@@std@@@2@V?$allocator@U?$pair@$$CBV?$basic_string@DU?$char_traits@D@std@@V?$allocator@D@2@@std@@PAU_DATAVAR@MQ2Internal@@@std@@@2@$0A@@std@@@std@@QBEAAU?$pair@$$CBV?$basic_string@DU?$char_traits@D@std@@V?$allocator@D@2@@std@@PAU_DATAVAR@MQ2Internal@@@2@XZ 0302af40 f i MQ2DataVars.obj
 0001:00029f70       ?destroy@?$allocator@PAU_Node@?$_Tree_nod@V?$_Tmap_traits@V?$basic_string@DU?$char_traits@D@std@@V?$allocator@D@2@@std@@PAU_DATAVAR@MQ2Internal@@U?$less@V?$basic_string@DU?$char_traits@D@std@@V?$allocator@D@2@@std@@@2@V?$allocator@U?$pair@$$CBV?$basic_string@DU?$char_traits@D@std@@V?$allocator@D@2@@std@@PAU_DATAVAR@MQ2Internal@@@std@@@2@$0A@@std@@@std@@@std@@QAEXPAPAU_Node@?$_Tree_nod@V?$_Tmap_traits@V?$basic_string@DU?$char_traits@D@std@@V?$allocator@D@2@@std@@PAU_DATAVAR@MQ2Internal@@U?$less@V?$basic_string@DU?$char_traits@D@std@@V?$allocator@D@2@@std@@@2@V?$allocator@U?$pair@$$CBV?$basic_string@DU?$char_traits@D@std@@V?$allocator@D@2@@std@@PAU_DATAVAR@MQ2Internal@@@std@@@2@$0A@@std@@@2@@Z 0302af70 f i MQ2DataVars.obj
 0001:00029f80       ??0?$_Bidit@U?$pair@$$CBV?$basic_string@DU?$char_traits@D@std@@V?$allocator@D@2@@std@@PAU_DATAVAR@MQ2Internal@@@std@@HPBU12@ABU12@@std@@QAE@XZ 0302af80 f i MQ2DataVars.obj
 0001:00029f90       ?max_size@?$_Tree@V?$_Tmap_traits@V?$basic_string@DU?$char_traits@D@std@@V?$allocator@D@2@@std@@PAU_DATAVAR@MQ2Internal@@U?$less@V?$basic_string@DU?$char_traits@D@std@@V?$allocator@D@2@@std@@@2@V?$allocator@U?$pair@$$CBV?$basic_string@DU?$char_traits@D@std@@V?$allocator@D@2@@std@@PAU_DATAVAR@MQ2Internal@@@std@@@2@$0A@@std@@@std@@QBEIXZ 0302af90 f i MQ2DataVars.obj
 0001:00029fa0       ?_Lrotate@?$_Tree@V?$_Tmap_traits@V?$basic_string@DU?$char_traits@D@std@@V?$allocator@D@2@@std@@PAU_DATAVAR@MQ2Internal@@U?$less@V?$basic_string@DU?$char_traits@D@std@@V?$allocator@D@2@@std@@@2@V?$allocator@U?$pair@$$CBV?$basic_string@DU?$char_traits@D@std@@V?$allocator@D@2@@std@@PAU_DATAVAR@MQ2Internal@@@std@@@2@$0A@@std@@@std@@IAEXPAU_Node@?$_Tree_nod@V?$_Tmap_traits@V?$basic_string@DU?$char_traits@D@std@@V?$allocator@D@2@@std@@PAU_DATAVAR@MQ2Internal@@U?$less@V?$basic_string@DU?$char_traits@D@std@@V?$allocator@D@2@@std@@@2@V?$allocator@U?$pair@$$CBV?$basic_string@DU?$char_traits@D@std@@V?$allocator@D@2@@std@@PAU_DATAVAR@MQ2Internal@@@std@@@2@$0A@@std@@@2@@Z 0302afa0 f i MQ2DataVars.obj
 0001:00029ff0       ??0const_iterator@?$_Tree@V?$_Tmap_traits@V?$basic_string@DU?$char_traits@D@std@@V?$allocator@D@2@@std@@PAU_DATAVAR@MQ2Internal@@U?$less@V?$basic_string@DU?$char_traits@D@std@@V?$allocator@D@2@@std@@@2@V?$allocator@U?$pair@$$CBV?$basic_string@DU?$char_traits@D@std@@V?$allocator@D@2@@std@@PAU_DATAVAR@MQ2Internal@@@std@@@2@$0A@@std@@@std@@QAE@PAU_Node@?$_Tree_nod@V?$_Tmap_traits@V?$basic_string@DU?$char_traits@D@std@@V?$allocator@D@2@@std@@PAU_DATAVAR@MQ2Internal@@U?$less@V?$basic_string@DU?$char_traits@D@std@@V?$allocator@D@2@@std@@@2@V?$allocator@U?$pair@$$CBV?$basic_string@DU?$char_traits@D@std@@V?$allocator@D@2@@std@@PAU_DATAVAR@MQ2Internal@@@std@@@2@$0A@@std@@@2@PBV12@@Z 0302aff0 f i MQ2DataVars.obj
 0001:0002a020       ?_Dec@const_iterator@?$_Tree@V?$_Tmap_traits@V?$basic_string@DU?$char_traits@D@std@@V?$allocator@D@2@@std@@PAU_DATAVAR@MQ2Internal@@U?$less@V?$basic_string@DU?$char_traits@D@std@@V?$allocator@D@2@@std@@@2@V?$allocator@U?$pair@$$CBV?$basic_string@DU?$char_traits@D@std@@V?$allocator@D@2@@std@@PAU_DATAVAR@MQ2Internal@@@std@@@2@$0A@@std@@@std@@QAEXXZ 0302b020 f i MQ2DataVars.obj
 0001:0002a0b0       ?_Inc@const_iterator@?$_Tree@V?$_Tmap_traits@V?$basic_string@DU?$char_traits@D@std@@V?$allocator@D@2@@std@@PAU_DATAVAR@MQ2Internal@@U?$less@V?$basic_string@DU?$char_traits@D@std@@V?$allocator@D@2@@std@@@2@V?$allocator@U?$pair@$$CBV?$basic_string@DU?$char_traits@D@std@@V?$allocator@D@2@@std@@PAU_DATAVAR@MQ2Internal@@@std@@@2@$0A@@std@@@std@@QAEXXZ 0302b0b0 f i MQ2DataVars.obj
 0001:0002a120       ?allocate@?$allocator@U_Node@?$_Tree_nod@V?$_Tmap_traits@V?$basic_string@DU?$char_traits@D@std@@V?$allocator@D@2@@std@@PAU_DATAVAR@MQ2Internal@@U?$less@V?$basic_string@DU?$char_traits@D@std@@V?$allocator@D@2@@std@@@2@V?$allocator@U?$pair@$$CBV?$basic_string@DU?$char_traits@D@std@@V?$allocator@D@2@@std@@PAU_DATAVAR@MQ2Internal@@@std@@@2@$0A@@std@@@std@@@std@@QAEPAU_Node@?$_Tree_nod@V?$_Tmap_traits@V?$basic_string@DU?$char_traits@D@std@@V?$allocator@D@2@@std@@PAU_DATAVAR@MQ2Internal@@U?$less@V?$basic_string@DU?$char_traits@D@std@@V?$allocator@D@2@@std@@@2@V?$allocator@U?$pair@$$CBV?$basic_string@DU?$char_traits@D@std@@V?$allocator@D@2@@std@@PAU_DATAVAR@MQ2Internal@@@std@@@2@$0A@@std@@@2@I@Z 0302b120 f i MQ2DataVars.obj
 0001:0002a140       ?construct@?$allocator@PAU_Node@?$_Tree_nod@V?$_Tmap_traits@V?$basic_string@DU?$char_traits@D@std@@V?$allocator@D@2@@std@@PAU_DATAVAR@MQ2Internal@@U?$less@V?$basic_string@DU?$char_traits@D@std@@V?$allocator@D@2@@std@@@2@V?$allocator@U?$pair@$$CBV?$basic_string@DU?$char_traits@D@std@@V?$allocator@D@2@@std@@PAU_DATAVAR@MQ2Internal@@@std@@@2@$0A@@std@@@std@@@std@@QAEXPAPAU_Node@?$_Tree_nod@V?$_Tmap_traits@V?$basic_string@DU?$char_traits@D@std@@V?$allocator@D@2@@std@@PAU_DATAVAR@MQ2Internal@@U?$less@V?$basic_string@DU?$char_traits@D@std@@V?$allocator@D@2@@std@@@2@V?$allocator@U?$pair@$$CBV?$basic_string@DU?$char_traits@D@std@@V?$allocator@D@2@@std@@PAU_DATAVAR@MQ2Internal@@@std@@@2@$0A@@std@@@2@ABQAU342@@Z 0302b140 f i MQ2DataVars.obj
 0001:0002a160       ??1?$_Tmap_traits@V?$basic_string@DU?$char_traits@D@std@@V?$allocator@D@2@@std@@PAU_DATAVAR@MQ2Internal@@U?$less@V?$basic_string@DU?$char_traits@D@std@@V?$allocator@D@2@@std@@@2@V?$allocator@U?$pair@$$CBV?$basic_string@DU?$char_traits@D@std@@V?$allocator@D@2@@std@@PAU_DATAVAR@MQ2Internal@@@std@@@2@$0A@@std@@QAE@XZ 0302b160 f i MQ2DataVars.obj
 0001:0002a170       ??0iterator@?$_Tree@V?$_Tmap_traits@V?$basic_string@DU?$char_traits@D@std@@V?$allocator@D@2@@std@@PAU_DATAVAR@MQ2Internal@@U?$less@V?$basic_string@DU?$char_traits@D@std@@V?$allocator@D@2@@std@@@2@V?$allocator@U?$pair@$$CBV?$basic_string@DU?$char_traits@D@std@@V?$allocator@D@2@@std@@PAU_DATAVAR@MQ2Internal@@@std@@@2@$0A@@std@@@std@@QAE@PAU_Node@?$_Tree_nod@V?$_Tmap_traits@V?$basic_string@DU?$char_traits@D@std@@V?$allocator@D@2@@std@@PAU_DATAVAR@MQ2Internal@@U?$less@V?$basic_string@DU?$char_traits@D@std@@V?$allocator@D@2@@std@@@2@V?$allocator@U?$pair@$$CBV?$basic_string@DU?$char_traits@D@std@@V?$allocator@D@2@@std@@PAU_DATAVAR@MQ2Internal@@@std@@@2@$0A@@std@@@2@PBV12@@Z 0302b170 f i MQ2DataVars.obj
 0001:0002a1a0       ??0const_iterator@?$_Tree@V?$_Tmap_traits@V?$basic_string@DU?$char_traits@D@std@@V?$allocator@D@2@@std@@PAU_DATAVAR@MQ2Internal@@U?$less@V?$basic_string@DU?$char_traits@D@std@@V?$allocator@D@2@@std@@@2@V?$allocator@U?$pair@$$CBV?$basic_string@DU?$char_traits@D@std@@V?$allocator@D@2@@std@@PAU_DATAVAR@MQ2Internal@@@std@@@2@$0A@@std@@@std@@QAE@XZ 0302b1a0 f i MQ2DataVars.obj
 0001:0002a1b0       ??Econst_iterator@?$_Tree@V?$_Tmap_traits@V?$basic_string@DU?$char_traits@D@std@@V?$allocator@D@2@@std@@PAU_DATAVAR@MQ2Internal@@U?$less@V?$basic_string@DU?$char_traits@D@std@@V?$allocator@D@2@@std@@@2@V?$allocator@U?$pair@$$CBV?$basic_string@DU?$char_traits@D@std@@V?$allocator@D@2@@std@@PAU_DATAVAR@MQ2Internal@@@std@@@2@$0A@@std@@@std@@QAEAAV012@XZ 0302b1b0 f i MQ2DataVars.obj
 0001:0002a1c0       ??Fconst_iterator@?$_Tree@V?$_Tmap_traits@V?$basic_string@DU?$char_traits@D@std@@V?$allocator@D@2@@std@@PAU_DATAVAR@MQ2Internal@@U?$less@V?$basic_string@DU?$char_traits@D@std@@V?$allocator@D@2@@std@@@2@V?$allocator@U?$pair@$$CBV?$basic_string@DU?$char_traits@D@std@@V?$allocator@D@2@@std@@PAU_DATAVAR@MQ2Internal@@@std@@@2@$0A@@std@@@std@@QAEAAV012@XZ 0302b1c0 f i MQ2DataVars.obj
 0001:0002a1d0       ?_Make_iter@?$_Tree@V?$_Tmap_traits@V?$basic_string@DU?$char_traits@D@std@@V?$allocator@D@2@@std@@PAU_DATAVAR@MQ2Internal@@U?$less@V?$basic_string@DU?$char_traits@D@std@@V?$allocator@D@2@@std@@@2@V?$allocator@U?$pair@$$CBV?$basic_string@DU?$char_traits@D@std@@V?$allocator@D@2@@std@@PAU_DATAVAR@MQ2Internal@@@std@@@2@$0A@@std@@@std@@QBE?AViterator@12@Vconst_iterator@12@@Z 0302b1d0 f i MQ2DataVars.obj
 0001:0002a200       ?_Buynode@?$_Tree@V?$_Tmap_traits@V?$basic_string@DU?$char_traits@D@std@@V?$allocator@D@2@@std@@PAU_DATAVAR@MQ2Internal@@U?$less@V?$basic_string@DU?$char_traits@D@std@@V?$allocator@D@2@@std@@@2@V?$allocator@U?$pair@$$CBV?$basic_string@DU?$char_traits@D@std@@V?$allocator@D@2@@std@@PAU_DATAVAR@MQ2Internal@@@std@@@2@$0A@@std@@@std@@IAEPAU_Node@?$_Tree_nod@V?$_Tmap_traits@V?$basic_string@DU?$char_traits@D@std@@V?$allocator@D@2@@std@@PAU_DATAVAR@MQ2Internal@@U?$less@V?$basic_string@DU?$char_traits@D@std@@V?$allocator@D@2@@std@@@2@V?$allocator@U?$pair@$$CBV?$basic_string@DU?$char_traits@D@std@@V?$allocator@D@2@@std@@PAU_DATAVAR@MQ2Internal@@@std@@@2@$0A@@std@@@2@XZ 0302b200 f i MQ2DataVars.obj
 0001:0002a2a0       ??Fiterator@?$_Tree@V?$_Tmap_traits@V?$basic_string@DU?$char_traits@D@std@@V?$allocator@D@2@@std@@PAU_DATAVAR@MQ2Internal@@U?$less@V?$basic_string@DU?$char_traits@D@std@@V?$allocator@D@2@@std@@@2@V?$allocator@U?$pair@$$CBV?$basic_string@DU?$char_traits@D@std@@V?$allocator@D@2@@std@@PAU_DATAVAR@MQ2Internal@@@std@@@2@$0A@@std@@@std@@QAEAAV012@XZ 0302b2a0 f i MQ2DataVars.obj
 0001:0002a2b0       ??Econst_iterator@?$_Tree@V?$_Tmap_traits@V?$basic_string@DU?$char_traits@D@std@@V?$allocator@D@2@@std@@PAU_DATAVAR@MQ2Internal@@U?$less@V?$basic_string@DU?$char_traits@D@std@@V?$allocator@D@2@@std@@@2@V?$allocator@U?$pair@$$CBV?$basic_string@DU?$char_traits@D@std@@V?$allocator@D@2@@std@@PAU_DATAVAR@MQ2Internal@@@std@@@2@$0A@@std@@@std@@QAE?AV012@H@Z 0302b2b0 f i MQ2DataVars.obj
 0001:0002a2d0       ??0?$_Container_base_aux_alloc_real@V?$allocator@U?$pair@$$CBV?$basic_string@DU?$char_traits@D@std@@V?$allocator@D@2@@std@@PAU_DATAVAR@MQ2Internal@@@std@@@std@@@std@@IAE@V?$allocator@U?$pair@$$CBV?$basic_string@DU?$char_traits@D@std@@V?$allocator@D@2@@std@@PAU_DATAVAR@MQ2Internal@@@std@@@1@@Z 0302b2d0 f i MQ2DataVars.obj
 0001:0002a300       ??1?$pair@$$CBV?$basic_string@DU?$char_traits@D@std@@V?$allocator@D@2@@std@@PAU_DATAVAR@MQ2Internal@@@std@@QAE@XZ 0302b300 f i MQ2DataVars.obj
 0001:0002a330       ??1?$_Tree_nod@V?$_Tmap_traits@V?$basic_string@DU?$char_traits@D@std@@V?$allocator@D@2@@std@@PAU_DATAVAR@MQ2Internal@@U?$less@V?$basic_string@DU?$char_traits@D@std@@V?$allocator@D@2@@std@@@2@V?$allocator@U?$pair@$$CBV?$basic_string@DU?$char_traits@D@std@@V?$allocator@D@2@@std@@PAU_DATAVAR@MQ2Internal@@@std@@@2@$0A@@std@@@std@@QAE@XZ 0302b330 f i MQ2DataVars.obj
 0001:0002a340       ?end@?$_Tree@V?$_Tmap_traits@V?$basic_string@DU?$char_traits@D@std@@V?$allocator@D@2@@std@@PAU_DATAVAR@MQ2Internal@@U?$less@V?$basic_string@DU?$char_traits@D@std@@V?$allocator@D@2@@std@@@2@V?$allocator@U?$pair@$$CBV?$basic_string@DU?$char_traits@D@std@@V?$allocator@D@2@@std@@PAU_DATAVAR@MQ2Internal@@@std@@@2@$0A@@std@@@std@@QAE?AViterator@12@XZ 0302b340 f i MQ2DataVars.obj
 0001:0002a360       ?begin@?$_Tree@V?$_Tmap_traits@V?$basic_string@DU?$char_traits@D@std@@V?$allocator@D@2@@std@@PAU_DATAVAR@MQ2Internal@@U?$less@V?$basic_string@DU?$char_traits@D@std@@V?$allocator@D@2@@std@@@2@V?$allocator@U?$pair@$$CBV?$basic_string@DU?$char_traits@D@std@@V?$allocator@D@2@@std@@PAU_DATAVAR@MQ2Internal@@@std@@@2@$0A@@std@@@std@@QAE?AViterator@12@XZ 0302b360 f i MQ2DataVars.obj
 0001:0002a380       ?_Init@?$_Tree@V?$_Tmap_traits@V?$basic_string@DU?$char_traits@D@std@@V?$allocator@D@2@@std@@PAU_DATAVAR@MQ2Internal@@U?$less@V?$basic_string@DU?$char_traits@D@std@@V?$allocator@D@2@@std@@@2@V?$allocator@U?$pair@$$CBV?$basic_string@DU?$char_traits@D@std@@V?$allocator@D@2@@std@@PAU_DATAVAR@MQ2Internal@@@std@@@2@$0A@@std@@@std@@IAEXXZ 0302b380 f i MQ2DataVars.obj
 0001:0002a3b0       ?_Lbound@?$_Tree@V?$_Tmap_traits@V?$basic_string@DU?$char_traits@D@std@@V?$allocator@D@2@@std@@PAU_DATAVAR@MQ2Internal@@U?$less@V?$basic_string@DU?$char_traits@D@std@@V?$allocator@D@2@@std@@@2@V?$allocator@U?$pair@$$CBV?$basic_string@DU?$char_traits@D@std@@V?$allocator@D@2@@std@@PAU_DATAVAR@MQ2Internal@@@std@@@2@$0A@@std@@@std@@IBEPAU_Node@?$_Tree_nod@V?$_Tmap_traits@V?$basic_string@DU?$char_traits@D@std@@V?$allocator@D@2@@std@@PAU_DATAVAR@MQ2Internal@@U?$less@V?$basic_string@DU?$char_traits@D@std@@V?$allocator@D@2@@std@@@2@V?$allocator@U?$pair@$$CBV?$basic_string@DU?$char_traits@D@std@@V?$allocator@D@2@@std@@PAU_DATAVAR@MQ2Internal@@@std@@@2@$0A@@std@@@2@ABV?$basic_string@DU?$char_traits@D@std@@V?$allocator@D@2@@2@@Z 0302b3b0 f i MQ2DataVars.obj
 0001:0002a440       ??0?$_Tmap_traits@V?$basic_string@DU?$char_traits@D@std@@V?$allocator@D@2@@std@@PAU_DATAVAR@MQ2Internal@@U?$less@V?$basic_string@DU?$char_traits@D@std@@V?$allocator@D@2@@std@@@2@V?$allocator@U?$pair@$$CBV?$basic_string@DU?$char_traits@D@std@@V?$allocator@D@2@@std@@PAU_DATAVAR@MQ2Internal@@@std@@@2@$0A@@std@@QAE@U?$less@V?$basic_string@DU?$char_traits@D@std@@V?$allocator@D@2@@std@@@1@V?$allocator@U?$pair@$$CBV?$basic_string@DU?$char_traits@D@std@@V?$allocator@D@2@@std@@PAU_DATAVAR@MQ2Internal@@@std@@@1@@Z 0302b440 f i MQ2DataVars.obj
 0001:0002a470       ??1_Node@?$_Tree_nod@V?$_Tmap_traits@V?$basic_string@DU?$char_traits@D@std@@V?$allocator@D@2@@std@@PAU_DATAVAR@MQ2Internal@@U?$less@V?$basic_string@DU?$char_traits@D@std@@V?$allocator@D@2@@std@@@2@V?$allocator@U?$pair@$$CBV?$basic_string@DU?$char_traits@D@std@@V?$allocator@D@2@@std@@PAU_DATAVAR@MQ2Internal@@@std@@@2@$0A@@std@@@std@@QAE@XZ 0302b470 f i MQ2DataVars.obj
 0001:0002a4a0       ??1?$_Tree_ptr@V?$_Tmap_traits@V?$basic_string@DU?$char_traits@D@std@@V?$allocator@D@2@@std@@PAU_DATAVAR@MQ2Internal@@U?$less@V?$basic_string@DU?$char_traits@D@std@@V?$allocator@D@2@@std@@@2@V?$allocator@U?$pair@$$CBV?$basic_string@DU?$char_traits@D@std@@V?$allocator@D@2@@std@@PAU_DATAVAR@MQ2Internal@@@std@@@2@$0A@@std@@@std@@QAE@XZ 0302b4a0 f i MQ2DataVars.obj
 0001:0002a4b0       ?lower_bound@?$_Tree@V?$_Tmap_traits@V?$basic_string@DU?$char_traits@D@std@@V?$allocator@D@2@@std@@PAU_DATAVAR@MQ2Internal@@U?$less@V?$basic_string@DU?$char_traits@D@std@@V?$allocator@D@2@@std@@@2@V?$allocator@U?$pair@$$CBV?$basic_string@DU?$char_traits@D@std@@V?$allocator@D@2@@std@@PAU_DATAVAR@MQ2Internal@@@std@@@2@$0A@@std@@@std@@QAE?AViterator@12@ABV?$basic_string@DU?$char_traits@D@std@@V?$allocator@D@2@@2@@Z 0302b4b0 f i MQ2DataVars.obj
 0001:0002a4e0       ??0?$_Tree_nod@V?$_Tmap_traits@V?$basic_string@DU?$char_traits@D@std@@V?$allocator@D@2@@std@@PAU_DATAVAR@MQ2Internal@@U?$less@V?$basic_string@DU?$char_traits@D@std@@V?$allocator@D@2@@std@@@2@V?$allocator@U?$pair@$$CBV?$basic_string@DU?$char_traits@D@std@@V?$allocator@D@2@@std@@PAU_DATAVAR@MQ2Internal@@@std@@@2@$0A@@std@@@std@@IAE@ABU?$less@V?$basic_string@DU?$char_traits@D@std@@V?$allocator@D@2@@std@@@1@V?$allocator@U?$pair@$$CBV?$basic_string@DU?$char_traits@D@std@@V?$allocator@D@2@@std@@PAU_DATAVAR@MQ2Internal@@@std@@@1@@Z 0302b4e0 f i MQ2DataVars.obj
 0001:0002a510       ??_G_Node@?$_Tree_nod@V?$_Tmap_traits@V?$basic_string@DU?$char_traits@D@std@@V?$allocator@D@2@@std@@PAU_DATAVAR@MQ2Internal@@U?$less@V?$basic_string@DU?$char_traits@D@std@@V?$allocator@D@2@@std@@@2@V?$allocator@U?$pair@$$CBV?$basic_string@DU?$char_traits@D@std@@V?$allocator@D@2@@std@@PAU_DATAVAR@MQ2Internal@@@std@@@2@$0A@@std@@@std@@QAEPAXI@Z 0302b510 f i MQ2DataVars.obj
 0001:0002a550       ??1?$_Tree_val@V?$_Tmap_traits@V?$basic_string@DU?$char_traits@D@std@@V?$allocator@D@2@@std@@PAU_DATAVAR@MQ2Internal@@U?$less@V?$basic_string@DU?$char_traits@D@std@@V?$allocator@D@2@@std@@@2@V?$allocator@U?$pair@$$CBV?$basic_string@DU?$char_traits@D@std@@V?$allocator@D@2@@std@@PAU_DATAVAR@MQ2Internal@@@std@@@2@$0A@@std@@@std@@QAE@XZ 0302b550 f i MQ2DataVars.obj
 0001:0002a560       ??0?$pair@$$CBV?$basic_string@DU?$char_traits@D@std@@V?$allocator@D@2@@std@@PAU_DATAVAR@MQ2Internal@@@std@@QAE@ABV?$basic_string@DU?$char_traits@D@std@@V?$allocator@D@2@@1@ABQAU_DATAVAR@MQ2Internal@@@Z 0302b560 f i MQ2DataVars.obj
 0001:0002a590       ??0?$_Tree_ptr@V?$_Tmap_traits@V?$basic_string@DU?$char_traits@D@std@@V?$allocator@D@2@@std@@PAU_DATAVAR@MQ2Internal@@U?$less@V?$basic_string@DU?$char_traits@D@std@@V?$allocator@D@2@@std@@@2@V?$allocator@U?$pair@$$CBV?$basic_string@DU?$char_traits@D@std@@V?$allocator@D@2@@std@@PAU_DATAVAR@MQ2Internal@@@std@@@2@$0A@@std@@@std@@IAE@ABU?$less@V?$basic_string@DU?$char_traits@D@std@@V?$allocator@D@2@@std@@@1@V?$allocator@U?$pair@$$CBV?$basic_string@DU?$char_traits@D@std@@V?$allocator@D@2@@std@@PAU_DATAVAR@MQ2Internal@@@std@@@1@@Z 0302b590 f i MQ2DataVars.obj
 0001:0002a5c0       ??0?$pair@$$CBV?$basic_string@DU?$char_traits@D@std@@V?$allocator@D@2@@std@@PAU_DATAVAR@MQ2Internal@@@std@@QAE@ABU01@@Z 0302b5c0 f i MQ2DataVars.obj
 0001:0002a5f0       ??$_Destroy@U_Node@?$_Tree_nod@V?$_Tmap_traits@V?$basic_string@DU?$char_traits@D@std@@V?$allocator@D@2@@std@@PAU_DATAVAR@MQ2Internal@@U?$less@V?$basic_string@DU?$char_traits@D@std@@V?$allocator@D@2@@std@@@2@V?$allocator@U?$pair@$$CBV?$basic_string@DU?$char_traits@D@std@@V?$allocator@D@2@@std@@PAU_DATAVAR@MQ2Internal@@@std@@@2@$0A@@std@@@std@@@std@@YAXPAU_Node@?$_Tree_nod@V?$_Tmap_traits@V?$basic_string@DU?$char_traits@D@std@@V?$allocator@D@2@@std@@PAU_DATAVAR@MQ2Internal@@U?$less@V?$basic_string@DU?$char_traits@D@std@@V?$allocator@D@2@@std@@@2@V?$allocator@U?$pair@$$CBV?$basic_string@DU?$char_traits@D@std@@V?$allocator@D@2@@std@@PAU_DATAVAR@MQ2Internal@@@std@@@2@$0A@@std@@@0@@Z 0302b5f0 f i MQ2DataVars.obj
 0001:0002a620       ??0?$_Tree_val@V?$_Tmap_traits@V?$basic_string@DU?$char_traits@D@std@@V?$allocator@D@2@@std@@PAU_DATAVAR@MQ2Internal@@U?$less@V?$basic_string@DU?$char_traits@D@std@@V?$allocator@D@2@@std@@@2@V?$allocator@U?$pair@$$CBV?$basic_string@DU?$char_traits@D@std@@V?$allocator@D@2@@std@@PAU_DATAVAR@MQ2Internal@@@std@@@2@$0A@@std@@@std@@IAE@ABU?$less@V?$basic_string@DU?$char_traits@D@std@@V?$allocator@D@2@@std@@@1@V?$allocator@U?$pair@$$CBV?$basic_string@DU?$char_traits@D@std@@V?$allocator@D@2@@std@@PAU_DATAVAR@MQ2Internal@@@std@@@1@@Z 0302b620 f i MQ2DataVars.obj
 0001:0002a650       ?destroy@?$allocator@U_Node@?$_Tree_nod@V?$_Tmap_traits@V?$basic_string@DU?$char_traits@D@std@@V?$allocator@D@2@@std@@PAU_DATAVAR@MQ2Internal@@U?$less@V?$basic_string@DU?$char_traits@D@std@@V?$allocator@D@2@@std@@@2@V?$allocator@U?$pair@$$CBV?$basic_string@DU?$char_traits@D@std@@V?$allocator@D@2@@std@@PAU_DATAVAR@MQ2Internal@@@std@@@2@$0A@@std@@@std@@@std@@QAEXPAU_Node@?$_Tree_nod@V?$_Tmap_traits@V?$basic_string@DU?$char_traits@D@std@@V?$allocator@D@2@@std@@PAU_DATAVAR@MQ2Internal@@U?$less@V?$basic_string@DU?$char_traits@D@std@@V?$allocator@D@2@@std@@@2@V?$allocator@U?$pair@$$CBV?$basic_string@DU?$char_traits@D@std@@V?$allocator@D@2@@std@@PAU_DATAVAR@MQ2Internal@@@std@@@2@$0A@@std@@@2@@Z 0302b650 f i MQ2DataVars.obj
 0001:0002a680       ??0_Node@?$_Tree_nod@V?$_Tmap_traits@V?$basic_string@DU?$char_traits@D@std@@V?$allocator@D@2@@std@@PAU_DATAVAR@MQ2Internal@@U?$less@V?$basic_string@DU?$char_traits@D@std@@V?$allocator@D@2@@std@@@2@V?$allocator@U?$pair@$$CBV?$basic_string@DU?$char_traits@D@std@@V?$allocator@D@2@@std@@PAU_DATAVAR@MQ2Internal@@@std@@@2@$0A@@std@@@std@@QAE@PAU012@00ABU?$pair@$$CBV?$basic_string@DU?$char_traits@D@std@@V?$allocator@D@2@@std@@PAU_DATAVAR@MQ2Internal@@@2@D@Z 0302b680 f i MQ2DataVars.obj
 0001:0002a6e0       ??0?$_Tree@V?$_Tmap_traits@V?$basic_string@DU?$char_traits@D@std@@V?$allocator@D@2@@std@@PAU_DATAVAR@MQ2Internal@@U?$less@V?$basic_string@DU?$char_traits@D@std@@V?$allocator@D@2@@std@@@2@V?$allocator@U?$pair@$$CBV?$basic_string@DU?$char_traits@D@std@@V?$allocator@D@2@@std@@PAU_DATAVAR@MQ2Internal@@@std@@@2@$0A@@std@@@std@@QAE@ABU?$less@V?$basic_string@DU?$char_traits@D@std@@V?$allocator@D@2@@std@@@1@ABV?$allocator@U?$pair@$$CBV?$basic_string@DU?$char_traits@D@std@@V?$allocator@D@2@@std@@PAU_DATAVAR@MQ2Internal@@@std@@@1@@Z 0302b6e0 f i MQ2DataVars.obj
 0001:0002a730       ?erase@?$_Tree@V?$_Tmap_traits@V?$basic_string@DU?$char_traits@D@std@@V?$allocator@D@2@@std@@PAU_DATAVAR@MQ2Internal@@U?$less@V?$basic_string@DU?$char_traits@D@std@@V?$allocator@D@2@@std@@@2@V?$allocator@U?$pair@$$CBV?$basic_string@DU?$char_traits@D@std@@V?$allocator@D@2@@std@@PAU_DATAVAR@MQ2Internal@@@std@@@2@$0A@@std@@@std@@QAE?AViterator@12@Vconst_iterator@12@@Z 0302b730 f i MQ2DataVars.obj
 0001:0002aa10       ?_Buynode@?$_Tree@V?$_Tmap_traits@V?$basic_string@DU?$char_traits@D@std@@V?$allocator@D@2@@std@@PAU_DATAVAR@MQ2Internal@@U?$less@V?$basic_string@DU?$char_traits@D@std@@V?$allocator@D@2@@std@@@2@V?$allocator@U?$pair@$$CBV?$basic_string@DU?$char_traits@D@std@@V?$allocator@D@2@@std@@PAU_DATAVAR@MQ2Internal@@@std@@@2@$0A@@std@@@std@@IAEPAU_Node@?$_Tree_nod@V?$_Tmap_traits@V?$basic_string@DU?$char_traits@D@std@@V?$allocator@D@2@@std@@PAU_DATAVAR@MQ2Internal@@U?$less@V?$basic_string@DU?$char_traits@D@std@@V?$allocator@D@2@@std@@@2@V?$allocator@U?$pair@$$CBV?$basic_string@DU?$char_traits@D@std@@V?$allocator@D@2@@std@@PAU_DATAVAR@MQ2Internal@@@std@@@2@$0A@@std@@@2@PAU342@00ABU?$pair@$$CBV?$basic_string@DU?$char_traits@D@std@@V?$allocator@D@2@@std@@PAU_DATAVAR@MQ2Internal@@@2@D@Z 0302ba10 f i MQ2DataVars.obj
 0001:0002aaa0       ?_Erase@?$_Tree@V?$_Tmap_traits@V?$basic_string@DU?$char_traits@D@std@@V?$allocator@D@2@@std@@PAU_DATAVAR@MQ2Internal@@U?$less@V?$basic_string@DU?$char_traits@D@std@@V?$allocator@D@2@@std@@@2@V?$allocator@U?$pair@$$CBV?$basic_string@DU?$char_traits@D@std@@V?$allocator@D@2@@std@@PAU_DATAVAR@MQ2Internal@@@std@@@2@$0A@@std@@@std@@IAEXPAU_Node@?$_Tree_nod@V?$_Tmap_traits@V?$basic_string@DU?$char_traits@D@std@@V?$allocator@D@2@@std@@PAU_DATAVAR@MQ2Internal@@U?$less@V?$basic_string@DU?$char_traits@D@std@@V?$allocator@D@2@@std@@@2@V?$allocator@U?$pair@$$CBV?$basic_string@DU?$char_traits@D@std@@V?$allocator@D@2@@std@@PAU_DATAVAR@MQ2Internal@@@std@@@2@$0A@@std@@@2@@Z 0302baa0 f i MQ2DataVars.obj
 0001:0002ab00       ?_Insert@?$_Tree@V?$_Tmap_traits@V?$basic_string@DU?$char_traits@D@std@@V?$allocator@D@2@@std@@PAU_DATAVAR@MQ2Internal@@U?$less@V?$basic_string@DU?$char_traits@D@std@@V?$allocator@D@2@@std@@@2@V?$allocator@U?$pair@$$CBV?$basic_string@DU?$char_traits@D@std@@V?$allocator@D@2@@std@@PAU_DATAVAR@MQ2Internal@@@std@@@2@$0A@@std@@@std@@IAE?AViterator@12@_NPAU_Node@?$_Tree_nod@V?$_Tmap_traits@V?$basic_string@DU?$char_traits@D@std@@V?$allocator@D@2@@std@@PAU_DATAVAR@MQ2Internal@@U?$less@V?$basic_string@DU?$char_traits@D@std@@V?$allocator@D@2@@std@@@2@V?$allocator@U?$pair@$$CBV?$basic_string@DU?$char_traits@D@std@@V?$allocator@D@2@@std@@PAU_DATAVAR@MQ2Internal@@@std@@@2@$0A@@std@@@2@ABU?$pair@$$CBV?$basic_string@DU?$char_traits@D@std@@V?$allocator@D@2@@std@@PAU_DATAVAR@MQ2Internal@@@2@@Z 0302bb00 f i MQ2DataVars.obj
 0001:0002acf0       ?clear@?$_Tree@V?$_Tmap_traits@V?$basic_string@DU?$char_traits@D@std@@V?$allocator@D@2@@std@@PAU_DATAVAR@MQ2Internal@@U?$less@V?$basic_string@DU?$char_traits@D@std@@V?$allocator@D@2@@std@@@2@V?$allocator@U?$pair@$$CBV?$basic_string@DU?$char_traits@D@std@@V?$allocator@D@2@@std@@PAU_DATAVAR@MQ2Internal@@@std@@@2@$0A@@std@@@std@@QAEXXZ 0302bcf0 f i MQ2DataVars.obj
 0001:0002ad20       ?insert@?$_Tree@V?$_Tmap_traits@V?$basic_string@DU?$char_traits@D@std@@V?$allocator@D@2@@std@@PAU_DATAVAR@MQ2Internal@@U?$less@V?$basic_string@DU?$char_traits@D@std@@V?$allocator@D@2@@std@@@2@V?$allocator@U?$pair@$$CBV?$basic_string@DU?$char_traits@D@std@@V?$allocator@D@2@@std@@PAU_DATAVAR@MQ2Internal@@@std@@@2@$0A@@std@@@std@@QAE?AU?$pair@Viterator@?$_Tree@V?$_Tmap_traits@V?$basic_string@DU?$char_traits@D@std@@V?$allocator@D@2@@std@@PAU_DATAVAR@MQ2Internal@@U?$less@V?$basic_string@DU?$char_traits@D@std@@V?$allocator@D@2@@std@@@2@V?$allocator@U?$pair@$$CBV?$basic_string@DU?$char_traits@D@std@@V?$allocator@D@2@@std@@PAU_DATAVAR@MQ2Internal@@@std@@@2@$0A@@std@@@std@@_N@2@ABU?$pair@$$CBV?$basic_string@DU?$char_traits@D@std@@V?$allocator@D@2@@std@@PAU_DATAVAR@MQ2Internal@@@2@@Z 0302bd20 f i MQ2DataVars.obj
 0001:0002ae80       ?erase@?$_Tree@V?$_Tmap_traits@V?$basic_string@DU?$char_traits@D@std@@V?$allocator@D@2@@std@@PAU_DATAVAR@MQ2Internal@@U?$less@V?$basic_string@DU?$char_traits@D@std@@V?$allocator@D@2@@std@@@2@V?$allocator@U?$pair@$$CBV?$basic_string@DU?$char_traits@D@std@@V?$allocator@D@2@@std@@PAU_DATAVAR@MQ2Internal@@@std@@@2@$0A@@std@@@std@@QAE?AViterator@12@Vconst_iterator@12@0@Z 0302be80 f i MQ2DataVars.obj
 0001:0002af60       ?insert@?$_Tree@V?$_Tmap_traits@V?$basic_string@DU?$char_traits@D@std@@V?$allocator@D@2@@std@@PAU_DATAVAR@MQ2Internal@@U?$less@V?$basic_string@DU?$char_traits@D@std@@V?$allocator@D@2@@std@@@2@V?$allocator@U?$pair@$$CBV?$basic_string@DU?$char_traits@D@std@@V?$allocator@D@2@@std@@PAU_DATAVAR@MQ2Internal@@@std@@@2@$0A@@std@@@std@@QAE?AViterator@12@Vconst_iterator@12@ABU?$pair@$$CBV?$basic_string@DU?$char_traits@D@std@@V?$allocator@D@2@@std@@PAU_DATAVAR@MQ2Internal@@@2@@Z 0302bf60 f i MQ2DataVars.obj
 0001:0002b190       ?_Tidy@?$_Tree@V?$_Tmap_traits@V?$basic_string@DU?$char_traits@D@std@@V?$allocator@D@2@@std@@PAU_DATAVAR@MQ2Internal@@U?$less@V?$basic_string@DU?$char_traits@D@std@@V?$allocator@D@2@@std@@@2@V?$allocator@U?$pair@$$CBV?$basic_string@DU?$char_traits@D@std@@V?$allocator@D@2@@std@@PAU_DATAVAR@MQ2Internal@@@std@@@2@$0A@@std@@@std@@IAEXXZ 0302c190 f i MQ2DataVars.obj
 0001:0002b1d0       ??A?$map@V?$basic_string@DU?$char_traits@D@std@@V?$allocator@D@2@@std@@PAU_DATAVAR@MQ2Internal@@U?$less@V?$basic_string@DU?$char_traits@D@std@@V?$allocator@D@2@@std@@@2@V?$allocator@U?$pair@$$CBV?$basic_string@DU?$char_traits@D@std@@V?$allocator@D@2@@std@@PAU_DATAVAR@MQ2Internal@@@std@@@2@@std@@QAEAAPAU_DATAVAR@MQ2Internal@@ABV?$basic_string@DU?$char_traits@D@std@@V?$allocator@D@2@@1@@Z 0302c1d0 f i MQ2DataVars.obj
 0001:0002b2c0       ??1?$_Tree@V?$_Tmap_traits@V?$basic_string@DU?$char_traits@D@std@@V?$allocator@D@2@@std@@PAU_DATAVAR@MQ2Internal@@U?$less@V?$basic_string@DU?$char_traits@D@std@@V?$allocator@D@2@@std@@@2@V?$allocator@U?$pair@$$CBV?$basic_string@DU?$char_traits@D@std@@V?$allocator@D@2@@std@@PAU_DATAVAR@MQ2Internal@@@std@@@2@$0A@@std@@@std@@QAE@XZ 0302c2c0 f i MQ2DataVars.obj
 0001:0002b300       ??1?$map@V?$basic_string@DU?$char_traits@D@std@@V?$allocator@D@2@@std@@PAU_DATAVAR@MQ2Internal@@U?$less@V?$basic_string@DU?$char_traits@D@std@@V?$allocator@D@2@@std@@@2@V?$allocator@U?$pair@$$CBV?$basic_string@DU?$char_traits@D@std@@V?$allocator@D@2@@std@@PAU_DATAVAR@MQ2Internal@@@std@@@2@@std@@QAE@XZ 0302c300 f i MQ2DataVars.obj
 0001:0002b340       ?DeleteMQ2DataVariable@@YAXPAU_DATAVAR@MQ2Internal@@@Z 0302c340 f i MQ2DataVars.obj
 0001:0002b420       _FindMQ2DataVariable       0302c420 f i MQ2DataVars.obj
 0001:0002b530       ?AddMQ2DataEventVariable@@YAHPAD0PAVMQ2Type@MQ2Internal@@PAPAU_DATAVAR@2@0@Z 0302c530 f   MQ2DataVars.obj
 0001:0002b6a0       _AddMQ2DataVariable        0302c6a0 f   MQ2DataVars.obj
 0001:0002b830       _DeleteMQ2DataVariable     0302c830 f   MQ2DataVars.obj
 0001:0002b860       _ClearMQ2DataVariables     0302c860 f   MQ2DataVars.obj
 0001:0002b890       _NewDeclareVar             0302c890 f   MQ2DataVars.obj
 0001:0002bb00       _NewDeleteVarCmd           0302cb00 f   MQ2DataVars.obj
 0001:0002bb60       _NewVarset                 0302cb60 f   MQ2DataVars.obj
 0001:0002bd10       _NewVarcalc                0302cd10 f   MQ2DataVars.obj
 0001:0002bf30       _NewVardata                0302cf30 f   MQ2DataVars.obj
 0001:0002c140       ?AddEvent@@YAXKPADZZ       0302d140 f   MQ2DataVars.obj
 0001:0002c270       ?EventBlechCallback@@YGXIPAXPAU_BLECHVALUE@@@Z 0302d270 f   MQ2DataVars.obj
 0001:0002c420       _CheckChatForEvent         0302d420 f   MQ2DataVars.obj
 0001:0002cac0       _DropTimers                0302dac0 f   MQ2DataVars.obj
 0001:0002cb30       ??0?$map@V?$basic_string@DU?$char_traits@D@std@@V?$allocator@D@2@@std@@PAU_DATAVAR@MQ2Internal@@U?$less@V?$basic_string@DU?$char_traits@D@std@@V?$allocator@D@2@@std@@@2@V?$allocator@U?$pair@$$CBV?$basic_string@DU?$char_traits@D@std@@V?$allocator@D@2@@std@@PAU_DATAVAR@MQ2Internal@@@std@@@2@@std@@QAE@XZ 0302db30 f i MQ2DataVars.obj
 0001:0002cb80       ?FindDetour@@YAPAU_OurDetours@@K@Z 0302db80 f   MQ2DetourAPI.obj
 0001:0002cba0       _AddDetour                 0302dba0 f   MQ2DetourAPI.obj
 0001:0002cca0       _AddDetourf                0302dca0 f   MQ2DetourAPI.obj
 0001:0002cd00       _RemoveDetour              0302dd00 f   MQ2DetourAPI.obj
 0001:0002cdb0       ?RemoveOurDetours@@YAXXZ   0302ddb0 f   MQ2DetourAPI.obj
 0001:0002ce40       ?doit_tramp@CObfuscator@@QAEHHH@Z 0302de40 f   MQ2DetourAPI.obj
 0001:0002ce60       ?Trampoline@CEmoteHook@@QAEXXZ 0302de60 f   MQ2DetourAPI.obj
 0001:0002ce80       ?HookInlineChecks@@YAXH@Z  0302de80 f   MQ2DetourAPI.obj
 0001:0002d0c0       ?memcheck0@@YAHPAEH@Z      0302e0c0 f   MQ2DetourAPI.obj
 0001:0002d150       ?memcheck1@@YAHPAEHUmckey@@@Z 0302e150 f   MQ2DetourAPI.obj
 0001:0002d240       ?memcheck2@@YAHPAEHUmckey@@@Z 0302e240 f   MQ2DetourAPI.obj
 0001:0002d320       ?memcheck3@@YAHPAEHUmckey@@@Z 0302e320 f   MQ2DetourAPI.obj
 0001:0002d400       ?memcheck4@@YAHPAEHUmckey@@@Z 0302e400 f   MQ2DetourAPI.obj
 0001:0002d4e0       ?CrashDetected_Detour@@YAXKKKKK@Z 0302e4e0 f   MQ2DetourAPI.obj
 0001:0002d500       ?CrashDetected_Trampoline@@YAXKKKKK@Z 0302e500 f   MQ2DetourAPI.obj
 0001:0002d520       ?emotify2@@YAXPAD@Z        0302e520 f   MQ2DetourAPI.obj
 0001:0002d560       ?doit_detour@CObfuscator@@QAEHHH@Z 0302e560 f   MQ2DetourAPI.obj
 0001:0002d5b0       ?emotify@@YAXXZ            0302e5b0 f   MQ2DetourAPI.obj
 0001:0002d5d0       ?Detour@CEmoteHook@@QAEXXZ 0302e5d0 f   MQ2DetourAPI.obj
 0001:0002d5e0       ?HookMemChecker@@YAXH@Z    0302e5e0 f   MQ2DetourAPI.obj
 0001:0002d810       _InitializeMQ2Detours      0302e810 f   MQ2DetourAPI.obj
 0001:0002d840       _ShutdownMQ2Detours        0302e840 f   MQ2DetourAPI.obj
 0001:0002d870       ?DInputDataDetour@@YGJPAUIDirectInputDevice8A@@KPAUDIDEVICEOBJECTDATA@@PAKK@Z 0302e870 f   MQ2DInput.obj
 0001:0002da40       ?DInputStateDetour@@YGJPAUIDirectInputDevice8A@@KPAX@Z 0302ea40 f   MQ2DInput.obj
 0001:0002dad0       ?DInputAcquireDetour@@YGJPAUIDirectInputDevice8A@@@Z 0302ead0 f   MQ2DInput.obj
 0001:0002db00       _InitializeMQ2DInput       0302eb00 f   MQ2DInput.obj
 0001:0002dc30       _ShutdownMQ2DInput         0302ec30 f   MQ2DInput.obj
 0001:0002dce0       ??0?$allocator@U?$pair@$$CBV?$basic_string@DU?$char_traits@D@std@@V?$allocator@D@2@@std@@PAU_MACROBLOCK@MQ2Internal@@@std@@@std@@QAE@XZ 0302ece0 f i MQ2Globals.obj
 0001:0002dcf0       ??0?$allocator@U?$pair@$$CBV?$basic_string@DU?$char_traits@D@std@@V?$allocator@D@2@@std@@PAU_SPAWNINFO@EQData@@@std@@@std@@QAE@XZ 0302ecf0 f i MQ2Globals.obj
 0001:0002dd00       ?_Left@?$_Tree@V?$_Tmap_traits@V?$basic_string@DU?$char_traits@D@std@@V?$allocator@D@2@@std@@PAU_MACROBLOCK@MQ2Internal@@U?$less@V?$basic_string@DU?$char_traits@D@std@@V?$allocator@D@2@@std@@@2@V?$allocator@U?$pair@$$CBV?$basic_string@DU?$char_traits@D@std@@V?$allocator@D@2@@std@@PAU_MACROBLOCK@MQ2Internal@@@std@@@2@$0A@@std@@@std@@KAAAPAU_Node@?$_Tree_nod@V?$_Tmap_traits@V?$basic_string@DU?$char_traits@D@std@@V?$allocator@D@2@@std@@PAU_MACROBLOCK@MQ2Internal@@U?$less@V?$basic_string@DU?$char_traits@D@std@@V?$allocator@D@2@@std@@@2@V?$allocator@U?$pair@$$CBV?$basic_string@DU?$char_traits@D@std@@V?$allocator@D@2@@std@@PAU_MACROBLOCK@MQ2Internal@@@std@@@2@$0A@@std@@@2@PAU342@@Z 0302ed00 f i MQ2Globals.obj
 0001:0002dd10       ?_Parent@?$_Tree@V?$_Tmap_traits@V?$basic_string@DU?$char_traits@D@std@@V?$allocator@D@2@@std@@PAU_MACROBLOCK@MQ2Internal@@U?$less@V?$basic_string@DU?$char_traits@D@std@@V?$allocator@D@2@@std@@@2@V?$allocator@U?$pair@$$CBV?$basic_string@DU?$char_traits@D@std@@V?$allocator@D@2@@std@@PAU_MACROBLOCK@MQ2Internal@@@std@@@2@$0A@@std@@@std@@KAAAPAU_Node@?$_Tree_nod@V?$_Tmap_traits@V?$basic_string@DU?$char_traits@D@std@@V?$allocator@D@2@@std@@PAU_MACROBLOCK@MQ2Internal@@U?$less@V?$basic_string@DU?$char_traits@D@std@@V?$allocator@D@2@@std@@@2@V?$allocator@U?$pair@$$CBV?$basic_string@DU?$char_traits@D@std@@V?$allocator@D@2@@std@@PAU_MACROBLOCK@MQ2Internal@@@std@@@2@$0A@@std@@@2@PAU342@@Z 0302ed10 f i MQ2Globals.obj
 0001:0002dd20       ?_Right@?$_Tree@V?$_Tmap_traits@V?$basic_string@DU?$char_traits@D@std@@V?$allocator@D@2@@std@@PAU_MACROBLOCK@MQ2Internal@@U?$less@V?$basic_string@DU?$char_traits@D@std@@V?$allocator@D@2@@std@@@2@V?$allocator@U?$pair@$$CBV?$basic_string@DU?$char_traits@D@std@@V?$allocator@D@2@@std@@PAU_MACROBLOCK@MQ2Internal@@@std@@@2@$0A@@std@@@std@@KAAAPAU_Node@?$_Tree_nod@V?$_Tmap_traits@V?$basic_string@DU?$char_traits@D@std@@V?$allocator@D@2@@std@@PAU_MACROBLOCK@MQ2Internal@@U?$less@V?$basic_string@DU?$char_traits@D@std@@V?$allocator@D@2@@std@@@2@V?$allocator@U?$pair@$$CBV?$basic_string@DU?$char_traits@D@std@@V?$allocator@D@2@@std@@PAU_MACROBLOCK@MQ2Internal@@@std@@@2@$0A@@std@@@2@PAU342@@Z 0302ed20 f i MQ2Globals.obj
 0001:0002dd30       ??0?$allocator@U?$pair@$$CBV?$basic_string@DU?$char_traits@D@std@@V?$allocator@D@2@@std@@PAU_MACROBLOCK@MQ2Internal@@@std@@@std@@QAE@ABV01@@Z 0302ed30 f i MQ2Globals.obj
 0001:0002dd40       ?deallocate@?$allocator@U_Node@?$_Tree_nod@V?$_Tmap_traits@V?$basic_string@DU?$char_traits@D@std@@V?$allocator@D@2@@std@@PAU_MACROBLOCK@MQ2Internal@@U?$less@V?$basic_string@DU?$char_traits@D@std@@V?$allocator@D@2@@std@@@2@V?$allocator@U?$pair@$$CBV?$basic_string@DU?$char_traits@D@std@@V?$allocator@D@2@@std@@PAU_MACROBLOCK@MQ2Internal@@@std@@@2@$0A@@std@@@std@@@std@@QAEXPAU_Node@?$_Tree_nod@V?$_Tmap_traits@V?$basic_string@DU?$char_traits@D@std@@V?$allocator@D@2@@std@@PAU_MACROBLOCK@MQ2Internal@@U?$less@V?$basic_string@DU?$char_traits@D@std@@V?$allocator@D@2@@std@@@2@V?$allocator@U?$pair@$$CBV?$basic_string@DU?$char_traits@D@std@@V?$allocator@D@2@@std@@PAU_MACROBLOCK@MQ2Internal@@@std@@@2@$0A@@std@@@2@I@Z 0302ed40 f i MQ2Globals.obj
 0001:0002dd50       ?_Left@?$_Tree@V?$_Tmap_traits@V?$basic_string@DU?$char_traits@D@std@@V?$allocator@D@2@@std@@PAU_SPAWNINFO@EQData@@U?$less@V?$basic_string@DU?$char_traits@D@std@@V?$allocator@D@2@@std@@@2@V?$allocator@U?$pair@$$CBV?$basic_string@DU?$char_traits@D@std@@V?$allocator@D@2@@std@@PAU_SPAWNINFO@EQData@@@std@@@2@$0A@@std@@@std@@KAAAPAU_Node@?$_Tree_nod@V?$_Tmap_traits@V?$basic_string@DU?$char_traits@D@std@@V?$allocator@D@2@@std@@PAU_SPAWNINFO@EQData@@U?$less@V?$basic_string@DU?$char_traits@D@std@@V?$allocator@D@2@@std@@@2@V?$allocator@U?$pair@$$CBV?$basic_string@DU?$char_traits@D@std@@V?$allocator@D@2@@std@@PAU_SPAWNINFO@EQData@@@std@@@2@$0A@@std@@@2@PAU342@@Z 0302ed50 f i MQ2Globals.obj
 0001:0002dd60       ?_Parent@?$_Tree@V?$_Tmap_traits@V?$basic_string@DU?$char_traits@D@std@@V?$allocator@D@2@@std@@PAU_SPAWNINFO@EQData@@U?$less@V?$basic_string@DU?$char_traits@D@std@@V?$allocator@D@2@@std@@@2@V?$allocator@U?$pair@$$CBV?$basic_string@DU?$char_traits@D@std@@V?$allocator@D@2@@std@@PAU_SPAWNINFO@EQData@@@std@@@2@$0A@@std@@@std@@KAAAPAU_Node@?$_Tree_nod@V?$_Tmap_traits@V?$basic_string@DU?$char_traits@D@std@@V?$allocator@D@2@@std@@PAU_SPAWNINFO@EQData@@U?$less@V?$basic_string@DU?$char_traits@D@std@@V?$allocator@D@2@@std@@@2@V?$allocator@U?$pair@$$CBV?$basic_string@DU?$char_traits@D@std@@V?$allocator@D@2@@std@@PAU_SPAWNINFO@EQData@@@std@@@2@$0A@@std@@@2@PAU342@@Z 0302ed60 f i MQ2Globals.obj
 0001:0002dd70       ?_Right@?$_Tree@V?$_Tmap_traits@V?$basic_string@DU?$char_traits@D@std@@V?$allocator@D@2@@std@@PAU_SPAWNINFO@EQData@@U?$less@V?$basic_string@DU?$char_traits@D@std@@V?$allocator@D@2@@std@@@2@V?$allocator@U?$pair@$$CBV?$basic_string@DU?$char_traits@D@std@@V?$allocator@D@2@@std@@PAU_SPAWNINFO@EQData@@@std@@@2@$0A@@std@@@std@@KAAAPAU_Node@?$_Tree_nod@V?$_Tmap_traits@V?$basic_string@DU?$char_traits@D@std@@V?$allocator@D@2@@std@@PAU_SPAWNINFO@EQData@@U?$less@V?$basic_string@DU?$char_traits@D@std@@V?$allocator@D@2@@std@@@2@V?$allocator@U?$pair@$$CBV?$basic_string@DU?$char_traits@D@std@@V?$allocator@D@2@@std@@PAU_SPAWNINFO@EQData@@@std@@@2@$0A@@std@@@2@PAU342@@Z 0302ed70 f i MQ2Globals.obj
 0001:0002dd80       ??0?$allocator@U?$pair@$$CBV?$basic_string@DU?$char_traits@D@std@@V?$allocator@D@2@@std@@PAU_SPAWNINFO@EQData@@@std@@@std@@QAE@ABV01@@Z 0302ed80 f i MQ2Globals.obj
 0001:0002dd90       ?deallocate@?$allocator@U_Node@?$_Tree_nod@V?$_Tmap_traits@V?$basic_string@DU?$char_traits@D@std@@V?$allocator@D@2@@std@@PAU_SPAWNINFO@EQData@@U?$less@V?$basic_string@DU?$char_traits@D@std@@V?$allocator@D@2@@std@@@2@V?$allocator@U?$pair@$$CBV?$basic_string@DU?$char_traits@D@std@@V?$allocator@D@2@@std@@PAU_SPAWNINFO@EQData@@@std@@@2@$0A@@std@@@std@@@std@@QAEXPAU_Node@?$_Tree_nod@V?$_Tmap_traits@V?$basic_string@DU?$char_traits@D@std@@V?$allocator@D@2@@std@@PAU_SPAWNINFO@EQData@@U?$less@V?$basic_string@DU?$char_traits@D@std@@V?$allocator@D@2@@std@@@2@V?$allocator@U?$pair@$$CBV?$basic_string@DU?$char_traits@D@std@@V?$allocator@D@2@@std@@PAU_SPAWNINFO@EQData@@@std@@@2@$0A@@std@@@2@I@Z 0302ed90 f i MQ2Globals.obj
 0001:0002dda0       ?_Isnil@?$_Tree@V?$_Tmap_traits@V?$basic_string@DU?$char_traits@D@std@@V?$allocator@D@2@@std@@PAU_MACROBLOCK@MQ2Internal@@U?$less@V?$basic_string@DU?$char_traits@D@std@@V?$allocator@D@2@@std@@@2@V?$allocator@U?$pair@$$CBV?$basic_string@DU?$char_traits@D@std@@V?$allocator@D@2@@std@@PAU_MACROBLOCK@MQ2Internal@@@std@@@2@$0A@@std@@@std@@KAAADPAU_Node@?$_Tree_nod@V?$_Tmap_traits@V?$basic_string@DU?$char_traits@D@std@@V?$allocator@D@2@@std@@PAU_MACROBLOCK@MQ2Internal@@U?$less@V?$basic_string@DU?$char_traits@D@std@@V?$allocator@D@2@@std@@@2@V?$allocator@U?$pair@$$CBV?$basic_string@DU?$char_traits@D@std@@V?$allocator@D@2@@std@@PAU_MACROBLOCK@MQ2Internal@@@std@@@2@$0A@@std@@@2@@Z 0302eda0 f i MQ2Globals.obj
 0001:0002ddb0       ?_Lmost@?$_Tree@V?$_Tmap_traits@V?$basic_string@DU?$char_traits@D@std@@V?$allocator@D@2@@std@@PAU_MACROBLOCK@MQ2Internal@@U?$less@V?$basic_string@DU?$char_traits@D@std@@V?$allocator@D@2@@std@@@2@V?$allocator@U?$pair@$$CBV?$basic_string@DU?$char_traits@D@std@@V?$allocator@D@2@@std@@PAU_MACROBLOCK@MQ2Internal@@@std@@@2@$0A@@std@@@std@@IBEAAPAU_Node@?$_Tree_nod@V?$_Tmap_traits@V?$basic_string@DU?$char_traits@D@std@@V?$allocator@D@2@@std@@PAU_MACROBLOCK@MQ2Internal@@U?$less@V?$basic_string@DU?$char_traits@D@std@@V?$allocator@D@2@@std@@@2@V?$allocator@U?$pair@$$CBV?$basic_string@DU?$char_traits@D@std@@V?$allocator@D@2@@std@@PAU_MACROBLOCK@MQ2Internal@@@std@@@2@$0A@@std@@@2@XZ 0302edb0 f i MQ2Globals.obj
 0001:0002ddc0       ?_Rmost@?$_Tree@V?$_Tmap_traits@V?$basic_string@DU?$char_traits@D@std@@V?$allocator@D@2@@std@@PAU_MACROBLOCK@MQ2Internal@@U?$less@V?$basic_string@DU?$char_traits@D@std@@V?$allocator@D@2@@std@@@2@V?$allocator@U?$pair@$$CBV?$basic_string@DU?$char_traits@D@std@@V?$allocator@D@2@@std@@PAU_MACROBLOCK@MQ2Internal@@@std@@@2@$0A@@std@@@std@@IBEAAPAU_Node@?$_Tree_nod@V?$_Tmap_traits@V?$basic_string@DU?$char_traits@D@std@@V?$allocator@D@2@@std@@PAU_MACROBLOCK@MQ2Internal@@U?$less@V?$basic_string@DU?$char_traits@D@std@@V?$allocator@D@2@@std@@@2@V?$allocator@U?$pair@$$CBV?$basic_string@DU?$char_traits@D@std@@V?$allocator@D@2@@std@@PAU_MACROBLOCK@MQ2Internal@@@std@@@2@$0A@@std@@@2@XZ 0302edc0 f i MQ2Globals.obj
 0001:0002ddd0       ?_Root@?$_Tree@V?$_Tmap_traits@V?$basic_string@DU?$char_traits@D@std@@V?$allocator@D@2@@std@@PAU_MACROBLOCK@MQ2Internal@@U?$less@V?$basic_string@DU?$char_traits@D@std@@V?$allocator@D@2@@std@@@2@V?$allocator@U?$pair@$$CBV?$basic_string@DU?$char_traits@D@std@@V?$allocator@D@2@@std@@PAU_MACROBLOCK@MQ2Internal@@@std@@@2@$0A@@std@@@std@@IBEAAPAU_Node@?$_Tree_nod@V?$_Tmap_traits@V?$basic_string@DU?$char_traits@D@std@@V?$allocator@D@2@@std@@PAU_MACROBLOCK@MQ2Internal@@U?$less@V?$basic_string@DU?$char_traits@D@std@@V?$allocator@D@2@@std@@@2@V?$allocator@U?$pair@$$CBV?$basic_string@DU?$char_traits@D@std@@V?$allocator@D@2@@std@@PAU_MACROBLOCK@MQ2Internal@@@std@@@2@$0A@@std@@@2@XZ 0302edd0 f i MQ2Globals.obj
 0001:0002dde0       ?_Isnil@?$_Tree@V?$_Tmap_traits@V?$basic_string@DU?$char_traits@D@std@@V?$allocator@D@2@@std@@PAU_SPAWNINFO@EQData@@U?$less@V?$basic_string@DU?$char_traits@D@std@@V?$allocator@D@2@@std@@@2@V?$allocator@U?$pair@$$CBV?$basic_string@DU?$char_traits@D@std@@V?$allocator@D@2@@std@@PAU_SPAWNINFO@EQData@@@std@@@2@$0A@@std@@@std@@KAAADPAU_Node@?$_Tree_nod@V?$_Tmap_traits@V?$basic_string@DU?$char_traits@D@std@@V?$allocator@D@2@@std@@PAU_SPAWNINFO@EQData@@U?$less@V?$basic_string@DU?$char_traits@D@std@@V?$allocator@D@2@@std@@@2@V?$allocator@U?$pair@$$CBV?$basic_string@DU?$char_traits@D@std@@V?$allocator@D@2@@std@@PAU_SPAWNINFO@EQData@@@std@@@2@$0A@@std@@@2@@Z 0302ede0 f i MQ2Globals.obj
 0001:0002ddf0       ?_Lmost@?$_Tree@V?$_Tmap_traits@V?$basic_string@DU?$char_traits@D@std@@V?$allocator@D@2@@std@@PAU_SPAWNINFO@EQData@@U?$less@V?$basic_string@DU?$char_traits@D@std@@V?$allocator@D@2@@std@@@2@V?$allocator@U?$pair@$$CBV?$basic_string@DU?$char_traits@D@std@@V?$allocator@D@2@@std@@PAU_SPAWNINFO@EQData@@@std@@@2@$0A@@std@@@std@@IBEAAPAU_Node@?$_Tree_nod@V?$_Tmap_traits@V?$basic_string@DU?$char_traits@D@std@@V?$allocator@D@2@@std@@PAU_SPAWNINFO@EQData@@U?$less@V?$basic_string@DU?$char_traits@D@std@@V?$allocator@D@2@@std@@@2@V?$allocator@U?$pair@$$CBV?$basic_string@DU?$char_traits@D@std@@V?$allocator@D@2@@std@@PAU_SPAWNINFO@EQData@@@std@@@2@$0A@@std@@@2@XZ 0302edf0 f i MQ2Globals.obj
 0001:0002de00       ?_Rmost@?$_Tree@V?$_Tmap_traits@V?$basic_string@DU?$char_traits@D@std@@V?$allocator@D@2@@std@@PAU_SPAWNINFO@EQData@@U?$less@V?$basic_string@DU?$char_traits@D@std@@V?$allocator@D@2@@std@@@2@V?$allocator@U?$pair@$$CBV?$basic_string@DU?$char_traits@D@std@@V?$allocator@D@2@@std@@PAU_SPAWNINFO@EQData@@@std@@@2@$0A@@std@@@std@@IBEAAPAU_Node@?$_Tree_nod@V?$_Tmap_traits@V?$basic_string@DU?$char_traits@D@std@@V?$allocator@D@2@@std@@PAU_SPAWNINFO@EQData@@U?$less@V?$basic_string@DU?$char_traits@D@std@@V?$allocator@D@2@@std@@@2@V?$allocator@U?$pair@$$CBV?$basic_string@DU?$char_traits@D@std@@V?$allocator@D@2@@std@@PAU_SPAWNINFO@EQData@@@std@@@2@$0A@@std@@@2@XZ 0302ee00 f i MQ2Globals.obj
 0001:0002de10       ?_Root@?$_Tree@V?$_Tmap_traits@V?$basic_string@DU?$char_traits@D@std@@V?$allocator@D@2@@std@@PAU_SPAWNINFO@EQData@@U?$less@V?$basic_string@DU?$char_traits@D@std@@V?$allocator@D@2@@std@@@2@V?$allocator@U?$pair@$$CBV?$basic_string@DU?$char_traits@D@std@@V?$allocator@D@2@@std@@PAU_SPAWNINFO@EQData@@@std@@@2@$0A@@std@@@std@@IBEAAPAU_Node@?$_Tree_nod@V?$_Tmap_traits@V?$basic_string@DU?$char_traits@D@std@@V?$allocator@D@2@@std@@PAU_SPAWNINFO@EQData@@U?$less@V?$basic_string@DU?$char_traits@D@std@@V?$allocator@D@2@@std@@@2@V?$allocator@U?$pair@$$CBV?$basic_string@DU?$char_traits@D@std@@V?$allocator@D@2@@std@@PAU_SPAWNINFO@EQData@@@std@@@2@$0A@@std@@@2@XZ 0302ee10 f i MQ2Globals.obj
 0001:0002de20       ??8const_iterator@?$_Tree@V?$_Tmap_traits@V?$basic_string@DU?$char_traits@D@std@@V?$allocator@D@2@@std@@PAU_MACROBLOCK@MQ2Internal@@U?$less@V?$basic_string@DU?$char_traits@D@std@@V?$allocator@D@2@@std@@@2@V?$allocator@U?$pair@$$CBV?$basic_string@DU?$char_traits@D@std@@V?$allocator@D@2@@std@@PAU_MACROBLOCK@MQ2Internal@@@std@@@2@$0A@@std@@@std@@QBE_NABV012@@Z 0302ee20 f i MQ2Globals.obj
 0001:0002de50       ??9const_iterator@?$_Tree@V?$_Tmap_traits@V?$basic_string@DU?$char_traits@D@std@@V?$allocator@D@2@@std@@PAU_MACROBLOCK@MQ2Internal@@U?$less@V?$basic_string@DU?$char_traits@D@std@@V?$allocator@D@2@@std@@@2@V?$allocator@U?$pair@$$CBV?$basic_string@DU?$char_traits@D@std@@V?$allocator@D@2@@std@@PAU_MACROBLOCK@MQ2Internal@@@std@@@2@$0A@@std@@@std@@QBE_NABV012@@Z 0302ee50 f i MQ2Globals.obj
 0001:0002de80       ??8const_iterator@?$_Tree@V?$_Tmap_traits@V?$basic_string@DU?$char_traits@D@std@@V?$allocator@D@2@@std@@PAU_SPAWNINFO@EQData@@U?$less@V?$basic_string@DU?$char_traits@D@std@@V?$allocator@D@2@@std@@@2@V?$allocator@U?$pair@$$CBV?$basic_string@DU?$char_traits@D@std@@V?$allocator@D@2@@std@@PAU_SPAWNINFO@EQData@@@std@@@2@$0A@@std@@@std@@QBE_NABV012@@Z 0302ee80 f i MQ2Globals.obj
 0001:0002deb0       ??9const_iterator@?$_Tree@V?$_Tmap_traits@V?$basic_string@DU?$char_traits@D@std@@V?$allocator@D@2@@std@@PAU_SPAWNINFO@EQData@@U?$less@V?$basic_string@DU?$char_traits@D@std@@V?$allocator@D@2@@std@@@2@V?$allocator@U?$pair@$$CBV?$basic_string@DU?$char_traits@D@std@@V?$allocator@D@2@@std@@PAU_SPAWNINFO@EQData@@@std@@@2@$0A@@std@@@std@@QBE_NABV012@@Z 0302eeb0 f i MQ2Globals.obj
 0001:0002dee0       ?_Color@?$_Tree@V?$_Tmap_traits@V?$basic_string@DU?$char_traits@D@std@@V?$allocator@D@2@@std@@PAU_MACROBLOCK@MQ2Internal@@U?$less@V?$basic_string@DU?$char_traits@D@std@@V?$allocator@D@2@@std@@@2@V?$allocator@U?$pair@$$CBV?$basic_string@DU?$char_traits@D@std@@V?$allocator@D@2@@std@@PAU_MACROBLOCK@MQ2Internal@@@std@@@2@$0A@@std@@@std@@KAAADPAU_Node@?$_Tree_nod@V?$_Tmap_traits@V?$basic_string@DU?$char_traits@D@std@@V?$allocator@D@2@@std@@PAU_MACROBLOCK@MQ2Internal@@U?$less@V?$basic_string@DU?$char_traits@D@std@@V?$allocator@D@2@@std@@@2@V?$allocator@U?$pair@$$CBV?$basic_string@DU?$char_traits@D@std@@V?$allocator@D@2@@std@@PAU_MACROBLOCK@MQ2Internal@@@std@@@2@$0A@@std@@@2@@Z 0302eee0 f i MQ2Globals.obj
 0001:0002def0       ?_Lrotate@?$_Tree@V?$_Tmap_traits@V?$basic_string@DU?$char_traits@D@std@@V?$allocator@D@2@@std@@PAU_MACROBLOCK@MQ2Internal@@U?$less@V?$basic_string@DU?$char_traits@D@std@@V?$allocator@D@2@@std@@@2@V?$allocator@U?$pair@$$CBV?$basic_string@DU?$char_traits@D@std@@V?$allocator@D@2@@std@@PAU_MACROBLOCK@MQ2Internal@@@std@@@2@$0A@@std@@@std@@IAEXPAU_Node@?$_Tree_nod@V?$_Tmap_traits@V?$basic_string@DU?$char_traits@D@std@@V?$allocator@D@2@@std@@PAU_MACROBLOCK@MQ2Internal@@U?$less@V?$basic_string@DU?$char_traits@D@std@@V?$allocator@D@2@@std@@@2@V?$allocator@U?$pair@$$CBV?$basic_string@DU?$char_traits@D@std@@V?$allocator@D@2@@std@@PAU_MACROBLOCK@MQ2Internal@@@std@@@2@$0A@@std@@@2@@Z 0302eef0 f i MQ2Globals.obj
 0001:0002df40       ?_Max@?$_Tree@V?$_Tmap_traits@V?$basic_string@DU?$char_traits@D@std@@V?$allocator@D@2@@std@@PAU_MACROBLOCK@MQ2Internal@@U?$less@V?$basic_string@DU?$char_traits@D@std@@V?$allocator@D@2@@std@@@2@V?$allocator@U?$pair@$$CBV?$basic_string@DU?$char_traits@D@std@@V?$allocator@D@2@@std@@PAU_MACROBLOCK@MQ2Internal@@@std@@@2@$0A@@std@@@std@@KAPAU_Node@?$_Tree_nod@V?$_Tmap_traits@V?$basic_string@DU?$char_traits@D@std@@V?$allocator@D@2@@std@@PAU_MACROBLOCK@MQ2Internal@@U?$less@V?$basic_string@DU?$char_traits@D@std@@V?$allocator@D@2@@std@@@2@V?$allocator@U?$pair@$$CBV?$basic_string@DU?$char_traits@D@std@@V?$allocator@D@2@@std@@PAU_MACROBLOCK@MQ2Internal@@@std@@@2@$0A@@std@@@2@PAU342@@Z 0302ef40 f i MQ2Globals.obj
 0001:0002df60       ?_Min@?$_Tree@V?$_Tmap_traits@V?$basic_string@DU?$char_traits@D@std@@V?$allocator@D@2@@std@@PAU_MACROBLOCK@MQ2Internal@@U?$less@V?$basic_string@DU?$char_traits@D@std@@V?$allocator@D@2@@std@@@2@V?$allocator@U?$pair@$$CBV?$basic_string@DU?$char_traits@D@std@@V?$allocator@D@2@@std@@PAU_MACROBLOCK@MQ2Internal@@@std@@@2@$0A@@std@@@std@@KAPAU_Node@?$_Tree_nod@V?$_Tmap_traits@V?$basic_string@DU?$char_traits@D@std@@V?$allocator@D@2@@std@@PAU_MACROBLOCK@MQ2Internal@@U?$less@V?$basic_string@DU?$char_traits@D@std@@V?$allocator@D@2@@std@@@2@V?$allocator@U?$pair@$$CBV?$basic_string@DU?$char_traits@D@std@@V?$allocator@D@2@@std@@PAU_MACROBLOCK@MQ2Internal@@@std@@@2@$0A@@std@@@2@PAU342@@Z 0302ef60 f i MQ2Globals.obj
 0001:0002df80       ?_Rrotate@?$_Tree@V?$_Tmap_traits@V?$basic_string@DU?$char_traits@D@std@@V?$allocator@D@2@@std@@PAU_MACROBLOCK@MQ2Internal@@U?$less@V?$basic_string@DU?$char_traits@D@std@@V?$allocator@D@2@@std@@@2@V?$allocator@U?$pair@$$CBV?$basic_string@DU?$char_traits@D@std@@V?$allocator@D@2@@std@@PAU_MACROBLOCK@MQ2Internal@@@std@@@2@$0A@@std@@@std@@IAEXPAU_Node@?$_Tree_nod@V?$_Tmap_traits@V?$basic_string@DU?$char_traits@D@std@@V?$allocator@D@2@@std@@PAU_MACROBLOCK@MQ2Internal@@U?$less@V?$basic_string@DU?$char_traits@D@std@@V?$allocator@D@2@@std@@@2@V?$allocator@U?$pair@$$CBV?$basic_string@DU?$char_traits@D@std@@V?$allocator@D@2@@std@@PAU_MACROBLOCK@MQ2Internal@@@std@@@2@$0A@@std@@@2@@Z 0302ef80 f i MQ2Globals.obj
 0001:0002dfe0       ?_Color@?$_Tree@V?$_Tmap_traits@V?$basic_string@DU?$char_traits@D@std@@V?$allocator@D@2@@std@@PAU_SPAWNINFO@EQData@@U?$less@V?$basic_string@DU?$char_traits@D@std@@V?$allocator@D@2@@std@@@2@V?$allocator@U?$pair@$$CBV?$basic_string@DU?$char_traits@D@std@@V?$allocator@D@2@@std@@PAU_SPAWNINFO@EQData@@@std@@@2@$0A@@std@@@std@@KAAADPAU_Node@?$_Tree_nod@V?$_Tmap_traits@V?$basic_string@DU?$char_traits@D@std@@V?$allocator@D@2@@std@@PAU_SPAWNINFO@EQData@@U?$less@V?$basic_string@DU?$char_traits@D@std@@V?$allocator@D@2@@std@@@2@V?$allocator@U?$pair@$$CBV?$basic_string@DU?$char_traits@D@std@@V?$allocator@D@2@@std@@PAU_SPAWNINFO@EQData@@@std@@@2@$0A@@std@@@2@@Z 0302efe0 f i MQ2Globals.obj
 0001:0002dff0       ?_Lrotate@?$_Tree@V?$_Tmap_traits@V?$basic_string@DU?$char_traits@D@std@@V?$allocator@D@2@@std@@PAU_SPAWNINFO@EQData@@U?$less@V?$basic_string@DU?$char_traits@D@std@@V?$allocator@D@2@@std@@@2@V?$allocator@U?$pair@$$CBV?$basic_string@DU?$char_traits@D@std@@V?$allocator@D@2@@std@@PAU_SPAWNINFO@EQData@@@std@@@2@$0A@@std@@@std@@IAEXPAU_Node@?$_Tree_nod@V?$_Tmap_traits@V?$basic_string@DU?$char_traits@D@std@@V?$allocator@D@2@@std@@PAU_SPAWNINFO@EQData@@U?$less@V?$basic_string@DU?$char_traits@D@std@@V?$allocator@D@2@@std@@@2@V?$allocator@U?$pair@$$CBV?$basic_string@DU?$char_traits@D@std@@V?$allocator@D@2@@std@@PAU_SPAWNINFO@EQData@@@std@@@2@$0A@@std@@@2@@Z 0302eff0 f i MQ2Globals.obj
 0001:0002e040       ?_Max@?$_Tree@V?$_Tmap_traits@V?$basic_string@DU?$char_traits@D@std@@V?$allocator@D@2@@std@@PAU_SPAWNINFO@EQData@@U?$less@V?$basic_string@DU?$char_traits@D@std@@V?$allocator@D@2@@std@@@2@V?$allocator@U?$pair@$$CBV?$basic_string@DU?$char_traits@D@std@@V?$allocator@D@2@@std@@PAU_SPAWNINFO@EQData@@@std@@@2@$0A@@std@@@std@@KAPAU_Node@?$_Tree_nod@V?$_Tmap_traits@V?$basic_string@DU?$char_traits@D@std@@V?$allocator@D@2@@std@@PAU_SPAWNINFO@EQData@@U?$less@V?$basic_string@DU?$char_traits@D@std@@V?$allocator@D@2@@std@@@2@V?$allocator@U?$pair@$$CBV?$basic_string@DU?$char_traits@D@std@@V?$allocator@D@2@@std@@PAU_SPAWNINFO@EQData@@@std@@@2@$0A@@std@@@2@PAU342@@Z 0302f040 f i MQ2Globals.obj
 0001:0002e060       ?_Min@?$_Tree@V?$_Tmap_traits@V?$basic_string@DU?$char_traits@D@std@@V?$allocator@D@2@@std@@PAU_SPAWNINFO@EQData@@U?$less@V?$basic_string@DU?$char_traits@D@std@@V?$allocator@D@2@@std@@@2@V?$allocator@U?$pair@$$CBV?$basic_string@DU?$char_traits@D@std@@V?$allocator@D@2@@std@@PAU_SPAWNINFO@EQData@@@std@@@2@$0A@@std@@@std@@KAPAU_Node@?$_Tree_nod@V?$_Tmap_traits@V?$basic_string@DU?$char_traits@D@std@@V?$allocator@D@2@@std@@PAU_SPAWNINFO@EQData@@U?$less@V?$basic_string@DU?$char_traits@D@std@@V?$allocator@D@2@@std@@@2@V?$allocator@U?$pair@$$CBV?$basic_string@DU?$char_traits@D@std@@V?$allocator@D@2@@std@@PAU_SPAWNINFO@EQData@@@std@@@2@$0A@@std@@@2@PAU342@@Z 0302f060 f i MQ2Globals.obj
 0001:0002e080       ?_Rrotate@?$_Tree@V?$_Tmap_traits@V?$basic_string@DU?$char_traits@D@std@@V?$allocator@D@2@@std@@PAU_SPAWNINFO@EQData@@U?$less@V?$basic_string@DU?$char_traits@D@std@@V?$allocator@D@2@@std@@@2@V?$allocator@U?$pair@$$CBV?$basic_string@DU?$char_traits@D@std@@V?$allocator@D@2@@std@@PAU_SPAWNINFO@EQData@@@std@@@2@$0A@@std@@@std@@IAEXPAU_Node@?$_Tree_nod@V?$_Tmap_traits@V?$basic_string@DU?$char_traits@D@std@@V?$allocator@D@2@@std@@PAU_SPAWNINFO@EQData@@U?$less@V?$basic_string@DU?$char_traits@D@std@@V?$allocator@D@2@@std@@@2@V?$allocator@U?$pair@$$CBV?$basic_string@DU?$char_traits@D@std@@V?$allocator@D@2@@std@@PAU_SPAWNINFO@EQData@@@std@@@2@$0A@@std@@@2@@Z 0302f080 f i MQ2Globals.obj
 0001:0002e0e0       ?_Mynode@const_iterator@?$_Tree@V?$_Tmap_traits@V?$basic_string@DU?$char_traits@D@std@@V?$allocator@D@2@@std@@PAU_MACROBLOCK@MQ2Internal@@U?$less@V?$basic_string@DU?$char_traits@D@std@@V?$allocator@D@2@@std@@@2@V?$allocator@U?$pair@$$CBV?$basic_string@DU?$char_traits@D@std@@V?$allocator@D@2@@std@@PAU_MACROBLOCK@MQ2Internal@@@std@@@2@$0A@@std@@@std@@QBEPAU_Node@?$_Tree_nod@V?$_Tmap_traits@V?$basic_string@DU?$char_traits@D@std@@V?$allocator@D@2@@std@@PAU_MACROBLOCK@MQ2Internal@@U?$less@V?$basic_string@DU?$char_traits@D@std@@V?$allocator@D@2@@std@@@2@V?$allocator@U?$pair@$$CBV?$basic_string@DU?$char_traits@D@std@@V?$allocator@D@2@@std@@PAU_MACROBLOCK@MQ2Internal@@@std@@@2@$0A@@std@@@3@XZ 0302f0e0 f i MQ2Globals.obj
 0001:0002e0f0       ?_Mynode@const_iterator@?$_Tree@V?$_Tmap_traits@V?$basic_string@DU?$char_traits@D@std@@V?$allocator@D@2@@std@@PAU_SPAWNINFO@EQData@@U?$less@V?$basic_string@DU?$char_traits@D@std@@V?$allocator@D@2@@std@@@2@V?$allocator@U?$pair@$$CBV?$basic_string@DU?$char_traits@D@std@@V?$allocator@D@2@@std@@PAU_SPAWNINFO@EQData@@@std@@@2@$0A@@std@@@std@@QBEPAU_Node@?$_Tree_nod@V?$_Tmap_traits@V?$basic_string@DU?$char_traits@D@std@@V?$allocator@D@2@@std@@PAU_SPAWNINFO@EQData@@U?$less@V?$basic_string@DU?$char_traits@D@std@@V?$allocator@D@2@@std@@@2@V?$allocator@U?$pair@$$CBV?$basic_string@DU?$char_traits@D@std@@V?$allocator@D@2@@std@@PAU_SPAWNINFO@EQData@@@std@@@2@$0A@@std@@@3@XZ 0302f0f0 f i MQ2Globals.obj
 0001:0002e100       ??0?$_Iterator_with_base@Ubidirectional_iterator_tag@std@@U?$pair@$$CBV?$basic_string@DU?$char_traits@D@std@@V?$allocator@D@2@@std@@PAU_MACROBLOCK@MQ2Internal@@@2@HPBU32@ABU32@V_Iterator_base_aux@2@@std@@QAE@XZ 0302f100 f i MQ2Globals.obj
 0001:0002e110       ??0?$_Iterator_with_base@Ubidirectional_iterator_tag@std@@U?$pair@$$CBV?$basic_string@DU?$char_traits@D@std@@V?$allocator@D@2@@std@@PAU_SPAWNINFO@EQData@@@2@HPBU32@ABU32@V_Iterator_base_aux@2@@std@@QAE@XZ 0302f110 f i MQ2Globals.obj
 0001:0002e120       ?_Inc@const_iterator@?$_Tree@V?$_Tmap_traits@V?$basic_string@DU?$char_traits@D@std@@V?$allocator@D@2@@std@@PAU_MACROBLOCK@MQ2Internal@@U?$less@V?$basic_string@DU?$char_traits@D@std@@V?$allocator@D@2@@std@@@2@V?$allocator@U?$pair@$$CBV?$basic_string@DU?$char_traits@D@std@@V?$allocator@D@2@@std@@PAU_MACROBLOCK@MQ2Internal@@@std@@@2@$0A@@std@@@std@@QAEXXZ 0302f120 f i MQ2Globals.obj
 0001:0002e190       ?_Inc@const_iterator@?$_Tree@V?$_Tmap_traits@V?$basic_string@DU?$char_traits@D@std@@V?$allocator@D@2@@std@@PAU_SPAWNINFO@EQData@@U?$less@V?$basic_string@DU?$char_traits@D@std@@V?$allocator@D@2@@std@@@2@V?$allocator@U?$pair@$$CBV?$basic_string@DU?$char_traits@D@std@@V?$allocator@D@2@@std@@PAU_SPAWNINFO@EQData@@@std@@@2@$0A@@std@@@std@@QAEXXZ 0302f190 f i MQ2Globals.obj
 0001:0002e200       ??$_Destroy@PAU_Node@?$_Tree_nod@V?$_Tmap_traits@V?$basic_string@DU?$char_traits@D@std@@V?$allocator@D@2@@std@@PAU_MACROBLOCK@MQ2Internal@@U?$less@V?$basic_string@DU?$char_traits@D@std@@V?$allocator@D@2@@std@@@2@V?$allocator@U?$pair@$$CBV?$basic_string@DU?$char_traits@D@std@@V?$allocator@D@2@@std@@PAU_MACROBLOCK@MQ2Internal@@@std@@@2@$0A@@std@@@std@@@std@@YAXPAPAU_Node@?$_Tree_nod@V?$_Tmap_traits@V?$basic_string@DU?$char_traits@D@std@@V?$allocator@D@2@@std@@PAU_MACROBLOCK@MQ2Internal@@U?$less@V?$basic_string@DU?$char_traits@D@std@@V?$allocator@D@2@@std@@@2@V?$allocator@U?$pair@$$CBV?$basic_string@DU?$char_traits@D@std@@V?$allocator@D@2@@std@@PAU_MACROBLOCK@MQ2Internal@@@std@@@2@$0A@@std@@@0@@Z 0302f200 f i MQ2Globals.obj
 0001:0002e210       ??$_Destroy@PAU_Node@?$_Tree_nod@V?$_Tmap_traits@V?$basic_string@DU?$char_traits@D@std@@V?$allocator@D@2@@std@@PAU_SPAWNINFO@EQData@@U?$less@V?$basic_string@DU?$char_traits@D@std@@V?$allocator@D@2@@std@@@2@V?$allocator@U?$pair@$$CBV?$basic_string@DU?$char_traits@D@std@@V?$allocator@D@2@@std@@PAU_SPAWNINFO@EQData@@@std@@@2@$0A@@std@@@std@@@std@@YAXPAPAU_Node@?$_Tree_nod@V?$_Tmap_traits@V?$basic_string@DU?$char_traits@D@std@@V?$allocator@D@2@@std@@PAU_SPAWNINFO@EQData@@U?$less@V?$basic_string@DU?$char_traits@D@std@@V?$allocator@D@2@@std@@@2@V?$allocator@U?$pair@$$CBV?$basic_string@DU?$char_traits@D@std@@V?$allocator@D@2@@std@@PAU_SPAWNINFO@EQData@@@std@@@2@$0A@@std@@@0@@Z 0302f210 f i MQ2Globals.obj
 0001:0002e220       ??$?0U?$pair@$$CBV?$basic_string@DU?$char_traits@D@std@@V?$allocator@D@2@@std@@PAU_MACROBLOCK@MQ2Internal@@@std@@@?$allocator@PAU_Node@?$_Tree_nod@V?$_Tmap_traits@V?$basic_string@DU?$char_traits@D@std@@V?$allocator@D@2@@std@@PAU_MACROBLOCK@MQ2Internal@@U?$less@V?$basic_string@DU?$char_traits@D@std@@V?$allocator@D@2@@std@@@2@V?$allocator@U?$pair@$$CBV?$basic_string@DU?$char_traits@D@std@@V?$allocator@D@2@@std@@PAU_MACROBLOCK@MQ2Internal@@@std@@@2@$0A@@std@@@std@@@std@@QAE@ABV?$allocator@U?$pair@$$CBV?$basic_string@DU?$char_traits@D@std@@V?$allocator@D@2@@std@@PAU_MACROBLOCK@MQ2Internal@@@std@@@1@@Z 0302f220 f i MQ2Globals.obj
 0001:0002e230       ??$?0U?$pair@$$CBV?$basic_string@DU?$char_traits@D@std@@V?$allocator@D@2@@std@@PAU_SPAWNINFO@EQData@@@std@@@?$allocator@PAU_Node@?$_Tree_nod@V?$_Tmap_traits@V?$basic_string@DU?$char_traits@D@std@@V?$allocator@D@2@@std@@PAU_SPAWNINFO@EQData@@U?$less@V?$basic_string@DU?$char_traits@D@std@@V?$allocator@D@2@@std@@@2@V?$allocator@U?$pair@$$CBV?$basic_string@DU?$char_traits@D@std@@V?$allocator@D@2@@std@@PAU_SPAWNINFO@EQData@@@std@@@2@$0A@@std@@@std@@@std@@QAE@ABV?$allocator@U?$pair@$$CBV?$basic_string@DU?$char_traits@D@std@@V?$allocator@D@2@@std@@PAU_SPAWNINFO@EQData@@@std@@@1@@Z 0302f230 f i MQ2Globals.obj
 0001:0002e240       ??$?0U?$pair@$$CBV?$basic_string@DU?$char_traits@D@std@@V?$allocator@D@2@@std@@PAU_MACROBLOCK@MQ2Internal@@@std@@@?$allocator@U_Node@?$_Tree_nod@V?$_Tmap_traits@V?$basic_string@DU?$char_traits@D@std@@V?$allocator@D@2@@std@@PAU_MACROBLOCK@MQ2Internal@@U?$less@V?$basic_string@DU?$char_traits@D@std@@V?$allocator@D@2@@std@@@2@V?$allocator@U?$pair@$$CBV?$basic_string@DU?$char_traits@D@std@@V?$allocator@D@2@@std@@PAU_MACROBLOCK@MQ2Internal@@@std@@@2@$0A@@std@@@std@@@std@@QAE@ABV?$allocator@U?$pair@$$CBV?$basic_string@DU?$char_traits@D@std@@V?$allocator@D@2@@std@@PAU_MACROBLOCK@MQ2Internal@@@std@@@1@@Z 0302f240 f i MQ2Globals.obj
 0001:0002e250       ??$_Allocate@U_Node@?$_Tree_nod@V?$_Tmap_traits@V?$basic_string@DU?$char_traits@D@std@@V?$allocator@D@2@@std@@PAU_MACROBLOCK@MQ2Internal@@U?$less@V?$basic_string@DU?$char_traits@D@std@@V?$allocator@D@2@@std@@@2@V?$allocator@U?$pair@$$CBV?$basic_string@DU?$char_traits@D@std@@V?$allocator@D@2@@std@@PAU_MACROBLOCK@MQ2Internal@@@std@@@2@$0A@@std@@@std@@@std@@YAPAU_Node@?$_Tree_nod@V?$_Tmap_traits@V?$basic_string@DU?$char_traits@D@std@@V?$allocator@D@2@@std@@PAU_MACROBLOCK@MQ2Internal@@U?$less@V?$basic_string@DU?$char_traits@D@std@@V?$allocator@D@2@@std@@@2@V?$allocator@U?$pair@$$CBV?$basic_string@DU?$char_traits@D@std@@V?$allocator@D@2@@std@@PAU_MACROBLOCK@MQ2Internal@@@std@@@2@$0A@@std@@@0@IPAU120@@Z 0302f250 f i MQ2Globals.obj
 0001:0002e2b0       ??$_Construct@PAU_Node@?$_Tree_nod@V?$_Tmap_traits@V?$basic_string@DU?$char_traits@D@std@@V?$allocator@D@2@@std@@PAU_MACROBLOCK@MQ2Internal@@U?$less@V?$basic_string@DU?$char_traits@D@std@@V?$allocator@D@2@@std@@@2@V?$allocator@U?$pair@$$CBV?$basic_string@DU?$char_traits@D@std@@V?$allocator@D@2@@std@@PAU_MACROBLOCK@MQ2Internal@@@std@@@2@$0A@@std@@@std@@PAU123@@std@@YAXPAPAU_Node@?$_Tree_nod@V?$_Tmap_traits@V?$basic_string@DU?$char_traits@D@std@@V?$allocator@D@2@@std@@PAU_MACROBLOCK@MQ2Internal@@U?$less@V?$basic_string@DU?$char_traits@D@std@@V?$allocator@D@2@@std@@@2@V?$allocator@U?$pair@$$CBV?$basic_string@DU?$char_traits@D@std@@V?$allocator@D@2@@std@@PAU_MACROBLOCK@MQ2Internal@@@std@@@2@$0A@@std@@@0@ABQAU120@@Z 0302f2b0 f i MQ2Globals.obj
 0001:0002e2d0       ??$?0U?$pair@$$CBV?$basic_string@DU?$char_traits@D@std@@V?$allocator@D@2@@std@@PAU_SPAWNINFO@EQData@@@std@@@?$allocator@U_Node@?$_Tree_nod@V?$_Tmap_traits@V?$basic_string@DU?$char_traits@D@std@@V?$allocator@D@2@@std@@PAU_SPAWNINFO@EQData@@U?$less@V?$basic_string@DU?$char_traits@D@std@@V?$allocator@D@2@@std@@@2@V?$allocator@U?$pair@$$CBV?$basic_string@DU?$char_traits@D@std@@V?$allocator@D@2@@std@@PAU_SPAWNINFO@EQData@@@std@@@2@$0A@@std@@@std@@@std@@QAE@ABV?$allocator@U?$pair@$$CBV?$basic_string@DU?$char_traits@D@std@@V?$allocator@D@2@@std@@PAU_SPAWNINFO@EQData@@@std@@@1@@Z 0302f2d0 f i MQ2Globals.obj
 0001:0002e2e0       ??$_Allocate@U_Node@?$_Tree_nod@V?$_Tmap_traits@V?$basic_string@DU?$char_traits@D@std@@V?$allocator@D@2@@std@@PAU_SPAWNINFO@EQData@@U?$less@V?$basic_string@DU?$char_traits@D@std@@V?$allocator@D@2@@std@@@2@V?$allocator@U?$pair@$$CBV?$basic_string@DU?$char_traits@D@std@@V?$allocator@D@2@@std@@PAU_SPAWNINFO@EQData@@@std@@@2@$0A@@std@@@std@@@std@@YAPAU_Node@?$_Tree_nod@V?$_Tmap_traits@V?$basic_string@DU?$char_traits@D@std@@V?$allocator@D@2@@std@@PAU_SPAWNINFO@EQData@@U?$less@V?$basic_string@DU?$char_traits@D@std@@V?$allocator@D@2@@std@@@2@V?$allocator@U?$pair@$$CBV?$basic_string@DU?$char_traits@D@std@@V?$allocator@D@2@@std@@PAU_SPAWNINFO@EQData@@@std@@@2@$0A@@std@@@0@IPAU120@@Z 0302f2e0 f i MQ2Globals.obj
 0001:0002e340       ??$_Construct@PAU_Node@?$_Tree_nod@V?$_Tmap_traits@V?$basic_string@DU?$char_traits@D@std@@V?$allocator@D@2@@std@@PAU_SPAWNINFO@EQData@@U?$less@V?$basic_string@DU?$char_traits@D@std@@V?$allocator@D@2@@std@@@2@V?$allocator@U?$pair@$$CBV?$basic_string@DU?$char_traits@D@std@@V?$allocator@D@2@@std@@PAU_SPAWNINFO@EQData@@@std@@@2@$0A@@std@@@std@@PAU123@@std@@YAXPAPAU_Node@?$_Tree_nod@V?$_Tmap_traits@V?$basic_string@DU?$char_traits@D@std@@V?$allocator@D@2@@std@@PAU_SPAWNINFO@EQData@@U?$less@V?$basic_string@DU?$char_traits@D@std@@V?$allocator@D@2@@std@@@2@V?$allocator@U?$pair@$$CBV?$basic_string@DU?$char_traits@D@std@@V?$allocator@D@2@@std@@PAU_SPAWNINFO@EQData@@@std@@@2@$0A@@std@@@0@ABQAU120@@Z 0302f340 f i MQ2Globals.obj
 0001:0002e360       ??$?0U?$pair@$$CBV?$basic_string@DU?$char_traits@D@std@@V?$allocator@D@2@@std@@PAU_MACROBLOCK@MQ2Internal@@@std@@@?$allocator@V_Aux_cont@std@@@std@@QAE@ABV?$allocator@U?$pair@$$CBV?$basic_string@DU?$char_traits@D@std@@V?$allocator@D@2@@std@@PAU_MACROBLOCK@MQ2Internal@@@std@@@1@@Z 0302f360 f i MQ2Globals.obj
 0001:0002e370       ??$?0U?$pair@$$CBV?$basic_string@DU?$char_traits@D@std@@V?$allocator@D@2@@std@@PAU_SPAWNINFO@EQData@@@std@@@?$allocator@V_Aux_cont@std@@@std@@QAE@ABV?$allocator@U?$pair@$$CBV?$basic_string@DU?$char_traits@D@std@@V?$allocator@D@2@@std@@PAU_SPAWNINFO@EQData@@@std@@@1@@Z 0302f370 f i MQ2Globals.obj
 0001:0002e380       ??1?$_Container_base_aux_alloc_real@V?$allocator@U?$pair@$$CBV?$basic_string@DU?$char_traits@D@std@@V?$allocator@D@2@@std@@PAU_MACROBLOCK@MQ2Internal@@@std@@@std@@@std@@IAE@XZ 0302f380 f i MQ2Globals.obj
 0001:0002e390       ??1?$_Container_base_aux_alloc_real@V?$allocator@U?$pair@$$CBV?$basic_string@DU?$char_traits@D@std@@V?$allocator@D@2@@std@@PAU_SPAWNINFO@EQData@@@std@@@std@@@std@@IAE@XZ 0302f390 f i MQ2Globals.obj
 0001:0002e3a0       ?destroy@?$allocator@PAU_Node@?$_Tree_nod@V?$_Tmap_traits@V?$basic_string@DU?$char_traits@D@std@@V?$allocator@D@2@@std@@PAU_MACROBLOCK@MQ2Internal@@U?$less@V?$basic_string@DU?$char_traits@D@std@@V?$allocator@D@2@@std@@@2@V?$allocator@U?$pair@$$CBV?$basic_string@DU?$char_traits@D@std@@V?$allocator@D@2@@std@@PAU_MACROBLOCK@MQ2Internal@@@std@@@2@$0A@@std@@@std@@@std@@QAEXPAPAU_Node@?$_Tree_nod@V?$_Tmap_traits@V?$basic_string@DU?$char_traits@D@std@@V?$allocator@D@2@@std@@PAU_MACROBLOCK@MQ2Internal@@U?$less@V?$basic_string@DU?$char_traits@D@std@@V?$allocator@D@2@@std@@@2@V?$allocator@U?$pair@$$CBV?$basic_string@DU?$char_traits@D@std@@V?$allocator@D@2@@std@@PAU_MACROBLOCK@MQ2Internal@@@std@@@2@$0A@@std@@@2@@Z 0302f3a0 f i MQ2Globals.obj
 0001:0002e3b0       ?destroy@?$allocator@PAU_Node@?$_Tree_nod@V?$_Tmap_traits@V?$basic_string@DU?$char_traits@D@std@@V?$allocator@D@2@@std@@PAU_SPAWNINFO@EQData@@U?$less@V?$basic_string@DU?$char_traits@D@std@@V?$allocator@D@2@@std@@@2@V?$allocator@U?$pair@$$CBV?$basic_string@DU?$char_traits@D@std@@V?$allocator@D@2@@std@@PAU_SPAWNINFO@EQData@@@std@@@2@$0A@@std@@@std@@@std@@QAEXPAPAU_Node@?$_Tree_nod@V?$_Tmap_traits@V?$basic_string@DU?$char_traits@D@std@@V?$allocator@D@2@@std@@PAU_SPAWNINFO@EQData@@U?$less@V?$basic_string@DU?$char_traits@D@std@@V?$allocator@D@2@@std@@@2@V?$allocator@U?$pair@$$CBV?$basic_string@DU?$char_traits@D@std@@V?$allocator@D@2@@std@@PAU_SPAWNINFO@EQData@@@std@@@2@$0A@@std@@@2@@Z 0302f3b0 f i MQ2Globals.obj
 0001:0002e3c0       ?allocate@?$allocator@U_Node@?$_Tree_nod@V?$_Tmap_traits@V?$basic_string@DU?$char_traits@D@std@@V?$allocator@D@2@@std@@PAU_MACROBLOCK@MQ2Internal@@U?$less@V?$basic_string@DU?$char_traits@D@std@@V?$allocator@D@2@@std@@@2@V?$allocator@U?$pair@$$CBV?$basic_string@DU?$char_traits@D@std@@V?$allocator@D@2@@std@@PAU_MACROBLOCK@MQ2Internal@@@std@@@2@$0A@@std@@@std@@@std@@QAEPAU_Node@?$_Tree_nod@V?$_Tmap_traits@V?$basic_string@DU?$char_traits@D@std@@V?$allocator@D@2@@std@@PAU_MACROBLOCK@MQ2Internal@@U?$less@V?$basic_string@DU?$char_traits@D@std@@V?$allocator@D@2@@std@@@2@V?$allocator@U?$pair@$$CBV?$basic_string@DU?$char_traits@D@std@@V?$allocator@D@2@@std@@PAU_MACROBLOCK@MQ2Internal@@@std@@@2@$0A@@std@@@2@I@Z 0302f3c0 f i MQ2Globals.obj
 0001:0002e3e0       ?construct@?$allocator@PAU_Node@?$_Tree_nod@V?$_Tmap_traits@V?$basic_string@DU?$char_traits@D@std@@V?$allocator@D@2@@std@@PAU_MACROBLOCK@MQ2Internal@@U?$less@V?$basic_string@DU?$char_traits@D@std@@V?$allocator@D@2@@std@@@2@V?$allocator@U?$pair@$$CBV?$basic_string@DU?$char_traits@D@std@@V?$allocator@D@2@@std@@PAU_MACROBLOCK@MQ2Internal@@@std@@@2@$0A@@std@@@std@@@std@@QAEXPAPAU_Node@?$_Tree_nod@V?$_Tmap_traits@V?$basic_string@DU?$char_traits@D@std@@V?$allocator@D@2@@std@@PAU_MACROBLOCK@MQ2Internal@@U?$less@V?$basic_string@DU?$char_traits@D@std@@V?$allocator@D@2@@std@@@2@V?$allocator@U?$pair@$$CBV?$basic_string@DU?$char_traits@D@std@@V?$allocator@D@2@@std@@PAU_MACROBLOCK@MQ2Internal@@@std@@@2@$0A@@std@@@2@ABQAU342@@Z 0302f3e0 f i MQ2Globals.obj
 0001:0002e400       ?allocate@?$allocator@U_Node@?$_Tree_nod@V?$_Tmap_traits@V?$basic_string@DU?$char_traits@D@std@@V?$allocator@D@2@@std@@PAU_SPAWNINFO@EQData@@U?$less@V?$basic_string@DU?$char_traits@D@std@@V?$allocator@D@2@@std@@@2@V?$allocator@U?$pair@$$CBV?$basic_string@DU?$char_traits@D@std@@V?$allocator@D@2@@std@@PAU_SPAWNINFO@EQData@@@std@@@2@$0A@@std@@@std@@@std@@QAEPAU_Node@?$_Tree_nod@V?$_Tmap_traits@V?$basic_string@DU?$char_traits@D@std@@V?$allocator@D@2@@std@@PAU_SPAWNINFO@EQData@@U?$less@V?$basic_string@DU?$char_traits@D@std@@V?$allocator@D@2@@std@@@2@V?$allocator@U?$pair@$$CBV?$basic_string@DU?$char_traits@D@std@@V?$allocator@D@2@@std@@PAU_SPAWNINFO@EQData@@@std@@@2@$0A@@std@@@2@I@Z 0302f400 f i MQ2Globals.obj
 0001:0002e420       ?construct@?$allocator@PAU_Node@?$_Tree_nod@V?$_Tmap_traits@V?$basic_string@DU?$char_traits@D@std@@V?$allocator@D@2@@std@@PAU_SPAWNINFO@EQData@@U?$less@V?$basic_string@DU?$char_traits@D@std@@V?$allocator@D@2@@std@@@2@V?$allocator@U?$pair@$$CBV?$basic_string@DU?$char_traits@D@std@@V?$allocator@D@2@@std@@PAU_SPAWNINFO@EQData@@@std@@@2@$0A@@std@@@std@@@std@@QAEXPAPAU_Node@?$_Tree_nod@V?$_Tmap_traits@V?$basic_string@DU?$char_traits@D@std@@V?$allocator@D@2@@std@@PAU_SPAWNINFO@EQData@@U?$less@V?$basic_string@DU?$char_traits@D@std@@V?$allocator@D@2@@std@@@2@V?$allocator@U?$pair@$$CBV?$basic_string@DU?$char_traits@D@std@@V?$allocator@D@2@@std@@PAU_SPAWNINFO@EQData@@@std@@@2@$0A@@std@@@2@ABQAU342@@Z 0302f420 f i MQ2Globals.obj
 0001:0002e440       ??Econst_iterator@?$_Tree@V?$_Tmap_traits@V?$basic_string@DU?$char_traits@D@std@@V?$allocator@D@2@@std@@PAU_MACROBLOCK@MQ2Internal@@U?$less@V?$basic_string@DU?$char_traits@D@std@@V?$allocator@D@2@@std@@@2@V?$allocator@U?$pair@$$CBV?$basic_string@DU?$char_traits@D@std@@V?$allocator@D@2@@std@@PAU_MACROBLOCK@MQ2Internal@@@std@@@2@$0A@@std@@@std@@QAEAAV012@XZ 0302f440 f i MQ2Globals.obj
 0001:0002e450       ??Econst_iterator@?$_Tree@V?$_Tmap_traits@V?$basic_string@DU?$char_traits@D@std@@V?$allocator@D@2@@std@@PAU_SPAWNINFO@EQData@@U?$less@V?$basic_string@DU?$char_traits@D@std@@V?$allocator@D@2@@std@@@2@V?$allocator@U?$pair@$$CBV?$basic_string@DU?$char_traits@D@std@@V?$allocator@D@2@@std@@PAU_SPAWNINFO@EQData@@@std@@@2@$0A@@std@@@std@@QAEAAV012@XZ 0302f450 f i MQ2Globals.obj
 0001:0002e460       ??0?$_Bidit@U?$pair@$$CBV?$basic_string@DU?$char_traits@D@std@@V?$allocator@D@2@@std@@PAU_MACROBLOCK@MQ2Internal@@@std@@HPBU12@ABU12@@std@@QAE@XZ 0302f460 f i MQ2Globals.obj
 0001:0002e470       ??0?$_Bidit@U?$pair@$$CBV?$basic_string@DU?$char_traits@D@std@@V?$allocator@D@2@@std@@PAU_SPAWNINFO@EQData@@@std@@HPBU12@ABU12@@std@@QAE@XZ 0302f470 f i MQ2Globals.obj
 0001:0002e480       ??1?$_Tmap_traits@V?$basic_string@DU?$char_traits@D@std@@V?$allocator@D@2@@std@@PAU_MACROBLOCK@MQ2Internal@@U?$less@V?$basic_string@DU?$char_traits@D@std@@V?$allocator@D@2@@std@@@2@V?$allocator@U?$pair@$$CBV?$basic_string@DU?$char_traits@D@std@@V?$allocator@D@2@@std@@PAU_MACROBLOCK@MQ2Internal@@@std@@@2@$0A@@std@@QAE@XZ 0302f480 f i MQ2Globals.obj
 0001:0002e490       ??1?$_Tmap_traits@V?$basic_string@DU?$char_traits@D@std@@V?$allocator@D@2@@std@@PAU_SPAWNINFO@EQData@@U?$less@V?$basic_string@DU?$char_traits@D@std@@V?$allocator@D@2@@std@@@2@V?$allocator@U?$pair@$$CBV?$basic_string@DU?$char_traits@D@std@@V?$allocator@D@2@@std@@PAU_SPAWNINFO@EQData@@@std@@@2@$0A@@std@@QAE@XZ 0302f490 f i MQ2Globals.obj
 0001:0002e4a0       ?_Buynode@?$_Tree@V?$_Tmap_traits@V?$basic_string@DU?$char_traits@D@std@@V?$allocator@D@2@@std@@PAU_MACROBLOCK@MQ2Internal@@U?$less@V?$basic_string@DU?$char_traits@D@std@@V?$allocator@D@2@@std@@@2@V?$allocator@U?$pair@$$CBV?$basic_string@DU?$char_traits@D@std@@V?$allocator@D@2@@std@@PAU_MACROBLOCK@MQ2Internal@@@std@@@2@$0A@@std@@@std@@IAEPAU_Node@?$_Tree_nod@V?$_Tmap_traits@V?$basic_string@DU?$char_traits@D@std@@V?$allocator@D@2@@std@@PAU_MACROBLOCK@MQ2Internal@@U?$less@V?$basic_string@DU?$char_traits@D@std@@V?$allocator@D@2@@std@@@2@V?$allocator@U?$pair@$$CBV?$basic_string@DU?$char_traits@D@std@@V?$allocator@D@2@@std@@PAU_MACROBLOCK@MQ2Internal@@@std@@@2@$0A@@std@@@2@XZ 0302f4a0 f i MQ2Globals.obj
 0001:0002e540       ?_Buynode@?$_Tree@V?$_Tmap_traits@V?$basic_string@DU?$char_traits@D@std@@V?$allocator@D@2@@std@@PAU_SPAWNINFO@EQData@@U?$less@V?$basic_string@DU?$char_traits@D@std@@V?$allocator@D@2@@std@@@2@V?$allocator@U?$pair@$$CBV?$basic_string@DU?$char_traits@D@std@@V?$allocator@D@2@@std@@PAU_SPAWNINFO@EQData@@@std@@@2@$0A@@std@@@std@@IAEPAU_Node@?$_Tree_nod@V?$_Tmap_traits@V?$basic_string@DU?$char_traits@D@std@@V?$allocator@D@2@@std@@PAU_SPAWNINFO@EQData@@U?$less@V?$basic_string@DU?$char_traits@D@std@@V?$allocator@D@2@@std@@@2@V?$allocator@U?$pair@$$CBV?$basic_string@DU?$char_traits@D@std@@V?$allocator@D@2@@std@@PAU_SPAWNINFO@EQData@@@std@@@2@$0A@@std@@@2@XZ 0302f540 f i MQ2Globals.obj
 0001:0002e5e0       ??Econst_iterator@?$_Tree@V?$_Tmap_traits@V?$basic_string@DU?$char_traits@D@std@@V?$allocator@D@2@@std@@PAU_MACROBLOCK@MQ2Internal@@U?$less@V?$basic_string@DU?$char_traits@D@std@@V?$allocator@D@2@@std@@@2@V?$allocator@U?$pair@$$CBV?$basic_string@DU?$char_traits@D@std@@V?$allocator@D@2@@std@@PAU_MACROBLOCK@MQ2Internal@@@std@@@2@$0A@@std@@@std@@QAE?AV012@H@Z 0302f5e0 f i MQ2Globals.obj
 0001:0002e600       ??Econst_iterator@?$_Tree@V?$_Tmap_traits@V?$basic_string@DU?$char_traits@D@std@@V?$allocator@D@2@@std@@PAU_SPAWNINFO@EQData@@U?$less@V?$basic_string@DU?$char_traits@D@std@@V?$allocator@D@2@@std@@@2@V?$allocator@U?$pair@$$CBV?$basic_string@DU?$char_traits@D@std@@V?$allocator@D@2@@std@@PAU_SPAWNINFO@EQData@@@std@@@2@$0A@@std@@@std@@QAE?AV012@H@Z 0302f600 f i MQ2Globals.obj
 0001:0002e620       ??0const_iterator@?$_Tree@V?$_Tmap_traits@V?$basic_string@DU?$char_traits@D@std@@V?$allocator@D@2@@std@@PAU_MACROBLOCK@MQ2Internal@@U?$less@V?$basic_string@DU?$char_traits@D@std@@V?$allocator@D@2@@std@@@2@V?$allocator@U?$pair@$$CBV?$basic_string@DU?$char_traits@D@std@@V?$allocator@D@2@@std@@PAU_MACROBLOCK@MQ2Internal@@@std@@@2@$0A@@std@@@std@@QAE@PAU_Node@?$_Tree_nod@V?$_Tmap_traits@V?$basic_string@DU?$char_traits@D@std@@V?$allocator@D@2@@std@@PAU_MACROBLOCK@MQ2Internal@@U?$less@V?$basic_string@DU?$char_traits@D@std@@V?$allocator@D@2@@std@@@2@V?$allocator@U?$pair@$$CBV?$basic_string@DU?$char_traits@D@std@@V?$allocator@D@2@@std@@PAU_MACROBLOCK@MQ2Internal@@@std@@@2@$0A@@std@@@2@PBV12@@Z 0302f620 f i MQ2Globals.obj
 0001:0002e650       ??0const_iterator@?$_Tree@V?$_Tmap_traits@V?$basic_string@DU?$char_traits@D@std@@V?$allocator@D@2@@std@@PAU_SPAWNINFO@EQData@@U?$less@V?$basic_string@DU?$char_traits@D@std@@V?$allocator@D@2@@std@@@2@V?$allocator@U?$pair@$$CBV?$basic_string@DU?$char_traits@D@std@@V?$allocator@D@2@@std@@PAU_SPAWNINFO@EQData@@@std@@@2@$0A@@std@@@std@@QAE@PAU_Node@?$_Tree_nod@V?$_Tmap_traits@V?$basic_string@DU?$char_traits@D@std@@V?$allocator@D@2@@std@@PAU_SPAWNINFO@EQData@@U?$less@V?$basic_string@DU?$char_traits@D@std@@V?$allocator@D@2@@std@@@2@V?$allocator@U?$pair@$$CBV?$basic_string@DU?$char_traits@D@std@@V?$allocator@D@2@@std@@PAU_SPAWNINFO@EQData@@@std@@@2@$0A@@std@@@2@PBV12@@Z 0302f650 f i MQ2Globals.obj
 0001:0002e680       ??0?$_Container_base_aux_alloc_real@V?$allocator@U?$pair@$$CBV?$basic_string@DU?$char_traits@D@std@@V?$allocator@D@2@@std@@PAU_MACROBLOCK@MQ2Internal@@@std@@@std@@@std@@IAE@V?$allocator@U?$pair@$$CBV?$basic_string@DU?$char_traits@D@std@@V?$allocator@D@2@@std@@PAU_MACROBLOCK@MQ2Internal@@@std@@@1@@Z 0302f680 f i MQ2Globals.obj
 0001:0002e6b0       ??0?$_Container_base_aux_alloc_real@V?$allocator@U?$pair@$$CBV?$basic_string@DU?$char_traits@D@std@@V?$allocator@D@2@@std@@PAU_SPAWNINFO@EQData@@@std@@@std@@@std@@IAE@V?$allocator@U?$pair@$$CBV?$basic_string@DU?$char_traits@D@std@@V?$allocator@D@2@@std@@PAU_SPAWNINFO@EQData@@@std@@@1@@Z 0302f6b0 f i MQ2Globals.obj
 0001:0002e6e0       ??1?$_Tree_nod@V?$_Tmap_traits@V?$basic_string@DU?$char_traits@D@std@@V?$allocator@D@2@@std@@PAU_MACROBLOCK@MQ2Internal@@U?$less@V?$basic_string@DU?$char_traits@D@std@@V?$allocator@D@2@@std@@@2@V?$allocator@U?$pair@$$CBV?$basic_string@DU?$char_traits@D@std@@V?$allocator@D@2@@std@@PAU_MACROBLOCK@MQ2Internal@@@std@@@2@$0A@@std@@@std@@QAE@XZ 0302f6e0 f i MQ2Globals.obj
 0001:0002e6f0       ??1?$_Tree_nod@V?$_Tmap_traits@V?$basic_string@DU?$char_traits@D@std@@V?$allocator@D@2@@std@@PAU_SPAWNINFO@EQData@@U?$less@V?$basic_string@DU?$char_traits@D@std@@V?$allocator@D@2@@std@@@2@V?$allocator@U?$pair@$$CBV?$basic_string@DU?$char_traits@D@std@@V?$allocator@D@2@@std@@PAU_SPAWNINFO@EQData@@@std@@@2@$0A@@std@@@std@@QAE@XZ 0302f6f0 f i MQ2Globals.obj
 0001:0002e700       ?_Init@?$_Tree@V?$_Tmap_traits@V?$basic_string@DU?$char_traits@D@std@@V?$allocator@D@2@@std@@PAU_MACROBLOCK@MQ2Internal@@U?$less@V?$basic_string@DU?$char_traits@D@std@@V?$allocator@D@2@@std@@@2@V?$allocator@U?$pair@$$CBV?$basic_string@DU?$char_traits@D@std@@V?$allocator@D@2@@std@@PAU_MACROBLOCK@MQ2Internal@@@std@@@2@$0A@@std@@@std@@IAEXXZ 0302f700 f i MQ2Globals.obj
 0001:0002e730       ?_Init@?$_Tree@V?$_Tmap_traits@V?$basic_string@DU?$char_traits@D@std@@V?$allocator@D@2@@std@@PAU_SPAWNINFO@EQData@@U?$less@V?$basic_string@DU?$char_traits@D@std@@V?$allocator@D@2@@std@@@2@V?$allocator@U?$pair@$$CBV?$basic_string@DU?$char_traits@D@std@@V?$allocator@D@2@@std@@PAU_SPAWNINFO@EQData@@@std@@@2@$0A@@std@@@std@@IAEXXZ 0302f730 f i MQ2Globals.obj
 0001:0002e760       ??0iterator@?$_Tree@V?$_Tmap_traits@V?$basic_string@DU?$char_traits@D@std@@V?$allocator@D@2@@std@@PAU_MACROBLOCK@MQ2Internal@@U?$less@V?$basic_string@DU?$char_traits@D@std@@V?$allocator@D@2@@std@@@2@V?$allocator@U?$pair@$$CBV?$basic_string@DU?$char_traits@D@std@@V?$allocator@D@2@@std@@PAU_MACROBLOCK@MQ2Internal@@@std@@@2@$0A@@std@@@std@@QAE@PAU_Node@?$_Tree_nod@V?$_Tmap_traits@V?$basic_string@DU?$char_traits@D@std@@V?$allocator@D@2@@std@@PAU_MACROBLOCK@MQ2Internal@@U?$less@V?$basic_string@DU?$char_traits@D@std@@V?$allocator@D@2@@std@@@2@V?$allocator@U?$pair@$$CBV?$basic_string@DU?$char_traits@D@std@@V?$allocator@D@2@@std@@PAU_MACROBLOCK@MQ2Internal@@@std@@@2@$0A@@std@@@2@PBV12@@Z 0302f760 f i MQ2Globals.obj
 0001:0002e790       ??0iterator@?$_Tree@V?$_Tmap_traits@V?$basic_string@DU?$char_traits@D@std@@V?$allocator@D@2@@std@@PAU_SPAWNINFO@EQData@@U?$less@V?$basic_string@DU?$char_traits@D@std@@V?$allocator@D@2@@std@@@2@V?$allocator@U?$pair@$$CBV?$basic_string@DU?$char_traits@D@std@@V?$allocator@D@2@@std@@PAU_SPAWNINFO@EQData@@@std@@@2@$0A@@std@@@std@@QAE@PAU_Node@?$_Tree_nod@V?$_Tmap_traits@V?$basic_string@DU?$char_traits@D@std@@V?$allocator@D@2@@std@@PAU_SPAWNINFO@EQData@@U?$less@V?$basic_string@DU?$char_traits@D@std@@V?$allocator@D@2@@std@@@2@V?$allocator@U?$pair@$$CBV?$basic_string@DU?$char_traits@D@std@@V?$allocator@D@2@@std@@PAU_SPAWNINFO@EQData@@@std@@@2@$0A@@std@@@2@PBV12@@Z 0302f790 f i MQ2Globals.obj
 0001:0002e7c0       ??0?$_Tmap_traits@V?$basic_string@DU?$char_traits@D@std@@V?$allocator@D@2@@std@@PAU_MACROBLOCK@MQ2Internal@@U?$less@V?$basic_string@DU?$char_traits@D@std@@V?$allocator@D@2@@std@@@2@V?$allocator@U?$pair@$$CBV?$basic_string@DU?$char_traits@D@std@@V?$allocator@D@2@@std@@PAU_MACROBLOCK@MQ2Internal@@@std@@@2@$0A@@std@@QAE@U?$less@V?$basic_string@DU?$char_traits@D@std@@V?$allocator@D@2@@std@@@1@V?$allocator@U?$pair@$$CBV?$basic_string@DU?$char_traits@D@std@@V?$allocator@D@2@@std@@PAU_MACROBLOCK@MQ2Internal@@@std@@@1@@Z 0302f7c0 f i MQ2Globals.obj
 0001:0002e7f0       ??0?$_Tmap_traits@V?$basic_string@DU?$char_traits@D@std@@V?$allocator@D@2@@std@@PAU_SPAWNINFO@EQData@@U?$less@V?$basic_string@DU?$char_traits@D@std@@V?$allocator@D@2@@std@@@2@V?$allocator@U?$pair@$$CBV?$basic_string@DU?$char_traits@D@std@@V?$allocator@D@2@@std@@PAU_SPAWNINFO@EQData@@@std@@@2@$0A@@std@@QAE@U?$less@V?$basic_string@DU?$char_traits@D@std@@V?$allocator@D@2@@std@@@1@V?$allocator@U?$pair@$$CBV?$basic_string@DU?$char_traits@D@std@@V?$allocator@D@2@@std@@PAU_SPAWNINFO@EQData@@@std@@@1@@Z 0302f7f0 f i MQ2Globals.obj
 0001:0002e820       ??1?$pair@$$CBV?$basic_string@DU?$char_traits@D@std@@V?$allocator@D@2@@std@@PAU_MACROBLOCK@MQ2Internal@@@std@@QAE@XZ 0302f820 f i MQ2Globals.obj
 0001:0002e850       ??1?$pair@$$CBV?$basic_string@DU?$char_traits@D@std@@V?$allocator@D@2@@std@@PAU_SPAWNINFO@EQData@@@std@@QAE@XZ 0302f850 f i MQ2Globals.obj
 0001:0002e880       ??1?$_Tree_ptr@V?$_Tmap_traits@V?$basic_string@DU?$char_traits@D@std@@V?$allocator@D@2@@std@@PAU_MACROBLOCK@MQ2Internal@@U?$less@V?$basic_string@DU?$char_traits@D@std@@V?$allocator@D@2@@std@@@2@V?$allocator@U?$pair@$$CBV?$basic_string@DU?$char_traits@D@std@@V?$allocator@D@2@@std@@PAU_MACROBLOCK@MQ2Internal@@@std@@@2@$0A@@std@@@std@@QAE@XZ 0302f880 f i MQ2Globals.obj
 0001:0002e890       ??1?$_Tree_ptr@V?$_Tmap_traits@V?$basic_string@DU?$char_traits@D@std@@V?$allocator@D@2@@std@@PAU_SPAWNINFO@EQData@@U?$less@V?$basic_string@DU?$char_traits@D@std@@V?$allocator@D@2@@std@@@2@V?$allocator@U?$pair@$$CBV?$basic_string@DU?$char_traits@D@std@@V?$allocator@D@2@@std@@PAU_SPAWNINFO@EQData@@@std@@@2@$0A@@std@@@std@@QAE@XZ 0302f890 f i MQ2Globals.obj
 0001:0002e8a0       ?begin@?$_Tree@V?$_Tmap_traits@V?$basic_string@DU?$char_traits@D@std@@V?$allocator@D@2@@std@@PAU_MACROBLOCK@MQ2Internal@@U?$less@V?$basic_string@DU?$char_traits@D@std@@V?$allocator@D@2@@std@@@2@V?$allocator@U?$pair@$$CBV?$basic_string@DU?$char_traits@D@std@@V?$allocator@D@2@@std@@PAU_MACROBLOCK@MQ2Internal@@@std@@@2@$0A@@std@@@std@@QAE?AViterator@12@XZ 0302f8a0 f i MQ2Globals.obj
 0001:0002e8c0       ?end@?$_Tree@V?$_Tmap_traits@V?$basic_string@DU?$char_traits@D@std@@V?$allocator@D@2@@std@@PAU_MACROBLOCK@MQ2Internal@@U?$less@V?$basic_string@DU?$char_traits@D@std@@V?$allocator@D@2@@std@@@2@V?$allocator@U?$pair@$$CBV?$basic_string@DU?$char_traits@D@std@@V?$allocator@D@2@@std@@PAU_MACROBLOCK@MQ2Internal@@@std@@@2@$0A@@std@@@std@@QAE?AViterator@12@XZ 0302f8c0 f i MQ2Globals.obj
 0001:0002e8e0       ?begin@?$_Tree@V?$_Tmap_traits@V?$basic_string@DU?$char_traits@D@std@@V?$allocator@D@2@@std@@PAU_SPAWNINFO@EQData@@U?$less@V?$basic_string@DU?$char_traits@D@std@@V?$allocator@D@2@@std@@@2@V?$allocator@U?$pair@$$CBV?$basic_string@DU?$char_traits@D@std@@V?$allocator@D@2@@std@@PAU_SPAWNINFO@EQData@@@std@@@2@$0A@@std@@@std@@QAE?AViterator@12@XZ 0302f8e0 f i MQ2Globals.obj
 0001:0002e900       ?end@?$_Tree@V?$_Tmap_traits@V?$basic_string@DU?$char_traits@D@std@@V?$allocator@D@2@@std@@PAU_SPAWNINFO@EQData@@U?$less@V?$basic_string@DU?$char_traits@D@std@@V?$allocator@D@2@@std@@@2@V?$allocator@U?$pair@$$CBV?$basic_string@DU?$char_traits@D@std@@V?$allocator@D@2@@std@@PAU_SPAWNINFO@EQData@@@std@@@2@$0A@@std@@@std@@QAE?AViterator@12@XZ 0302f900 f i MQ2Globals.obj
 0001:0002e920       ?_Make_iter@?$_Tree@V?$_Tmap_traits@V?$basic_string@DU?$char_traits@D@std@@V?$allocator@D@2@@std@@PAU_MACROBLOCK@MQ2Internal@@U?$less@V?$basic_string@DU?$char_traits@D@std@@V?$allocator@D@2@@std@@@2@V?$allocator@U?$pair@$$CBV?$basic_string@DU?$char_traits@D@std@@V?$allocator@D@2@@std@@PAU_MACROBLOCK@MQ2Internal@@@std@@@2@$0A@@std@@@std@@QBE?AViterator@12@Vconst_iterator@12@@Z 0302f920 f i MQ2Globals.obj
 0001:0002e950       ?_Make_iter@?$_Tree@V?$_Tmap_traits@V?$basic_string@DU?$char_traits@D@std@@V?$allocator@D@2@@std@@PAU_SPAWNINFO@EQData@@U?$less@V?$basic_string@DU?$char_traits@D@std@@V?$allocator@D@2@@std@@@2@V?$allocator@U?$pair@$$CBV?$basic_string@DU?$char_traits@D@std@@V?$allocator@D@2@@std@@PAU_SPAWNINFO@EQData@@@std@@@2@$0A@@std@@@std@@QBE?AViterator@12@Vconst_iterator@12@@Z 0302f950 f i MQ2Globals.obj
 0001:0002e980       ??0?$_Tree_nod@V?$_Tmap_traits@V?$basic_string@DU?$char_traits@D@std@@V?$allocator@D@2@@std@@PAU_MACROBLOCK@MQ2Internal@@U?$less@V?$basic_string@DU?$char_traits@D@std@@V?$allocator@D@2@@std@@@2@V?$allocator@U?$pair@$$CBV?$basic_string@DU?$char_traits@D@std@@V?$allocator@D@2@@std@@PAU_MACROBLOCK@MQ2Internal@@@std@@@2@$0A@@std@@@std@@IAE@ABU?$less@V?$basic_string@DU?$char_traits@D@std@@V?$allocator@D@2@@std@@@1@V?$allocator@U?$pair@$$CBV?$basic_string@DU?$char_traits@D@std@@V?$allocator@D@2@@std@@PAU_MACROBLOCK@MQ2Internal@@@std@@@1@@Z 0302f980 f i MQ2Globals.obj
 0001:0002e9b0       ??0?$_Tree_nod@V?$_Tmap_traits@V?$basic_string@DU?$char_traits@D@std@@V?$allocator@D@2@@std@@PAU_SPAWNINFO@EQData@@U?$less@V?$basic_string@DU?$char_traits@D@std@@V?$allocator@D@2@@std@@@2@V?$allocator@U?$pair@$$CBV?$basic_string@DU?$char_traits@D@std@@V?$allocator@D@2@@std@@PAU_SPAWNINFO@EQData@@@std@@@2@$0A@@std@@@std@@IAE@ABU?$less@V?$basic_string@DU?$char_traits@D@std@@V?$allocator@D@2@@std@@@1@V?$allocator@U?$pair@$$CBV?$basic_string@DU?$char_traits@D@std@@V?$allocator@D@2@@std@@PAU_SPAWNINFO@EQData@@@std@@@1@@Z 0302f9b0 f i MQ2Globals.obj
 0001:0002e9e0       ??1_Node@?$_Tree_nod@V?$_Tmap_traits@V?$basic_string@DU?$char_traits@D@std@@V?$allocator@D@2@@std@@PAU_MACROBLOCK@MQ2Internal@@U?$less@V?$basic_string@DU?$char_traits@D@std@@V?$allocator@D@2@@std@@@2@V?$allocator@U?$pair@$$CBV?$basic_string@DU?$char_traits@D@std@@V?$allocator@D@2@@std@@PAU_MACROBLOCK@MQ2Internal@@@std@@@2@$0A@@std@@@std@@QAE@XZ 0302f9e0 f i MQ2Globals.obj
 0001:0002ea10       ??1_Node@?$_Tree_nod@V?$_Tmap_traits@V?$basic_string@DU?$char_traits@D@std@@V?$allocator@D@2@@std@@PAU_SPAWNINFO@EQData@@U?$less@V?$basic_string@DU?$char_traits@D@std@@V?$allocator@D@2@@std@@@2@V?$allocator@U?$pair@$$CBV?$basic_string@DU?$char_traits@D@std@@V?$allocator@D@2@@std@@PAU_SPAWNINFO@EQData@@@std@@@2@$0A@@std@@@std@@QAE@XZ 0302fa10 f i MQ2Globals.obj
 0001:0002ea40       ??1?$_Tree_val@V?$_Tmap_traits@V?$basic_string@DU?$char_traits@D@std@@V?$allocator@D@2@@std@@PAU_MACROBLOCK@MQ2Internal@@U?$less@V?$basic_string@DU?$char_traits@D@std@@V?$allocator@D@2@@std@@@2@V?$allocator@U?$pair@$$CBV?$basic_string@DU?$char_traits@D@std@@V?$allocator@D@2@@std@@PAU_MACROBLOCK@MQ2Internal@@@std@@@2@$0A@@std@@@std@@QAE@XZ 0302fa40 f i MQ2Globals.obj
 0001:0002ea50       ??1?$_Tree_val@V?$_Tmap_traits@V?$basic_string@DU?$char_traits@D@std@@V?$allocator@D@2@@std@@PAU_SPAWNINFO@EQData@@U?$less@V?$basic_string@DU?$char_traits@D@std@@V?$allocator@D@2@@std@@@2@V?$allocator@U?$pair@$$CBV?$basic_string@DU?$char_traits@D@std@@V?$allocator@D@2@@std@@PAU_SPAWNINFO@EQData@@@std@@@2@$0A@@std@@@std@@QAE@XZ 0302fa50 f i MQ2Globals.obj
 0001:0002ea60       ??0?$_Tree_ptr@V?$_Tmap_traits@V?$basic_string@DU?$char_traits@D@std@@V?$allocator@D@2@@std@@PAU_MACROBLOCK@MQ2Internal@@U?$less@V?$basic_string@DU?$char_traits@D@std@@V?$allocator@D@2@@std@@@2@V?$allocator@U?$pair@$$CBV?$basic_string@DU?$char_traits@D@std@@V?$allocator@D@2@@std@@PAU_MACROBLOCK@MQ2Internal@@@std@@@2@$0A@@std@@@std@@IAE@ABU?$less@V?$basic_string@DU?$char_traits@D@std@@V?$allocator@D@2@@std@@@1@V?$allocator@U?$pair@$$CBV?$basic_string@DU?$char_traits@D@std@@V?$allocator@D@2@@std@@PAU_MACROBLOCK@MQ2Internal@@@std@@@1@@Z 0302fa60 f i MQ2Globals.obj
 0001:0002ea90       ??0?$_Tree_ptr@V?$_Tmap_traits@V?$basic_string@DU?$char_traits@D@std@@V?$allocator@D@2@@std@@PAU_SPAWNINFO@EQData@@U?$less@V?$basic_string@DU?$char_traits@D@std@@V?$allocator@D@2@@std@@@2@V?$allocator@U?$pair@$$CBV?$basic_string@DU?$char_traits@D@std@@V?$allocator@D@2@@std@@PAU_SPAWNINFO@EQData@@@std@@@2@$0A@@std@@@std@@IAE@ABU?$less@V?$basic_string@DU?$char_traits@D@std@@V?$allocator@D@2@@std@@@1@V?$allocator@U?$pair@$$CBV?$basic_string@DU?$char_traits@D@std@@V?$allocator@D@2@@std@@PAU_SPAWNINFO@EQData@@@std@@@1@@Z 0302fa90 f i MQ2Globals.obj
 0001:0002eac0       ??_G_Node@?$_Tree_nod@V?$_Tmap_traits@V?$basic_string@DU?$char_traits@D@std@@V?$allocator@D@2@@std@@PAU_MACROBLOCK@MQ2Internal@@U?$less@V?$basic_string@DU?$char_traits@D@std@@V?$allocator@D@2@@std@@@2@V?$allocator@U?$pair@$$CBV?$basic_string@DU?$char_traits@D@std@@V?$allocator@D@2@@std@@PAU_MACROBLOCK@MQ2Internal@@@std@@@2@$0A@@std@@@std@@QAEPAXI@Z 0302fac0 f i MQ2Globals.obj
 0001:0002eb00       ??_G_Node@?$_Tree_nod@V?$_Tmap_traits@V?$basic_string@DU?$char_traits@D@std@@V?$allocator@D@2@@std@@PAU_SPAWNINFO@EQData@@U?$less@V?$basic_string@DU?$char_traits@D@std@@V?$allocator@D@2@@std@@@2@V?$allocator@U?$pair@$$CBV?$basic_string@DU?$char_traits@D@std@@V?$allocator@D@2@@std@@PAU_SPAWNINFO@EQData@@@std@@@2@$0A@@std@@@std@@QAEPAXI@Z 0302fb00 f i MQ2Globals.obj
 0001:0002eb40       ??0?$_Tree_val@V?$_Tmap_traits@V?$basic_string@DU?$char_traits@D@std@@V?$allocator@D@2@@std@@PAU_MACROBLOCK@MQ2Internal@@U?$less@V?$basic_string@DU?$char_traits@D@std@@V?$allocator@D@2@@std@@@2@V?$allocator@U?$pair@$$CBV?$basic_string@DU?$char_traits@D@std@@V?$allocator@D@2@@std@@PAU_MACROBLOCK@MQ2Internal@@@std@@@2@$0A@@std@@@std@@IAE@ABU?$less@V?$basic_string@DU?$char_traits@D@std@@V?$allocator@D@2@@std@@@1@V?$allocator@U?$pair@$$CBV?$basic_string@DU?$char_traits@D@std@@V?$allocator@D@2@@std@@PAU_MACROBLOCK@MQ2Internal@@@std@@@1@@Z 0302fb40 f i MQ2Globals.obj
 0001:0002eb70       ??0?$_Tree_val@V?$_Tmap_traits@V?$basic_string@DU?$char_traits@D@std@@V?$allocator@D@2@@std@@PAU_SPAWNINFO@EQData@@U?$less@V?$basic_string@DU?$char_traits@D@std@@V?$allocator@D@2@@std@@@2@V?$allocator@U?$pair@$$CBV?$basic_string@DU?$char_traits@D@std@@V?$allocator@D@2@@std@@PAU_SPAWNINFO@EQData@@@std@@@2@$0A@@std@@@std@@IAE@ABU?$less@V?$basic_string@DU?$char_traits@D@std@@V?$allocator@D@2@@std@@@1@V?$allocator@U?$pair@$$CBV?$basic_string@DU?$char_traits@D@std@@V?$allocator@D@2@@std@@PAU_SPAWNINFO@EQData@@@std@@@1@@Z 0302fb70 f i MQ2Globals.obj
 0001:0002eba0       ??$_Destroy@U_Node@?$_Tree_nod@V?$_Tmap_traits@V?$basic_string@DU?$char_traits@D@std@@V?$allocator@D@2@@std@@PAU_MACROBLOCK@MQ2Internal@@U?$less@V?$basic_string@DU?$char_traits@D@std@@V?$allocator@D@2@@std@@@2@V?$allocator@U?$pair@$$CBV?$basic_string@DU?$char_traits@D@std@@V?$allocator@D@2@@std@@PAU_MACROBLOCK@MQ2Internal@@@std@@@2@$0A@@std@@@std@@@std@@YAXPAU_Node@?$_Tree_nod@V?$_Tmap_traits@V?$basic_string@DU?$char_traits@D@std@@V?$allocator@D@2@@std@@PAU_MACROBLOCK@MQ2Internal@@U?$less@V?$basic_string@DU?$char_traits@D@std@@V?$allocator@D@2@@std@@@2@V?$allocator@U?$pair@$$CBV?$basic_string@DU?$char_traits@D@std@@V?$allocator@D@2@@std@@PAU_MACROBLOCK@MQ2Internal@@@std@@@2@$0A@@std@@@0@@Z 0302fba0 f i MQ2Globals.obj
 0001:0002ebd0       ??$_Destroy@U_Node@?$_Tree_nod@V?$_Tmap_traits@V?$basic_string@DU?$char_traits@D@std@@V?$allocator@D@2@@std@@PAU_SPAWNINFO@EQData@@U?$less@V?$basic_string@DU?$char_traits@D@std@@V?$allocator@D@2@@std@@@2@V?$allocator@U?$pair@$$CBV?$basic_string@DU?$char_traits@D@std@@V?$allocator@D@2@@std@@PAU_SPAWNINFO@EQData@@@std@@@2@$0A@@std@@@std@@@std@@YAXPAU_Node@?$_Tree_nod@V?$_Tmap_traits@V?$basic_string@DU?$char_traits@D@std@@V?$allocator@D@2@@std@@PAU_SPAWNINFO@EQData@@U?$less@V?$basic_string@DU?$char_traits@D@std@@V?$allocator@D@2@@std@@@2@V?$allocator@U?$pair@$$CBV?$basic_string@DU?$char_traits@D@std@@V?$allocator@D@2@@std@@PAU_SPAWNINFO@EQData@@@std@@@2@$0A@@std@@@0@@Z 0302fbd0 f i MQ2Globals.obj
 0001:0002ec00       ??0?$_Tree@V?$_Tmap_traits@V?$basic_string@DU?$char_traits@D@std@@V?$allocator@D@2@@std@@PAU_MACROBLOCK@MQ2Internal@@U?$less@V?$basic_string@DU?$char_traits@D@std@@V?$allocator@D@2@@std@@@2@V?$allocator@U?$pair@$$CBV?$basic_string@DU?$char_traits@D@std@@V?$allocator@D@2@@std@@PAU_MACROBLOCK@MQ2Internal@@@std@@@2@$0A@@std@@@std@@QAE@ABU?$less@V?$basic_string@DU?$char_traits@D@std@@V?$allocator@D@2@@std@@@1@ABV?$allocator@U?$pair@$$CBV?$basic_string@DU?$char_traits@D@std@@V?$allocator@D@2@@std@@PAU_MACROBLOCK@MQ2Internal@@@std@@@1@@Z 0302fc00 f i MQ2Globals.obj
 0001:0002ec50       ??0?$_Tree@V?$_Tmap_traits@V?$basic_string@DU?$char_traits@D@std@@V?$allocator@D@2@@std@@PAU_SPAWNINFO@EQData@@U?$less@V?$basic_string@DU?$char_traits@D@std@@V?$allocator@D@2@@std@@@2@V?$allocator@U?$pair@$$CBV?$basic_string@DU?$char_traits@D@std@@V?$allocator@D@2@@std@@PAU_SPAWNINFO@EQData@@@std@@@2@$0A@@std@@@std@@QAE@ABU?$less@V?$basic_string@DU?$char_traits@D@std@@V?$allocator@D@2@@std@@@1@ABV?$allocator@U?$pair@$$CBV?$basic_string@DU?$char_traits@D@std@@V?$allocator@D@2@@std@@PAU_SPAWNINFO@EQData@@@std@@@1@@Z 0302fc50 f i MQ2Globals.obj
 0001:0002eca0       ?destroy@?$allocator@U_Node@?$_Tree_nod@V?$_Tmap_traits@V?$basic_string@DU?$char_traits@D@std@@V?$allocator@D@2@@std@@PAU_MACROBLOCK@MQ2Internal@@U?$less@V?$basic_string@DU?$char_traits@D@std@@V?$allocator@D@2@@std@@@2@V?$allocator@U?$pair@$$CBV?$basic_string@DU?$char_traits@D@std@@V?$allocator@D@2@@std@@PAU_MACROBLOCK@MQ2Internal@@@std@@@2@$0A@@std@@@std@@@std@@QAEXPAU_Node@?$_Tree_nod@V?$_Tmap_traits@V?$basic_string@DU?$char_traits@D@std@@V?$allocator@D@2@@std@@PAU_MACROBLOCK@MQ2Internal@@U?$less@V?$basic_string@DU?$char_traits@D@std@@V?$allocator@D@2@@std@@@2@V?$allocator@U?$pair@$$CBV?$basic_string@DU?$char_traits@D@std@@V?$allocator@D@2@@std@@PAU_MACROBLOCK@MQ2Internal@@@std@@@2@$0A@@std@@@2@@Z 0302fca0 f i MQ2Globals.obj
 0001:0002ecd0       ?destroy@?$allocator@U_Node@?$_Tree_nod@V?$_Tmap_traits@V?$basic_string@DU?$char_traits@D@std@@V?$allocator@D@2@@std@@PAU_SPAWNINFO@EQData@@U?$less@V?$basic_string@DU?$char_traits@D@std@@V?$allocator@D@2@@std@@@2@V?$allocator@U?$pair@$$CBV?$basic_string@DU?$char_traits@D@std@@V?$allocator@D@2@@std@@PAU_SPAWNINFO@EQData@@@std@@@2@$0A@@std@@@std@@@std@@QAEXPAU_Node@?$_Tree_nod@V?$_Tmap_traits@V?$basic_string@DU?$char_traits@D@std@@V?$allocator@D@2@@std@@PAU_SPAWNINFO@EQData@@U?$less@V?$basic_string@DU?$char_traits@D@std@@V?$allocator@D@2@@std@@@2@V?$allocator@U?$pair@$$CBV?$basic_string@DU?$char_traits@D@std@@V?$allocator@D@2@@std@@PAU_SPAWNINFO@EQData@@@std@@@2@$0A@@std@@@2@@Z 0302fcd0 f i MQ2Globals.obj
 0001:0002ed00       ?erase@?$_Tree@V?$_Tmap_traits@V?$basic_string@DU?$char_traits@D@std@@V?$allocator@D@2@@std@@PAU_MACROBLOCK@MQ2Internal@@U?$less@V?$basic_string@DU?$char_traits@D@std@@V?$allocator@D@2@@std@@@2@V?$allocator@U?$pair@$$CBV?$basic_string@DU?$char_traits@D@std@@V?$allocator@D@2@@std@@PAU_MACROBLOCK@MQ2Internal@@@std@@@2@$0A@@std@@@std@@QAE?AViterator@12@Vconst_iterator@12@@Z 0302fd00 f i MQ2Globals.obj
 0001:0002efe0       ?erase@?$_Tree@V?$_Tmap_traits@V?$basic_string@DU?$char_traits@D@std@@V?$allocator@D@2@@std@@PAU_SPAWNINFO@EQData@@U?$less@V?$basic_string@DU?$char_traits@D@std@@V?$allocator@D@2@@std@@@2@V?$allocator@U?$pair@$$CBV?$basic_string@DU?$char_traits@D@std@@V?$allocator@D@2@@std@@PAU_SPAWNINFO@EQData@@@std@@@2@$0A@@std@@@std@@QAE?AViterator@12@Vconst_iterator@12@@Z 0302ffe0 f i MQ2Globals.obj
 0001:0002f2c0       ?_Erase@?$_Tree@V?$_Tmap_traits@V?$basic_string@DU?$char_traits@D@std@@V?$allocator@D@2@@std@@PAU_MACROBLOCK@MQ2Internal@@U?$less@V?$basic_string@DU?$char_traits@D@std@@V?$allocator@D@2@@std@@@2@V?$allocator@U?$pair@$$CBV?$basic_string@DU?$char_traits@D@std@@V?$allocator@D@2@@std@@PAU_MACROBLOCK@MQ2Internal@@@std@@@2@$0A@@std@@@std@@IAEXPAU_Node@?$_Tree_nod@V?$_Tmap_traits@V?$basic_string@DU?$char_traits@D@std@@V?$allocator@D@2@@std@@PAU_MACROBLOCK@MQ2Internal@@U?$less@V?$basic_string@DU?$char_traits@D@std@@V?$allocator@D@2@@std@@@2@V?$allocator@U?$pair@$$CBV?$basic_string@DU?$char_traits@D@std@@V?$allocator@D@2@@std@@PAU_MACROBLOCK@MQ2Internal@@@std@@@2@$0A@@std@@@2@@Z 030302c0 f i MQ2Globals.obj
 0001:0002f320       ?_Erase@?$_Tree@V?$_Tmap_traits@V?$basic_string@DU?$char_traits@D@std@@V?$allocator@D@2@@std@@PAU_SPAWNINFO@EQData@@U?$less@V?$basic_string@DU?$char_traits@D@std@@V?$allocator@D@2@@std@@@2@V?$allocator@U?$pair@$$CBV?$basic_string@DU?$char_traits@D@std@@V?$allocator@D@2@@std@@PAU_SPAWNINFO@EQData@@@std@@@2@$0A@@std@@@std@@IAEXPAU_Node@?$_Tree_nod@V?$_Tmap_traits@V?$basic_string@DU?$char_traits@D@std@@V?$allocator@D@2@@std@@PAU_SPAWNINFO@EQData@@U?$less@V?$basic_string@DU?$char_traits@D@std@@V?$allocator@D@2@@std@@@2@V?$allocator@U?$pair@$$CBV?$basic_string@DU?$char_traits@D@std@@V?$allocator@D@2@@std@@PAU_SPAWNINFO@EQData@@@std@@@2@$0A@@std@@@2@@Z 03030320 f i MQ2Globals.obj
 0001:0002f380       ?clear@?$_Tree@V?$_Tmap_traits@V?$basic_string@DU?$char_traits@D@std@@V?$allocator@D@2@@std@@PAU_MACROBLOCK@MQ2Internal@@U?$less@V?$basic_string@DU?$char_traits@D@std@@V?$allocator@D@2@@std@@@2@V?$allocator@U?$pair@$$CBV?$basic_string@DU?$char_traits@D@std@@V?$allocator@D@2@@std@@PAU_MACROBLOCK@MQ2Internal@@@std@@@2@$0A@@std@@@std@@QAEXXZ 03030380 f i MQ2Globals.obj
 0001:0002f3b0       ?clear@?$_Tree@V?$_Tmap_traits@V?$basic_string@DU?$char_traits@D@std@@V?$allocator@D@2@@std@@PAU_SPAWNINFO@EQData@@U?$less@V?$basic_string@DU?$char_traits@D@std@@V?$allocator@D@2@@std@@@2@V?$allocator@U?$pair@$$CBV?$basic_string@DU?$char_traits@D@std@@V?$allocator@D@2@@std@@PAU_SPAWNINFO@EQData@@@std@@@2@$0A@@std@@@std@@QAEXXZ 030303b0 f i MQ2Globals.obj
 0001:0002f3e0       ?erase@?$_Tree@V?$_Tmap_traits@V?$basic_string@DU?$char_traits@D@std@@V?$allocator@D@2@@std@@PAU_MACROBLOCK@MQ2Internal@@U?$less@V?$basic_string@DU?$char_traits@D@std@@V?$allocator@D@2@@std@@@2@V?$allocator@U?$pair@$$CBV?$basic_string@DU?$char_traits@D@std@@V?$allocator@D@2@@std@@PAU_MACROBLOCK@MQ2Internal@@@std@@@2@$0A@@std@@@std@@QAE?AViterator@12@Vconst_iterator@12@0@Z 030303e0 f i MQ2Globals.obj
 0001:0002f4c0       ?erase@?$_Tree@V?$_Tmap_traits@V?$basic_string@DU?$char_traits@D@std@@V?$allocator@D@2@@std@@PAU_SPAWNINFO@EQData@@U?$less@V?$basic_string@DU?$char_traits@D@std@@V?$allocator@D@2@@std@@@2@V?$allocator@U?$pair@$$CBV?$basic_string@DU?$char_traits@D@std@@V?$allocator@D@2@@std@@PAU_SPAWNINFO@EQData@@@std@@@2@$0A@@std@@@std@@QAE?AViterator@12@Vconst_iterator@12@0@Z 030304c0 f i MQ2Globals.obj
 0001:0002f5a0       ?_Tidy@?$_Tree@V?$_Tmap_traits@V?$basic_string@DU?$char_traits@D@std@@V?$allocator@D@2@@std@@PAU_MACROBLOCK@MQ2Internal@@U?$less@V?$basic_string@DU?$char_traits@D@std@@V?$allocator@D@2@@std@@@2@V?$allocator@U?$pair@$$CBV?$basic_string@DU?$char_traits@D@std@@V?$allocator@D@2@@std@@PAU_MACROBLOCK@MQ2Internal@@@std@@@2@$0A@@std@@@std@@IAEXXZ 030305a0 f i MQ2Globals.obj
 0001:0002f5e0       ?_Tidy@?$_Tree@V?$_Tmap_traits@V?$basic_string@DU?$char_traits@D@std@@V?$allocator@D@2@@std@@PAU_SPAWNINFO@EQData@@U?$less@V?$basic_string@DU?$char_traits@D@std@@V?$allocator@D@2@@std@@@2@V?$allocator@U?$pair@$$CBV?$basic_string@DU?$char_traits@D@std@@V?$allocator@D@2@@std@@PAU_SPAWNINFO@EQData@@@std@@@2@$0A@@std@@@std@@IAEXXZ 030305e0 f i MQ2Globals.obj
 0001:0002f620       ??1?$_Tree@V?$_Tmap_traits@V?$basic_string@DU?$char_traits@D@std@@V?$allocator@D@2@@std@@PAU_MACROBLOCK@MQ2Internal@@U?$less@V?$basic_string@DU?$char_traits@D@std@@V?$allocator@D@2@@std@@@2@V?$allocator@U?$pair@$$CBV?$basic_string@DU?$char_traits@D@std@@V?$allocator@D@2@@std@@PAU_MACROBLOCK@MQ2Internal@@@std@@@2@$0A@@std@@@std@@QAE@XZ 03030620 f i MQ2Globals.obj
 0001:0002f660       ??1?$_Tree@V?$_Tmap_traits@V?$basic_string@DU?$char_traits@D@std@@V?$allocator@D@2@@std@@PAU_SPAWNINFO@EQData@@U?$less@V?$basic_string@DU?$char_traits@D@std@@V?$allocator@D@2@@std@@@2@V?$allocator@U?$pair@$$CBV?$basic_string@DU?$char_traits@D@std@@V?$allocator@D@2@@std@@PAU_SPAWNINFO@EQData@@@std@@@2@$0A@@std@@@std@@QAE@XZ 03030660 f i MQ2Globals.obj
 0001:0002f6a0       ??1?$map@V?$basic_string@DU?$char_traits@D@std@@V?$allocator@D@2@@std@@PAU_MACROBLOCK@MQ2Internal@@U?$less@V?$basic_string@DU?$char_traits@D@std@@V?$allocator@D@2@@std@@@2@V?$allocator@U?$pair@$$CBV?$basic_string@DU?$char_traits@D@std@@V?$allocator@D@2@@std@@PAU_MACROBLOCK@MQ2Internal@@@std@@@2@@std@@QAE@XZ 030306a0 f i MQ2Globals.obj
 0001:0002f6e0       ??1?$map@V?$basic_string@DU?$char_traits@D@std@@V?$allocator@D@2@@std@@PAU_SPAWNINFO@EQData@@U?$less@V?$basic_string@DU?$char_traits@D@std@@V?$allocator@D@2@@std@@@2@V?$allocator@U?$pair@$$CBV?$basic_string@DU?$char_traits@D@std@@V?$allocator@D@2@@std@@PAU_SPAWNINFO@EQData@@@std@@@2@@std@@QAE@XZ 030306e0 f i MQ2Globals.obj
 0001:0002f720       ??0?$map@V?$basic_string@DU?$char_traits@D@std@@V?$allocator@D@2@@std@@PAU_MACROBLOCK@MQ2Internal@@U?$less@V?$basic_string@DU?$char_traits@D@std@@V?$allocator@D@2@@std@@@2@V?$allocator@U?$pair@$$CBV?$basic_string@DU?$char_traits@D@std@@V?$allocator@D@2@@std@@PAU_MACROBLOCK@MQ2Internal@@@std@@@2@@std@@QAE@XZ 03030720 f i MQ2Globals.obj
 0001:0002f770       ??0?$map@V?$basic_string@DU?$char_traits@D@std@@V?$allocator@D@2@@std@@PAU_SPAWNINFO@EQData@@U?$less@V?$basic_string@DU?$char_traits@D@std@@V?$allocator@D@2@@std@@@2@V?$allocator@U?$pair@$$CBV?$basic_string@DU?$char_traits@D@std@@V?$allocator@D@2@@std@@PAU_SPAWNINFO@EQData@@@std@@@2@@std@@QAE@XZ 03030770 f i MQ2Globals.obj
 0001:0002f7c0       ??0_Iterator_base_secure@std@@QAE@XZ 030307c0 f i MQ2KeyBinds.obj
 0001:0002f7d0       ?_Has_container@_Iterator_base_secure@std@@QBE_NXZ 030307d0 f i MQ2KeyBinds.obj
 0001:0002f7e0       ?SetEQKeyBindByNumber@@YAHKHAAVKeyCombo@EQClasses@@@Z 030307e0 f   MQ2KeyBinds.obj
 0001:0002f840       ?ClearCommandStateArray_Trampoline@KeypressHandlerHook@@QAEXXZ 03030840 f   MQ2KeyBinds.obj
 0001:0002f860       ?HandleKeyDown_Trampoline@KeypressHandlerHook@@QAE_NABVKeyCombo@EQClasses@@@Z 03030860 f   MQ2KeyBinds.obj
 0001:0002f880       ?HandleKeyUp_Trampoline@KeypressHandlerHook@@QAE_NABVKeyCombo@EQClasses@@@Z 03030880 f   MQ2KeyBinds.obj
 0001:0002f8a0       ??0MQ2KeyBind@@QAE@XZ      030308a0 f i MQ2KeyBinds.obj
 0001:0002f8b0       ?DoRangedBind@@YAXPADH@Z   030308b0 f   MQ2KeyBinds.obj
 0001:0002f8f0       ??1?$CIndex@PAUMQ2KeyBind@@@MQ2Internal@@QAE@XZ 030308f0 f i MQ2KeyBinds.obj
 0001:0002f930       ?Cleanup@?$CIndex@PAUMQ2KeyBind@@@MQ2Internal@@QAEXXZ 03030930 f i MQ2KeyBinds.obj
 0001:0002f970       ??A?$CIndex@PAUMQ2KeyBind@@@MQ2Internal@@QAEAAPAUMQ2KeyBind@@K@Z 03030970 f i MQ2KeyBinds.obj
 0001:0002f980       ?Resize@?$CIndex@PAUMQ2KeyBind@@@MQ2Internal@@QAEXK@Z 03030980 f i MQ2KeyBinds.obj
 0001:0002fa30       ??0?$_Ranit_base@DHPBDABDV_Iterator_base_secure@std@@@std@@QAE@XZ 03030a30 f i MQ2KeyBinds.obj
 0001:0002fa40       ??$_Iter_random@V?$_String_iterator@DU?$char_traits@D@std@@V?$allocator@D@2@@std@@V12@@std@@YA?AUrandom_access_iterator_tag@0@ABV?$_String_iterator@DU?$char_traits@D@std@@V?$allocator@D@2@@0@0@Z 03030a40 f i MQ2KeyBinds.obj
 0001:0002fa50       ??Y?$_String_const_iterator@DU?$char_traits@D@std@@V?$allocator@D@2@@std@@QAEAAV01@H@Z 03030a50 f i MQ2KeyBinds.obj
 0001:0002fab0       ??$_Transform@PADPADP6AHH@ZUforward_iterator_tag@std@@@std@@YAPADPAD00P6AHH@ZUforward_iterator_tag@0@U_Range_checked_iterator_tag@0@@Z 03030ab0 f i MQ2KeyBinds.obj
 0001:0002faf0       ?_Checked_iterator_base@?$_String_iterator@DU?$char_traits@D@std@@V?$allocator@D@2@@std@@QBEPADXZ 03030af0 f i MQ2KeyBinds.obj
 0001:0002fb00       _MQ2HandleKeyDown          03030b00 f   MQ2KeyBinds.obj
 0001:0002fbb0       _MQ2HandleKeyUp            03030bb0 f   MQ2KeyBinds.obj
 0001:0002fc60       ?ClearCommandStateArray_Hook@KeypressHandlerHook@@QAEXXZ 03030c60 f i MQ2KeyBinds.obj
 0001:0002fcb0       ?HandleKeyDown_Hook@KeypressHandlerHook@@QAE_NABVKeyCombo@EQClasses@@@Z 03030cb0 f i MQ2KeyBinds.obj
 0001:0002fcf0       ?HandleKeyUp_Hook@KeypressHandlerHook@@QAE_NABVKeyCombo@EQClasses@@@Z 03030cf0 f i MQ2KeyBinds.obj
 0001:0002fd40       _ShutdownMQ2KeyBinds       03030d40 f   MQ2KeyBinds.obj
 0001:0002fd70       _DumpBinds                 03030d70 f   MQ2KeyBinds.obj
 0001:0002ff20       ??0?$CIndex@PAUMQ2KeyBind@@@MQ2Internal@@QAE@K@Z 03030f20 f i MQ2KeyBinds.obj
 0001:0002ff50       ?GetUnused@?$CIndex@PAUMQ2KeyBind@@@MQ2Internal@@QAEKXZ 03030f50 f i MQ2KeyBinds.obj
 0001:0002ffa0       ??0?$_String_const_iterator@DU?$char_traits@D@std@@V?$allocator@D@2@@std@@QAE@PBDPBV_Container_base_secure@1@@Z 03030fa0 f i MQ2KeyBinds.obj
 0001:00030000       ??Y?$_String_iterator@DU?$char_traits@D@std@@V?$allocator@D@2@@std@@QAEAAV01@H@Z 03031000 f i MQ2KeyBinds.obj
 0001:00030020       ??$_Checked_base@V?$_String_iterator@DU?$char_traits@D@std@@V?$allocator@D@2@@std@@U_Different_checked_iterator_base_type_tag@2@@std@@YAPADAAV?$_String_iterator@DU?$char_traits@D@std@@V?$allocator@D@2@@0@U_Different_checked_iterator_base_type_tag@0@@Z 03031020 f i MQ2KeyBinds.obj
 0001:00030030       ??0?$_String_iterator@DU?$char_traits@D@std@@V?$allocator@D@2@@std@@QAE@PADPBV_Container_base_secure@1@@Z 03031030 f i MQ2KeyBinds.obj
 0001:00030050       ??$_Checked_base@V?$_String_iterator@DU?$char_traits@D@std@@V?$allocator@D@2@@std@@@std@@YAPADAAV?$_String_iterator@DU?$char_traits@D@std@@V?$allocator@D@2@@0@@Z 03031050 f i MQ2KeyBinds.obj
 0001:00030060       ??H?$_String_iterator@DU?$char_traits@D@std@@V?$allocator@D@2@@std@@QBE?AV01@H@Z 03031060 f i MQ2KeyBinds.obj
 0001:000300a0       ?begin@?$basic_string@DU?$char_traits@D@std@@V?$allocator@D@2@@std@@QAE?AV?$_String_iterator@DU?$char_traits@D@std@@V?$allocator@D@2@@2@XZ 030310a0 f i MQ2KeyBinds.obj
 0001:000300e0       ?end@?$basic_string@DU?$char_traits@D@std@@V?$allocator@D@2@@std@@QAE?AV?$_String_iterator@DU?$char_traits@D@std@@V?$allocator@D@2@@2@XZ 030310e0 f i MQ2KeyBinds.obj
 0001:00030110       ??$_Transform@PADV?$_String_iterator@DU?$char_traits@D@std@@V?$allocator@D@2@@std@@P6AHH@Z@std@@YA?AV?$_String_iterator@DU?$char_traits@D@std@@V?$allocator@D@2@@0@PAD0V10@P6AHH@ZUrandom_access_iterator_tag@0@U_Range_checked_iterator_tag@0@@Z 03031110 f i MQ2KeyBinds.obj
 0001:00030180       ??$transform@V?$_String_iterator@DU?$char_traits@D@std@@V?$allocator@D@2@@std@@V12@P6AHH@Z@std@@YA?AV?$_String_iterator@DU?$char_traits@D@std@@V?$allocator@D@2@@0@V10@00P6AHH@Z@Z 03031180 f i MQ2KeyBinds.obj
 0001:000301c0       ?KeyBindByName@@YAPAUMQ2KeyBind@@PAD@Z 030311c0 f i MQ2KeyBinds.obj
 0001:00030360       ?SetKeyBindNameMap@@YAXPADK@Z 03031360 f i MQ2KeyBinds.obj
 0001:000304e0       _AddMQ2KeyBind             030314e0 f   MQ2KeyBinds.obj
 0001:00030660       _GetMQ2KeyBind             03031660 f   MQ2KeyBinds.obj
 0001:000306a0       _RemoveMQ2KeyBind          030316a0 f   MQ2KeyBinds.obj
 0001:000308a0       _PressMQ2KeyBind           030318a0 f   MQ2KeyBinds.obj
 0001:000308e0       _SetMQ2KeyBind             030318e0 f   MQ2KeyBinds.obj
 0001:000309c0       _MQ2KeyBindCommand         030319c0 f   MQ2KeyBinds.obj
 0001:00030f50       _InitializeMQ2KeyBinds     03031f50 f   MQ2KeyBinds.obj
 0001:00030ff0       ??0BlechNode@@QAE@PAV0@PAPAV0@PBDW4eBlechStringType@@@Z 03031ff0 f i MQ2MacroCommands.obj
 0001:00031050       ?AddChild@BlechNode@@QAEPAV1@PBDW4eBlechStringType@@@Z 03032050 f i MQ2MacroCommands.obj
 0001:00031250       ?AddEvent@BlechNode@@QAEXPAU_BLECHEVENT@@@Z 03032250 f i MQ2MacroCommands.obj
 0001:00031290       ?AddNode@Blech@@AAEPAVBlechNode@@IPBDW4eBlechStringType@@@Z 03032290 f i MQ2MacroCommands.obj
 0001:00031490       ?AddNode@Blech@@AAEPAVBlechNode@@PAV2@PBD1W4eBlechStringType@@@Z 03032490 f i MQ2MacroCommands.obj
 0001:00031550       ?CleanMacroLine@@YAXPAD@Z  03032550 f   MQ2MacroCommands.obj
 0001:000315e0       _Include                   030325e0 f   MQ2MacroCommands.obj
 0001:00031790       _Cleanup                   03032790 f   MQ2MacroCommands.obj
 0001:000318f0       _Delay                     030328f0 f   MQ2MacroCommands.obj
 0001:00031a20       _Goto                      03032a20 f   MQ2MacroCommands.obj
 0001:00031b00       _DumpStack                 03032b00 f   MQ2MacroCommands.obj
 0001:00031bc0       _FailIf                    03032bc0 f   MQ2MacroCommands.obj
 0001:00031d40       _NewIf                     03032d40 f   MQ2MacroCommands.obj
 0001:00031e80       _DoEvents                  03032e80 f   MQ2MacroCommands.obj
 0001:000321d0       _For                       030331d0 f   MQ2MacroCommands.obj
 0001:00032400       _Next                      03033400 f   MQ2MacroCommands.obj
 0001:000327a0       _GetFuncParam              030337a0 f   MQ2MacroCommands.obj
 0001:00032970       ??R?$less@I@std@@QBE_NABI0@Z 03033970 f i MQ2MacroCommands.obj
 0001:00032990       ??0?$pair@$$CBIPAU_BLECHEVENT@@@std@@QAE@ABIABQAU_BLECHEVENT@@@Z 03033990 f i MQ2MacroCommands.obj
 0001:000329b0       ?size@?$_Tree@V?$_Tmap_traits@IPAU_BLECHEVENT@@U?$less@I@std@@V?$allocator@U?$pair@$$CBIPAU_BLECHEVENT@@@std@@@3@$0A@@std@@@std@@QBEIXZ 030339b0 f i MQ2MacroCommands.obj
 0001:000329c0       ?_Kfn@?$_Tmap_traits@IPAU_BLECHEVENT@@U?$less@I@std@@V?$allocator@U?$pair@$$CBIPAU_BLECHEVENT@@@std@@@3@$0A@@std@@SAABIABU?$pair@$$CBIPAU_BLECHEVENT@@@2@@Z 030339c0 f i MQ2MacroCommands.obj
 0001:000329d0       ?_Myval@?$_Tree@V?$_Tmap_traits@V?$basic_string@DU?$char_traits@D@std@@V?$allocator@D@2@@std@@PAU_MACROBLOCK@MQ2Internal@@U?$less@V?$basic_string@DU?$char_traits@D@std@@V?$allocator@D@2@@std@@@2@V?$allocator@U?$pair@$$CBV?$basic_string@DU?$char_traits@D@std@@V?$allocator@D@2@@std@@PAU_MACROBLOCK@MQ2Internal@@@std@@@2@$0A@@std@@@std@@KAAAU?$pair@$$CBV?$basic_string@DU?$char_traits@D@std@@V?$allocator@D@2@@std@@PAU_MACROBLOCK@MQ2Internal@@@2@PAU_Node@?$_Tree_nod@V?$_Tmap_traits@V?$basic_string@DU?$char_traits@D@std@@V?$allocator@D@2@@std@@PAU_MACROBLOCK@MQ2Internal@@U?$less@V?$basic_string@DU?$char_traits@D@std@@V?$allocator@D@2@@std@@@2@V?$allocator@U?$pair@$$CBV?$basic_string@DU?$char_traits@D@std@@V?$allocator@D@2@@std@@PAU_MACROBLOCK@MQ2Internal@@@std@@@2@$0A@@std@@@2@@Z 030339d0 f i MQ2MacroCommands.obj
 0001:000329e0       ?size@?$_Tree@V?$_Tmap_traits@V?$basic_string@DU?$char_traits@D@std@@V?$allocator@D@2@@std@@PAU_MACROBLOCK@MQ2Internal@@U?$less@V?$basic_string@DU?$char_traits@D@std@@V?$allocator@D@2@@std@@@2@V?$allocator@U?$pair@$$CBV?$basic_string@DU?$char_traits@D@std@@V?$allocator@D@2@@std@@PAU_MACROBLOCK@MQ2Internal@@@std@@@2@$0A@@std@@@std@@QBEIXZ 030339e0 f i MQ2MacroCommands.obj
 0001:000329f0       ?_Kfn@?$_Tmap_traits@V?$basic_string@DU?$char_traits@D@std@@V?$allocator@D@2@@std@@PAU_MACROBLOCK@MQ2Internal@@U?$less@V?$basic_string@DU?$char_traits@D@std@@V?$allocator@D@2@@std@@@2@V?$allocator@U?$pair@$$CBV?$basic_string@DU?$char_traits@D@std@@V?$allocator@D@2@@std@@PAU_MACROBLOCK@MQ2Internal@@@std@@@2@$0A@@std@@SAABV?$basic_string@DU?$char_traits@D@std@@V?$allocator@D@2@@2@ABU?$pair@$$CBV?$basic_string@DU?$char_traits@D@std@@V?$allocator@D@2@@std@@PAU_MACROBLOCK@MQ2Internal@@@2@@Z 030339f0 f i MQ2MacroCommands.obj
 0001:00032a00       ??Dconst_iterator@?$_Tree@V?$_Tmap_traits@V?$basic_string@DU?$char_traits@D@std@@V?$allocator@D@2@@std@@PAU_MACROBLOCK@MQ2Internal@@U?$less@V?$basic_string@DU?$char_traits@D@std@@V?$allocator@D@2@@std@@@2@V?$allocator@U?$pair@$$CBV?$basic_string@DU?$char_traits@D@std@@V?$allocator@D@2@@std@@PAU_MACROBLOCK@MQ2Internal@@@std@@@2@$0A@@std@@@std@@QBEABU?$pair@$$CBV?$basic_string@DU?$char_traits@D@std@@V?$allocator@D@2@@std@@PAU_MACROBLOCK@MQ2Internal@@@2@XZ 03033a00 f i MQ2MacroCommands.obj
 0001:00032a30       ?_Dec@const_iterator@?$_Tree@V?$_Tmap_traits@IPAU_BLECHEVENT@@U?$less@I@std@@V?$allocator@U?$pair@$$CBIPAU_BLECHEVENT@@@std@@@3@$0A@@std@@@std@@QAEXXZ 03033a30 f i MQ2MacroCommands.obj
 0001:00032ac0       ??0?$pair@Viterator@?$_Tree@V?$_Tmap_traits@IPAU_BLECHEVENT@@U?$less@I@std@@V?$allocator@U?$pair@$$CBIPAU_BLECHEVENT@@@std@@@3@$0A@@std@@@std@@_N@std@@QAE@ABViterator@?$_Tree@V?$_Tmap_traits@IPAU_BLECHEVENT@@U?$less@I@std@@V?$allocator@U?$pair@$$CBIPAU_BLECHEVENT@@@std@@@3@$0A@@std@@@1@AB_N@Z 03033ac0 f i MQ2MacroCommands.obj
 0001:00032ae0       ??0?$pair@Viterator@?$_Tree@V?$_Tmap_traits@V?$basic_string@DU?$char_traits@D@std@@V?$allocator@D@2@@std@@PAU_MACROBLOCK@MQ2Internal@@U?$less@V?$basic_string@DU?$char_traits@D@std@@V?$allocator@D@2@@std@@@2@V?$allocator@U?$pair@$$CBV?$basic_string@DU?$char_traits@D@std@@V?$allocator@D@2@@std@@PAU_MACROBLOCK@MQ2Internal@@@std@@@2@$0A@@std@@@std@@_N@std@@QAE@ABViterator@?$_Tree@V?$_Tmap_traits@V?$basic_string@DU?$char_traits@D@std@@V?$allocator@D@2@@std@@PAU_MACROBLOCK@MQ2Internal@@U?$less@V?$basic_string@DU?$char_traits@D@std@@V?$allocator@D@2@@std@@@2@V?$allocator@U?$pair@$$CBV?$basic_string@DU?$char_traits@D@std@@V?$allocator@D@2@@std@@PAU_MACROBLOCK@MQ2Internal@@@std@@@2@$0A@@std@@@1@AB_N@Z 03033ae0 f i MQ2MacroCommands.obj
 0001:00032b00       ?max_size@?$allocator@U?$pair@$$CBIPAU_BLECHEVENT@@@std@@@std@@QBEIXZ 03033b00 f i MQ2MacroCommands.obj
 0001:00032b10       ?max_size@?$allocator@U?$pair@$$CBV?$basic_string@DU?$char_traits@D@std@@V?$allocator@D@2@@std@@PAU_MACROBLOCK@MQ2Internal@@@std@@@std@@QBEIXZ 03033b10 f i MQ2MacroCommands.obj
 0001:00032b20       ??0_Node@?$_Tree_nod@V?$_Tmap_traits@IPAU_BLECHEVENT@@U?$less@I@std@@V?$allocator@U?$pair@$$CBIPAU_BLECHEVENT@@@std@@@3@$0A@@std@@@std@@QAE@PAU012@00ABU?$pair@$$CBIPAU_BLECHEVENT@@@2@D@Z 03033b20 f i MQ2MacroCommands.obj
 0001:00032b60       ?_Key@?$_Tree@V?$_Tmap_traits@IPAU_BLECHEVENT@@U?$less@I@std@@V?$allocator@U?$pair@$$CBIPAU_BLECHEVENT@@@std@@@3@$0A@@std@@@std@@KAABIPAU_Node@?$_Tree_nod@V?$_Tmap_traits@IPAU_BLECHEVENT@@U?$less@I@std@@V?$allocator@U?$pair@$$CBIPAU_BLECHEVENT@@@std@@@3@$0A@@std@@@2@@Z 03033b60 f i MQ2MacroCommands.obj
 0001:00032b70       ?_Key@?$_Tree@V?$_Tmap_traits@V?$basic_string@DU?$char_traits@D@std@@V?$allocator@D@2@@std@@PAU_MACROBLOCK@MQ2Internal@@U?$less@V?$basic_string@DU?$char_traits@D@std@@V?$allocator@D@2@@std@@@2@V?$allocator@U?$pair@$$CBV?$basic_string@DU?$char_traits@D@std@@V?$allocator@D@2@@std@@PAU_MACROBLOCK@MQ2Internal@@@std@@@2@$0A@@std@@@std@@KAABV?$basic_string@DU?$char_traits@D@std@@V?$allocator@D@2@@2@PAU_Node@?$_Tree_nod@V?$_Tmap_traits@V?$basic_string@DU?$char_traits@D@std@@V?$allocator@D@2@@std@@PAU_MACROBLOCK@MQ2Internal@@U?$less@V?$basic_string@DU?$char_traits@D@std@@V?$allocator@D@2@@std@@@2@V?$allocator@U?$pair@$$CBV?$basic_string@DU?$char_traits@D@std@@V?$allocator@D@2@@std@@PAU_MACROBLOCK@MQ2Internal@@@std@@@2@$0A@@std@@@2@@Z 03033b70 f i MQ2MacroCommands.obj
 0001:00032b80       ??Diterator@?$_Tree@V?$_Tmap_traits@V?$basic_string@DU?$char_traits@D@std@@V?$allocator@D@2@@std@@PAU_MACROBLOCK@MQ2Internal@@U?$less@V?$basic_string@DU?$char_traits@D@std@@V?$allocator@D@2@@std@@@2@V?$allocator@U?$pair@$$CBV?$basic_string@DU?$char_traits@D@std@@V?$allocator@D@2@@std@@PAU_MACROBLOCK@MQ2Internal@@@std@@@2@$0A@@std@@@std@@QBEAAU?$pair@$$CBV?$basic_string@DU?$char_traits@D@std@@V?$allocator@D@2@@std@@PAU_MACROBLOCK@MQ2Internal@@@2@XZ 03033b80 f i MQ2MacroCommands.obj
 0001:00032bb0       ?_Lbound@?$_Tree@V?$_Tmap_traits@IPAU_BLECHEVENT@@U?$less@I@std@@V?$allocator@U?$pair@$$CBIPAU_BLECHEVENT@@@std@@@3@$0A@@std@@@std@@IBEPAU_Node@?$_Tree_nod@V?$_Tmap_traits@IPAU_BLECHEVENT@@U?$less@I@std@@V?$allocator@U?$pair@$$CBIPAU_BLECHEVENT@@@std@@@3@$0A@@std@@@2@ABI@Z 03033bb0 f i MQ2MacroCommands.obj
 0001:00032be0       ??Fconst_iterator@?$_Tree@V?$_Tmap_traits@IPAU_BLECHEVENT@@U?$less@I@std@@V?$allocator@U?$pair@$$CBIPAU_BLECHEVENT@@@std@@@3@$0A@@std@@@std@@QAEAAV012@XZ 03033be0 f i MQ2MacroCommands.obj
 0001:00032bf0       ?max_size@?$_Tree@V?$_Tmap_traits@IPAU_BLECHEVENT@@U?$less@I@std@@V?$allocator@U?$pair@$$CBIPAU_BLECHEVENT@@@std@@@3@$0A@@std@@@std@@QBEIXZ 03033bf0 f i MQ2MacroCommands.obj
 0001:00032c00       ??Fiterator@?$_Tree@V?$_Tmap_traits@IPAU_BLECHEVENT@@U?$less@I@std@@V?$allocator@U?$pair@$$CBIPAU_BLECHEVENT@@@std@@@3@$0A@@std@@@std@@QAEAAV012@XZ 03033c00 f i MQ2MacroCommands.obj
 0001:00032c10       ?max_size@?$_Tree@V?$_Tmap_traits@V?$basic_string@DU?$char_traits@D@std@@V?$allocator@D@2@@std@@PAU_MACROBLOCK@MQ2Internal@@U?$less@V?$basic_string@DU?$char_traits@D@std@@V?$allocator@D@2@@std@@@2@V?$allocator@U?$pair@$$CBV?$basic_string@DU?$char_traits@D@std@@V?$allocator@D@2@@std@@PAU_MACROBLOCK@MQ2Internal@@@std@@@2@$0A@@std@@@std@@QBEIXZ 03033c10 f i MQ2MacroCommands.obj
 0001:00032c20       ?_Dec@const_iterator@?$_Tree@V?$_Tmap_traits@V?$basic_string@DU?$char_traits@D@std@@V?$allocator@D@2@@std@@PAU_MACROBLOCK@MQ2Internal@@U?$less@V?$basic_string@DU?$char_traits@D@std@@V?$allocator@D@2@@std@@@2@V?$allocator@U?$pair@$$CBV?$basic_string@DU?$char_traits@D@std@@V?$allocator@D@2@@std@@PAU_MACROBLOCK@MQ2Internal@@@std@@@2@$0A@@std@@@std@@QAEXXZ 03033c20 f i MQ2MacroCommands.obj
 0001:00032cb0       ??0const_iterator@?$_Tree@V?$_Tmap_traits@IPAU_BLECHEVENT@@U?$less@I@std@@V?$allocator@U?$pair@$$CBIPAU_BLECHEVENT@@@std@@@3@$0A@@std@@@std@@QAE@XZ 03033cb0 f i MQ2MacroCommands.obj
 0001:00032cc0       ??0const_iterator@?$_Tree@V?$_Tmap_traits@V?$basic_string@DU?$char_traits@D@std@@V?$allocator@D@2@@std@@PAU_MACROBLOCK@MQ2Internal@@U?$less@V?$basic_string@DU?$char_traits@D@std@@V?$allocator@D@2@@std@@@2@V?$allocator@U?$pair@$$CBV?$basic_string@DU?$char_traits@D@std@@V?$allocator@D@2@@std@@PAU_MACROBLOCK@MQ2Internal@@@std@@@2@$0A@@std@@@std@@QAE@XZ 03033cc0 f i MQ2MacroCommands.obj
 0001:00032cd0       ??Fconst_iterator@?$_Tree@V?$_Tmap_traits@V?$basic_string@DU?$char_traits@D@std@@V?$allocator@D@2@@std@@PAU_MACROBLOCK@MQ2Internal@@U?$less@V?$basic_string@DU?$char_traits@D@std@@V?$allocator@D@2@@std@@@2@V?$allocator@U?$pair@$$CBV?$basic_string@DU?$char_traits@D@std@@V?$allocator@D@2@@std@@PAU_MACROBLOCK@MQ2Internal@@@std@@@2@$0A@@std@@@std@@QAEAAV012@XZ 03033cd0 f i MQ2MacroCommands.obj
 0001:00032ce0       ?_Buynode@?$_Tree@V?$_Tmap_traits@IPAU_BLECHEVENT@@U?$less@I@std@@V?$allocator@U?$pair@$$CBIPAU_BLECHEVENT@@@std@@@3@$0A@@std@@@std@@IAEPAU_Node@?$_Tree_nod@V?$_Tmap_traits@IPAU_BLECHEVENT@@U?$less@I@std@@V?$allocator@U?$pair@$$CBIPAU_BLECHEVENT@@@std@@@3@$0A@@std@@@2@PAU342@00ABU?$pair@$$CBIPAU_BLECHEVENT@@@2@D@Z 03033ce0 f i MQ2MacroCommands.obj
 0001:00032d70       ??Fiterator@?$_Tree@V?$_Tmap_traits@V?$basic_string@DU?$char_traits@D@std@@V?$allocator@D@2@@std@@PAU_MACROBLOCK@MQ2Internal@@U?$less@V?$basic_string@DU?$char_traits@D@std@@V?$allocator@D@2@@std@@@2@V?$allocator@U?$pair@$$CBV?$basic_string@DU?$char_traits@D@std@@V?$allocator@D@2@@std@@PAU_MACROBLOCK@MQ2Internal@@@std@@@2@$0A@@std@@@std@@QAEAAV012@XZ 03033d70 f i MQ2MacroCommands.obj
 0001:00032d80       ?_Lbound@?$_Tree@V?$_Tmap_traits@V?$basic_string@DU?$char_traits@D@std@@V?$allocator@D@2@@std@@PAU_MACROBLOCK@MQ2Internal@@U?$less@V?$basic_string@DU?$char_traits@D@std@@V?$allocator@D@2@@std@@@2@V?$allocator@U?$pair@$$CBV?$basic_string@DU?$char_traits@D@std@@V?$allocator@D@2@@std@@PAU_MACROBLOCK@MQ2Internal@@@std@@@2@$0A@@std@@@std@@IBEPAU_Node@?$_Tree_nod@V?$_Tmap_traits@V?$basic_string@DU?$char_traits@D@std@@V?$allocator@D@2@@std@@PAU_MACROBLOCK@MQ2Internal@@U?$less@V?$basic_string@DU?$char_traits@D@std@@V?$allocator@D@2@@std@@@2@V?$allocator@U?$pair@$$CBV?$basic_string@DU?$char_traits@D@std@@V?$allocator@D@2@@std@@PAU_MACROBLOCK@MQ2Internal@@@std@@@2@$0A@@std@@@2@ABV?$basic_string@DU?$char_traits@D@std@@V?$allocator@D@2@@2@@Z 03033d80 f i MQ2MacroCommands.obj
 0001:00032e10       ?lower_bound@?$_Tree@V?$_Tmap_traits@IPAU_BLECHEVENT@@U?$less@I@std@@V?$allocator@U?$pair@$$CBIPAU_BLECHEVENT@@@std@@@3@$0A@@std@@@std@@QAE?AViterator@12@ABI@Z 03033e10 f i MQ2MacroCommands.obj
 0001:00032e50       ?lower_bound@?$_Tree@V?$_Tmap_traits@V?$basic_string@DU?$char_traits@D@std@@V?$allocator@D@2@@std@@PAU_MACROBLOCK@MQ2Internal@@U?$less@V?$basic_string@DU?$char_traits@D@std@@V?$allocator@D@2@@std@@@2@V?$allocator@U?$pair@$$CBV?$basic_string@DU?$char_traits@D@std@@V?$allocator@D@2@@std@@PAU_MACROBLOCK@MQ2Internal@@@std@@@2@$0A@@std@@@std@@QAE?AViterator@12@ABV?$basic_string@DU?$char_traits@D@std@@V?$allocator@D@2@@2@@Z 03033e50 f i MQ2MacroCommands.obj
 0001:00032e80       ??0?$pair@$$CBV?$basic_string@DU?$char_traits@D@std@@V?$allocator@D@2@@std@@PAU_MACROBLOCK@MQ2Internal@@@std@@QAE@ABV?$basic_string@DU?$char_traits@D@std@@V?$allocator@D@2@@1@ABQAU_MACROBLOCK@MQ2Internal@@@Z 03033e80 f i MQ2MacroCommands.obj
 0001:00032eb0       ??0?$pair@$$CBV?$basic_string@DU?$char_traits@D@std@@V?$allocator@D@2@@std@@PAU_MACROBLOCK@MQ2Internal@@@std@@QAE@ABU01@@Z 03033eb0 f i MQ2MacroCommands.obj
 0001:00032ee0       ?Reset@Blech@@QAEXXZ       03033ee0 f i MQ2MacroCommands.obj
 0001:00032f50       ?_Insert@?$_Tree@V?$_Tmap_traits@IPAU_BLECHEVENT@@U?$less@I@std@@V?$allocator@U?$pair@$$CBIPAU_BLECHEVENT@@@std@@@3@$0A@@std@@@std@@IAE?AViterator@12@_NPAU_Node@?$_Tree_nod@V?$_Tmap_traits@IPAU_BLECHEVENT@@U?$less@I@std@@V?$allocator@U?$pair@$$CBIPAU_BLECHEVENT@@@std@@@3@$0A@@std@@@2@ABU?$pair@$$CBIPAU_BLECHEVENT@@@2@@Z 03033f50 f i MQ2MacroCommands.obj
 0001:00033140       ??0_Node@?$_Tree_nod@V?$_Tmap_traits@V?$basic_string@DU?$char_traits@D@std@@V?$allocator@D@2@@std@@PAU_MACROBLOCK@MQ2Internal@@U?$less@V?$basic_string@DU?$char_traits@D@std@@V?$allocator@D@2@@std@@@2@V?$allocator@U?$pair@$$CBV?$basic_string@DU?$char_traits@D@std@@V?$allocator@D@2@@std@@PAU_MACROBLOCK@MQ2Internal@@@std@@@2@$0A@@std@@@std@@QAE@PAU012@00ABU?$pair@$$CBV?$basic_string@DU?$char_traits@D@std@@V?$allocator@D@2@@std@@PAU_MACROBLOCK@MQ2Internal@@@2@D@Z 03034140 f i MQ2MacroCommands.obj
 0001:000331a0       ?insert@?$_Tree@V?$_Tmap_traits@IPAU_BLECHEVENT@@U?$less@I@std@@V?$allocator@U?$pair@$$CBIPAU_BLECHEVENT@@@std@@@3@$0A@@std@@@std@@QAE?AU?$pair@Viterator@?$_Tree@V?$_Tmap_traits@IPAU_BLECHEVENT@@U?$less@I@std@@V?$allocator@U?$pair@$$CBIPAU_BLECHEVENT@@@std@@@3@$0A@@std@@@std@@_N@2@ABU?$pair@$$CBIPAU_BLECHEVENT@@@2@@Z 030341a0 f i MQ2MacroCommands.obj
 0001:00033290       ?_Buynode@?$_Tree@V?$_Tmap_traits@V?$basic_string@DU?$char_traits@D@std@@V?$allocator@D@2@@std@@PAU_MACROBLOCK@MQ2Internal@@U?$less@V?$basic_string@DU?$char_traits@D@std@@V?$allocator@D@2@@std@@@2@V?$allocator@U?$pair@$$CBV?$basic_string@DU?$char_traits@D@std@@V?$allocator@D@2@@std@@PAU_MACROBLOCK@MQ2Internal@@@std@@@2@$0A@@std@@@std@@IAEPAU_Node@?$_Tree_nod@V?$_Tmap_traits@V?$basic_string@DU?$char_traits@D@std@@V?$allocator@D@2@@std@@PAU_MACROBLOCK@MQ2Internal@@U?$less@V?$basic_string@DU?$char_traits@D@std@@V?$allocator@D@2@@std@@@2@V?$allocator@U?$pair@$$CBV?$basic_string@DU?$char_traits@D@std@@V?$allocator@D@2@@std@@PAU_MACROBLOCK@MQ2Internal@@@std@@@2@$0A@@std@@@2@PAU342@00ABU?$pair@$$CBV?$basic_string@DU?$char_traits@D@std@@V?$allocator@D@2@@std@@PAU_MACROBLOCK@MQ2Internal@@@2@D@Z 03034290 f i MQ2MacroCommands.obj
 0001:00033320       ?insert@?$_Tree@V?$_Tmap_traits@IPAU_BLECHEVENT@@U?$less@I@std@@V?$allocator@U?$pair@$$CBIPAU_BLECHEVENT@@@std@@@3@$0A@@std@@@std@@QAE?AViterator@12@Vconst_iterator@12@ABU?$pair@$$CBIPAU_BLECHEVENT@@@2@@Z 03034320 f i MQ2MacroCommands.obj
 0001:000334f0       ?_Insert@?$_Tree@V?$_Tmap_traits@V?$basic_string@DU?$char_traits@D@std@@V?$allocator@D@2@@std@@PAU_MACROBLOCK@MQ2Internal@@U?$less@V?$basic_string@DU?$char_traits@D@std@@V?$allocator@D@2@@std@@@2@V?$allocator@U?$pair@$$CBV?$basic_string@DU?$char_traits@D@std@@V?$allocator@D@2@@std@@PAU_MACROBLOCK@MQ2Internal@@@std@@@2@$0A@@std@@@std@@IAE?AViterator@12@_NPAU_Node@?$_Tree_nod@V?$_Tmap_traits@V?$basic_string@DU?$char_traits@D@std@@V?$allocator@D@2@@std@@PAU_MACROBLOCK@MQ2Internal@@U?$less@V?$basic_string@DU?$char_traits@D@std@@V?$allocator@D@2@@std@@@2@V?$allocator@U?$pair@$$CBV?$basic_string@DU?$char_traits@D@std@@V?$allocator@D@2@@std@@PAU_MACROBLOCK@MQ2Internal@@@std@@@2@$0A@@std@@@2@ABU?$pair@$$CBV?$basic_string@DU?$char_traits@D@std@@V?$allocator@D@2@@std@@PAU_MACROBLOCK@MQ2Internal@@@2@@Z 030344f0 f i MQ2MacroCommands.obj
 0001:000336e0       _EndMacro                  030346e0 f   MQ2MacroCommands.obj
 0001:00033a30       _Return                    03034a30 f   MQ2MacroCommands.obj
 0001:00033af0       ??A?$map@IPAU_BLECHEVENT@@U?$less@I@std@@V?$allocator@U?$pair@$$CBIPAU_BLECHEVENT@@@std@@@3@@std@@QAEAAPAU_BLECHEVENT@@ABI@Z 03034af0 f i MQ2MacroCommands.obj
 0001:00033ba0       ?insert@?$_Tree@V?$_Tmap_traits@V?$basic_string@DU?$char_traits@D@std@@V?$allocator@D@2@@std@@PAU_MACROBLOCK@MQ2Internal@@U?$less@V?$basic_string@DU?$char_traits@D@std@@V?$allocator@D@2@@std@@@2@V?$allocator@U?$pair@$$CBV?$basic_string@DU?$char_traits@D@std@@V?$allocator@D@2@@std@@PAU_MACROBLOCK@MQ2Internal@@@std@@@2@$0A@@std@@@std@@QAE?AU?$pair@Viterator@?$_Tree@V?$_Tmap_traits@V?$basic_string@DU?$char_traits@D@std@@V?$allocator@D@2@@std@@PAU_MACROBLOCK@MQ2Internal@@U?$less@V?$basic_string@DU?$char_traits@D@std@@V?$allocator@D@2@@std@@@2@V?$allocator@U?$pair@$$CBV?$basic_string@DU?$char_traits@D@std@@V?$allocator@D@2@@std@@PAU_MACROBLOCK@MQ2Internal@@@std@@@2@$0A@@std@@@std@@_N@2@ABU?$pair@$$CBV?$basic_string@DU?$char_traits@D@std@@V?$allocator@D@2@@std@@PAU_MACROBLOCK@MQ2Internal@@@2@@Z 03034ba0 f i MQ2MacroCommands.obj
 0001:00033d00       ?AddEvent@Blech@@QAEIPBDP6GXIPAXPAU_BLECHVALUE@@@Z1@Z 03034d00 f i MQ2MacroCommands.obj
 0001:00033e60       _AddMacroLine              03034e60 f   MQ2MacroCommands.obj
 0001:000345b0       ?insert@?$_Tree@V?$_Tmap_traits@V?$basic_string@DU?$char_traits@D@std@@V?$allocator@D@2@@std@@PAU_MACROBLOCK@MQ2Internal@@U?$less@V?$basic_string@DU?$char_traits@D@std@@V?$allocator@D@2@@std@@@2@V?$allocator@U?$pair@$$CBV?$basic_string@DU?$char_traits@D@std@@V?$allocator@D@2@@std@@PAU_MACROBLOCK@MQ2Internal@@@std@@@2@$0A@@std@@@std@@QAE?AViterator@12@Vconst_iterator@12@ABU?$pair@$$CBV?$basic_string@DU?$char_traits@D@std@@V?$allocator@D@2@@std@@PAU_MACROBLOCK@MQ2Internal@@@2@@Z 030355b0 f i MQ2MacroCommands.obj
 0001:000347e0       ??A?$map@V?$basic_string@DU?$char_traits@D@std@@V?$allocator@D@2@@std@@PAU_MACROBLOCK@MQ2Internal@@U?$less@V?$basic_string@DU?$char_traits@D@std@@V?$allocator@D@2@@std@@@2@V?$allocator@U?$pair@$$CBV?$basic_string@DU?$char_traits@D@std@@V?$allocator@D@2@@std@@PAU_MACROBLOCK@MQ2Internal@@@std@@@2@@std@@QAEAAPAU_MACROBLOCK@MQ2Internal@@ABV?$basic_string@DU?$char_traits@D@std@@V?$allocator@D@2@@1@@Z 030357e0 f i MQ2MacroCommands.obj
 0001:000348d0       _Call                      030358d0 f   MQ2MacroCommands.obj
 0001:00034c50       _Macro                     03035c50 f   MQ2MacroCommands.obj
 0001:00035000       ?strrchr@@YAPADPADH@Z      03036000 f i MQ2Main.obj
 0001:00035020       ?pXWnd@CSidlScreenWnd@EQClasses@@QAEPAVCXWnd@2@XZ 03036020 f i MQ2Main.obj
 0001:00035030       ?ReplacevfTable@CCustomWnd@MQ2Internal@@QAEXXZ 03036030 f i MQ2Main.obj
 0001:00035060       ?RemovevfTable@CCustomWnd@MQ2Internal@@QAEXXZ 03036060 f i MQ2Main.obj
 0001:00035080       ?SetvfTable@CCustomWnd@MQ2Internal@@QAEXKK@Z 03036080 f i MQ2Main.obj
 0001:00035090       ?ParseINIFile@@YAHPAD@Z    03036090 f   MQ2Main.obj
 0001:00035ad0       ?MQ2Initialize@@YA_NXZ     03036ad0 f   MQ2Main.obj
 0001:00035db0       ?MQ2Shutdown@@YAXXZ        03036db0 f   MQ2Main.obj
 0001:00035f60       ?MQ2Start@@YGKPAX@Z        03036f60 f   MQ2Main.obj
 0001:00036060       _MQ2Malloc                 03037060 f   MQ2Main.obj
 0001:00036070       _MQ2Free                   03037070 f   MQ2Main.obj
 0001:00036080       ?WndNotification@CMQNewsWnd@@QAEHPAVCXWnd@EQClasses@@IPAX@Z 03037080 f i MQ2Main.obj
 0001:000360b0       ?AddNewsLine@@YAXPADK@Z    030370b0 f   MQ2Main.obj
 0001:00036150       ?hookCBTProc@@YGJHIJ@Z     03037150 f   MQ2Main.obj
 0001:00036170       ?InjectEnable@@YAXXZ       03037170 f   MQ2Main.obj
 0001:00036190       ?InjectDisable@@YAXXZ      03037190 f   MQ2Main.obj
 0001:000361b0       _CastRay                   030371b0 f   MQ2Main.obj
 0001:000361c0       _GetFastTime               030371c0 f   MQ2Main.obj
 0001:000361d0       ??0CCustomWnd@MQ2Internal@@QAE@PAD@Z 030371d0 f i MQ2Main.obj
 0001:00036250       ??1CCustomWnd@MQ2Internal@@QAE@XZ 03037250 f i MQ2Main.obj
 0001:00036270       _DllMain@12                03037270 f   MQ2Main.obj
 0001:000363c0       ??0CMQNewsWnd@@QAE@PAD@Z   030373c0 f i MQ2Main.obj
 0001:00036440       ??1CMQNewsWnd@@QAE@XZ      03037440 f i MQ2Main.obj
 0001:00036460       ??_GCMQNewsWnd@@QAEPAXI@Z  03037460 f i MQ2Main.obj
 0001:000364a0       _DeleteMQ2NewsWindow       030374a0 f   MQ2Main.obj
 0001:000364e0       ?InsertMQ2News@@YAXXZ      030374e0 f   MQ2Main.obj
 0001:00036650       _CreateMQ2NewsWindow       03037650 f   MQ2Main.obj
 0001:00036730       ?ExtractValue@@YAHPAD000@Z 03037730 f   MQ2Mouse.obj
 0001:00036800       ?MouseButtonUp@@YAXKKPAD@Z 03037800 f   MQ2Mouse.obj
 0001:000368b0       ?ClickMouseLoc@@YAXPAD0@Z  030378b0 f   MQ2Mouse.obj
 0001:000369d0       _IsMouseWaitingForButton   030379d0 f   MQ2Mouse.obj
 0001:000369f0       _IsMouseWaiting            030379f0 f   MQ2Mouse.obj
 0001:00036a60       _Click                     03037a60 f   MQ2Mouse.obj
 0001:00036cc0       _InitializeParser          03037cc0 f   MQ2ParseAPI.obj
 0001:00036cf0       _ShutdownParser            03037cf0 f   MQ2ParseAPI.obj
 0001:00036d20       ?FindLastParameter@@YAHPBDAAPBDAAI@Z 03037d20 f   MQ2ParseAPI.obj
 0001:00036d60       _ParseMacroParameter       03037d60 f   MQ2ParseAPI.obj
 0001:00036f00       ?checkme@@YAKPAD@Z         03037f00 f   MQ2PluginHandler.obj
 0001:00036f10       _LoadMQ2Plugin             03037f10 f   MQ2PluginHandler.obj
 0001:00037350       _UnloadMQ2Plugin           03038350 f   MQ2PluginHandler.obj
 0001:00037480       _RewriteMQ2Plugins         03038480 f   MQ2PluginHandler.obj
 0001:00037500       _InitializeMQ2Plugins      03038500 f   MQ2PluginHandler.obj
 0001:000376e0       _UnloadMQ2Plugins          030386e0 f   MQ2PluginHandler.obj
 0001:00037730       _ShutdownMQ2Plugins        03038730 f   MQ2PluginHandler.obj
 0001:00037790       _WriteChatColor            03038790 f   MQ2PluginHandler.obj
 0001:00037870       _PluginsIncomingChat       03038870 f   MQ2PluginHandler.obj
 0001:000378e0       _PulsePlugins              030388e0 f   MQ2PluginHandler.obj
 0001:00037930       _PluginsZoned              03038930 f   MQ2PluginHandler.obj
 0001:00037990       _PluginsCleanUI            03038990 f   MQ2PluginHandler.obj
 0001:000379f0       _PluginsReloadUI           030389f0 f   MQ2PluginHandler.obj
 0001:00037a50       _PluginsSetGameState       03038a50 f   MQ2PluginHandler.obj
 0001:00037c00       _PluginsDrawHUD            03038c00 f   MQ2PluginHandler.obj
 0001:00037c50       _PluginsAddSpawn           03038c50 f   MQ2PluginHandler.obj
 0001:00037cf0       _PluginsAddGroundItem      03038cf0 f   MQ2PluginHandler.obj
 0001:00037d70       _PluginsRemoveGroundItem   03038d70 f   MQ2PluginHandler.obj
 0001:00037dc0       _PluginsBeginZone          03038dc0 f   MQ2PluginHandler.obj
 0001:00037e30       _PluginsEndZone            03038e30 f   MQ2PluginHandler.obj
 0001:00037ec0       ??0?$pair@Viterator@?$_Tree@V?$_Tmap_traits@V?$basic_string@DU?$char_traits@D@std@@V?$allocator@D@2@@std@@PAU_SPAWNINFO@EQData@@U?$less@V?$basic_string@DU?$char_traits@D@std@@V?$allocator@D@2@@std@@@2@V?$allocator@U?$pair@$$CBV?$basic_string@DU?$char_traits@D@std@@V?$allocator@D@2@@std@@PAU_SPAWNINFO@EQData@@@std@@@2@$0A@@std@@@std@@V123@@std@@QAE@ABViterator@?$_Tree@V?$_Tmap_traits@V?$basic_string@DU?$char_traits@D@std@@V?$allocator@D@2@@std@@PAU_SPAWNINFO@EQData@@U?$less@V?$basic_string@DU?$char_traits@D@std@@V?$allocator@D@2@@std@@@2@V?$allocator@U?$pair@$$CBV?$basic_string@DU?$char_traits@D@std@@V?$allocator@D@2@@std@@PAU_SPAWNINFO@EQData@@@std@@@2@$0A@@std@@@1@0@Z 03038ec0 f i MQ2PluginHandler.obj
 0001:00037ef0       ?_Myval@?$_Tree@V?$_Tmap_traits@V?$basic_string@DU?$char_traits@D@std@@V?$allocator@D@2@@std@@PAU_SPAWNINFO@EQData@@U?$less@V?$basic_string@DU?$char_traits@D@std@@V?$allocator@D@2@@std@@@2@V?$allocator@U?$pair@$$CBV?$basic_string@DU?$char_traits@D@std@@V?$allocator@D@2@@std@@PAU_SPAWNINFO@EQData@@@std@@@2@$0A@@std@@@std@@KAAAU?$pair@$$CBV?$basic_string@DU?$char_traits@D@std@@V?$allocator@D@2@@std@@PAU_SPAWNINFO@EQData@@@2@PAU_Node@?$_Tree_nod@V?$_Tmap_traits@V?$basic_string@DU?$char_traits@D@std@@V?$allocator@D@2@@std@@PAU_SPAWNINFO@EQData@@U?$less@V?$basic_string@DU?$char_traits@D@std@@V?$allocator@D@2@@std@@@2@V?$allocator@U?$pair@$$CBV?$basic_string@DU?$char_traits@D@std@@V?$allocator@D@2@@std@@PAU_SPAWNINFO@EQData@@@std@@@2@$0A@@std@@@2@@Z 03038ef0 f i MQ2PluginHandler.obj
 0001:00037f00       ?_Kfn@?$_Tmap_traits@V?$basic_string@DU?$char_traits@D@std@@V?$allocator@D@2@@std@@PAU_SPAWNINFO@EQData@@U?$less@V?$basic_string@DU?$char_traits@D@std@@V?$allocator@D@2@@std@@@2@V?$allocator@U?$pair@$$CBV?$basic_string@DU?$char_traits@D@std@@V?$allocator@D@2@@std@@PAU_SPAWNINFO@EQData@@@std@@@2@$0A@@std@@SAABV?$basic_string@DU?$char_traits@D@std@@V?$allocator@D@2@@2@ABU?$pair@$$CBV?$basic_string@DU?$char_traits@D@std@@V?$allocator@D@2@@std@@PAU_SPAWNINFO@EQData@@@2@@Z 03038f00 f i MQ2PluginHandler.obj
 0001:00037f10       ??$_Iter_cat@Viterator@?$_Tree@V?$_Tmap_traits@V?$basic_string@DU?$char_traits@D@std@@V?$allocator@D@2@@std@@PAU_SPAWNINFO@EQData@@U?$less@V?$basic_string@DU?$char_traits@D@std@@V?$allocator@D@2@@std@@@2@V?$allocator@U?$pair@$$CBV?$basic_string@DU?$char_traits@D@std@@V?$allocator@D@2@@std@@PAU_SPAWNINFO@EQData@@@std@@@2@$0A@@std@@@std@@@std@@YA?AUbidirectional_iterator_tag@0@ABViterator@?$_Tree@V?$_Tmap_traits@V?$basic_string@DU?$char_traits@D@std@@V?$allocator@D@2@@std@@PAU_SPAWNINFO@EQData@@U?$less@V?$basic_string@DU?$char_traits@D@std@@V?$allocator@D@2@@std@@@2@V?$allocator@U?$pair@$$CBV?$basic_string@DU?$char_traits@D@std@@V?$allocator@D@2@@std@@PAU_SPAWNINFO@EQData@@@std@@@2@$0A@@std@@@0@@Z 03038f10 f i MQ2PluginHandler.obj
 0001:00037f20       ?_Key@?$_Tree@V?$_Tmap_traits@V?$basic_string@DU?$char_traits@D@std@@V?$allocator@D@2@@std@@PAU_SPAWNINFO@EQData@@U?$less@V?$basic_string@DU?$char_traits@D@std@@V?$allocator@D@2@@std@@@2@V?$allocator@U?$pair@$$CBV?$basic_string@DU?$char_traits@D@std@@V?$allocator@D@2@@std@@PAU_SPAWNINFO@EQData@@@std@@@2@$0A@@std@@@std@@KAABV?$basic_string@DU?$char_traits@D@std@@V?$allocator@D@2@@2@PAU_Node@?$_Tree_nod@V?$_Tmap_traits@V?$basic_string@DU?$char_traits@D@std@@V?$allocator@D@2@@std@@PAU_SPAWNINFO@EQData@@U?$less@V?$basic_string@DU?$char_traits@D@std@@V?$allocator@D@2@@std@@@2@V?$allocator@U?$pair@$$CBV?$basic_string@DU?$char_traits@D@std@@V?$allocator@D@2@@std@@PAU_SPAWNINFO@EQData@@@std@@@2@$0A@@std@@@2@@Z 03038f20 f i MQ2PluginHandler.obj
 0001:00037f30       ??Eiterator@?$_Tree@V?$_Tmap_traits@V?$basic_string@DU?$char_traits@D@std@@V?$allocator@D@2@@std@@PAU_SPAWNINFO@EQData@@U?$less@V?$basic_string@DU?$char_traits@D@std@@V?$allocator@D@2@@std@@@2@V?$allocator@U?$pair@$$CBV?$basic_string@DU?$char_traits@D@std@@V?$allocator@D@2@@std@@PAU_SPAWNINFO@EQData@@@std@@@2@$0A@@std@@@std@@QAEAAV012@XZ 03038f30 f i MQ2PluginHandler.obj
 0001:00037f40       ??$_Distance2@Viterator@?$_Tree@V?$_Tmap_traits@V?$basic_string@DU?$char_traits@D@std@@V?$allocator@D@2@@std@@PAU_SPAWNINFO@EQData@@U?$less@V?$basic_string@DU?$char_traits@D@std@@V?$allocator@D@2@@std@@@2@V?$allocator@U?$pair@$$CBV?$basic_string@DU?$char_traits@D@std@@V?$allocator@D@2@@std@@PAU_SPAWNINFO@EQData@@@std@@@2@$0A@@std@@@std@@I@std@@YAXViterator@?$_Tree@V?$_Tmap_traits@V?$basic_string@DU?$char_traits@D@std@@V?$allocator@D@2@@std@@PAU_SPAWNINFO@EQData@@U?$less@V?$basic_string@DU?$char_traits@D@std@@V?$allocator@D@2@@std@@@2@V?$allocator@U?$pair@$$CBV?$basic_string@DU?$char_traits@D@std@@V?$allocator@D@2@@std@@PAU_SPAWNINFO@EQData@@@std@@@2@$0A@@std@@@0@0AAIUbidirectional_iterator_tag@0@@Z 03038f40 f i MQ2PluginHandler.obj
 0001:00037f80       ??$_Distance@Viterator@?$_Tree@V?$_Tmap_traits@V?$basic_string@DU?$char_traits@D@std@@V?$allocator@D@2@@std@@PAU_SPAWNINFO@EQData@@U?$less@V?$basic_string@DU?$char_traits@D@std@@V?$allocator@D@2@@std@@@2@V?$allocator@U?$pair@$$CBV?$basic_string@DU?$char_traits@D@std@@V?$allocator@D@2@@std@@PAU_SPAWNINFO@EQData@@@std@@@2@$0A@@std@@@std@@I@std@@YAXViterator@?$_Tree@V?$_Tmap_traits@V?$basic_string@DU?$char_traits@D@std@@V?$allocator@D@2@@std@@PAU_SPAWNINFO@EQData@@U?$less@V?$basic_string@DU?$char_traits@D@std@@V?$allocator@D@2@@std@@@2@V?$allocator@U?$pair@$$CBV?$basic_string@DU?$char_traits@D@std@@V?$allocator@D@2@@std@@PAU_SPAWNINFO@EQData@@@std@@@2@$0A@@std@@@0@0AAI@Z 03038f80 f i MQ2PluginHandler.obj
 0001:00037fb0       ?WriteChatColor@@YAXV?$basic_string@DU?$char_traits@D@std@@V?$allocator@D@2@@std@@@Z 03038fb0 f   MQ2PluginHandler.obj
 0001:00038030       ?_Eqrange@?$_Tree@V?$_Tmap_traits@V?$basic_string@DU?$char_traits@D@std@@V?$allocator@D@2@@std@@PAU_SPAWNINFO@EQData@@U?$less@V?$basic_string@DU?$char_traits@D@std@@V?$allocator@D@2@@std@@@2@V?$allocator@U?$pair@$$CBV?$basic_string@DU?$char_traits@D@std@@V?$allocator@D@2@@std@@PAU_SPAWNINFO@EQData@@@std@@@2@$0A@@std@@@std@@IAE?AU?$pair@Viterator@?$_Tree@V?$_Tmap_traits@V?$basic_string@DU?$char_traits@D@std@@V?$allocator@D@2@@std@@PAU_SPAWNINFO@EQData@@U?$less@V?$basic_string@DU?$char_traits@D@std@@V?$allocator@D@2@@std@@@2@V?$allocator@U?$pair@$$CBV?$basic_string@DU?$char_traits@D@std@@V?$allocator@D@2@@std@@PAU_SPAWNINFO@EQData@@@std@@@2@$0A@@std@@@std@@V123@@2@ABV?$basic_string@DU?$char_traits@D@std@@V?$allocator@D@2@@2@@Z 03039030 f i MQ2PluginHandler.obj
 0001:000381c0       ?equal_range@?$_Tree@V?$_Tmap_traits@V?$basic_string@DU?$char_traits@D@std@@V?$allocator@D@2@@std@@PAU_SPAWNINFO@EQData@@U?$less@V?$basic_string@DU?$char_traits@D@std@@V?$allocator@D@2@@std@@@2@V?$allocator@U?$pair@$$CBV?$basic_string@DU?$char_traits@D@std@@V?$allocator@D@2@@std@@PAU_SPAWNINFO@EQData@@@std@@@2@$0A@@std@@@std@@QAE?AU?$pair@Viterator@?$_Tree@V?$_Tmap_traits@V?$basic_string@DU?$char_traits@D@std@@V?$allocator@D@2@@std@@PAU_SPAWNINFO@EQData@@U?$less@V?$basic_string@DU?$char_traits@D@std@@V?$allocator@D@2@@std@@@2@V?$allocator@U?$pair@$$CBV?$basic_string@DU?$char_traits@D@std@@V?$allocator@D@2@@std@@PAU_SPAWNINFO@EQData@@@std@@@2@$0A@@std@@@std@@V123@@2@ABV?$basic_string@DU?$char_traits@D@std@@V?$allocator@D@2@@2@@Z 030391c0 f i MQ2PluginHandler.obj
 0001:000381e0       ?erase@?$_Tree@V?$_Tmap_traits@V?$basic_string@DU?$char_traits@D@std@@V?$allocator@D@2@@std@@PAU_SPAWNINFO@EQData@@U?$less@V?$basic_string@DU?$char_traits@D@std@@V?$allocator@D@2@@std@@@2@V?$allocator@U?$pair@$$CBV?$basic_string@DU?$char_traits@D@std@@V?$allocator@D@2@@std@@PAU_SPAWNINFO@EQData@@@std@@@2@$0A@@std@@@std@@QAEIABV?$basic_string@DU?$char_traits@D@std@@V?$allocator@D@2@@2@@Z 030391e0 f i MQ2PluginHandler.obj
 0001:00038250       _PluginsRemoveSpawn        03039250 f   MQ2PluginHandler.obj
 0001:00038330       ?DoNextCommand@@YAHXZ      03039330 f   MQ2Pulse.obj
 0001:00038500       ?Pulse@@YAXXZ              03039500 f   MQ2Pulse.obj
 0001:00038be0       ?Heartbeat@@YAXXZ          03039be0 f   MQ2Pulse.obj
 0001:00038de0       ?Trampoline_ProcessGameEvents@@YAHXZ 03039de0 f   MQ2Pulse.obj
 0001:00038e00       ?EnterZone_Trampoline@CEverQuestHook@@QAEXPAX@Z 03039e00 f   MQ2Pulse.obj
 0001:00038e20       ?SetGameState_Trampoline@CEverQuestHook@@QAEXK@Z 03039e20 f   MQ2Pulse.obj
 0001:00038e40       _ShutdownMQ2Pulse          03039e40 f   MQ2Pulse.obj
 0001:00038e70       ?Detour_ProcessGameEvents@@YAHXZ 03039e70 f   MQ2Pulse.obj
 0001:00038e80       ?EnterZone_Detour@CEverQuestHook@@QAEXPAX@Z 03039e80 f i MQ2Pulse.obj
 0001:00038ea0       ?SetGameState_Detour@CEverQuestHook@@QAEXK@Z 03039ea0 f i MQ2Pulse.obj
 0001:00038ed0       _InitializeMQ2Pulse        03039ed0 f   MQ2Pulse.obj
 0001:000394e0       ?AddGroundItem@@YAXXZ      0303a4e0 f   MQ2Spawns.obj
 0001:00039530       ?RemoveGroundItem@@YAXPAU_GROUNDITEM@EQData@@@Z 0303a530 f   MQ2Spawns.obj
 0001:000395b0       ?EQItemList_Trampoline@EQItemListHook@@QAEXXZ 0303a5b0 f   MQ2Spawns.obj
 0001:000395d0       ?dEQItemList_Trampoline@EQItemListHook@@QAEXXZ 0303a5d0 f   MQ2Spawns.obj
 0001:000395f0       ?EQPlayer_ExtraDetour@EQPlayerHook@@QAEXPAU_SPAWNINFO@EQData@@@Z 0303a5f0 f i MQ2Spawns.obj
 0001:00039620       ?CanSetName@CActorEx@@QAE_NK@Z 0303a620 f   MQ2Spawns.obj
 0001:00039630       ?SetNameColor@CActorEx@@QAEXAAK@Z 0303a630 f   MQ2Spawns.obj
 0001:00039640       ?ChangeBoneStringSprite@CActorEx@@QAEXHHPAD@Z 0303a640 f   MQ2Spawns.obj
 0001:00039650       ?SetNameSpriteTint_Trampoline@EQPlayerHook@@QAE_NXZ 0303a650 f   MQ2Spawns.obj
 0001:00039670       ?SetNameSpriteState_Trampoline@EQPlayerHook@@QAEH_N@Z 0303a670 f   MQ2Spawns.obj
 0001:00039690       ?dEQPlayer_Trampoline@EQPlayerHook@@QAEXXZ 0303a690 f   MQ2Spawns.obj
 0001:000396b0       ?EQPlayer_Trampoline@EQPlayerHook@@QAEXKKKKKKK@Z 0303a6b0 f   MQ2Spawns.obj
 0001:000396d0       _ShutdownMQ2Spawns         0303a6d0 f   MQ2Spawns.obj
 0001:000397a0       _ProcessPendingGroundItems 0303a7a0 f   MQ2Spawns.obj
 0001:00039800       _CaptionColorCmd           0303a800 f   MQ2Spawns.obj
 0001:00039bc0       ?EQItemList_Detour@EQItemListHook@@QAEXXZ 0303abc0 f i MQ2Spawns.obj
 0001:00039bf0       ?dEQItemList_Detour@EQItemListHook@@QAEXXZ 0303abf0 f i MQ2Spawns.obj
 0001:00039c10       ?EQPlayer_Detour@EQPlayerHook@@QAEXKKKKKKK@Z 0303ac10 f i MQ2Spawns.obj
 0001:00039c50       ?dEQPlayer_Detour@EQPlayerHook@@QAEXXZ 0303ac50 f i MQ2Spawns.obj
 0001:00039c70       ?SetNameSpriteState_Detour@EQPlayerHook@@QAEH_N@Z 0303ac70 f i MQ2Spawns.obj
 0001:00039ca0       ?SetNameSpriteTint_Detour@EQPlayerHook@@QAE_NXZ 0303aca0 f i MQ2Spawns.obj
 0001:00039cc0       ?SetNameSpriteTint@@YAXPAU_SPAWNINFO@EQData@@@Z 0303acc0 f   MQ2Spawns.obj
 0001:0003a020       _SetNameSpriteState        0303b020 f   MQ2Spawns.obj
 0001:0003a240       ?UpdateSpawnCaptions@@YAXXZ 0303b240 f   MQ2Spawns.obj
 0001:0003a2b0       _InitializeMQ2Spawns       0303b2b0 f   MQ2Spawns.obj
 0001:0003a580       _UpdateMQ2SpawnSort        0303b580 f   MQ2Spawns.obj
 0001:0003a6f0       ?abs@@YAJJ@Z               0303b6f0 f i MQ2Utilities.obj
 0001:0003a700       ?abs@@YAMM@Z               0303b700 f i MQ2Utilities.obj
 0001:0003ac40       _DebugSpew                 0303bc40 f   MQ2Utilities.obj
 0001:0003acb0       _WriteChatf                0303bcb0 f   MQ2Utilities.obj
 0001:0003ad00       _DebugSpewAlways           0303bd00 f   MQ2Utilities.obj
 0001:0003ade0       _DebugSpewNoFile           0303bde0 f   MQ2Utilities.obj
 0001:0003ae40       ?StrReplaceSection@@YAXPADK0@Z 0303be40 f   MQ2Utilities.obj
 0001:0003aea0       _ConvertCR                 0303bea0 f   MQ2Utilities.obj
 0001:0003aee0       ?Flavorator@@YAXPAD@Z      0303bee0 f   MQ2Utilities.obj
 0001:0003afd0       _SyntaxError               0303bfd0 f   MQ2Utilities.obj
 0001:0003b0c0       _MacroError                0303c0c0 f   MQ2Utilities.obj
 0001:0003b220       _FatalError                0303c220 f   MQ2Utilities.obj
 0001:0003b370       _MQ2DataError              0303c370 f   MQ2Utilities.obj
 0001:0003b4f0       _FixStringTable            0303c4f0 f   MQ2Utilities.obj
 0001:0003b540       _GetNextArg                0303c540 f   MQ2Utilities.obj
 0001:0003b610       _GetArg                    0303c610 f   MQ2Utilities.obj
 0001:0003b740       _GetEQPath                 0303c740 f   MQ2Utilities.obj
 0001:0003b7a0       _ConvertItemTags           0303c7a0 f   MQ2Utilities.obj
 0001:0003b7c0       _AppendCXStr               0303c7c0 f   MQ2Utilities.obj
 0001:0003b7d0       _SetCXStr                  0303c7d0 f   MQ2Utilities.obj
 0001:0003b7e0       _GetCXStr                  0303c7e0 f   MQ2Utilities.obj
 0001:0003b870       _StripMQChat               0303c870 f   MQ2Utilities.obj
 0001:0003b8c0       _MQToSTML                  0303c8c0 f   MQ2Utilities.obj
 0001:0003bcb0       _GetFilenameFromFullPath   0303ccb0 f   MQ2Utilities.obj
 0001:0003bd00       _GetSubFromLine            0303cd00 f   MQ2Utilities.obj
 0001:0003bd60       _CompareTimes              0303cd60 f   MQ2Utilities.obj
 0001:0003bda0       _AddFilter                 0303cda0 f   MQ2Utilities.obj
 0001:0003be10       _DefaultFilters            0303ce10 f   MQ2Utilities.obj
 0001:0003c000       _ConvertHotkeyNameToKeyName 0303d000 f   MQ2Utilities.obj
 0001:0003c060       _GetFullZone               0303d060 f   MQ2Utilities.obj
 0001:0003c090       _GetShortZone              0303d090 f   MQ2Utilities.obj
 0001:0003c0c0       _GetZoneID                 0303d0c0 f   MQ2Utilities.obj
 0001:0003c130       _GetGameTime               0303d130 f   MQ2Utilities.obj
 0001:0003c180       _GetGameDate               0303d180 f   MQ2Utilities.obj
 0001:0003c1e0       _GetLanguageIDByName       0303d1e0 f   MQ2Utilities.obj
 0001:0003c470       _GetSpellNameByID          0303d470 f   MQ2Utilities.obj
 0001:0003c4a0       _GetSpellByName            0303d4a0 f   MQ2Utilities.obj
 0001:0003c540       _GetSpellDuration          0303d540 f   MQ2Utilities.obj
 0001:0003c7d0       _GetDeityTeamByID          0303d7d0 f   MQ2Utilities.obj
 0001:0003c820       _GetGuildByID              0303d820 f   MQ2Utilities.obj
 0001:0003c840       _GetGuildIDByName          0303d840 f   MQ2Utilities.obj
 0001:0003c8a0       _GetLightForSpawn          0303d8a0 f   MQ2Utilities.obj
 0001:0003c8d0       _DistanceToSpawn3D         0303d8d0 f   MQ2Utilities.obj
 0001:0003c930       _EstimatedDistanceToSpawn  0303d930 f   MQ2Utilities.obj
 0001:0003c9d0       _ConColor                  0303d9d0 f   MQ2Utilities.obj
 0001:0003ca50       _GetEnviroContainer        0303da50 f   MQ2Utilities.obj
 0001:0003ca70       _FindContainerForContents  0303da70 f   MQ2Utilities.obj
 0001:0003cac0       _FindSpeed                 0303dac0 f   MQ2Utilities.obj
 0001:0003cb00       _GetItemLinkHash           0303db00 f   MQ2Utilities.obj
 0001:0003cb20       _GetItemLink               0303db20 f   MQ2Utilities.obj
 0001:0003cb80       _GetLoginName              0303db80 f   MQ2Utilities.obj
 0001:0003cc60       _STMLToPlainText           0303dc60 f   MQ2Utilities.obj
 0001:0003cde0       ?ClearSearchItem@@YAXAAU_SEARCHITEM@MQ2Internal@@@Z 0303dde0 f   MQ2Utilities.obj
 0001:0003ce00       ?ItemMatchesSearch@@YAHAAU_SEARCHITEM@MQ2Internal@@PAU_CONTENTS@EQData@@@Z 0303de00 f   MQ2Utilities.obj
 0001:0003d030       ?SearchThroughItems@@YAHAAU_SEARCHITEM@MQ2Internal@@PAPAU_CONTENTS@EQData@@PAK@Z 0303e030 f   MQ2Utilities.obj
 0001:0003d1f0       _ClearSearchSpawn          0303e1f0 f   MQ2Utilities.obj
 0001:0003d240       _DistanceToPoint           0303e240 f   MQ2Utilities.obj
 0001:0003d280       ?GetSpellEffectName@@YAPADJPAD@Z 0303e280 f   MQ2Utilities.obj
 0001:0003daa0       _SlotValueCalculate        0303eaa0 f   MQ2Utilities.obj
 0001:0003e4e0       _FindMappableCommand       0303f4e0 f   MQ2Utilities.obj
 0001:0003e520       _DisplayOverlayText        0303f520 f   MQ2Utilities.obj
 0001:0003e590       _ParseKeyCombo             0303f590 f   MQ2Utilities.obj
 0001:0003e6f0       _DescribeKeyCombo          0303f6f0 f   MQ2Utilities.obj
 0001:0003e7a0       _LoadCfgFile               0303f7a0 f   MQ2Utilities.obj
 0001:0003e990       _FindInvSlotForContents    0303f990 f   MQ2Utilities.obj
 0001:0003eaf0       _FindInvSlot               0303faf0 f   MQ2Utilities.obj
 0001:0003ec60       _FindNextInvSlot           0303fc60 f   MQ2Utilities.obj
 0001:0003ede0       ?EvaluateRPN@@YAHPAU_CalcOp@@HAAN@Z 0303fde0 f   MQ2Utilities.obj
 0001:0003f2e0       ?FastCalculate@@YAHPADAAN@Z 030402e0 f   MQ2Utilities.obj
 0001:00040450       _Calculate                 03041450 f   MQ2Utilities.obj
 0001:00040580       _PlayerHasAAAbility        03041580 f   MQ2Utilities.obj
 0001:000405b0       _GetAAIndexByName          030415b0 f   MQ2Utilities.obj
 0001:00040620       _GetAAIndexByID            03041620 f   MQ2Utilities.obj
 0001:00040660       _IsInGroup                 03041660 f   MQ2Utilities.obj
 0001:00040730       _IsInRaid                  03041730 f   MQ2Utilities.obj
 0001:000407c0       _IsNamed                   030417c0 f   MQ2Utilities.obj
 0001:00040920       _FormatSearchSpawn         03041920 f   MQ2Utilities.obj
 0001:00041030       _ParseSearchSpawnArgs      03042030 f   MQ2Utilities.obj
 0001:00041be0       _ParseSearchSpawn          03042be0 f   MQ2Utilities.obj
 0001:00041cc0       _GetAlert                  03042cc0 f   MQ2Utilities.obj
 0001:00041cf0       _AddNewAlertList           03042cf0 f   MQ2Utilities.obj
 0001:00041d30       _FreeAlertList             03042d30 f   MQ2Utilities.obj
 0001:00041d70       _FreeAlerts                03042d70 f   MQ2Utilities.obj
 0001:00041e10       _IsAlert                   03042e10 f   MQ2Utilities.obj
 0001:00041ec0       _CheckAlertForRecursion    03042ec0 f   MQ2Utilities.obj
 0001:00042020       _CleanupName               03043020 f   MQ2Utilities.obj
 0001:00042200       ?SuperWhoDisplay@@YAXPAU_SPAWNINFO@EQData@@K@Z 03043200 f   MQ2Utilities.obj
 0001:00042fa0       _pWHOSORTCompare           03043fa0 f   MQ2Utilities.obj
 0001:000431c0       _thrMsgBox@4               030441c0 f   MQ2Utilities.obj
 0001:000431f0       _StateHeightMultiplier     030441f0 f   MQ2Utilities.obj
 0001:00043250       _FindSpellListByName       03044250 f   MQ2Utilities.obj
 0001:00043290       _RewriteAliases            03044290 f   MQ2Utilities.obj
 0001:000432e0       _RewriteSubstitutions      030442e0 f   MQ2Utilities.obj
 0001:00043330       _GetFriendlyNameForGroundItem 03044330 f   MQ2Utilities.obj
 0001:00043430       _GetModel                  03044430 f   MQ2Utilities.obj
 0001:00043490       _SetDisplaySWhoFilter      03044490 f   MQ2Utilities.obj
 0001:00043570       _WriteFilterNames          03044570 f   MQ2Utilities.obj
 0001:00043610       _GetShortBuffID            03044610 f   MQ2Utilities.obj
 0001:00043650       _GetBuffID                 03044650 f   MQ2Utilities.obj
 0001:00043690       _GetLDoNTheme              03044690 f   MQ2Utilities.obj
 0001:000436e0       _GetItemTimer              030446e0 f   MQ2Utilities.obj
 0001:00043710       _GetItemContentsBySlotID   03044710 f   MQ2Utilities.obj
 0001:00043770       _GetItemContentsByName     03044770 f   MQ2Utilities.obj
 0001:00043880       _GetParentWnd              03044880 f   MQ2Utilities.obj
 0001:000438a0       _LoH_HT_Ready              030448a0 f   MQ2Utilities.obj
 0001:000438d0       _GetSkillIDFromName        030448d0 f   MQ2Utilities.obj
 0001:00043920       _InHoverState              03044920 f   MQ2Utilities.obj
 0001:00043940       _GetGameState              03044940 f   MQ2Utilities.obj
 0001:00043960       _BuffStackTest             03044960 f   MQ2Utilities.obj
 0001:00043b30       _GetMeleeRange             03044b30 f   MQ2Utilities.obj
 0001:00043bf0       _AttackRanged              03044bf0 f   MQ2Utilities.obj
 0001:00043c20       _UseAbility                03044c20 f   MQ2Utilities.obj
 0001:00043e30       ??0?$CIndex@PAU_MQRANK@MQ2Internal@@@MQ2Internal@@QAE@XZ 03044e30 f i MQ2Utilities.obj
 0001:00043e50       ??1?$CIndex@PAU_MQRANK@MQ2Internal@@@MQ2Internal@@QAE@XZ 03044e50 f i MQ2Utilities.obj
 0001:00043e90       ?Cleanup@?$CIndex@PAU_MQRANK@MQ2Internal@@@MQ2Internal@@QAEXXZ 03044e90 f i MQ2Utilities.obj
 0001:00043ed0       ??A?$CIndex@PAU_MQRANK@MQ2Internal@@@MQ2Internal@@QAEAAPAU_MQRANK@1@K@Z 03044ed0 f i MQ2Utilities.obj
 0001:00043ee0       ??0?$CIndex@PAU_SPAWNINFO@EQData@@@MQ2Internal@@QAE@XZ 03044ee0 f i MQ2Utilities.obj
 0001:00043f00       ??1?$CIndex@PAU_SPAWNINFO@EQData@@@MQ2Internal@@QAE@XZ 03044f00 f i MQ2Utilities.obj
 0001:00043f40       ??A?$CIndex@PAU_SPAWNINFO@EQData@@@MQ2Internal@@QAEAAPAU_SPAWNINFO@EQData@@K@Z 03044f40 f i MQ2Utilities.obj
 0001:00043f50       ?Resize@?$CIndex@PAU_MQRANK@MQ2Internal@@@MQ2Internal@@QAEXK@Z 03044f50 f i MQ2Utilities.obj
 0001:00044000       ?Resize@?$CIndex@PAU_SPAWNINFO@EQData@@@MQ2Internal@@QAEXK@Z 03045000 f i MQ2Utilities.obj
 0001:000440b0       _ShowSpellSlotInfo         030450b0 f   MQ2Utilities.obj
 0001:0004b6f0       _IsPCNear                  0304c6f0 f   MQ2Utilities.obj
 0001:0004b790       ?GetUnused@?$CIndex@PAU_MQRANK@MQ2Internal@@@MQ2Internal@@QAEKXZ 0304c790 f i MQ2Utilities.obj
 0001:0004b7e0       ?GetUnused@?$CIndex@PAU_SPAWNINFO@EQData@@@MQ2Internal@@QAEKXZ 0304c7e0 f i MQ2Utilities.obj
 0001:0004b830       ??Y?$CIndex@PAU_MQRANK@MQ2Internal@@@MQ2Internal@@QAEAAPAU_MQRANK@1@AAPAU21@@Z 0304c830 f i MQ2Utilities.obj
 0001:0004b850       ??Y?$CIndex@PAU_SPAWNINFO@EQData@@@MQ2Internal@@QAEAAPAU_SPAWNINFO@EQData@@AAPAU23@@Z 0304c850 f i MQ2Utilities.obj
 0001:0004b870       _NthNearestSpawn           0304c870 f   MQ2Utilities.obj
 0001:0004ba10       _SearchThroughSpawns       0304ca10 f   MQ2Utilities.obj
 0001:0004bb00       _GetClosestAlert           0304cb00 f   MQ2Utilities.obj
 0001:0004bbc0       _SpawnMatchesSearch        0304cbc0 f   MQ2Utilities.obj
 0001:0004c180       ?SuperWhoDisplay@@YAXPAU_SPAWNINFO@EQData@@PAU_SEARCHSPAWN@MQ2Internal@@K@Z 0304d180 f   MQ2Utilities.obj
 0001:0004c4a0       _CountMatchingSpawns       0304d4a0 f   MQ2Utilities.obj
 0001:0004c550       ?Init_Trampoline@CSidlInitHook@@QAEXPAVCXStr@EQClasses@@H@Z 0304d550 f   MQ2Windows.obj
 0001:0004c570       ?RemoveWnd_Trampoline@CXWndManagerHook@@QAEHPAVCXWnd@EQClasses@@@Z 0304d570 f   MQ2Windows.obj
 0001:0004c590       ?XMLRead_Trampoline@CXMLSOMDocumentBaseHook@@QAEHPAVCXStr@EQClasses@@00@Z 0304d590 f   MQ2Windows.obj
 0001:0004c5b0       ?GenerateMQUI@@YA_NXZ      0304d5b0 f   MQ2Windows.obj
 0001:0004ca10       ?DestroyMQUI@@YAXXZ        0304da10 f   MQ2Windows.obj
 0001:0004cb20       _AddXMLFile                0304db20 f   MQ2Windows.obj
 0001:0004cd10       _RemoveXMLFile             0304dd10 f   MQ2Windows.obj
 0001:0004cd90       _SendWndClick2             0304dd90 f   MQ2Windows.obj
 0001:0004cf50       ?RecurseAndListWindows@@YAHPAU_CSIDLWND@EQUIStructs@@@Z 0304df50 f   MQ2Windows.obj
 0001:0004d030       ?ListItemSlots@@YAXPAU_SPAWNINFO@EQData@@PAD@Z 0304e030 f   MQ2Windows.obj
 0001:0004d0b0       ??1?$CIndex@PAU_WindowInfo@@@MQ2Internal@@QAE@XZ 0304e0b0 f i MQ2Windows.obj
 0001:0004d0f0       ?Cleanup@?$CIndex@PAU_WindowInfo@@@MQ2Internal@@QAEXXZ 0304e0f0 f i MQ2Windows.obj
 0001:0004d130       ??A?$CIndex@PAU_WindowInfo@@@MQ2Internal@@QAEAAPAU_WindowInfo@@K@Z 0304e130 f i MQ2Windows.obj
 0001:0004d140       ?Resize@?$CIndex@PAU_WindowInfo@@@MQ2Internal@@QAEXK@Z 0304e140 f i MQ2Windows.obj
 0001:0004d1f0       ?XMLRead@CXMLSOMDocumentBaseHook@@QAEHPAVCXStr@EQClasses@@00@Z 0304e1f0 f i MQ2Windows.obj
 0001:0004d2c0       _ShutdownMQ2Windows        0304e2c0 f   MQ2Windows.obj
 0001:0004d320       ??0?$CIndex@PAU_WindowInfo@@@MQ2Internal@@QAE@K@Z 0304e320 f i MQ2Windows.obj
 0001:0004d350       ?GetUnused@?$CIndex@PAU_WindowInfo@@@MQ2Internal@@QAEKXZ 0304e350 f i MQ2Windows.obj
 0001:0004d3a0       ?Init_Detour@CSidlInitHook@@QAEXPAVCXStr@EQClasses@@H@Z 0304e3a0 f i MQ2Windows.obj
 0001:0004d610       ?RemoveWnd_Detour@CXWndManagerHook@@QAEHPAVCXWnd@EQClasses@@@Z 0304e610 f i MQ2Windows.obj
 0001:0004d800       _FindMQ2Window             0304e800 f   MQ2Windows.obj
 0001:0004db30       _SendWndClick              0304eb30 f   MQ2Windows.obj
 0001:0004dd30       _SendListSelect            0304ed30 f   MQ2Windows.obj
 0001:0004dde0       ?SendTabSelect@@YA_NPAD0K@Z 0304ede0 f   MQ2Windows.obj
 0001:0004de80       _SendWndNotification       0304ee80 f   MQ2Windows.obj
 0001:0004df60       _AddWindow                 0304ef60 f   MQ2Windows.obj
 0001:0004e1a0       _RemoveWindow              0304f1a0 f   MQ2Windows.obj
 0001:0004e350       ?ListWindows@@YAXPAU_SPAWNINFO@EQData@@PAD@Z 0304f350 f   MQ2Windows.obj
 0001:0004e5d0       ?WndNotify@@YAXPAU_SPAWNINFO@EQData@@PAD@Z 0304f5d0 f   MQ2Windows.obj
 0001:0004e8d0       ?ItemNotify@@YAXPAU_SPAWNINFO@EQData@@PAD@Z 0304f8d0 f   MQ2Windows.obj
 0001:0004eca0       _InitializeMQ2Windows      0304fca0 f   MQ2Windows.obj
 0001:0004f54c       _PlaySoundA@12             0305054c f   winmm:WINMM.dll
 0001:0004f552       _EnterCriticalSection@4    03050552 f   kernel32:KERNEL32.dll
 0001:0004f558       _LeaveCriticalSection@4    03050558 f   kernel32:KERNEL32.dll
 0001:0004f55e       _DeleteCriticalSection@4   0305055e f   kernel32:KERNEL32.dll
 0001:0004f564       _GetTickCount@0            03050564 f   kernel32:KERNEL32.dll
 0001:0004f56a       _InitializeCriticalSection@4 0305056a f   kernel32:KERNEL32.dll
 0001:0004f570       _GetProcAddress@8          03050570 f   kernel32:KERNEL32.dll
 0001:0004f576       _GetModuleHandleA@4        03050576 f   kernel32:KERNEL32.dll
 0001:0004f57c       _GetPrivateProfileStringA@24 0305057c f   kernel32:KERNEL32.dll
 0001:0004f582       _FindClose@4               03050582 f   kernel32:KERNEL32.dll
 0001:0004f588       _FindNextFileA@8           03050588 f   kernel32:KERNEL32.dll
 0001:0004f58e       _FindFirstFileA@8          0305058e f   kernel32:KERNEL32.dll
 0001:0004f594       _Beep@8                    03050594 f   kernel32:KERNEL32.dll
 0001:0004f59a       _WritePrivateProfileStringA@16 0305059a f   kernel32:KERNEL32.dll
 0001:0004f5a0       _CreateThread@24           030505a0 f   kernel32:KERNEL32.dll
 0001:0004f5a6       _OutputDebugStringA@4      030505a6 f   kernel32:KERNEL32.dll
 0001:0004f5ac       _FileTimeToSystemTime@8    030505ac f   kernel32:KERNEL32.dll
 0001:0004f5b2       _WriteProcessMemory@20     030505b2 f   kernel32:KERNEL32.dll
 0001:0004f5b8       _VirtualProtectEx@20       030505b8 f   kernel32:KERNEL32.dll
 0001:0004f5be       _GetCurrentProcess@0       030505be f   kernel32:KERNEL32.dll
 0001:0004f5c4       _GetPrivateProfileIntA@16  030505c4 f   kernel32:KERNEL32.dll
 0001:0004f5ca       _Sleep@4                   030505ca f   kernel32:KERNEL32.dll
 0001:0004f5d0       _GetModuleFileNameA@12     030505d0 f   kernel32:KERNEL32.dll
 0001:0004f5d6       _FreeLibrary@4             030505d6 f   kernel32:KERNEL32.dll
 0001:0004f5dc       _LoadLibraryA@4            030505dc f   kernel32:KERNEL32.dll
 0001:0004f5e2       _WritePrivateProfileSectionA@12 030505e2 f   kernel32:KERNEL32.dll
 0001:0004f5e8       _CallNextHookEx@16         030505e8 f   user32:USER32.dll
 0001:0004f5ee       _MessageBoxA@16            030505ee f   user32:USER32.dll
 0001:0004f5f4       _SetWindowsHookExA@16      030505f4 f   user32:USER32.dll
 0001:0004f5fa       _UnhookWindowsHookEx@4     030505fa f   user32:USER32.dll
 0001:0004f600       _ShellExecuteA@24          03050600 f   shell32:SHELL32.dll
 0001:0004f606       ??0invalid_argument@std@@QAE@ABV?$basic_string@DU?$char_traits@D@std@@V?$allocator@D@2@@1@@Z 03050606 f i libcpmt:string.obj
 0001:0004f623       ??1invalid_argument@std@@UAE@XZ 03050623 f i libcpmt:string.obj
 0001:0004f62e       ??_Einvalid_argument@std@@UAEPAXI@Z 0305062e f i libcpmt:string.obj
 0001:0004f62e       ??_Ginvalid_argument@std@@UAEPAXI@Z 0305062e f i libcpmt:string.obj
 0001:0004f655       ?_Xlen@_String_base@std@@SAXXZ 03050655 f   libcpmt:string.obj
 0001:0004f68d       ?_Xran@_String_base@std@@SAXXZ 0305068d f   libcpmt:string.obj
 0001:0004f6c5       ?_Xinvarg@_String_base@std@@SAXXZ 030506c5 f   libcpmt:string.obj
 0001:0004f6fd       ??0invalid_argument@std@@QAE@ABV01@@Z 030506fd f i libcpmt:string.obj
 0001:0004f720       _DetourRemove@8            03050720 f   detours:detours.obj
 0001:0004f880       ??0CDetourEnableWriteOnCodePage@@QAE@PAEJ@Z 03050880 f i detours:detours.obj
 0001:0004f900       ??1CDetourEnableWriteOnCodePage@@QAE@XZ 03050900 f i detours:detours.obj
 0001:0004f970       _DetourFunction@8          03050970 f   detours:detours.obj
 0001:0004fc60       ?SetPermission@CDetourEnableWriteOnCodePage@@QAEHK@Z 03050c60 f i detours:detours.obj
 0001:0004fca0       ?IsValid@CDetourEnableWriteOnCodePage@@QAEHXZ 03050ca0 f i detours:detours.obj
 0001:0004fd40       ?DetourGenJmp@@YAPAEPAE00@Z 03050d40 f i detours:detours.obj
 0001:0004fd80       ?DetourGenBreak@@YAPAEPAE@Z 03050d80 f i detours:detours.obj
 0001:0004fda0       _DetourFunctionWithEmptyTrampoline@12 03050da0 f   detours:detours.obj
 0001:0004fdc0       _DetourFunctionWithEmptyTrampolineEx@24 03050dc0 f   detours:detours.obj
 0001:0004fe70       _DetourFunctionWithTrampoline@8 03050e70 f   detours:detours.obj
 0001:0004fe90       _DetourFunctionWithTrampolineEx@16 03050e90 f   detours:detours.obj
 0001:0004ff80       ?DetourLoadImageHlp@@YAPAU_DETOUR_SYM_INFO@@XZ 03050f80 f   detours:detours.obj
 0001:00050140       _DetourGetFinalCode@8      03051140 f   detours:detours.obj
 0001:000501b0       _DetourFindFunction@8      030511b0 f   detours:detours.obj
 0001:00050350       _DetourEnumerateModules@4  03051350 f   detours:detours.obj
 0001:00050460       _DetourGetEntryPoint@4     03051460 f   detours:detours.obj
 0001:00050590       _DetourEnumerateExports@12 03051590 f   detours:detours.obj
 0001:000507f0       _DetourGetSizeOfPayloads@4 030517f0 f   detours:detours.obj
 0001:00050aa0       _DetourFindPayload@12      03051aa0 f   detours:detours.obj
 0001:00050c00       _==                        03051c00 f i detours:detours.obj
 0001:00050c20       _IsEqualGUID               03051c20 f i detours:detours.obj
 0001:00050c40       _DetourCopyInstructionEx@16 03051c40 f   detours:disasm.obj
 0001:00050c70       _DetourCopyInstruction@12  03051c70 f   detours:disasm.obj
 0001:00050ca0       ??0CDetourDis@@QAE@PAPAEPAJ@Z 03051ca0 f   detours:disasm.obj
 0001:00050d20       ?Set16BitOperand@CDetourDis@@IAEXXZ 03051d20 f   detours:disasm.obj
 0001:00050d40       ?Set32BitOperand@CDetourDis@@IAEXXZ 03051d40 f   detours:disasm.obj
 0001:00050d60       ?Set16BitAddress@CDetourDis@@IAEXXZ 03051d60 f   detours:disasm.obj
 0001:00050d80       ?Set32BitAddress@CDetourDis@@IAEXXZ 03051d80 f   detours:disasm.obj
 0001:00050da0       ?CopyInstruction@CDetourDis@@QAEPAEPAE0@Z 03051da0 f   detours:disasm.obj
 0001:00050e00       ?CopyBytes@CDetourDis@@IAEPAEPBUCOPYENTRY@1@PAE1@Z 03051e00 f   detours:disasm.obj
 0001:00050fd0       ?CopyBytesPrefix@CDetourDis@@IAEPAEPBUCOPYENTRY@1@PAE1@Z 03051fd0 f   detours:disasm.obj
 0001:00051020       ?AdjustTarget@CDetourDis@@IAEPAEPAE0JJ@Z 03052020 f   detours:disasm.obj
 0001:00051100       ?Invalid@CDetourDis@@IAEPAEPBUCOPYENTRY@1@PAE1@Z 03052100 f   detours:disasm.obj
 0001:00051120       ?Copy0F@CDetourDis@@IAEPAEPBUCOPYENTRY@1@PAE1@Z 03052120 f   detours:disasm.obj
 0001:00051170       ?Copy66@CDetourDis@@IAEPAEPBUCOPYENTRY@1@PAE1@Z 03052170 f   detours:disasm.obj
 0001:000511a0       ?Copy67@CDetourDis@@IAEPAEPBUCOPYENTRY@1@PAE1@Z 030521a0 f   detours:disasm.obj
 0001:000511d0       ?CopyF6@CDetourDis@@IAEPAEPBUCOPYENTRY@1@PAE1@Z 030521d0 f   detours:disasm.obj
 0001:00051230       ?CopyF7@CDetourDis@@IAEPAEPBUCOPYENTRY@1@PAE1@Z 03052230 f   detours:disasm.obj
 0001:00051290       ?CopyFF@CDetourDis@@IAEPAEPBUCOPYENTRY@1@PAE1@Z 03052290 f   detours:disasm.obj
 0001:00051340       ?SanityCheckSystem@CDetourDis@@SAHXZ 03052340 f   detours:disasm.obj
 0001:000513f0       _memset                    030523f0 f   LIBCMT:memset.obj
 0001:0005146a       _free                      0305246a f   LIBCMT:free.obj
 0001:000514f8       ??3@YAXPAX@Z               030524f8 f   LIBCMT:delete.obj
 0001:00051503       _V6_HeapAlloc              03052503 f   LIBCMT:malloc.obj
 0001:00051552       __heap_alloc               03052552 f i LIBCMT:malloc.obj
 0001:000515cc       _malloc                    030525cc f   LIBCMT:malloc.obj
 0001:000516a0       _memcpy                    030526a0 f   LIBCMT:memcpy.obj
 0001:00051a05       _sprintf                   03052a05 f   LIBCMT:sprintf.obj
 0001:00051a82       __sprintf_l                03052a82 f   LIBCMT:sprintf.obj
 0001:00051a9e       _sprintf_s                 03052a9e f   LIBCMT:sprintf.obj
 0001:00051abc       __sprintf_s_l              03052abc f   LIBCMT:sprintf.obj
 0001:00051adb       __snprintf_s               03052adb f   LIBCMT:sprintf.obj
 0001:00051afc       __snprintf_s_l             03052afc f   LIBCMT:sprintf.obj
 0001:00051b1e       __sprintf_p                03052b1e f   LIBCMT:sprintf.obj
 0001:00051b3c       __sprintf_p_l              03052b3c f   LIBCMT:sprintf.obj
 0001:00051b5b       __scprintf                 03052b5b f   LIBCMT:sprintf.obj
 0001:00051b70       __scprintf_p               03052b70 f   LIBCMT:sprintf.obj
 0001:00051b85       __scprintf_l               03052b85 f   LIBCMT:sprintf.obj
 0001:00051b9e       __scprintf_p_l             03052b9e f   LIBCMT:sprintf.obj
 0001:00051bb7       __fpclear                  03052bb7 f   LIBCMT:_fpinit_.obj
 0001:00051bb8       __cfltcvt_init             03052bb8 f   LIBCMT:_fpinit_.obj
 0001:00051c18       ___setfflag                03052c18 f   LIBCMT:_fpinit_.obj
 0001:00051c2d       __fpmath                   03052c2d f   LIBCMT:_fpinit_.obj
 0001:00051c50       ??0bad_alloc@std@@QAE@XZ   03052c50 f i LIBCMT:new.obj
 0001:00051c6b       ??2@YAPAXI@Z               03052c6b f   LIBCMT:new.obj
 0001:00051cd0       _strstr                    03052cd0 f   LIBCMT:strstr.obj
 0001:00051d56       ??0exception@std@@QAE@XZ   03052d56 f   LIBCMT:stdexcpt.obj
 0001:00051d67       ??0exception@std@@QAE@ABQBD@Z 03052d67 f   LIBCMT:stdexcpt.obj
 0001:00051dba       ??0exception@std@@QAE@ABQBDH@Z 03052dba f   LIBCMT:stdexcpt.obj
 0001:00051dd7       ??0exception@std@@QAE@ABV01@@Z 03052dd7 f   LIBCMT:stdexcpt.obj
 0001:00051e34       ??4exception@std@@QAEAAV01@ABV01@@Z 03052e34 f   LIBCMT:stdexcpt.obj
 0001:00051e8f       ??1exception@std@@UAE@XZ   03052e8f f   LIBCMT:stdexcpt.obj
 0001:00051ea5       ?what@exception@std@@UBEPBDXZ 03052ea5 f   LIBCMT:stdexcpt.obj
 0001:00051eb2       ??0bad_cast@std@@QAE@PBD@Z 03052eb2 f   LIBCMT:stdexcpt.obj
 0001:00051ed0       ??0bad_cast@std@@QAE@ABV01@@Z 03052ed0 f   LIBCMT:stdexcpt.obj
 0001:00051eed       ??1bad_cast@std@@UAE@XZ    03052eed f   LIBCMT:stdexcpt.obj
 0001:00051ef8       ??0bad_typeid@std@@QAE@PBD@Z 03052ef8 f   LIBCMT:stdexcpt.obj
 0001:00051f16       ??0bad_typeid@std@@QAE@ABV01@@Z 03052f16 f   LIBCMT:stdexcpt.obj
 0001:00051f33       ??1bad_typeid@std@@UAE@XZ  03052f33 f   LIBCMT:stdexcpt.obj
 0001:00051f3e       ??0__non_rtti_object@std@@QAE@PBD@Z 03052f3e f   LIBCMT:stdexcpt.obj
 0001:00051f5b       ??0__non_rtti_object@std@@QAE@ABV01@@Z 03052f5b f   LIBCMT:stdexcpt.obj
 0001:00051f78       ??1__non_rtti_object@std@@UAE@XZ 03052f78 f   LIBCMT:stdexcpt.obj
 0001:00051f83       ??_Eexception@std@@UAEPAXI@Z 03052f83 f i LIBCMT:stdexcpt.obj
 0001:00051f83       ??_Gexception@std@@UAEPAXI@Z 03052f83 f i LIBCMT:stdexcpt.obj
 0001:00051fa4       ??_Gbad_cast@std@@UAEPAXI@Z 03052fa4 f i LIBCMT:stdexcpt.obj
 0001:00051fa4       ??_Ebad_cast@std@@UAEPAXI@Z 03052fa4 f i LIBCMT:stdexcpt.obj
 0001:00051fcb       ??_Gbad_typeid@std@@UAEPAXI@Z 03052fcb f i LIBCMT:stdexcpt.obj
 0001:00051fcb       ??_Ebad_typeid@std@@UAEPAXI@Z 03052fcb f i LIBCMT:stdexcpt.obj
 0001:00051ff2       ??_E__non_rtti_object@std@@UAEPAXI@Z 03052ff2 f i LIBCMT:stdexcpt.obj
 0001:00051ff2       ??_G__non_rtti_object@std@@UAEPAXI@Z 03052ff2 f i LIBCMT:stdexcpt.obj
 0001:00052019       ?name@type_info@@QBEPBDPAU__type_info_node@@@Z 03053019 f   LIBCMT:typinfo.obj
 0001:0005202d       ??1type_info@@UAE@XZ       0305302d f   LIBCMT:typinfo.obj
 0001:0005203d       ??_Gtype_info@@UAEPAXI@Z   0305303d f i LIBCMT:typinfo.obj
 0001:0005203d       ??_Etype_info@@UAEPAXI@Z   0305303d f i LIBCMT:typinfo.obj
 0001:0005205e       ?_name_internal_method@type_info@@QBEPBDPAU__type_info_node@@@Z 0305305e f   LIBCMT:typinfo.obj
 0001:00052072       ?_type_info_dtor_internal_method@type_info@@QAEXXZ 03053072 f   LIBCMT:typinfo.obj
 0001:0005207c       ??8type_info@@QBE_NABV0@@Z 0305307c f   LIBCMT:typinfo.obj
 0001:0005209c       ??9type_info@@QBE_NABV0@@Z 0305309c f   LIBCMT:typinfo.obj
 0001:000520bd       ?before@type_info@@QBEHABV1@@Z 030530bd f   LIBCMT:typinfo.obj
 0001:000520e1       ?raw_name@type_info@@QBEPBDXZ 030530e1 f   LIBCMT:typinfo.obj
 0001:000520e5       ??0type_info@@AAE@ABV0@@Z  030530e5 f   LIBCMT:typinfo.obj
 0001:000520f0       ??4type_info@@AAEAAV0@ABV0@@Z 030530f0 f   LIBCMT:typinfo.obj
 0001:000520f5       _memcpy_s                  030530f5 f   LIBCMT:memcpy_s.obj
 0001:00052172       _memmove_s                 03053172 f   LIBCMT:memmove_s.obj
 0001:000521cf       __initp_misc_invarg        030531cf f   LIBCMT:invarg.obj
 0001:000521de       __invoke_watson            030531de f   LIBCMT:invarg.obj
 0001:00052306       __set_invalid_parameter_handler 03053306 f   LIBCMT:invarg.obj
 0001:0005232d       __get_invalid_parameter_handler 0305332d f   LIBCMT:invarg.obj
 0001:0005233a       ?_invoke_watson@@YAXPBG00II@Z 0305333a f   LIBCMT:invarg.obj
 0001:00052345       __invalid_parameter        03053345 f   LIBCMT:invarg.obj
 0001:0005236b       __invalid_parameter_noinfo 0305336b f   LIBCMT:invarg.obj
 0001:0005237b       ?_invalid_parameter@@YAXPBG00II@Z 0305337b f   LIBCMT:invarg.obj
 0001:00052386       __CxxThrowException@8      03053386 f   LIBCMT:throw.obj
 0001:000523d2       ?_JumpToContinuation@@YGXPAXPAUEHRegistrationNode@@@Z 030533d2 f   LIBCMT:_trnsctrl_.obj
 0001:00052404       ?_CallMemberFunction0@@YGXPAX0@Z 03053404 f   LIBCMT:_trnsctrl_.obj
 0001:0005240b       ?_CallMemberFunction1@@YGXPAX00@Z 0305340b f   LIBCMT:_trnsctrl_.obj
 0001:00052412       ?_CallMemberFunction2@@YGXPAX00H@Z 03053412 f   LIBCMT:_trnsctrl_.obj
 0001:00052419       ?_UnwindNestedFrames@@YGXPAUEHRegistrationNode@@PAUEHExceptionRecord@@@Z 03053419 f   LIBCMT:_trnsctrl_.obj
 0001:0005246d       ___CxxFrameHandler         0305346d f   LIBCMT:_trnsctrl_.obj
 0001:000524a3       ___CxxFrameHandler3        030534a3 f   LIBCMT:_trnsctrl_.obj
 0001:000524d9       ___CxxFrameHandler2        030534d9 f   LIBCMT:_trnsctrl_.obj
 0001:0005250f       ___CxxLongjmpUnwind@4      0305350f f   LIBCMT:_trnsctrl_.obj
 0001:00052561       ?_CallSETranslator@@YAHPAUEHExceptionRecord@@PAUEHRegistrationNode@@PAX2PBU_s_FuncInfo@@H1@Z 03053561 f   LIBCMT:_trnsctrl_.obj
 0001:000526d7       ?_GetRangeOfTrysToCheck@@YAPBU_s_TryBlockMapEntry@@PBU_s_FuncInfo@@HHPAI1@Z 030536d7 f   LIBCMT:_trnsctrl_.obj
 0001:0005274c       __CreateFrameInfo          0305374c f   LIBCMT:_trnsctrl_.obj
 0001:00052778       __IsExceptionObjectToBeDestroyed 03053778 f   LIBCMT:_trnsctrl_.obj
 0001:0005279f       __FindAndUnlinkFrame       0305379f f   LIBCMT:_trnsctrl_.obj
 0001:000527f1       ?_CallCatchBlock2@@YAPAXPAUEHRegistrationNode@@PBU_s_FuncInfo@@PAXHK@Z 030537f1 f   LIBCMT:_trnsctrl_.obj
 0001:00052860       __alloca_probe             03053860     LIBCMT:chkstk.obj
 0001:00052860       __chkstk                   03053860 f   LIBCMT:chkstk.obj
 0001:00052890       _strncpy                   03053890 f   LIBCMT:strncpy.obj
 0001:000529b4       ??0_LocaleUpdate@@QAE@PAUlocaleinfo_struct@@@Z 030539b4 f i LIBCMT:_ctype.obj
 0001:00052a3b       ??1_LocaleUpdate@@QAE@XZ   03053a3b f i LIBCMT:_ctype.obj
 0001:00052a49       ?GetLocaleT@_LocaleUpdate@@QAEPAUlocaleinfo_struct@@XZ 03053a49 f i LIBCMT:_ctype.obj
 0001:00052a4c       __isalpha_l                03053a4c f i LIBCMT:_ctype.obj
 0001:00052aa2       _isalpha                   03053aa2 f i LIBCMT:_ctype.obj
 0001:00052ad2       __isupper_l                03053ad2 f i LIBCMT:_ctype.obj
 0001:00052b23       _isupper                   03053b23 f i LIBCMT:_ctype.obj
 0001:00052b51       __islower_l                03053b51 f i LIBCMT:_ctype.obj
 0001:00052ba2       _islower                   03053ba2 f i LIBCMT:_ctype.obj
 0001:00052bd0       __isdigit_l                03053bd0 f i LIBCMT:_ctype.obj
 0001:00052c21       _isdigit                   03053c21 f i LIBCMT:_ctype.obj
 0001:00052c4f       __isxdigit_l               03053c4f f i LIBCMT:_ctype.obj
 0001:00052ca5       _isxdigit                  03053ca5 f i LIBCMT:_ctype.obj
 0001:00052cd5       __isspace_l                03053cd5 f i LIBCMT:_ctype.obj
 0001:00052d26       _isspace                   03053d26 f i LIBCMT:_ctype.obj
 0001:00052d54       __ispunct_l                03053d54 f i LIBCMT:_ctype.obj
 0001:00052da5       _ispunct                   03053da5 f i LIBCMT:_ctype.obj
 0001:00052dd3       __isalnum_l                03053dd3 f i LIBCMT:_ctype.obj
 0001:00052e29       _isalnum                   03053e29 f i LIBCMT:_ctype.obj
 0001:00052e59       __isprint_l                03053e59 f i LIBCMT:_ctype.obj
 0001:00052eaf       _isprint                   03053eaf f i LIBCMT:_ctype.obj
 0001:00052edf       __isgraph_l                03053edf f i LIBCMT:_ctype.obj
 0001:00052f35       _isgraph                   03053f35 f i LIBCMT:_ctype.obj
 0001:00052f65       __iscntrl_l                03053f65 f i LIBCMT:_ctype.obj
 0001:00052fb6       _iscntrl                   03053fb6 f i LIBCMT:_ctype.obj
 0001:00052fe4       ___isascii                 03053fe4 f i LIBCMT:_ctype.obj
 0001:00052ff6       ___toascii                 03053ff6 f i LIBCMT:_ctype.obj
 0001:00053003       __iscsymf_l                03054003 f i LIBCMT:_ctype.obj
 0001:00053026       ___iscsymf                 03054026 f i LIBCMT:_ctype.obj
 0001:00053045       __iscsym_l                 03054045 f i LIBCMT:_ctype.obj
 0001:00053068       ___iscsym                  03054068 f i LIBCMT:_ctype.obj
 0001:000530a0       _strchr                    030540a0 f   LIBCMT:strchr.obj
 0001:000530a6       ___from_strstr_to_strchr   030540a6     LIBCMT:strchr.obj
 0001:00053160       _atan2                     03054160 f   LIBCMT:_87ctriga_.obj
 0001:0005316a       __CIatan2                  0305416a f   LIBCMT:_87ctriga_.obj
 0001:00053180       __CIsqrt                   03054180 f   LIBCMT:_sqrt_.obj
 0001:00053194       _sqrt                      03054194     LIBCMT:_sqrt_.obj
 0001:00053240       __ftol2_sse                03054240 f   LIBCMT:ftol2.obj
 0001:00053249       __ftol2_pentium4           03054249 f   LIBCMT:ftol2.obj
 0001:0005325c       __ftol2_sse_excpt          0305425c f   LIBCMT:ftol2.obj
 0001:00053276       __ftol2                    03054276 f   LIBCMT:ftol2.obj
 0001:000532eb       _atol                      030542eb f   LIBCMT:atox.obj
 0001:00053301       __atol_l                   03054301 f   LIBCMT:atox.obj
 0001:0005331a       _atoi                      0305431a f   LIBCMT:atox.obj
 0001:00053325       __atoi_l                   03054325 f   LIBCMT:atox.obj
 0001:00053330       __atoi64                   03054330 f   LIBCMT:atox.obj
 0001:00053346       __atoi64_l                 03054346 f   LIBCMT:atox.obj
 0001:0005335f       __fclose_nolock            0305435f f   LIBCMT:fclose.obj
 0001:000533d6       _fclose                    030543d6 f   LIBCMT:fclose.obj
 0001:00053452       _fputs                     03054452 f   LIBCMT:fputs.obj
 0001:00053561       __fsopen                   03054561 f   LIBCMT:fopen.obj
 0001:00053625       _fopen                     03054625 f   LIBCMT:fopen.obj
 0001:0005363c       _fopen_s                   0305463c f   LIBCMT:fopen.obj
 0001:0005368f       __atof_l                   0305468f f   LIBCMT:atof.obj
 0001:0005373a       _atof                      0305473a f   LIBCMT:atof.obj
 0001:0005374d       ___strgtold12              0305474d f   LIBCMT:atof.obj
 0001:0005378f       ___STRINGTOLD              0305478f f   LIBCMT:atof.obj
 0001:000537c8       __MarkAllocaS              030547c8 f i LIBCMT:strlwr.obj
 0001:000537de       __freea                    030547de f i LIBCMT:strlwr.obj
 0001:000537fe       ?_strlwr_s_l_stat@@YAHPADIPAUlocaleinfo_struct@@@Z 030547fe f   LIBCMT:strlwr.obj
 0001:00053981       __strlwr_s_l               03054981 f   LIBCMT:strlwr.obj
 0001:000539b5       __strlwr_s                 030549b5 f   LIBCMT:strlwr.obj
 0001:000539cc       __strlwr_l                 030549cc f   LIBCMT:strlwr.obj
 0001:000539e6       __strlwr                   030549e6 f   LIBCMT:strlwr.obj
 0001:000539e6       _strlwr                    030549e6 f   LIBCMT:strlwr.obj
 0001:00053a4b       _fprintf                   03054a4b f   LIBCMT:fprintf.obj
 0001:00053b67       __fprintf_l                03054b67 f   LIBCMT:fprintf.obj
 0001:00053b83       __fprintf_s_l              03054b83 f   LIBCMT:fprintf.obj
 0001:00053b9f       _fprintf_s                 03054b9f f   LIBCMT:fprintf.obj
 0001:00053bba       __fprintf_p_l              03054bba f   LIBCMT:fprintf.obj
 0001:00053bd6       __fprintf_p                03054bd6 f   LIBCMT:fprintf.obj
 0001:00053bf1       __mkdir                    03054bf1 f   LIBCMT:mkdir.obj
 0001:00053c23       _strncmp                   03054c23 f   LIBCMT:strncmp.obj
 0001:00053ce3       ___ascii_stricmp           03054ce3 f   LIBCMT:stricmp.obj
 0001:00053d1c       __stricmp_l                03054d1c f   LIBCMT:stricmp.obj
 0001:00053df1       __stricmp                  03054df1 f   LIBCMT:stricmp.obj
 0001:00053df1       _stricmp                   03054df1 f   LIBCMT:stricmp.obj
 0001:00053e43       _strtok                    03054e43 f   LIBCMT:strtok.obj
 0001:00053f10       _strncat                   03054f10 f   LIBCMT:strncat.obj
 0001:00054045       __purecall                 03055045 f   LIBCMT:purevirt.obj
 0001:0005406f       __set_purecall_handler     0305506f f   LIBCMT:purevirt.obj
 0001:00054096       __get_purecall_handler     03055096 f   LIBCMT:purevirt.obj
 0001:000540a3       __invoke_watson_if_error   030550a3 f i LIBCMT:loctim64.obj
 0001:000540c7       __localtime64_s            030550c7 f   LIBCMT:loctim64.obj
 0001:0005437f       __localtime64              0305537f f   LIBCMT:loctim64.obj
 0001:000543a6       __time64                   030553a6 f   LIBCMT:time64.obj
 0001:000543f7       __access_s                 030553f7 f   LIBCMT:access.obj
 0001:00054480       __access                   03055480 f   LIBCMT:access.obj
 0001:000544a0       _memmove                   030554a0 f   LIBCMT:memmove.obj
 0001:000548bf       ___onexitinit              030558bf f   LIBCMT:onexit.obj
 0001:000548f0       __onexit                   030558f0 f   LIBCMT:onexit.obj
 0001:0005492c       _atexit                    0305592c f   LIBCMT:onexit.obj
 0001:000549ad       _sscanf                    030559ad f   LIBCMT:sscanf.obj
 0001:000549cf       __sscanf_l                 030559cf f   LIBCMT:sscanf.obj
 0001:000549f2       _sscanf_s                  030559f2 f   LIBCMT:sscanf.obj
 0001:00054a14       __sscanf_s_l               03055a14 f   LIBCMT:sscanf.obj
 0001:00054a37       _srand                     03055a37 f   LIBCMT:rand.obj
 0001:00054a49       _rand                      03055a49 f   LIBCMT:rand.obj
 0001:00054a70       _atan                      03055a70 f   LIBCMT:_atan_.obj
 0001:00054ab0       __CIatan                   03055ab0 f   LIBCMT:_atan_.obj
 0001:00054aeb       __CIatan_default           03055aeb f   LIBCMT:_atan_.obj
 0001:00054aff       __atan_default             03055aff     LIBCMT:_atan_.obj
 0001:00054b90       _acos                      03055b90 f   LIBCMT:_acos_.obj
 0001:00054bd0       __CIacos                   03055bd0 f   LIBCMT:_acos_.obj
 0001:00054c0b       __CIacos_default           03055c0b f   LIBCMT:_acos_.obj
 0001:00054c1f       __acos_default             03055c1f     LIBCMT:_acos_.obj
 0001:00054ce0       _asin                      03055ce0 f   LIBCMT:_asin_.obj
 0001:00054d20       __CIasin                   03055d20 f   LIBCMT:_asin_.obj
 0001:00054d5b       __CIasin_default           03055d5b f   LIBCMT:_asin_.obj
 0001:00054d6f       __asin_default             03055d6f     LIBCMT:_asin_.obj
 0001:00054e30       _tan                       03055e30 f   LIBCMT:_tan_.obj
 0001:00054e70       __CItan                    03055e70 f   LIBCMT:_tan_.obj
 0001:00054eab       __CItan_default            03055eab f   LIBCMT:_tan_.obj
 0001:00054ebf       __tan_default              03055ebf     LIBCMT:_tan_.obj
 0001:00054f60       _cos                       03055f60 f   LIBCMT:_cos_.obj
 0001:00054fa0       __CIcos                    03055fa0 f   LIBCMT:_cos_.obj
 0001:00054fdb       __CIcos_default            03055fdb f   LIBCMT:_cos_.obj
 0001:00054fef       __cos_default              03055fef     LIBCMT:_cos_.obj
 0001:00055090       _sin                       03056090 f   LIBCMT:_sin_.obj
 0001:000550d0       __CIsin                    030560d0 f   LIBCMT:_sin_.obj
 0001:0005510b       __CIsin_default            0305610b f   LIBCMT:_sin_.obj
 0001:0005511f       __sin_default              0305611f     LIBCMT:_sin_.obj
 0001:000551b9       _clock                     030561b9 f   LIBCMT:clock.obj
 0001:000551fe       ___inittime                030561fe f   LIBCMT:clock.obj
 0001:00055237       __toupper                  03056237 f   LIBCMT:toupper.obj
 0001:00055244       __toupper_l                03056244 f   LIBCMT:toupper.obj
 0001:0005535a       _toupper                   0305635a f   LIBCMT:toupper.obj
 0001:00055386       __tolower                  03056386 f   LIBCMT:tolower.obj
 0001:00055393       __tolower_l                03056393 f   LIBCMT:tolower.obj
 0001:000554a8       _tolower                   030564a8 f   LIBCMT:tolower.obj
 0001:000554d4       _fgets                     030564d4 f   LIBCMT:fgets.obj
 0001:0005561c       _feof                      0305661c f   LIBCMT:feoferr.obj
 0001:00055650       _ferror                    03056650 f   LIBCMT:feoferr.obj
 0001:00055690       _strrchr                   03056690 f   LIBCMT:strrchr.obj
 0001:00055780       _qsort                     03056780 f   LIBCMT:qsort.obj
 0001:000559cd       __vsprintf_l               030569cd f   LIBCMT:vsprintf.obj
 0001:00055a4b       _vsprintf                  03056a4b f   LIBCMT:vsprintf.obj
 0001:00055a65       __vscprintf_helper         03056a65 f   LIBCMT:vsprintf.obj
 0001:00055abc       __vscprintf                03056abc f   LIBCMT:vsprintf.obj
 0001:00055ad8       __vscprintf_l              03056ad8 f   LIBCMT:vsprintf.obj
 0001:00055af5       __vscprintf_p              03056af5 f   LIBCMT:vsprintf.obj
 0001:00055b11       __vscprintf_p_l            03056b11 f   LIBCMT:vsprintf.obj
 0001:00055b30       _ceil                      03056b30 f   LIBCMT:_ceil_pentium4_.obj
 0001:00055b70       __ceil_pentium4            03056b70 f   LIBCMT:_ceil_pentium4_.obj
 0001:00055c91       __itoa                     03056c91 f   LIBCMT:xtoa.obj
 0001:00055c91       _itoa                      03056c91 f   LIBCMT:xtoa.obj
 0001:00055cbb       __ltoa                     03056cbb f   LIBCMT:xtoa.obj
 0001:00055ce2       __ultoa                    03056ce2 f   LIBCMT:xtoa.obj
 0001:00055d6b       __i64toa                   03056d6b f   LIBCMT:xtoa.obj
 0001:00055d9e       __ui64toa                  03056d9e f   LIBCMT:xtoa.obj
 0001:00055dc0       _pow                       03056dc0 f   LIBCMT:_pow_.obj
 0001:00055e00       __CIpow                    03056e00 f   LIBCMT:_pow_.obj
 0001:00055e3b       __CIpow_default            03056e3b f   LIBCMT:_pow_.obj
 0001:00055e54       __pow_default              03056e54     LIBCMT:_pow_.obj
 0001:0005604a       _remove                    0305704a f   LIBCMT:unlink.obj
 0001:0005607a       __unlink                   0305707a f   LIBCMT:unlink.obj
 0001:00056085       _printf                    03057085 f   LIBCMT:printf.obj
 0001:00056134       __printf_l                 03057134 f   LIBCMT:printf.obj
 0001:0005614d       __printf_s_l               0305714d f   LIBCMT:printf.obj
 0001:00056166       _printf_s                  03057166 f   LIBCMT:printf.obj
 0001:0005617e       __printf_p_l               0305717e f   LIBCMT:printf.obj
 0001:00056197       __printf_p                 03057197 f   LIBCMT:printf.obj
 0001:000561af       __set_printf_count_output  030571af f   LIBCMT:printf.obj
 0001:000561d9       __get_printf_count_output  030571d9 f   LIBCMT:printf.obj
 0001:000561ef       __CRT_INIT@12              030571ef f   LIBCMT:dllcrt0.obj
 0001:0005641a       __DllMainCRTStartup@12     0305741a f   LIBCMT:dllcrt0.obj
 0001:00056440       _strlen                    03057440 f   LIBCMT:strlen.obj
 0001:000564cb       @__security_check_cookie@4 030574cb f   LIBCMT:secchk.obj
 0001:000564da       __EH_prolog3               030574da f   LIBCMT:ehprolg3.obj
 0001:0005650d       __EH_prolog3_catch         0305750d f   LIBCMT:ehprolg3.obj
 0001:00056543       __EH_prolog3_GS            03057543 f   LIBCMT:ehprolg3.obj
 0001:00056579       __EH_prolog3_catch_GS      03057579 f   LIBCMT:ehprolg3.obj
 0001:000565b2       __EH_epilog3               030575b2 f   LIBCMT:ehprolg3.obj
 0001:000565c6       __EH_epilog3_GS            030575c6 f   LIBCMT:ehprolg3.obj
 0001:000565d5       __EH_epilog3_catch_GS      030575d5 f   LIBCMT:ehprolg3.obj
 0001:000565f0       _strcpy                    030575f0 f   LIBCMT:strcat.obj
 0001:00056600       _strcat                    03057600 f   LIBCMT:strcat.obj
 0001:000566e8       __global_unwind2           030576e8 f   LIBCMT:exsup.obj
 0001:0005674d       __local_unwind2            0305774d f   LIBCMT:exsup.obj
 0001:000567d1       __abnormal_termination     030577d1 f   LIBCMT:exsup.obj
 0001:000567f4       __NLG_Notify1              030577f4 f   LIBCMT:exsup.obj
 0001:000567fd       __NLG_Notify               030577fd f   LIBCMT:exsup.obj
 0001:00056814       __NLG_Dispatch             03057814     LIBCMT:exsup.obj
 0001:00056814       __NLG_Dispatch2            03057814     LIBCMT:exsup.obj
 0001:0005681c       __NLG_Call                 0305781c f   LIBCMT:exsup.obj
 0001:0005681e       __NLG_Return2              0305781e     LIBCMT:exsup.obj
 0001:00056828       __except_handler3          03057828 f   LIBCMT:exsup3.obj
 0001:00056926       __seh_longjmp_unwind@4     03057926 f   LIBCMT:exsup3.obj
 0001:00056950       _strcmp                    03057950 f   LIBCMT:strcmp.obj
 0001:00057f4e       _memcmp                    03058f4e f   LIBCMT:memcmp.obj
 0001:00059625       __VEC_memzero              0305a625 f   LIBCMT:p4_memset.obj
 0001:00059704       __get_sse2_info            0305a704 f   LIBCMT:cpu_disp.obj
 0001:00059766       ___sse2_available_init     0305a766 f   LIBCMT:cpu_disp.obj
 0001:00059773       __get_errno_from_oserr     0305a773 f   LIBCMT:dosmap.obj
 0001:000597b5       __errno                    0305a7b5 f   LIBCMT:dosmap.obj
 0001:000597c8       ___doserrno                0305a7c8 f   LIBCMT:dosmap.obj
 0001:000597db       __dosmaperr                0305a7db f   LIBCMT:dosmap.obj
 0001:000597fe       __set_errno                0305a7fe f   LIBCMT:dosmap.obj
 0001:0005981f       __get_errno                0305a81f f   LIBCMT:dosmap.obj
 0001:0005984e       __set_doserrno             0305a84e f   LIBCMT:dosmap.obj
 0001:0005986f       __get_doserrno             0305a86f f   LIBCMT:dosmap.obj
 0001:0005989e       ___heap_select             0305a89e f   LIBCMT:heapinit.obj
 0001:000598a2       __heap_init                0305a8a2 f   LIBCMT:heapinit.obj
 0001:000598d2       __heap_term                0305a8d2 f   LIBCMT:heapinit.obj
 0001:00059946       __get_heap_handle          0305a946 f   LIBCMT:heapinit.obj
 0001:0005994c       __mtinitlocks              0305a94c f   LIBCMT:mlock.obj
 0001:00059997       __mtdeletelocks            0305a997 f   LIBCMT:mlock.obj
 0001:000599ee       __unlock                   0305a9ee f   LIBCMT:mlock.obj
 0001:00059a05       __lockerr_exit             0305aa05 f   LIBCMT:mlock.obj
 0001:00059a1d       __mtinitlocknum            0305aa1d f   LIBCMT:mlock.obj
 0001:00059ae0       __lock                     0305aae0 f   LIBCMT:mlock.obj
 0001:00059b13       __get_sbh_threshold        0305ab13 f   LIBCMT:sbheap.obj
 0001:00059b34       __set_amblksiz             0305ab34 f   LIBCMT:sbheap.obj
 0001:00059b7f       __get_amblksiz             0305ab7f f   LIBCMT:sbheap.obj
 0001:00059bc0       ___sbh_heap_init           0305abc0 f   LIBCMT:sbheap.obj
 0001:00059c0e       ___sbh_find_block          0305ac0e f   LIBCMT:sbheap.obj
 0001:00059c3e       ___sbh_free_block          0305ac3e f   LIBCMT:sbheap.obj
 0001:00059f54       ___sbh_alloc_new_region    0305af54 f   LIBCMT:sbheap.obj
 0001:0005a004       ___sbh_alloc_new_group     0305b004 f   LIBCMT:sbheap.obj
 0001:0005a10c       ___sbh_resize_block        0305b10c f   LIBCMT:sbheap.obj
 0001:0005a3ed       ___sbh_heapmin             0305b3ed f   LIBCMT:sbheap.obj
 0001:0005a4ba       ___sbh_heap_check          0305b4ba f   LIBCMT:sbheap.obj
 0001:0005a79e       __set_sbh_threshold        0305b79e f   LIBCMT:sbheap.obj
 0001:0005a84d       ___sbh_alloc_block         0305b84d f   LIBCMT:sbheap.obj
 0001:0005ab34       __SEH_prolog4              0305bb34 f   LIBCMT:sehprolg4.obj
 0001:0005ab79       __SEH_epilog4              0305bb79 f   LIBCMT:sehprolg4.obj
 0001:0005abc0       __except_handler4          0305bbc0 f   LIBCMT:chandler4.obj
 0001:0005ad4c       __crt_waiting_on_module_handle 0305bd4c f   LIBCMT:crt0dat.obj
 0001:0005ad7c       __amsg_exit                0305bd7c f   LIBCMT:crt0dat.obj
 0001:0005ada5       ___crtCorExitProcess       0305bda5 f   LIBCMT:crt0dat.obj
 0001:0005add0       ___crtExitProcess          0305bdd0 f   LIBCMT:crt0dat.obj
 0001:0005ade8       __lockexit                 0305bde8 f   LIBCMT:crt0dat.obj
 0001:0005adf1       __unlockexit               0305bdf1 f   LIBCMT:crt0dat.obj
 0001:0005ae17       __initterm_e               0305be17 f   LIBCMT:crt0dat.obj
 0001:0005ae3b       __get_wpgmptr              0305be3b f   LIBCMT:crt0dat.obj
 0001:0005ae77       __get_pgmptr               0305be77 f   LIBCMT:crt0dat.obj
 0001:0005aeb3       __cinit                    0305beb3 f   LIBCMT:crt0dat.obj
 0001:0005b064       _exit                      0305c064 f   LIBCMT:crt0dat.obj
 0001:0005b07a       __exit                     0305c07a f   LIBCMT:crt0dat.obj
 0001:0005b090       __cexit                    0305c090 f   LIBCMT:crt0dat.obj
 0001:0005b09f       __c_exit                   0305c09f f   LIBCMT:crt0dat.obj
 0001:0005b0ae       __init_pointers            0305c0ae f   LIBCMT:crt0dat.obj
 0001:0005b0fc       __NMSG_WRITE               0305c0fc f   LIBCMT:crt0msg.obj
 0001:0005b2a7       __GET_RTERRMSG             0305c2a7 f   LIBCMT:crt0msg.obj
 0001:0005b2cd       __FF_MSGBANNER             0305c2cd f   LIBCMT:crt0msg.obj
 0001:0005b306       __initp_heap_handler       0305c306 f   LIBCMT:handler.obj
 0001:0005b315       ?_set_new_handler@@YAP6AHI@ZP6AHI@Z@Z 0305c315 f   LIBCMT:handler.obj
 0001:0005b34b       ?_set_new_handler@@YAP6AHI@ZH@Z 0305c34b f   LIBCMT:handler.obj
 0001:0005b354       ?_query_new_handler@@YAP6AHI@ZXZ 0305c354 f   LIBCMT:handler.obj
 0001:0005b361       __callnewh                 0305c361 f   LIBCMT:handler.obj
 0001:0005b410       __VEC_memcpy               0305c410 f   LIBCMT:p4_memcpy.obj
 0001:0005b4f3       __flsbuf                   0305c4f3 f   LIBCMT:_flsbuf.obj
 0001:0005b6fd       _get_int_arg               0305c6fd f i LIBCMT:output.obj
 0001:0005b70f       _get_int64_arg             0305c70f f i LIBCMT:output.obj
 0001:0005b724       _get_short_arg             0305c724 f i LIBCMT:output.obj
 0001:0005b737       __output_l                 0305c737 f   LIBCMT:output.obj
 0001:0005c2cf       __vsnprintf_helper         0305d2cf f   LIBCMT:vsnprnc.obj
 0001:0005c39b       __vsnprintf_c              0305d39b f   LIBCMT:vsnprnc.obj
 0001:0005c3c4       __vsnprintf_c_l            0305d3c4 f   LIBCMT:vsnprnc.obj
 0001:0005c3ee       __vsprintf_s_l             0305d3ee f   LIBCMT:vsnprnc.obj
 0001:0005c476       _vsprintf_s                0305d476 f   LIBCMT:vsnprnc.obj
 0001:0005c493       __vsnprintf_s_l            0305d493 f   LIBCMT:vsnprnc.obj
 0001:0005c59a       __vsnprintf_s              0305d59a f   LIBCMT:vsnprnc.obj
 0001:0005c5ba       __vsprintf_p               0305d5ba f   LIBCMT:vsnprnc.obj
 0001:0005c5e3       __vsprintf_p_l             0305d5e3 f   LIBCMT:vsnprnc.obj
 0001:0005c60d       __forcdecpt_l              0305d60d f   LIBCMT:cvt.obj
 0001:0005c680       __cropzeros_l              0305d680 f   LIBCMT:cvt.obj
 0001:0005c702       __positive                 0305d702 f   LIBCMT:cvt.obj
 0001:0005c71e       __fassign_l                0305d71e f   LIBCMT:cvt.obj
 0001:0005c760       __fassign                  0305d760 f   LIBCMT:cvt.obj
 0001:0005c799       __forcdecpt                0305d799 f   LIBCMT:cvt.obj
 0001:0005c7ac       __cropzeros                0305d7ac f   LIBCMT:cvt.obj
 0001:0005c92e       __cftoe_l                  0305d92e f   LIBCMT:cvt.obj
 0001:0005c9fe       __cftoe                    0305d9fe f   LIBCMT:cvt.obj
 0001:0005ca1e       __cftoa_l                  0305da1e f   LIBCMT:cvt.obj
 0001:0005cd91       __cftoa                    0305dd91 f   LIBCMT:cvt.obj
 0001:0005cea8       __cftof_l                  0305dea8 f   LIBCMT:cvt.obj
 0001:0005cf63       __cftof                    0305df63 f   LIBCMT:cvt.obj
 0001:0005cf80       __cftog_l                  0305df80 f   LIBCMT:cvt.obj
 0001:0005d07a       __cftog                    0305e07a f   LIBCMT:cvt.obj
 0001:0005d09a       __cfltcvt_l                0305e09a f   LIBCMT:cvt.obj
 0001:0005d122       __cfltcvt                  0305e122 f   LIBCMT:cvt.obj
 0001:0005d145       __initp_misc_cfltcvt_tab   0305e145 f   LIBCMT:cmiscdat.obj
 0001:0005d166       __setdefaultprecision      0305e166 f   LIBCMT:fp8.obj
 0001:0005d191       __ms_p5_test_fdiv          0305e191 f   LIBCMT:_testfdiv_.obj
 0001:0005d1cf       __ms_p5_mp_test_fdiv       0305e1cf f   LIBCMT:_testfdiv_.obj
 0001:0005d1f8       _strcpy_s                  0305e1f8 f   LIBCMT:strcpy_s.obj
 0001:0005d260       ?_Type_info_dtor@type_info@@CAXPAV1@@Z 0305e260 f   LIBCMT:typname.obj
 0001:0005d2d0       ?_Name_base@type_info@@CAPBDPBV1@PAU__type_info_node@@@Z 0305e2d0 f   LIBCMT:typname.obj
 0001:0005d3c5       ?_Type_info_dtor_internal@type_info@@CAXPAV1@@Z 0305e3c5 f   LIBCMT:typname.obj
 0001:0005d435       ___unDNameHelper           0305e435 f   LIBCMT:typname.obj
 0001:0005d468       ?_Name_base_internal@type_info@@CAPBDPBV1@PAU__type_info_node@@@Z 0305e468 f   LIBCMT:typname.obj
 0001:0005d577       ___clean_type_info_names_internal 0305e577 f   LIBCMT:typname.obj
 0001:0005d5ca       __crt_debugger_hook        0305e5ca f   LIBCMT:dbghook.obj
 0001:0005d5d2       __crt_wait_module_handle   0305e5d2 f i LIBCMT:tidtable.obj
 0001:0005d5ec       __encode_pointer           0305e5ec f   LIBCMT:tidtable.obj
 0001:0005d65e       __encoded_null             0305e65e f   LIBCMT:tidtable.obj
 0001:0005d667       __decode_pointer           0305e667 f   LIBCMT:tidtable.obj
 0001:0005d6d9       ___crtTlsAlloc@4           0305e6d9 f   LIBCMT:tidtable.obj
 0001:0005d6e2       ___fls_getvalue@4          0305e6e2 f   LIBCMT:tidtable.obj
 0001:0005d6fc       ___get_flsindex            0305e6fc f   LIBCMT:tidtable.obj
 0001:0005d702       ___set_flsgetvalue         0305e702 f   LIBCMT:tidtable.obj
 0001:0005d736       ___fls_setvalue@8          0305e736 f   LIBCMT:tidtable.obj
 0001:0005d753       __mtterm                   0305e753 f   LIBCMT:tidtable.obj
 0001:0005d790       __initptd                  0305e790 f   LIBCMT:tidtable.obj
 0001:0005d877       __getptd_noexit            0305e877 f   LIBCMT:tidtable.obj
 0001:0005d8f0       __getptd                   0305e8f0 f   LIBCMT:tidtable.obj
 0001:0005d90a       __freefls@4                0305e90a f   LIBCMT:tidtable.obj
 0001:0005da39       __freeptd                  0305ea39 f   LIBCMT:tidtable.obj
 0001:0005daa7       ___threadid                0305eaa7 f   LIBCMT:tidtable.obj
 0001:0005daad       ___threadhandle            0305eaad f   LIBCMT:tidtable.obj
 0001:0005dab3       __mtinit                   0305eab3 f   LIBCMT:tidtable.obj
 0001:0005dc40       ??0bad_exception@std@@QAE@PBD@Z 0305ec40 f i LIBCMT:frame.obj
 0001:0005dc5e       ??1bad_exception@std@@UAE@XZ 0305ec5e f i LIBCMT:frame.obj
 0001:0005dc69       ??_Ebad_exception@std@@UAEPAXI@Z 0305ec69 f i LIBCMT:frame.obj
 0001:0005dc69       ??_Gbad_exception@std@@UAEPAXI@Z 0305ec69 f i LIBCMT:frame.obj
 0001:0005dc90       ___TypeMatch               0305ec90 f   LIBCMT:frame.obj
 0001:0005dcef       ___FrameUnwindFilter       0305ecef f   LIBCMT:frame.obj
 0001:0005dd38       ___FrameUnwindToState      0305ed38 f   LIBCMT:frame.obj
 0001:0005de5e       ___DestructExceptionObject 0305ee5e f   LIBCMT:frame.obj
 0001:0005deb3       ___AdjustPointer           0305eeb3 f   LIBCMT:frame.obj
 0001:0005dedc       ?__uncaught_exception@@YA_NXZ 0305eedc f   LIBCMT:frame.obj
 0001:0005deef       ___CxxRegisterExceptionObject 0305eeef f   LIBCMT:frame.obj
 0001:0005dfa6       ___CxxDetectRethrow        0305efa6 f   LIBCMT:frame.obj
 0001:0005dff8       ___CxxUnregisterExceptionObject 0305eff8 f   LIBCMT:frame.obj
 0001:0005e137       ___CxxQueryExceptionSize   0305f137 f   LIBCMT:frame.obj
 0001:0005e13b       ___CxxCallUnwindDtor       0305f13b f   LIBCMT:frame.obj
 0001:0005e16d       ___CxxCallUnwindDelDtor    0305f16d f   LIBCMT:frame.obj
 0001:0005e1a0       ___CxxCallUnwindStdDelDtor 0305f1a0 f   LIBCMT:frame.obj
 0001:0005e1d2       ___CxxCallUnwindVecDtor    0305f1d2 f   LIBCMT:frame.obj
 0001:0005e303       ?_is_exception_typeof@@YAHABVtype_info@@PAU_EXCEPTION_POINTERS@@@Z 0305f303 f   LIBCMT:frame.obj
 0001:0005e525       ___BuildCatchObjectHelper  0305f525 f   LIBCMT:frame.obj
 0001:0005e6a4       ___BuildCatchObject        0305f6a4 f   LIBCMT:frame.obj
 0001:0005e736       ___CxxExceptionFilter      0305f736 f   LIBCMT:frame.obj
 0001:0005ed24       ??0bad_exception@std@@QAE@ABV01@@Z 0305fd24 f i LIBCMT:frame.obj
 0001:0005ed41       ___InternalCxxFrameHandler 0305fd41 f   LIBCMT:frame.obj
 0001:0005ee27       ?terminate@@YAXXZ          0305fe27 f   LIBCMT:hooks.obj
 0001:0005ee60       ?unexpected@@YAXXZ         0305fe60 f   LIBCMT:hooks.obj
 0001:0005ee73       ?_inconsistency@@YAXXZ     0305fe73 f   LIBCMT:hooks.obj
 0001:0005eeab       __initp_eh_hooks           0305feab f   LIBCMT:hooks.obj
 0001:0005eec0       __CallSettingFrame@12      0305fec0 f   LIBCMT:lowhelpr.obj
 0001:0005eee7       __NLG_Return               0305fee7     LIBCMT:lowhelpr.obj
 0001:0005f132       ___updatetmbcinfo          03060132 f   LIBCMT:mbctype.obj
 0001:0005f252       __setmbcp_nolock           03060252 f   LIBCMT:mbctype.obj
 0001:0005f437       __getmbcp                  03060437 f   LIBCMT:mbctype.obj
 0001:0005f475       __setmbcp                  03060475 f   LIBCMT:mbctype.obj
 0001:0005f60f       ___initmbctable            0306060f f   LIBCMT:mbctype.obj
 0001:0005f62d       ____setlc_active_func      0306062d f   LIBCMT:setlocal.obj
 0001:0005f633       ____unguarded_readlc_active_add_func 03060633 f   LIBCMT:setlocal.obj
 0001:0005f639       ___freetlocinfo            03060639 f   LIBCMT:setlocal.obj
 0001:0005f782       ___addlocaleref            03060782 f   LIBCMT:setlocal.obj
 0001:0005f811       ___removelocaleref         03060811 f   LIBCMT:setlocal.obj
 0001:0005f90e       ___updatetlocinfo          0306090e f   LIBCMT:setlocal.obj
 0001:0005f984       __configthreadlocale       03060984 f   LIBCMT:setlocal.obj
 0001:0005fa41       __free_locale              03060a41 f   LIBCMT:setlocal.obj
 0001:0005fb03       ___free_locale             03060b03 f   LIBCMT:setlocal.obj
 0001:0005fb0e       __get_current_locale       03060b0e f   LIBCMT:setlocal.obj
 0001:0005fbbd       ___get_current_locale      03060bbd f   LIBCMT:setlocal.obj
 0001:0005fbc2       ___init_dummy              03060bc2 f   LIBCMT:setlocal.obj
 0001:0005fbc5       __strcats                  03060bc5 f   LIBCMT:setlocal.obj
 0001:0005fc05       ___lc_strtolc              03060c05 f   LIBCMT:setlocal.obj
 0001:0005fd2e       ___lc_lctostr              03060d2e f   LIBCMT:setlocal.obj
 0001:0005ff18       __expandlocale             03060f18 f   LIBCMT:setlocal.obj
 0001:00060666       __create_locale            03061666 f   LIBCMT:setlocal.obj
 0001:0006075b       ___create_locale           0306175b f   LIBCMT:setlocal.obj
 0001:00060766       _setlocale                 03061766 f   LIBCMT:setlocal.obj
 0001:000608d6       __isctype_l                030618d6 f   LIBCMT:isctype.obj
 0001:0006098e       __isctype                  0306198e f   LIBCMT:isctype.obj
 0001:000609dc       __fFATN2                   030619dc     LIBCMT:_87triga_.obj
 0001:00060a2c       __rtpiby2                  03061a2c     LIBCMT:_87triga_.obj
 0001:00060a70       __cintrindisp2             03061a70 f   LIBCMT:_87cdisp_.obj
 0001:00060aae       __cintrindisp1             03061aae f   LIBCMT:_87cdisp_.obj
 0001:00060aeb       __ctrandisp2               03061aeb f   LIBCMT:_87cdisp_.obj
 0001:00060c81       __ctrandisp1               03061c81 f   LIBCMT:_87cdisp_.obj
 0001:00060cb4       __fload                    03061cb4 f   LIBCMT:_87cdisp_.obj
 0001:00060cf0       __trandisp1                03061cf0 f   LIBCMT:_87disp_.obj
 0001:00060d57       __trandisp2                03061d57 f   LIBCMT:_87disp_.obj
 0001:00060de3       __rttospopde               03061de3     LIBCMT:_87disp_.obj
 0001:00060de8       __rttospop                 03061de8     LIBCMT:_87disp_.obj
 0001:00060dea       __rtnospop                 03061dea     LIBCMT:_87disp_.obj
 0001:00060dec       __rttosnpop                03061dec     LIBCMT:_87disp_.obj
 0001:00060ded       __rtnospopde               03061ded     LIBCMT:_87disp_.obj
 0001:00060df4       __rtzeropop                03061df4     LIBCMT:_87disp_.obj
 0001:00060df6       __rtzeronpop               03061df6     LIBCMT:_87disp_.obj
 0001:00060dfb       __rtonepop                 03061dfb     LIBCMT:_87disp_.obj
 0001:00060dfd       __rtonenpop                03061dfd     LIBCMT:_87disp_.obj
 0001:00060e02       __tosnan1                  03061e02     LIBCMT:_87disp_.obj
 0001:00060e2d       __nosnan2                  03061e2d     LIBCMT:_87disp_.obj
 0001:00060e2f       __tosnan2                  03061e2f     LIBCMT:_87disp_.obj
 0001:00060e57       __nan2                     03061e57     LIBCMT:_87disp_.obj
 0001:00060e96       __rtindfpop                03061e96     LIBCMT:_87disp_.obj
 0001:00060e98       __rtindfnpop               03061e98     LIBCMT:_87disp_.obj
 0001:00060ea9       __rttosnpopde              03061ea9     LIBCMT:_87disp_.obj
 0001:00060eb3       __rtchsifneg               03061eb3     LIBCMT:_87disp_.obj
 0001:00060ec0       __startTwoArgErrorHandling 03061ec0 f   LIBCMT:_genexcep_.obj
 0001:00060ed7       __startOneArgErrorHandling 03061ed7 f   LIBCMT:_genexcep_.obj
 0001:00060f20       __twoToTOS                 03061f20 f   LIBCMT:_common_.obj
 0001:00060f35       __load_CW                  03061f35 f   LIBCMT:_common_.obj
 0001:00060f4c       __convertTOStoQNaN         03061f4c f   LIBCMT:_common_.obj
 0001:00060f65       __fload_withFB             03061f65 f   LIBCMT:_common_.obj
 0001:00060fa8       __checkTOS_withFB          03061fa8 f   LIBCMT:_common_.obj
 0001:00060fbe       __fast_exit                03061fbe f   LIBCMT:_common_.obj
 0001:00060fcb       __math_exit                03061fcb f   LIBCMT:_common_.obj
 0001:00060ff5       __check_overflow_exit      03061ff5 f   LIBCMT:_common_.obj
 0001:00061009       __check_range_exit         03062009 f   LIBCMT:_common_.obj
 0001:000612db       _strtol                    030622db f   LIBCMT:strtol.obj
 0001:00061306       __strtol_l                 03062306 f   LIBCMT:strtol.obj
 0001:00061323       _strtoul                   03062323 f   LIBCMT:strtol.obj
 0001:0006134f       __strtoul_l                0306234f f   LIBCMT:strtol.obj
 0001:00061603       __strtoi64                 03062603 f   LIBCMT:strtoq.obj
 0001:0006162e       __strtoi64_l               0306262e f   LIBCMT:strtoq.obj
 0001:0006164b       __strtoui64                0306264b f   LIBCMT:strtoq.obj
 0001:00061677       __strtoui64_l              03062677 f   LIBCMT:strtoq.obj
 0001:00061694       __close_nolock             03062694 f   LIBCMT:close.obj
 0001:00061730       __close                    03062730 f   LIBCMT:close.obj
 0001:000617fd       __fileno                   030627fd f   LIBCMT:fileno.obj
 0001:0006182f       __freebuf                  0306282f f   LIBCMT:_freebuf.obj
 0001:00061860       __flush                    03062860 f   LIBCMT:fflush.obj
 0001:000618c8       __fflush_nolock            030628c8 f   LIBCMT:fflush.obj
 0001:000619ea       _fflush                    030629ea f   LIBCMT:fflush.obj
 0001:00061a3d       __flushall                 03062a3d f   LIBCMT:fflush.obj
 0001:00061a46       ___iob_func                03062a46 f   LIBCMT:_file.obj
 0001:00061a4c       ___initstdio               03062a4c f   LIBCMT:_file.obj
 0001:00061afd       ___endstdio                03062afd f   LIBCMT:_file.obj
 0001:00061b1d       __lock_file                03062b1d f   LIBCMT:_file.obj
 0001:00061b5e       __lock_file2               03062b5e f   LIBCMT:_file.obj
 0001:00061b90       __unlock_file              03062b90 f   LIBCMT:_file.obj
 0001:00061bcc       __unlock_file2             03062bcc f   LIBCMT:_file.obj
 0001:00061bfb       __stbuf                    03062bfb f   LIBCMT:_sftbuf.obj
 0001:00061c97       __ftbuf                    03062c97 f   LIBCMT:_sftbuf.obj
 0001:00061ccb       __fwrite_nolock            03062ccb f   LIBCMT:fwrite.obj
 0001:00061e2d       _fwrite                    03062e2d f   LIBCMT:fwrite.obj
 0001:00061eaf       __ioinit                   03062eaf f   LIBCMT:ioinit.obj
 0001:00062103       __ioterm                   03063103 f   LIBCMT:ioinit.obj
 0001:00062151       __openfile                 03063151 f   LIBCMT:_open.obj
 0001:0006241a       __getstream                0306341a f   LIBCMT:stream.obj
 0001:00062554       __local_unwind4            03063554 f   LIBCMT:exsup4.obj
 0001:0006262a       __seh_longjmp_unwind4@4    0306362a f   LIBCMT:exsup4.obj
 0001:00062646       @_EH4_CallFilterFunc@8     03063646 f   LIBCMT:exsup4.obj
 0001:0006265d       @_EH4_TransferToHandler@8  0306365d f   LIBCMT:exsup4.obj
 0001:00062676       @_EH4_GlobalUnwind@4       03063676 f   LIBCMT:exsup4.obj
 0001:00062690       @_EH4_LocalUnwind@16       03063690 f   LIBCMT:exsup4.obj
 0001:000626a7       __fltin2                   030636a7 f   LIBCMT:_cfin_.obj
 0001:0006274e       ___addl                    0306374e f i LIBCMT:_strgtold_.obj
 0001:00062772       ___shl_12                  03063772 f i LIBCMT:_strgtold_.obj
 0001:000627a5       ___shr_12                  030637a5 f i LIBCMT:_strgtold_.obj
 0001:000627d7       ___ld12mul                 030637d7 f i LIBCMT:_strgtold_.obj
 0001:00062a52       ___multtenpow12            03063a52 f i LIBCMT:_strgtold_.obj
 0001:00062d57       ___strgtold12_l            03063d57 f   LIBCMT:_strgtold_.obj
 0001:0006344f       ___STRINGTOLD_L            0306444f f   LIBCMT:_strgtold_.obj
 0001:0006386d       ___crtLCMapStringA         0306486d f   LIBCMT:a_map.obj
 0001:000638b2       _strnlen                   030648b2 f   LIBCMT:strlen_s.obj
 0001:000638d0       __alloca_probe_16          030648d0 f   LIBCMT:alloca16.obj
 0001:000638e6       __alloca_probe_8           030648e6     LIBCMT:alloca16.obj
 0001:000638fc       _vfprintf_helper           030648fc f   LIBCMT:vfprintf.obj
 0001:00063a17       __vfprintf_l               03064a17 f   LIBCMT:vfprintf.obj
 0001:00063a37       __vfprintf_s_l             03064a37 f   LIBCMT:vfprintf.obj
 0001:00063a57       __vfprintf_p_l             03064a57 f   LIBCMT:vfprintf.obj
 0001:00063a77       _vfprintf                  03064a77 f   LIBCMT:vfprintf.obj
 0001:00063a96       _vfprintf_s                03064a96 f   LIBCMT:vfprintf.obj
 0001:00063ab5       __vfprintf_p               03064ab5 f   LIBCMT:vfprintf.obj
 0001:00063ad4       _abort                     03064ad4 f   LIBCMT:abort.obj
 0001:00063beb       __set_abort_behavior       03064beb f   LIBCMT:abort.obj
 0001:00063c0c       ___getlocaleinfo           03064c0c f   LIBCMT:inithelp.obj
 0001:00063d8b       __initp_misc_purevirt      03064d8b f   LIBCMT:inithelp.obj
 0001:00063d9a       __set_daylight             03064d9a f i LIBCMT:tzset.obj
 0001:00063dab       __set_dstbias              03064dab f i LIBCMT:tzset.obj
 0001:00063dbc       __set_timezone             03064dbc f i LIBCMT:tzset.obj
 0001:000644e2       ___tzset                   030654e2 f   LIBCMT:tzset.obj
 0001:00064531       __tzset                    03065531 f   LIBCMT:tzset.obj
 0001:00064569       __isindst                  03065569 f   LIBCMT:tzset.obj
 0001:000645aa       __gmtime64_s               030655aa f   LIBCMT:gmtime64.obj
 0001:000647ed       __gmtime64                 030657ed f   LIBCMT:gmtime64.obj
 0001:00064814       __get_daylight             03065814 f   LIBCMT:timeset.obj
 0001:0006484d       __get_dstbias              0306584d f   LIBCMT:timeset.obj
 0001:00064886       __get_timezone             03065886 f   LIBCMT:timeset.obj
 0001:000648bf       __get_tzname               030658bf f   LIBCMT:timeset.obj
 0001:00064963       ___daylight                03065963 f   LIBCMT:timeset.obj
 0001:00064969       ___dstbias                 03065969 f   LIBCMT:timeset.obj
 0001:0006496f       ___timezone                0306596f f   LIBCMT:timeset.obj
 0001:00064975       ___tzname                  03065975 f   LIBCMT:timeset.obj
 0001:00064980       __alldiv                   03065980 f   LIBCMT:lldiv.obj
 0001:00064a30       __allrem                   03065a30 f   LIBCMT:llrem.obj
 0001:00064ae2       __gmtime32_s               03065ae2 f   LIBCMT:gmtime.obj
 0001:00064c15       ___getgmtimebuf            03065c15 f   LIBCMT:gmtime.obj
 0001:00064c4c       __gmtime32                 03065c4c f   LIBCMT:gmtime.obj
 0001:00064c80       __aulldiv                  03065c80 f   LIBCMT:ulldiv.obj
 0001:00064ce8       _wait_a_bit                03065ce8 f i LIBCMT:crtheap.obj
 0001:00064d0e       __set_malloc_crt_max_wait  03065d0e f   LIBCMT:crtheap.obj
 0001:00064d23       __malloc_crt               03065d23 f   LIBCMT:crtheap.obj
 0001:00064d68       __calloc_crt               03065d68 f   LIBCMT:crtheap.obj
 0001:00064db4       __realloc_crt              03065db4 f   LIBCMT:crtheap.obj
 0001:00064e02       __recalloc_crt             03065e02 f   LIBCMT:crtheap.obj
 0001:00064e54       __msize                    03065e54 f   LIBCMT:msize.obj
 0001:00064f4e       __INTRN_LOCALE_CONV        03065f4e f i LIBCMT:input.obj
 0001:00064fd3       __input_l                  03065fd3 f   LIBCMT:input.obj
 0001:0006605a       __input_s_l                0306705a f   LIBCMT:inputs.obj
 0001:0006717e       __sse2_mathfcns_init       0306817e f   LIBCMT:_mathfcns_.obj
 0001:00067192       __set_SSE2_enable          03068192 f   LIBCMT:_mathfcns_.obj
 0001:000671b0       __CIatan_pentium4          030681b0 f   LIBCMT:_atan_pentium4_.obj
 0001:000671c8       __atan_pentium4            030681c8     LIBCMT:_atan_pentium4_.obj
 0001:000674a0       __CIacos_pentium4          030684a0 f   LIBCMT:_acos_pentium4_.obj
 0001:000674b8       __acos_pentium4            030684b8     LIBCMT:_acos_pentium4_.obj
 0001:00067a00       __CIasin_pentium4          03068a00 f   LIBCMT:_asin_pentium4_.obj
 0001:00067a18       __asin_pentium4            03068a18     LIBCMT:_asin_pentium4_.obj
 0001:00067f80       __CItan_pentium4           03068f80 f   LIBCMT:_tan_pentium4_.obj
 0001:00067f98       __tan_pentium4             03068f98     LIBCMT:_tan_pentium4_.obj
 0001:000681e0       __CIcos_pentium4           030691e0 f   LIBCMT:_cos_pentium4_.obj
 0001:000681f8       __cos_pentium4             030691f8     LIBCMT:_cos_pentium4_.obj
 0001:00068390       __CIsin_pentium4           03069390 f   LIBCMT:_sin_pentium4_.obj
 0001:000683a8       __sin_pentium4             030693a8     LIBCMT:_sin_pentium4_.obj
 0001:00068560       __allmul                   03069560 f   LIBCMT:llmul.obj
 0001:00068594       __isleadbyte_l             03069594 f i LIBCMT:_wctype.obj
 0001:000685cc       _isleadbyte                030695cc f i LIBCMT:_wctype.obj
 0001:000685df       __iswalpha_l               030695df f i LIBCMT:_wctype.obj
 0001:000685f9       _iswalpha                  030695f9 f i LIBCMT:_wctype.obj
 0001:0006860f       __iswupper_l               0306960f f i LIBCMT:_wctype.obj
 0001:00068626       _iswupper                  03069626 f i LIBCMT:_wctype.obj
 0001:00068639       __iswlower_l               03069639 f i LIBCMT:_wctype.obj
 0001:00068650       _iswlower                  03069650 f i LIBCMT:_wctype.obj
 0001:00068663       __iswdigit_l               03069663 f i LIBCMT:_wctype.obj
 0001:0006867a       _iswdigit                  0306967a f i LIBCMT:_wctype.obj
 0001:0006868d       __iswxdigit_l              0306968d f i LIBCMT:_wctype.obj
 0001:000686a7       _iswxdigit                 030696a7 f i LIBCMT:_wctype.obj
 0001:000686bd       __iswspace_l               030696bd f i LIBCMT:_wctype.obj
 0001:000686d4       _iswspace                  030696d4 f i LIBCMT:_wctype.obj
 0001:000686e7       __iswpunct_l               030696e7 f i LIBCMT:_wctype.obj
 0001:000686fe       _iswpunct                  030696fe f i LIBCMT:_wctype.obj
 0001:00068711       __iswalnum_l               03069711 f i LIBCMT:_wctype.obj
 0001:0006872b       _iswalnum                  0306972b f i LIBCMT:_wctype.obj
 0001:00068741       __iswprint_l               03069741 f i LIBCMT:_wctype.obj
 0001:0006875b       _iswprint                  0306975b f i LIBCMT:_wctype.obj
 0001:00068771       __iswgraph_l               03069771 f i LIBCMT:_wctype.obj
 0001:0006878b       _iswgraph                  0306978b f i LIBCMT:_wctype.obj
 0001:000687a1       __iswcntrl_l               030697a1 f i LIBCMT:_wctype.obj
 0001:000687b8       _iswcntrl                  030697b8 f i LIBCMT:_wctype.obj
 0001:000687cb       _iswascii                  030697cb f i LIBCMT:_wctype.obj
 0001:000687df       __iswcsym_l                030697df f i LIBCMT:_wctype.obj
 0001:00068809       ___iswcsym                 03069809 f i LIBCMT:_wctype.obj
 0001:0006882f       __iswcsymf_l               0306982f f i LIBCMT:_wctype.obj
 0001:00068859       ___iswcsymf                03069859 f i LIBCMT:_wctype.obj
 0001:0006887f       __filbuf                   0306987f f   LIBCMT:_filbuf.obj
 0001:000689aa       __validate_param_reuseA    030699aa f   LIBCMT:outputp.obj
 0001:00068b7b       _get_crtdouble_arg         03069b7b f i LIBCMT:outputp.obj
 0001:00068b90       __output_p_l               03069b90 f   LIBCMT:outputp.obj
 0001:00069e50       ___libm_setusermatherr     0306ae50 f   LIBCMT:_libm_error_.obj
 0001:00069e7e       ___libm_error_support      0306ae7e f   LIBCMT:_libm_error_.obj
 0001:0006a12e       __ceil_default             0306b12e f   LIBCMT:_ceil_.obj
 0001:0006a210       __aulldvrm                 0306b210 f   LIBCMT:ulldvrm.obj
 0001:0006a2b0       __CIpow_pentium4           0306b2b0 f   LIBCMT:_pow_pentium4_.obj
 0001:0006a2c9       __pow_pentium4             0306b2c9     LIBCMT:_pow_pentium4_.obj
 0001:0006ae21       __fFEXP                    0306be21     LIBCMT:_87tran_.obj
 0001:0006ae88       __rtinfpopse               0306be88     LIBCMT:_87tran_.obj
 0001:0006ae8a       __rtinfnpopse              0306be8a     LIBCMT:_87tran_.obj
 0001:0006ae9a       __fFLN                     0306be9a     LIBCMT:_87tran_.obj
 0001:0006af4f       __rtinfpop                 0306bf4f     LIBCMT:_87tran_.obj
 0001:0006af51       __rtinfnpop                0306bf51     LIBCMT:_87tran_.obj
 0001:0006af6e       __ffexpm1                  0306bf6e     LIBCMT:_87tran_.obj
 0001:0006b017       __d_inttype                0306c017 f   LIBCMT:_powhlp_.obj
 0001:0006b07d       __powhlp                   0306c07d f   LIBCMT:_powhlp_.obj
 0001:0006b1bd       _vprintf_helper            0306c1bd f   LIBCMT:vprintf.obj
 0001:0006b24d       __vprintf_l                0306c24d f   LIBCMT:vprintf.obj
 0001:0006b26a       __vprintf_s_l              0306c26a f   LIBCMT:vprintf.obj
 0001:0006b287       __vprintf_p_l              0306c287 f   LIBCMT:vprintf.obj
 0001:0006b2a4       _vprintf                   0306c2a4 f   LIBCMT:vprintf.obj
 0001:0006b2c0       _vprintf_s                 0306c2c0 f   LIBCMT:vprintf.obj
 0001:0006b2dc       __vprintf_p                0306c2dc f   LIBCMT:vprintf.obj
 0001:0006b2f8       __setenvp                  0306c2f8 f   LIBCMT:stdenvp.obj
 0001:0006b3d6       __set_pgmptr               0306c3d6 f i LIBCMT:stdargv.obj
 0001:0006b57f       __setargv                  0306c57f f   LIBCMT:stdargv.obj
 0001:0006b63a       ___crtGetEnvironmentStringsA 0306c63a f   LIBCMT:a_env.obj
 0001:0006b771       __RTC_Initialize           0306c771 f   LIBCMT:_initsect_.obj
 0001:0006b797       __RTC_Terminate            0306c797 f   LIBCMT:_initsect_.obj
 0001:0006b7bd       __initp_misc_winxfltr      0306c7bd f   LIBCMT:winxfltr.obj
 0001:0006b7f3       __XcptFilter               0306c7f3 f   LIBCMT:winxfltr.obj
 0001:0006b953       ___CppXcptFilter           0306c953 f   LIBCMT:winxfltr.obj
 0001:0006b973       ___security_init_cookie    0306c973 f   LIBCMT:gs_support.obj
 0001:0006ba09       ___report_gsfailure        0306ca09 f   LIBCMT:gs_report.obj
 0001:0006bb0f       _CallDestructExceptionObject 0306cb0f f   LIBCMT:calldtor.obj
 0001:0006bc10       __ValidateEH3RN            0306cc10 f   LIBCMT:eh3valid.obj
 0001:0006bf59       __initp_misc_initcrit      0306cf59 f   LIBCMT:initcrit.obj
 0001:0006bf68       ___crtInitCritSecAndSpinCount 0306cf68 f   LIBCMT:initcrit.obj
 0001:0006bfd0       __ValidateImageBase        0306cfd0 f   LIBCMT:pesect.obj
 0001:0006c010       __FindPESection            0306d010 f   LIBCMT:pesect.obj
 0001:0006c060       __IsNonwritableInCurrentImage 0306d060 f   LIBCMT:pesect.obj
 0001:0006c11d       __initp_misc_winsig        0306d11d f   LIBCMT:winsig.obj
 0001:0006c20d       ___get_sigabrt             0306d20d f   LIBCMT:winsig.obj
 0001:0006c21a       ___fpecode                 0306d21a f   LIBCMT:winsig.obj
 0001:0006c223       ___pxcptinfoptrs           0306d223 f   LIBCMT:winsig.obj
 0001:0006c22c       _signal                    0306d22c f   LIBCMT:winsig.obj
 0001:0006c469       _raise                     0306d469 f   LIBCMT:winsig.obj
 0001:0006c619       __initp_misc_rand_s        0306d619 f   LIBCMT:rand_s.obj
 0001:0006c628       _rand_s                    0306d628 f   LIBCMT:rand_s.obj
 0001:0006c730       ___crtMessageBoxA          0306d730 f   LIBCMT:crtmbox.obj
 0001:0006c899       _strcat_s                  0306d899 f   LIBCMT:strcat_s.obj
 0001:0006c90d       _strncpy_s                 0306d90d f   LIBCMT:strncpy_s.obj
 0001:0006c9c2       __set_error_mode           0306d9c2 f   LIBCMT:errmode.obj
 0001:0006ca0d       ___set_app_type            0306da0d f   LIBCMT:errmode.obj
 0001:0006ca1c       ___get_app_type            0306da1c f   LIBCMT:errmode.obj
 0001:0006ca22       __lseeki64_nolock          0306da22 f   LIBCMT:lseeki64.obj
 0001:0006caa7       __lseeki64                 0306daa7 f   LIBCMT:lseeki64.obj
 0001:0006cbc0       __write_nolock             0306dbc0 f   LIBCMT:write.obj
 0001:0006d2f3       __write                    0306e2f3 f   LIBCMT:write.obj
 0001:0006d3cf       __getbuf                   0306e3cf f   LIBCMT:_getbuf.obj
 0001:0006d418       __isatty                   0306e418 f   LIBCMT:isatty.obj
 0001:0006d47c       __wctomb_s_l               0306e47c f   LIBCMT:wctomb.obj
 0001:0006d5e8       _wctomb_s                  0306e5e8 f   LIBCMT:wctomb.obj
 0001:0006d605       __wctomb_l                 0306e605 f   LIBCMT:wctomb.obj
 0001:0006d656       _wctomb                    0306e656 f   LIBCMT:wctomb.obj
 0001:0006d72e       __output_s_l               0306e72e f   LIBCMT:outputs.obj
 0001:0006e2fe       __atodbl_l                 0306f2fe f   LIBCMT:atodbl.obj
 0001:0006e3a6       __atodbl                   0306f3a6 f   LIBCMT:atodbl.obj
 0001:0006e3bd       __atoldbl_l                0306f3bd f   LIBCMT:atodbl.obj
 0001:0006e466       __atoldbl                  0306f466 f   LIBCMT:atodbl.obj
 0001:0006e47d       __atoflt_l                 0306f47d f   LIBCMT:atodbl.obj
 0001:0006e525       __atoflt                   0306f525 f   LIBCMT:atodbl.obj
 0001:0006e53c       __set_output_format        0306f53c f   LIBCMT:outputformat.obj
 0001:0006e578       __get_output_format        0306f578 f   LIBCMT:outputformat.obj
 0001:0006e57e       __fptostr                  0306f57e f   LIBCMT:_fptostr.obj
 0001:0006e63d       ___dtold                   0306f63d f   LIBCMT:_cfout_.obj
 0001:0006e6fa       __fltout2                  0306f6fa f   LIBCMT:_cfout_.obj
 0001:0006e790       __alldvrm                  0306f790 f   LIBCMT:lldvrm.obj
 0001:0006e870       __aullshr                  0306f870 f   LIBCMT:ullshr.obj
 0001:0006e88f       __fptrap                   0306f88f f   LIBCMT:crt0fp.obj
 0001:0006e898       __controlfp_s              0306f898 f   LIBCMT:_contrlfp_.obj
 0001:0006e904       ??0Block@HeapManager@@QAE@XZ 0306f904 f i LIBCMT:undname.obj
 0001:0006e90a       ?Constructor@HeapManager@@QAEXP6APAXI@ZP6AXPAX@Z@Z 0306f90a f i LIBCMT:undname.obj
 0001:0006e929       ?Destructor@HeapManager@@QAEXXZ 0306f929 f i LIBCMT:undname.obj
 0001:0006e951       ?getNumberOfDimensions@UnDecorator@@CAHXZ 0306f951 f   LIBCMT:undname.obj
 0001:0006e9b4       ?getTypeEncoding@UnDecorator@@CAHXZ 0306f9b4 f i LIBCMT:undname.obj
 0001:0006eea0       ?doUnderScore@UnDecorator@@SAHXZ 0306fea0 f i LIBCMT:undname.obj
 0001:0006eeab       ?doMSKeywords@UnDecorator@@SAHXZ 0306feab f i LIBCMT:undname.obj
 0001:0006eeb8       ?doPtr64@UnDecorator@@SAHXZ 0306feb8 f i LIBCMT:undname.obj
 0001:0006eec6       ?doFunctionReturns@UnDecorator@@SAHXZ 0306fec6 f i LIBCMT:undname.obj
 0001:0006eed4       ?doAllocationModel@UnDecorator@@SAHXZ 0306fed4 f i LIBCMT:undname.obj
 0001:0006eee2       ?doAllocationLanguage@UnDecorator@@SAHXZ 0306fee2 f i LIBCMT:undname.obj
 0001:0006eef0       ?doThisTypes@UnDecorator@@SAHXZ 0306fef0 f i LIBCMT:undname.obj
 0001:0006ef02       ?doAccessSpecifiers@UnDecorator@@SAHXZ 0306ff02 f i LIBCMT:undname.obj
 0001:0006ef10       ?doThrowTypes@UnDecorator@@SAHXZ 0306ff10 f i LIBCMT:undname.obj
 0001:0006ef1e       ?doMemberTypes@UnDecorator@@SAHXZ 0306ff1e f i LIBCMT:undname.obj
 0001:0006ef2c       ?doNameOnly@UnDecorator@@SAHXZ 0306ff2c f i LIBCMT:undname.obj
 0001:0006ef37       ?doTypeOnly@UnDecorator@@SAHXZ 0306ff37 f i LIBCMT:undname.obj
 0001:0006ef42       ?haveTemplateParameters@UnDecorator@@SAHXZ 0306ff42 f i LIBCMT:undname.obj
 0001:0006ef4d       ?doEcsu@UnDecorator@@SAHXZ 0306ff4d f i LIBCMT:undname.obj
 0001:0006ef5b       ?doNoIdentCharCheck@UnDecorator@@SAHXZ 0306ff5b f i LIBCMT:undname.obj
 0001:0006ef66       ?doEllipsis@UnDecorator@@SAHXZ 0306ff66 f i LIBCMT:undname.obj
 0001:0006ef74       ?UScore@UnDecorator@@SAPBDW4Tokens@@@Z 0306ff74 f   LIBCMT:undname.obj
 0001:0006ef92       ?getMemory@HeapManager@@QAEPAXIH@Z 0306ff92 f   LIBCMT:undname.obj
 0001:0006f01a       ??0DName@@QAE@XZ           0307001a f i LIBCMT:undname.obj
 0001:0006f02b       ??0DName@@QAE@ABV0@@Z      0307002b f i LIBCMT:undname.obj
 0001:0006f043       ?isValid@DName@@QBEHXZ     03070043 f i LIBCMT:undname.obj
 0001:0006f04d       ?isEmpty@DName@@QBEHXZ     0307004d f i LIBCMT:undname.obj
 0001:0006f055       ?status@DName@@QBE?AW4DNameStatus@@XZ 03070055 f i LIBCMT:undname.obj
 0001:0006f05a       ?setPtrRef@DName@@QAEAAV1@XZ 0307005a f i LIBCMT:undname.obj
 0001:0006f064       ?isPtrRef@DName@@QBEHXZ    03070064 f i LIBCMT:undname.obj
 0001:0006f06e       ?isUDC@DName@@QBEHXZ       0307006e f i LIBCMT:undname.obj
 0001:0006f07f       ?setIsUDC@DName@@QAEXXZ    0307007f f i LIBCMT:undname.obj
 0001:0006f08c       ?isUDTThunk@DName@@QBEHXZ  0307008c f i LIBCMT:undname.obj
 0001:0006f09d       ?setIsArray@DName@@QAEXXZ  0307009d f i LIBCMT:undname.obj
 0001:0006f0a5       ?isArray@DName@@QBEHXZ     030700a5 f i LIBCMT:undname.obj
 0001:0006f0af       ?isNoTE@DName@@QBEHXZ      030700af f i LIBCMT:undname.obj
 0001:0006f0b9       ?setIsNoTE@DName@@QAEXXZ   030700b9 f i LIBCMT:undname.obj
 0001:0006f0c1       ?isPinPtr@DName@@QBEHXZ    030700c1 f i LIBCMT:undname.obj
 0001:0006f0cb       ?setIsPinPtr@DName@@QAEXXZ 030700cb f i LIBCMT:undname.obj
 0001:0006f0d3       ?isComArray@DName@@QBEHXZ  030700d3 f i LIBCMT:undname.obj
 0001:0006f0dd       ?setIsComArray@DName@@QAEXXZ 030700dd f i LIBCMT:undname.obj
 0001:0006f0e5       ?isVCallThunk@DName@@QBEHXZ 030700e5 f i LIBCMT:undname.obj
 0001:0006f0ef       ?setIsVCallThunk@DName@@QAEXXZ 030700ef f i LIBCMT:undname.obj
 0001:0006f0f7       ?length@DName@@QBEHXZ      030700f7 f i LIBCMT:undname.obj
 0001:0006f104       ?getLastChar@DName@@QBEDXZ 03070104 f i LIBCMT:undname.obj
 0001:0006f112       ?getString@DName@@QBEPADPAD0@Z 03070112 f i LIBCMT:undname.obj
 0001:0006f12a       ??_5DName@@QAEAAV0@ABV0@@Z 0307012a f   LIBCMT:undname.obj
 0001:0006f149       ??4DName@@QAEAAV0@ABV0@@Z  03070149 f   LIBCMT:undname.obj
 0001:0006f161       ?isFull@Replicator@@QBEHXZ 03070161 f i LIBCMT:undname.obj
 0001:0006f16a       ??0Replicator@@QAE@XZ      0307016a f i LIBCMT:undname.obj
 0001:0006f170       ??0DNameNode@@IAE@XZ       03070170 f   LIBCMT:undname.obj
 0001:0006f179       ??0charNode@@QAE@D@Z       03070179 f   LIBCMT:undname.obj
 0001:0006f190       ?length@charNode@@UBEHXZ   03070190 f i LIBCMT:undname.obj
 0001:0006f194       ?getLastChar@charNode@@UBEDXZ 03070194 f i LIBCMT:undname.obj
 0001:0006f198       ?getString@charNode@@UBEPADPAD0@Z 03070198 f i LIBCMT:undname.obj
 0001:0006f1af       ??0pDNameNode@@QAE@PAVDName@@@Z 030701af f   LIBCMT:undname.obj
 0001:0006f1d9       ?length@pDNameNode@@UBEHXZ 030701d9 f i LIBCMT:undname.obj
 0001:0006f1ef       ?getLastChar@pDNameNode@@UBEDXZ 030701ef f i LIBCMT:undname.obj
 0001:0006f206       ?getString@pDNameNode@@UBEPADPAD0@Z 03070206 f i LIBCMT:undname.obj
 0001:0006f21f       ??0DNameStatusNode@@AAE@W4DNameStatus@@@Z 0307021f f   LIBCMT:undname.obj
 0001:0006f244       ?length@DNameStatusNode@@UBEHXZ 03070244 f i LIBCMT:undname.obj
 0001:0006f248       ?getLastChar@DNameStatusNode@@UBEDXZ 03070248 f i LIBCMT:undname.obj
 0001:0006f254       ?make@DNameStatusNode@@SAPAV1@W4DNameStatus@@@Z 03070254 f i LIBCMT:undname.obj
 0001:0006f2da       ??0pairNode@@QAE@PAVDNameNode@@0@Z 030702da f   LIBCMT:undname.obj
 0001:0006f2fb       ?length@pairNode@@UBEHXZ   030702fb f i LIBCMT:undname.obj
 0001:0006f326       ?getLastChar@pairNode@@UBEDXZ 03070326 f i LIBCMT:undname.obj
 0001:0006f342       ?getString@pairNode@@UBEPADPAD0@Z 03070342 f i LIBCMT:undname.obj
 0001:0006f3bc       ??0UnDecorator@@QAE@PADPBDHP6APADJ@ZK@Z 030703bc f i LIBCMT:undname.obj
 0001:0006f42b       ?getDataIndirectType@UnDecorator@@CA?AVDName@@XZ 0307042b f i LIBCMT:undname.obj
 0001:0006f460       ?getThisType@UnDecorator@@CA?AVDName@@XZ 03070460 f i LIBCMT:undname.obj
 0001:0006f496       ??2@YAPAXIAAVHeapManager@@H@Z 03070496 f i LIBCMT:undname.obj
 0001:0006f4ad       ?getStringHelper@@YAPADPAD00H@Z 030704ad f i LIBCMT:undname.obj
 0001:0006f4e4       ??0DName@@QAE@PAV0@@Z      030704e4 f   LIBCMT:undname.obj
 0001:0006f537       ??0DName@@QAE@W4DNameStatus@@@Z 03070537 f   LIBCMT:undname.obj
 0001:0006f57c       ?getString@DName@@QBEPADPADH@Z 0307057c f i LIBCMT:undname.obj
 0001:0006f5d4       ?append@DName@@AAEXPAVDNameNode@@@Z 030705d4 f   LIBCMT:undname.obj
 0001:0006f613       ??4DName@@QAEAAV0@PAV0@@Z  03070613 f   LIBCMT:undname.obj
 0001:0006f660       ??4DName@@QAEAAV0@W4DNameStatus@@@Z 03070660 f   LIBCMT:undname.obj
 0001:0006f697       ??YReplicator@@QAEAAV0@ABVDName@@@Z 03070697 f   LIBCMT:undname.obj
 0001:0006f6e1       ??AReplicator@@QBE?AVDName@@H@Z 030706e1 f   LIBCMT:undname.obj
 0001:0006f721       ??0pcharNode@@QAE@PBDH@Z   03070721 f   LIBCMT:undname.obj
 0001:0006f778       ?length@pcharNode@@UBEHXZ  03070778 f i LIBCMT:undname.obj
 0001:0006f77c       ?getLastChar@pcharNode@@UBEDXZ 0307077c f i LIBCMT:undname.obj
 0001:0006f78e       ?getString@pcharNode@@UBEPADPAD0@Z 0307078e f i LIBCMT:undname.obj
 0001:0006f7ab       ?getString@DNameStatusNode@@UBEPADPAD0@Z 030707ab f i LIBCMT:undname.obj
 0001:0006f7d4       ?getReturnType@UnDecorator@@CA?AVDName@@PAV2@@Z 030707d4 f   LIBCMT:undname.obj
 0001:0006f805       ?getStorageConvention@UnDecorator@@CA?AVDName@@XZ 03070805 f i LIBCMT:undname.obj
 0001:0006f818       ??YDName@@QAEAAV0@W4DNameStatus@@@Z 03070818 f   LIBCMT:undname.obj
 0001:0006f85a       ?doPchar@DName@@AAEXPBDH@Z 0307085a f   LIBCMT:undname.obj
 0001:0006f8d6       ??0DName@@QAE@D@Z          030708d6 f   LIBCMT:undname.obj
 0001:0006f903       ??0DName@@QAE@PBD@Z        03070903 f   LIBCMT:undname.obj
 0001:0006f93c       ??0DName@@QAE@AAPBDD@Z     0307093c f   LIBCMT:undname.obj
 0001:0006f9fb       ??0DName@@QAE@_K@Z         030709fb f   LIBCMT:undname.obj
 0001:0006fa69       ??0DName@@QAE@_J@Z         03070a69 f   LIBCMT:undname.obj
 0001:0006fb04       ??HDName@@QBE?AV0@W4DNameStatus@@@Z 03070b04 f   LIBCMT:undname.obj
 0001:0006fb28       ??YDName@@QAEAAV0@ABV0@@Z  03070b28 f   LIBCMT:undname.obj
 0001:0006fb6b       ??YDName@@QAEAAV0@PAV0@@Z  03070b6b f   LIBCMT:undname.obj
 0001:0006fbd2       ??4DName@@QAEAAV0@D@Z      03070bd2 f i LIBCMT:undname.obj
 0001:0006fbff       ??4DName@@QAEAAV0@PBD@Z    03070bff f   LIBCMT:undname.obj
 0001:0006fc34       ?getCallingConvention@UnDecorator@@CA?AVDName@@XZ 03070c34 f   LIBCMT:undname.obj
 0001:0006fcde       ?getVCallThunkType@UnDecorator@@CA?AVDName@@XZ 03070cde f i LIBCMT:undname.obj
 0001:0006fd17       ??HDName@@QBE?AV0@ABV0@@Z  03070d17 f   LIBCMT:undname.obj
 0001:0006fd3b       ??HDName@@QBE?AV0@PAV0@@Z  03070d3b f   LIBCMT:undname.obj
 0001:0006fd5f       ??YDName@@QAEAAV0@D@Z      03070d5f f   LIBCMT:undname.obj
 0001:0006fdb1       ??YDName@@QAEAAV0@PBD@Z    03070db1 f   LIBCMT:undname.obj
 0001:0006fe15       ?getArgumentList@UnDecorator@@CA?AVDName@@XZ 03070e15 f   LIBCMT:undname.obj
 0001:0006ff17       ?getVdispMapType@UnDecorator@@CA?AVDName@@ABV2@@Z 03070f17 f i LIBCMT:undname.obj
 0001:0006ff6b       ??H@YA?AVDName@@DABV0@@Z   03070f6b f i LIBCMT:undname.obj
 0001:0006ff8f       ??H@YA?AVDName@@W4DNameStatus@@ABV0@@Z 03070f8f f i LIBCMT:undname.obj
 0001:0006ffb3       ??H@YA?AVDName@@PBDABV0@@Z 03070fb3 f i LIBCMT:undname.obj
 0001:0006ffd7       ??HDName@@QBE?AV0@D@Z      03070fd7 f   LIBCMT:undname.obj
 0001:0006fffb       ??HDName@@QBE?AV0@PBD@Z    03070ffb f   LIBCMT:undname.obj
 0001:0007001f       ?getDimension@UnDecorator@@CA?AVDName@@_N@Z 0307101f f   LIBCMT:undname.obj
 0001:00070171       ?getEnumType@UnDecorator@@CA?AVDName@@XZ 03071171 f i LIBCMT:undname.obj
 0001:00070245       ?getArgumentTypes@UnDecorator@@CA?AVDName@@XZ 03071245 f   LIBCMT:undname.obj
 0001:00070321       ?getThrowTypes@UnDecorator@@CA?AVDName@@XZ 03071321 f   LIBCMT:undname.obj
 0001:000703a0       ?getExtendedDataIndirectType@UnDecorator@@CA?AVDName@@AADAA_NH@Z 030713a0 f   LIBCMT:undname.obj
 0001:0007051d       ?getArrayType@UnDecorator@@CA?AVDName@@ABV2@@Z 0307151d f i LIBCMT:undname.obj
 0001:00070697       ?getLexicalFrame@UnDecorator@@CA?AVDName@@XZ 03071697 f i LIBCMT:undname.obj
 0001:000706ca       ?getDisplacement@UnDecorator@@CA?AVDName@@XZ 030716ca f i LIBCMT:undname.obj
 0001:000706e0       ?getCallIndex@UnDecorator@@CA?AVDName@@XZ 030716e0 f i LIBCMT:undname.obj
 0001:000706f6       ?getGuardNumber@UnDecorator@@CA?AVDName@@XZ 030716f6 f i LIBCMT:undname.obj
 0001:0007070c       ?getVfTableType@UnDecorator@@CA?AVDName@@ABV2@@Z 0307170c f i LIBCMT:undname.obj
 0001:00070843       ?getStringEncoding@UnDecorator@@CA?AVDName@@PADH@Z 03071843 f   LIBCMT:undname.obj
 0001:000708e7       ?getSignedDimension@UnDecorator@@CA?AVDName@@XZ 030718e7 f   LIBCMT:undname.obj
 0001:00070939       ?getTemplateConstant@UnDecorator@@CA?AVDName@@XZ 03071939 f   LIBCMT:undname.obj
 0001:00070c06       ?getPtrRefDataType@UnDecorator@@CA?AVDName@@ABV2@H@Z 03071c06 f i LIBCMT:undname.obj
 0001:00070ce4       ?getVbTableType@UnDecorator@@CA?AVDName@@ABV2@@Z 03071ce4 f i LIBCMT:undname.obj
 0001:00070cfb       ?getTemplateArgumentList@UnDecorator@@CA?AVDName@@XZ 03071cfb f   LIBCMT:undname.obj
 0001:00070ebf       ?getOperatorName@UnDecorator@@CA?AVDName@@_NPA_N@Z 03071ebf f i LIBCMT:undname.obj
 0001:0007145c       ?getTemplateName@UnDecorator@@CA?AVDName@@_N@Z 0307245c f   LIBCMT:undname.obj
 0001:000715a3       ?getZName@UnDecorator@@CA?AVDName@@_N0@Z 030725a3 f   LIBCMT:undname.obj
 0001:00071799       ?getScopedName@UnDecorator@@CA?AVDName@@XZ 03072799 f   LIBCMT:undname.obj
 0001:0007186a       ?getECSUName@UnDecorator@@CA?AVDName@@XZ 0307286a f i LIBCMT:undname.obj
 0001:0007187d       ?getECSUDataType@UnDecorator@@CA?AVDName@@XZ 0307287d f   LIBCMT:undname.obj
 0001:00071984       ?getSymbolName@UnDecorator@@CA?AVDName@@XZ 03072984 f i LIBCMT:undname.obj
 0001:000719ce       ?getBasedType@UnDecorator@@CA?AVDName@@XZ 030729ce f   LIBCMT:undname.obj
 0001:00071a66       ?composeDeclaration@UnDecorator@@CA?AVDName@@ABV2@@Z 03072a66 f i LIBCMT:undname.obj
 0001:00072601       ?getDecoratedName@UnDecorator@@CA?AVDName@@XZ 03073601 f   LIBCMT:undname.obj
 0001:00072819       ?getScope@UnDecorator@@CA?AVDName@@XZ 03073819 f   LIBCMT:undname.obj
 0001:00072a89       ?getFunctionIndirectType@UnDecorator@@CA?AVDName@@ABV2@@Z 03073a89 f   LIBCMT:undname.obj
 0001:00072ddd       ?getDataIndirectType@UnDecorator@@CA?AVDName@@ABV2@D0H@Z 03073ddd f   LIBCMT:undname.obj
 0001:000732a4       ??BUnDecorator@@QAEPADXZ   030742a4 f i LIBCMT:undname.obj
 0001:000733d5       ?getPtrRefType@UnDecorator@@CA?AVDName@@ABV2@0D@Z 030743d5 f   LIBCMT:undname.obj
 0001:000734ce       ?getPointerType@UnDecorator@@CA?AVDName@@ABV2@0@Z 030744ce f i LIBCMT:undname.obj
 0001:000734eb       ?getPointerTypeArray@UnDecorator@@CA?AVDName@@ABV2@0@Z 030744eb f i LIBCMT:undname.obj
 0001:00073508       ?getReferenceType@UnDecorator@@CA?AVDName@@ABV2@0@Z 03074508 f i LIBCMT:undname.obj
 0001:00073525       ___unDName                 03074525 f   LIBCMT:undname.obj
 0001:000735bf       ___unDNameEx               030745bf f   LIBCMT:undname.obj
 0001:00073659       ?getBasicDataType@UnDecorator@@CA?AVDName@@ABV2@@Z 03074659 f   LIBCMT:undname.obj
 0001:00073a10       ?getPrimaryDataType@UnDecorator@@CA?AVDName@@ABV2@@Z 03074a10 f   LIBCMT:undname.obj
 0001:00073b48       ?getDataType@UnDecorator@@CA?AVDName@@PAV2@@Z 03074b48 f   LIBCMT:undname.obj
 0001:00073c08       ?getExternalDataType@UnDecorator@@CA?AVDName@@ABV2@@Z 03074c08 f i LIBCMT:undname.obj
 0001:00073c76       ?_ValidateRead@@YAHPBXI@Z  03074c76 f   LIBCMT:validate.obj
 0001:00073c88       ?_ValidateWrite@@YAHPAXI@Z 03074c88 f   LIBCMT:validate.obj
 0001:00073c9a       ?_ValidateExecute@@YAHP6GHXZ@Z 03074c9a f   LIBCMT:validate.obj
 0001:00073e66       ___crtGetStringTypeA       03074e66 f   LIBCMT:a_str.obj
 0001:00073ea8       ___pwctype_func            03074ea8 f   LIBCMT:ctype.obj
 0001:00073eae       ___pctype_func             03074eae f   LIBCMT:ctype.obj
 0001:000742f2       ___free_lc_time            030752f2 f   LIBCMT:inittime.obj
 0001:00074487       ___init_time               03075487 f   LIBCMT:inittime.obj
 0001:00074533       ___free_lconv_num          03075533 f   LIBCMT:initnum.obj
 0001:00074578       ___init_numeric            03075578 f   LIBCMT:initnum.obj
 0001:00074775       ___free_lconv_mon          03075775 f   LIBCMT:initmon.obj
 0001:00074803       ___init_monetary           03075803 f   LIBCMT:initmon.obj
 0001:00074ac9       ___init_ctype              03075ac9 f   LIBCMT:initctyp.obj
 0001:00074e6b       ____mb_cur_max_func        03075e6b f   LIBCMT:initctyp.obj
 0001:00074e94       ____mb_cur_max_l_func      03075e94 f   LIBCMT:initctyp.obj
 0001:00074eb0       ____lc_codepage_func       03075eb0 f   LIBCMT:initctyp.obj
 0001:00074ed6       ____lc_collate_cp_func     03075ed6 f   LIBCMT:initctyp.obj
 0001:00074efc       ____lc_handle_func         03075efc f   LIBCMT:initctyp.obj
 0001:00074f22       ___init_collate            03075f22 f   LIBCMT:initcoll.obj
 0001:00074f25       __Getdays_l                03075f25 f   LIBCMT:strftime.obj
 0001:00075025       __Getdays                  03076025 f   LIBCMT:strftime.obj
 0001:0007502e       __Getmonths_l              0307602e f   LIBCMT:strftime.obj
 0001:0007512e       __Getmonths                0307612e f   LIBCMT:strftime.obj
 0001:00075137       __Gettnames_l              03076137 f   LIBCMT:strftime.obj
 0001:0007548e       __Gettnames                0307648e f   LIBCMT:strftime.obj
 0001:00075db1       __Strftime_l               03076db1 f   LIBCMT:strftime.obj
 0001:00075f55       __strftime_l               03076f55 f   LIBCMT:strftime.obj
 0001:00075f75       _strftime                  03076f75 f   LIBCMT:strftime.obj
 0001:00075f94       __Strftime                 03076f94 f   LIBCMT:strftime.obj
 0001:00075fb4       _localeconv                03076fb4 f   LIBCMT:lconv.obj
 0001:00075fe0       _strcspn                   03076fe0 f   LIBCMT:strcspn.obj
 0001:00076621       ___get_qualified_locale    03077621 f   LIBCMT:getqloc.obj
 0001:00076820       _strpbrk                   03077820 f   LIBCMT:strpbrk.obj
 0001:00076860       __87except                 03077860 f   LIBCMT:_87except_.obj
 0001:0007699f       __set_osfhnd               0307799f f   LIBCMT:osfinfo.obj
 0001:00076a20       __free_osfhnd              03077a20 f   LIBCMT:osfinfo.obj
 0001:00076aa6       __get_osfhandle            03077aa6 f   LIBCMT:osfinfo.obj
 0001:00076b1d       ___lock_fhandle            03077b1d f   LIBCMT:osfinfo.obj
 0001:00076bbd       __unlock_fhandle           03077bbd f   LIBCMT:osfinfo.obj
 0001:00076be4       __alloc_osfhnd             03077be4 f   LIBCMT:osfinfo.obj
 0001:00076d7e       __open_osfhandle           03077d7e f   LIBCMT:osfinfo.obj
 0001:00076e94       __commit                   03077e94 f   LIBCMT:commit.obj
 0001:00076f75       __fcloseall                03077f75 f   LIBCMT:closeall.obj
 0001:00077733       __open                     03078733 f   LIBCMT:open.obj
 0001:000777e9       __sopen_helper             030787e9 f   LIBCMT:open.obj
 0001:000778b5       __sopen                    030788b5 f   LIBCMT:open.obj
 0001:000778e7       __sopen_s                  030788e7 f   LIBCMT:open.obj
 0001:00077907       __mbsnbicmp_l              03078907 f   LIBCMT:mbsnbicm.obj
 0001:00077b32       __mbsnbicmp                03078b32 f   LIBCMT:mbsnbicm.obj
 0001:00077b4c       __mbsnbcmp_l               03078b4c f   LIBCMT:mbsnbcmp.obj
 0001:00077cb6       __mbsnbcmp                 03078cb6 f   LIBCMT:mbsnbcmp.obj
 0001:00077cd0       __ZeroTail                 03078cd0 f i LIBCMT:_intrncvt_.obj
 0001:00077d19       __IncMan                   03078d19 f i LIBCMT:_intrncvt_.obj
 0001:00077d86       __RoundMan                 03078d86 f i LIBCMT:_intrncvt_.obj
 0001:00077e76       __CopyMan                  03078e76 f i LIBCMT:_intrncvt_.obj
 0001:00077e95       __FillZeroMan              03078e95 f i LIBCMT:_intrncvt_.obj
 0001:00077ea6       __IsZeroMan                03078ea6 f i LIBCMT:_intrncvt_.obj
 0001:00077ec5       __ShrMan                   03078ec5 f i LIBCMT:_intrncvt_.obj
 0001:00077f5f       __ld12cvt                  03078f5f f i LIBCMT:_intrncvt_.obj
 0001:0007848a       __ld12tod                  0307948a f   LIBCMT:_intrncvt_.obj
 0001:000789ce       __ld12tof                  030799ce f   LIBCMT:_intrncvt_.obj
 0001:00078f12       __ld12told                 03079f12 f   LIBCMT:_intrncvt_.obj
 0001:00078fd9       ___add_12                  03079fd9 f i LIBCMT:_mantold_.obj
 0001:0007904a       ___mtold12                 0307a04a f   LIBCMT:_mantold_.obj
 0001:00079218       ___ansicp                  0307a218 f   LIBCMT:convrtcp.obj
 0001:00079261       ___convertcp               0307a261 f   LIBCMT:convrtcp.obj
 0001:0007942e       ___crtGetLocaleInfoW       0307a42e f   LIBCMT:w_loc.obj
 0001:000795a1       ___crtGetLocaleInfoA       0307a5a1 f   LIBCMT:a_loc.obj
 0001:000795de       __getenv_helper_nolock     0307a5de f   LIBCMT:getenv.obj
 0001:0007979e       _getenv                    0307a79e f   LIBCMT:getenv.obj
 0001:00079821       _getenv_s                  0307a821 f   LIBCMT:getenv.obj
 0001:000798f9       __dupenv_s                 0307a8f9 f   LIBCMT:getenv.obj
 0001:000799df       __calloc_impl              0307a9df f   LIBCMT:calloc_impl.obj
 0001:00079afd       _realloc                   0307aafd f   LIBCMT:realloc.obj
 0001:00079d18       __recalloc                 0307ad18 f   LIBCMT:recalloc.obj
 0001:00079d93       __ungetc_nolock            0307ad93 f   LIBCMT:ungetc.obj
 0001:00079e84       _ungetc                    0307ae84 f   LIBCMT:ungetc.obj
 0001:00079ef6       __mbtowc_l                 0307aef6 f   LIBCMT:mbtowc.obj
 0001:0007a00d       _mbtowc                    0307b00d f   LIBCMT:mbtowc.obj
 0001:0007a027       __iswctype_l               0307b027 f   LIBCMT:iswctype.obj
 0001:0007a0b1       _iswctype                  0307b0b1 f   LIBCMT:iswctype.obj
 0001:0007a127       _is_wctype                 0307b127 f   LIBCMT:iswctype.obj
 0001:0007a132       __read_nolock              0307b132 f   LIBCMT:read.obj
 0001:0007a6f4       __read                     0307b6f4 f   LIBCMT:read.obj
 0001:0007a7f1       __matherr                  0307b7f1 f   LIBCMT:_matherr_.obj
 0001:0007a7f4       __raise_exc_ex             0307b7f4 f   LIBCMT:_fpexcept_.obj
 0001:0007aad0       __raise_exc                0307bad0 f   LIBCMT:_fpexcept_.obj
 0001:0007aaf3       __raise_excf               0307baf3 f   LIBCMT:_fpexcept_.obj
 0001:0007ab16       __handle_exc               0307bb16 f   LIBCMT:_fpexcept_.obj
 0001:0007acf8       __set_errno_from_matherr   0307bcf8 f   LIBCMT:_fpexcept_.obj
 0001:0007ad4b       __errcode                  0307bd4b f   LIBCMT:_fpexcept_.obj
 0001:0007ad7f       __umatherr                 0307bd7f f   LIBCMT:_fpexcept_.obj
 0001:0007ae1f       __handle_qnan1             0307be1f f   LIBCMT:_fpexcept_.obj
 0001:0007ae74       __handle_qnan2             0307be74 f   LIBCMT:_fpexcept_.obj
 0001:0007aed5       __except1                  0307bed5 f   LIBCMT:_fpexcept_.obj
 0001:0007af9e       __except2                  0307bf9e f   LIBCMT:_fpexcept_.obj
 0001:0007b076       __frnd                     0307c076 f   LIBCMT:_frnd_.obj
 0001:0007b08a       __set_exp                  0307c08a f   LIBCMT:_util_.obj
 0001:0007b0b6       __get_exp                  0307c0b6 f   LIBCMT:_util_.obj
 0001:0007b0ce       __add_exp                  0307c0ce f   LIBCMT:_util_.obj
 0001:0007b0fb       __set_bexp                 0307c0fb f   LIBCMT:_util_.obj
 0001:0007b122       __sptype                   0307c122 f   LIBCMT:_util_.obj
 0001:0007b182       __decomp                   0307c182 f   LIBCMT:_util_.obj
 0001:0007b23b       __statfp                   0307c23b f   LIBCMT:_fpctrl_.obj
 0001:0007b24b       __clrfp                    0307c24b f   LIBCMT:_fpctrl_.obj
 0001:0007b25c       __ctrlfp                   0307c25c f   LIBCMT:_fpctrl_.obj
 0001:0007b285       __set_statfp               0307c285 f   LIBCMT:_fpctrl_.obj
 0001:0007b2dd       ___get_fpsr_sse2           0307c2dd f   LIBCMT:_fpctrl_.obj
 0001:0007b2fb       ___set_fpsr_sse2           0307c2fb f   LIBCMT:_fpctrl_.obj
 0001:0007b36d       ___fclrf_sse2              0307c36d f   LIBCMT:_fpctrl_.obj
 0001:0007b38a       ___statfp_sse2             0307c38a f   LIBCMT:_fpctrl_.obj
 0001:0007b39d       ___clrfp_sse2              0307c39d f   LIBCMT:_fpctrl_.obj
 0001:0007b3b5       ___ctrlfp_sse2             0307c3b5 f   LIBCMT:_fpctrl_.obj
 0001:0007b3ec       ___set_statfp_sse2         0307c3ec f   LIBCMT:_fpctrl_.obj
 0001:0007b410       _fdiv_main_routine         0307c410 f   LIBCMT:_adj_fdiv_.obj
 0001:0007b527       __adj_fdiv_r               0307c527 f   LIBCMT:_adj_fdiv_.obj
 0001:0007b9c6       __fdivp_sti_st             0307c9c6 f   LIBCMT:_adj_fdiv_.obj
 0001:0007b9d9       __fdivrp_sti_st            0307c9d9 f   LIBCMT:_adj_fdiv_.obj
 0001:0007b9ec       __adj_fdiv_m32             0307c9ec f   LIBCMT:_adj_fdiv_.obj
 0001:0007ba38       __adj_fdiv_m64             0307ca38 f   LIBCMT:_adj_fdiv_.obj
 0001:0007ba84       __adj_fdiv_m16i            0307ca84 f   LIBCMT:_adj_fdiv_.obj
 0001:0007bab8       __adj_fdiv_m32i            0307cab8 f   LIBCMT:_adj_fdiv_.obj
 0001:0007baec       __adj_fdivr_m32            0307caec f   LIBCMT:_adj_fdiv_.obj
 0001:0007bb38       __adj_fdivr_m64            0307cb38 f   LIBCMT:_adj_fdiv_.obj
 0001:0007bb84       __adj_fdivr_m16i           0307cb84 f   LIBCMT:_adj_fdiv_.obj
 0001:0007bbb8       __adj_fdivr_m32i           0307cbb8 f   LIBCMT:_adj_fdiv_.obj
 0001:0007bbec       __safe_fdiv                0307cbec f   LIBCMT:_adj_fdiv_.obj
 0001:0007bc01       __safe_fdivr               0307cc01 f   LIBCMT:_adj_fdiv_.obj
 0001:0007bc16       __fprem_common             0307cc16 f   LIBCMT:_adj_fdiv_.obj
 0001:0007be1c       __adj_fprem                0307ce1c f   LIBCMT:_adj_fdiv_.obj
 0001:0007bece       __fprem1_common            0307cece f   LIBCMT:_adj_fdiv_.obj
 0001:0007c0d4       __adj_fprem1               0307d0d4 f   LIBCMT:_adj_fdiv_.obj
 0001:0007c189       __safe_fprem               0307d189 f   LIBCMT:_adj_fdiv_.obj
 0001:0007c18f       __safe_fprem1              0307d18f f   LIBCMT:_adj_fdiv_.obj
 0001:0007c195       __adj_fpatan               0307d195 f   LIBCMT:_adj_fdiv_.obj
 0001:0007c198       __adj_fptan                0307d198 f   LIBCMT:_adj_fdiv_.obj
 0001:0007c19b       __copysign                 0307d19b f   LIBCMT:_ieeemisc_.obj
 0001:0007c1c3       __chgsign                  0307d1c3 f   LIBCMT:_ieeemisc_.obj
 0001:0007c1f0       __scalb                    0307d1f0 f   LIBCMT:_ieeemisc_.obj
 0001:0007c20a       __logb                     0307d20a f   LIBCMT:_ieeemisc_.obj
 0001:0007c2f3       __nextafter                0307d2f3 f   LIBCMT:_ieeemisc_.obj
 0001:0007c59b       __finite                   0307d59b f   LIBCMT:_ieeemisc_.obj
 0001:0007c5b7       __isnan                    0307d5b7 f   LIBCMT:_ieeemisc_.obj
 0001:0007c5eb       __fpclass                  0307d5eb f   LIBCMT:_ieeemisc_.obj
 0001:0007c6d2       __ismbbkalnum_l            0307d6d2 f   LIBCMT:ismbbyte.obj
 0001:0007c6eb       __ismbbkalnum              0307d6eb f   LIBCMT:ismbbyte.obj
 0001:0007c703       __ismbbkprint_l            0307d703 f   LIBCMT:ismbbyte.obj
 0001:0007c71c       __ismbbkprint              0307d71c f   LIBCMT:ismbbyte.obj
 0001:0007c734       __ismbbkpunct_l            0307d734 f   LIBCMT:ismbbyte.obj
 0001:0007c74d       __ismbbkpunct              0307d74d f   LIBCMT:ismbbyte.obj
 0001:0007c765       __ismbbalnum_l             0307d765 f   LIBCMT:ismbbyte.obj
 0001:0007c781       __ismbbalnum               0307d781 f   LIBCMT:ismbbyte.obj
 0001:0007c79c       __ismbbalpha_l             0307d79c f   LIBCMT:ismbbyte.obj
 0001:0007c7b8       __ismbbalpha               0307d7b8 f   LIBCMT:ismbbyte.obj
 0001:0007c7d3       __ismbbgraph_l             0307d7d3 f   LIBCMT:ismbbyte.obj
 0001:0007c7ef       __ismbbgraph               0307d7ef f   LIBCMT:ismbbyte.obj
 0001:0007c80a       __ismbbprint_l             0307d80a f   LIBCMT:ismbbyte.obj
 0001:0007c826       __ismbbprint               0307d826 f   LIBCMT:ismbbyte.obj
 0001:0007c841       __ismbbpunct_l             0307d841 f   LIBCMT:ismbbyte.obj
 0001:0007c85a       __ismbbpunct               0307d85a f   LIBCMT:ismbbyte.obj
 0001:0007c872       __ismbblead_l              0307d872 f   LIBCMT:ismbbyte.obj
 0001:0007c88b       __ismbblead                0307d88b f   LIBCMT:ismbbyte.obj
 0001:0007c8a3       __ismbbtrail_l             0307d8a3 f   LIBCMT:ismbbyte.obj
 0001:0007c8bc       __ismbbtrail               0307d8bc f   LIBCMT:ismbbyte.obj
 0001:0007c8d4       __ismbbkana_l              0307d8d4 f   LIBCMT:ismbbyte.obj
 0001:0007c929       __ismbbkana                0307d929 f   LIBCMT:ismbbyte.obj
 0001:0007c93c       __putwch_nolock            0307d93c f   LIBCMT:putwch.obj
 0001:0007ca01       __cputws                   0307da01 f   LIBCMT:putwch.obj
 0001:0007caa0       __putwch                   0307daa0 f   LIBCMT:putwch.obj
 0001:0007cae6       _$I10_OUTPUT               0307dae6 f   LIBCMT:_x10fout_.obj
 0001:0007d40a       __set_controlfp            0307e40a f   LIBCMT:_ieee87_.obj
 0001:0007d77e       __statusfp                 0307e77e f   LIBCMT:_ieee87_.obj
 0001:0007d810       __fpreset                  0307e810 f   LIBCMT:_ieee87_.obj
 0001:0007da49       __statusfp2                0307ea49 f   LIBCMT:_ieee87_.obj
 0001:0007daa3       __clearfp                  0307eaa3 f   LIBCMT:_ieee87_.obj
 0001:0007db7c       ___control87_2             0307eb7c f   LIBCMT:_ieee87_.obj
 0001:0007de90       __control87                0307ee90 f i LIBCMT:_ieee87_.obj
 0001:0007e19f       __controlfp                0307f19f f   LIBCMT:_ieee87_.obj
 0001:0007e4b1       __strnicmp_l               0307f4b1 f   LIBCMT:strnicmp.obj
 0001:0007e5a3       __strnicmp                 0307f5a3 f   LIBCMT:strnicmp.obj
 0001:0007e5a3       _strnicmp                  0307f5a3 f   LIBCMT:strnicmp.obj
 0001:0007e6de       __itoa_s                   0307f6de f   LIBCMT:xtoas.obj
 0001:0007e708       __ltoa_s                   0307f708 f   LIBCMT:xtoas.obj
 0001:0007e72f       __ultoa_s                  0307f72f f   LIBCMT:xtoas.obj
 0001:0007e841       __i64toa_s                 0307f841 f   LIBCMT:xtoas.obj
 0001:0007e876       __ui64toa_s                0307f876 f   LIBCMT:xtoas.obj
 0001:0007e895       __chsize_nolock            0307f895 f   LIBCMT:chsize.obj
 0001:0007ea4b       __chsize_s                 0307fa4b f   LIBCMT:chsize.obj
 0001:0007eb38       __chsize                   0307fb38 f   LIBCMT:chsize.obj
 0001:0007eb54       __lseek_nolock             0307fb54 f   LIBCMT:lseek.obj
 0001:0007ebc9       __lseek                    0307fbc9 f   LIBCMT:lseek.obj
 0001:0007eca5       __setmode_nolock           0307fca5 f   LIBCMT:setmode.obj
 0001:0007ed61       __set_fmode                0307fd61 f   LIBCMT:setmode.obj
 0001:0007edad       __get_fmode                0307fdad f   LIBCMT:setmode.obj
 0001:0007ede6       __setmode                  0307fde6 f   LIBCMT:setmode.obj
 0001:0007eedd       __mbsnbicoll_l             0307fedd f   LIBCMT:mbsnbico.obj
 0001:0007efcb       __mbsnbicoll               0307ffcb f   LIBCMT:mbsnbico.obj
 0001:0007efe5       ___wtomb_environ           0307ffe5 f   LIBCMT:wtombenv.obj
 0001:0007f07c       _calloc                    0308007c f   LIBCMT:calloc.obj
 0001:0007f0df       ___crtGetStringTypeW       030800df f   LIBCMT:w_str.obj
 0001:0007f11d       _ldexp                     0308011d f   LIBCMT:_ldexp_.obj
 0001:0007f2cf       ___initconin               030802cf f   LIBCMT:initcon.obj
 0001:0007f2ee       ___initconout              030802ee f   LIBCMT:initcon.obj
 0001:0007f30d       ___termcon                 0308030d f   LIBCMT:initcon.obj
 0001:0007f33a       _wcslen                    0308033a f   LIBCMT:wcslen.obj
 0001:0007f360       ___ascii_strnicmp          03080360 f   LIBCMT:_strnicm.obj
 0001:0007f74f       ___crtCompareStringA       0308074f f   LIBCMT:a_cmp.obj
 0001:0007f791       __strnicoll_l              03080791 f   LIBCMT:strnicol.obj
 0001:0007f88b       __strnicoll                0308088b f   LIBCMT:strnicol.obj
 0001:0007f960       ___crtsetenv               03080960 f   LIBCMT:setenv.obj
 0001:0007fbab       _strdup                    03080bab f   LIBCMT:strdup.obj
 0001:0007fbab       __strdup                   03080bab f   LIBCMT:strdup.obj
 0001:0007fc00       __mbschr_l                 03080c00 f   LIBCMT:mbschr.obj
 0001:0007fcbc       __mbschr                   03080cbc f   LIBCMT:mbschr.obj
 0001:0007fcd4       _SetLastError@4            03080cd4 f   kernel32:KERNEL32.dll
 0001:0007fcda       _VirtualProtect@16         03080cda f   kernel32:KERNEL32.dll
 0001:0007fce0       _FlushInstructionCache@12  03080ce0 f   kernel32:KERNEL32.dll
 0001:0007fce6       _VirtualQuery@12           03080ce6 f   kernel32:KERNEL32.dll
 0001:0007fcec       _GetLastError@0            03080cec f   kernel32:KERNEL32.dll
 0001:0007fcf2       _HeapFree@12               03080cf2 f   kernel32:KERNEL32.dll
 0001:0007fcf8       _HeapAlloc@12              03080cf8 f   kernel32:KERNEL32.dll
 0001:0007fcfe       _TerminateProcess@8        03080cfe f   kernel32:KERNEL32.dll
 0001:0007fd04       _UnhandledExceptionFilter@4 03080d04 f   kernel32:KERNEL32.dll
 0001:0007fd0a       _SetUnhandledExceptionFilter@4 03080d0a f   kernel32:KERNEL32.dll
 0001:0007fd10       _IsDebuggerPresent@0       03080d10 f   kernel32:KERNEL32.dll
 0001:0007fd16       _RaiseException@16         03080d16 f   kernel32:KERNEL32.dll
 0001:0007fd1c       _RtlUnwind@16              03080d1c f   kernel32:KERNEL32.dll
 0001:0007fd22       _CreateDirectoryA@8        03080d22 f   kernel32:KERNEL32.dll
 0001:0007fd28       _GetSystemTimeAsFileTime@4 03080d28 f   kernel32:KERNEL32.dll
 0001:0007fd2e       _GetFileAttributesA@4      03080d2e f   kernel32:KERNEL32.dll
 0001:0007fd34       _DeleteFileA@4             03080d34 f   kernel32:KERNEL32.dll
 0001:0007fd3a       _GetCurrentThreadId@0      03080d3a f   kernel32:KERNEL32.dll
 0001:0007fd40       _GetCommandLineA@0         03080d40 f   kernel32:KERNEL32.dll
 0001:0007fd46       _HeapCreate@12             03080d46 f   kernel32:KERNEL32.dll
 0001:0007fd4c       _HeapDestroy@4             03080d4c f   kernel32:KERNEL32.dll
 0001:0007fd52       _VirtualFree@12            03080d52 f   kernel32:KERNEL32.dll
 0001:0007fd58       _FatalAppExitA@8           03080d58 f   kernel32:KERNEL32.dll
 0001:0007fd5e       _VirtualAlloc@16           03080d5e f   kernel32:KERNEL32.dll
 0001:0007fd64       _HeapReAlloc@16            03080d64 f   kernel32:KERNEL32.dll
 0001:0007fd6a       _GetModuleHandleW@4        03080d6a f   kernel32:KERNEL32.dll
 0001:0007fd70       _ExitProcess@4             03080d70 f   kernel32:KERNEL32.dll
 0001:0007fd76       _WriteFile@20              03080d76 f   kernel32:KERNEL32.dll
 0001:0007fd7c       _GetStdHandle@4            03080d7c f   kernel32:KERNEL32.dll
 0001:0007fd82       _TlsGetValue@4             03080d82 f   kernel32:KERNEL32.dll
 0001:0007fd88       _TlsAlloc@0                03080d88 f   kernel32:KERNEL32.dll
 0001:0007fd8e       _TlsSetValue@8             03080d8e f   kernel32:KERNEL32.dll
 0001:0007fd94       _TlsFree@4                 03080d94 f   kernel32:KERNEL32.dll
 0001:0007fd9a       _InterlockedIncrement@4    03080d9a f   kernel32:KERNEL32.dll
 0001:0007fda0       _InterlockedDecrement@4    03080da0 f   kernel32:KERNEL32.dll
 0001:0007fda6       _GetCurrentThread@0        03080da6 f   kernel32:KERNEL32.dll
 0001:0007fdac       _GetCPInfo@8               03080dac f   kernel32:KERNEL32.dll
 0001:0007fdb2       _GetACP@0                  03080db2 f   kernel32:KERNEL32.dll
 0001:0007fdb8       _GetOEMCP@0                03080db8 f   kernel32:KERNEL32.dll
 0001:0007fdbe       _IsValidCodePage@4         03080dbe f   kernel32:KERNEL32.dll
 0001:0007fdc4       _CloseHandle@4             03080dc4 f   kernel32:KERNEL32.dll
 0001:0007fdca       _SetHandleCount@4          03080dca f   kernel32:KERNEL32.dll
 0001:0007fdd0       _GetFileType@4             03080dd0 f   kernel32:KERNEL32.dll
 0001:0007fdd6       _GetStartupInfoA@4         03080dd6 f   kernel32:KERNEL32.dll
 0001:0007fddc       _LCMapStringA@24           03080ddc f   kernel32:KERNEL32.dll
 0001:0007fde2       _WideCharToMultiByte@32    03080de2 f   kernel32:KERNEL32.dll
 0001:0007fde8       _MultiByteToWideChar@24    03080de8 f   kernel32:KERNEL32.dll
 0001:0007fdee       _LCMapStringW@24           03080dee f   kernel32:KERNEL32.dll
 0001:0007fdf4       _GetTimeZoneInformation@4  03080df4 f   kernel32:KERNEL32.dll
 0001:0007fdfa       _HeapSize@12               03080dfa f   kernel32:KERNEL32.dll
 0001:0007fe00       _FreeEnvironmentStringsA@4 03080e00 f   kernel32:KERNEL32.dll
 0001:0007fe06       _GetEnvironmentStrings@0   03080e06 f   kernel32:KERNEL32.dll
 0001:0007fe0c       _FreeEnvironmentStringsW@4 03080e0c f   kernel32:KERNEL32.dll
 0001:0007fe12       _GetEnvironmentStringsW@0  03080e12 f   kernel32:KERNEL32.dll
 0001:0007fe18       _QueryPerformanceCounter@4 03080e18 f   kernel32:KERNEL32.dll
 0001:0007fe1e       _GetCurrentProcessId@0     03080e1e f   kernel32:KERNEL32.dll
 0001:0007fe24       _InitializeCriticalSectionAndSpinCount@8 03080e24 f   kernel32:KERNEL32.dll
 0001:0007fe2a       _SetConsoleCtrlHandler@8   03080e2a f   kernel32:KERNEL32.dll
 0001:0007fe30       _InterlockedExchange@8     03080e30 f   kernel32:KERNEL32.dll
 0001:0007fe36       _SetFilePointer@16         03080e36 f   kernel32:KERNEL32.dll
 0001:0007fe3c       _GetConsoleCP@0            03080e3c f   kernel32:KERNEL32.dll
 0001:0007fe42       _GetConsoleMode@8          03080e42 f   kernel32:KERNEL32.dll
 0001:0007fe48       _GetStringTypeA@20         03080e48 f   kernel32:KERNEL32.dll
 0001:0007fe4e       _GetStringTypeW@16         03080e4e f   kernel32:KERNEL32.dll
 0001:0007fe54       _GetTimeFormatA@24         03080e54 f   kernel32:KERNEL32.dll
 0001:0007fe5a       _GetDateFormatA@24         03080e5a f   kernel32:KERNEL32.dll
 0001:0007fe60       _GetUserDefaultLCID@0      03080e60 f   kernel32:KERNEL32.dll
 0001:0007fe66       _GetLocaleInfoA@16         03080e66 f   kernel32:KERNEL32.dll
 0001:0007fe6c       _EnumSystemLocalesA@8      03080e6c f   kernel32:KERNEL32.dll
 0001:0007fe72       _IsValidLocale@8           03080e72 f   kernel32:KERNEL32.dll
 0001:0007fe78       _SetStdHandle@8            03080e78 f   kernel32:KERNEL32.dll
 0001:0007fe7e       _FlushFileBuffers@4        03080e7e f   kernel32:KERNEL32.dll
 0001:0007fe84       _CreateFileA@28            03080e84 f   kernel32:KERNEL32.dll
 0001:0007fe8a       _GetLocaleInfoW@16         03080e8a f   kernel32:KERNEL32.dll
 0001:0007fe90       _ReadFile@20               03080e90 f   kernel32:KERNEL32.dll
 0001:0007fe96       _WriteConsoleA@20          03080e96 f   kernel32:KERNEL32.dll
 0001:0007fe9c       _GetConsoleOutputCP@0      03080e9c f   kernel32:KERNEL32.dll
 0001:0007fea2       _WriteConsoleW@20          03080ea2 f   kernel32:KERNEL32.dll
 0001:0007fea8       _SetEndOfFile@4            03080ea8 f   kernel32:KERNEL32.dll
 0001:0007feae       _GetProcessHeap@0          03080eae f   kernel32:KERNEL32.dll
 0001:0007feb4       _CompareStringA@24         03080eb4 f   kernel32:KERNEL32.dll
 0001:0007feba       _CompareStringW@24         03080eba f   kernel32:KERNEL32.dll
 0001:0007fec0       _SetEnvironmentVariableA@8 03080ec0 f   kernel32:KERNEL32.dll
 0001:00080044       __strupr_s_l               03081044 f   LIBCMT:strupr.obj
 0001:00080079       __strupr_s                 03081079 f   LIBCMT:strupr.obj
 0001:00080090       __strupr_l                 03081090 f   LIBCMT:strupr.obj
 0001:000800aa       __strupr                   030810aa f   LIBCMT:strupr.obj
 0001:000800aa       _strupr                    030810aa f   LIBCMT:strupr.obj
 0002:00000000       __imp__HeapReAlloc@16      03082000     kernel32:KERNEL32.dll
 0002:00000004       __imp__CompareStringW@24   03082004     kernel32:KERNEL32.dll
 0002:00000008       __imp__EnterCriticalSection@4 03082008     kernel32:KERNEL32.dll
 0002:0000000c       __imp__LeaveCriticalSection@4 0308200c     kernel32:KERNEL32.dll
 0002:00000010       __imp__DeleteCriticalSection@4 03082010     kernel32:KERNEL32.dll
 0002:00000014       __imp__GetTickCount@0      03082014     kernel32:KERNEL32.dll
 0002:00000018       __imp__InitializeCriticalSection@4 03082018     kernel32:KERNEL32.dll
 0002:0000001c       __imp__GetProcAddress@8    0308201c     kernel32:KERNEL32.dll
 0002:00000020       __imp__GetModuleHandleA@4  03082020     kernel32:KERNEL32.dll
 0002:00000024       __imp__GetPrivateProfileStringA@24 03082024     kernel32:KERNEL32.dll
 0002:00000028       __imp__FindClose@4         03082028     kernel32:KERNEL32.dll
 0002:0000002c       __imp__FindNextFileA@8     0308202c     kernel32:KERNEL32.dll
 0002:00000030       __imp__FindFirstFileA@8    03082030     kernel32:KERNEL32.dll
 0002:00000034       __imp__Beep@8              03082034     kernel32:KERNEL32.dll
 0002:00000038       __imp__WritePrivateProfileStringA@16 03082038     kernel32:KERNEL32.dll
 0002:0000003c       __imp__CreateThread@24     0308203c     kernel32:KERNEL32.dll
 0002:00000040       __imp__OutputDebugStringA@4 03082040     kernel32:KERNEL32.dll
 0002:00000044       __imp__FileTimeToSystemTime@8 03082044     kernel32:KERNEL32.dll
 0002:00000048       __imp__WriteProcessMemory@20 03082048     kernel32:KERNEL32.dll
 0002:0000004c       __imp__VirtualProtectEx@20 0308204c     kernel32:KERNEL32.dll
 0002:00000050       __imp__GetCurrentProcess@0 03082050     kernel32:KERNEL32.dll
 0002:00000054       __imp__GetPrivateProfileIntA@16 03082054     kernel32:KERNEL32.dll
 0002:00000058       __imp__Sleep@4             03082058     kernel32:KERNEL32.dll
 0002:0000005c       __imp__GetModuleFileNameA@12 0308205c     kernel32:KERNEL32.dll
 0002:00000060       __imp__FreeLibrary@4       03082060     kernel32:KERNEL32.dll
 0002:00000064       __imp__LoadLibraryA@4      03082064     kernel32:KERNEL32.dll
 0002:00000068       __imp__WritePrivateProfileSectionA@12 03082068     kernel32:KERNEL32.dll
 0002:0000006c       __imp__CompareStringA@24   0308206c     kernel32:KERNEL32.dll
 0002:00000070       __imp__GetProcessHeap@0    03082070     kernel32:KERNEL32.dll
 0002:00000074       __imp__SetEndOfFile@4      03082074     kernel32:KERNEL32.dll
 0002:00000078       __imp__WriteConsoleW@20    03082078     kernel32:KERNEL32.dll
 0002:0000007c       __imp__GetConsoleOutputCP@0 0308207c     kernel32:KERNEL32.dll
 0002:00000080       __imp__WriteConsoleA@20    03082080     kernel32:KERNEL32.dll
 0002:00000084       __imp__ReadFile@20         03082084     kernel32:KERNEL32.dll
 0002:00000088       __imp__SetLastError@4      03082088     kernel32:KERNEL32.dll
 0002:0000008c       __imp__VirtualProtect@16   0308208c     kernel32:KERNEL32.dll
 0002:00000090       __imp__FlushInstructionCache@12 03082090     kernel32:KERNEL32.dll
 0002:00000094       __imp__VirtualQuery@12     03082094     kernel32:KERNEL32.dll
 0002:00000098       __imp__GetLastError@0      03082098     kernel32:KERNEL32.dll
 0002:0000009c       __imp__HeapFree@12         0308209c     kernel32:KERNEL32.dll
 0002:000000a0       __imp__HeapAlloc@12        030820a0     kernel32:KERNEL32.dll
 0002:000000a4       __imp__TerminateProcess@8  030820a4     kernel32:KERNEL32.dll
 0002:000000a8       __imp__UnhandledExceptionFilter@4 030820a8     kernel32:KERNEL32.dll
 0002:000000ac       __imp__SetUnhandledExceptionFilter@4 030820ac     kernel32:KERNEL32.dll
 0002:000000b0       __imp__IsDebuggerPresent@0 030820b0     kernel32:KERNEL32.dll
 0002:000000b4       __imp__RaiseException@16   030820b4     kernel32:KERNEL32.dll
 0002:000000b8       __imp__RtlUnwind@16        030820b8     kernel32:KERNEL32.dll
 0002:000000bc       __imp__CreateDirectoryA@8  030820bc     kernel32:KERNEL32.dll
 0002:000000c0       __imp__GetSystemTimeAsFileTime@4 030820c0     kernel32:KERNEL32.dll
 0002:000000c4       __imp__GetFileAttributesA@4 030820c4     kernel32:KERNEL32.dll
 0002:000000c8       __imp__DeleteFileA@4       030820c8     kernel32:KERNEL32.dll
 0002:000000cc       __imp__GetCurrentThreadId@0 030820cc     kernel32:KERNEL32.dll
 0002:000000d0       __imp__GetCommandLineA@0   030820d0     kernel32:KERNEL32.dll
 0002:000000d4       __imp__HeapCreate@12       030820d4     kernel32:KERNEL32.dll
 0002:000000d8       __imp__HeapDestroy@4       030820d8     kernel32:KERNEL32.dll
 0002:000000dc       __imp__VirtualFree@12      030820dc     kernel32:KERNEL32.dll
 0002:000000e0       __imp__FatalAppExitA@8     030820e0     kernel32:KERNEL32.dll
 0002:000000e4       __imp__VirtualAlloc@16     030820e4     kernel32:KERNEL32.dll
 0002:000000e8       __imp__SetEnvironmentVariableA@8 030820e8     kernel32:KERNEL32.dll
 0002:000000ec       __imp__GetModuleHandleW@4  030820ec     kernel32:KERNEL32.dll
 0002:000000f0       __imp__ExitProcess@4       030820f0     kernel32:KERNEL32.dll
 0002:000000f4       __imp__WriteFile@20        030820f4     kernel32:KERNEL32.dll
 0002:000000f8       __imp__GetStdHandle@4      030820f8     kernel32:KERNEL32.dll
 0002:000000fc       __imp__TlsGetValue@4       030820fc     kernel32:KERNEL32.dll
 0002:00000100       __imp__TlsAlloc@0          03082100     kernel32:KERNEL32.dll
 0002:00000104       __imp__TlsSetValue@8       03082104     kernel32:KERNEL32.dll
 0002:00000108       __imp__TlsFree@4           03082108     kernel32:KERNEL32.dll
 0002:0000010c       __imp__InterlockedIncrement@4 0308210c     kernel32:KERNEL32.dll
 0002:00000110       __imp__InterlockedDecrement@4 03082110     kernel32:KERNEL32.dll
 0002:00000114       __imp__GetCurrentThread@0  03082114     kernel32:KERNEL32.dll
 0002:00000118       __imp__GetCPInfo@8         03082118     kernel32:KERNEL32.dll
 0002:0000011c       __imp__GetACP@0            0308211c     kernel32:KERNEL32.dll
 0002:00000120       __imp__GetOEMCP@0          03082120     kernel32:KERNEL32.dll
 0002:00000124       __imp__IsValidCodePage@4   03082124     kernel32:KERNEL32.dll
 0002:00000128       __imp__CloseHandle@4       03082128     kernel32:KERNEL32.dll
 0002:0000012c       __imp__SetHandleCount@4    0308212c     kernel32:KERNEL32.dll
 0002:00000130       __imp__GetFileType@4       03082130     kernel32:KERNEL32.dll
 0002:00000134       __imp__GetStartupInfoA@4   03082134     kernel32:KERNEL32.dll
 0002:00000138       __imp__LCMapStringA@24     03082138     kernel32:KERNEL32.dll
 0002:0000013c       __imp__WideCharToMultiByte@32 0308213c     kernel32:KERNEL32.dll
 0002:00000140       __imp__MultiByteToWideChar@24 03082140     kernel32:KERNEL32.dll
 0002:00000144       __imp__LCMapStringW@24     03082144     kernel32:KERNEL32.dll
 0002:00000148       __imp__GetTimeZoneInformation@4 03082148     kernel32:KERNEL32.dll
 0002:0000014c       __imp__HeapSize@12         0308214c     kernel32:KERNEL32.dll
 0002:00000150       __imp__FreeEnvironmentStringsA@4 03082150     kernel32:KERNEL32.dll
 0002:00000154       __imp__GetEnvironmentStrings@0 03082154     kernel32:KERNEL32.dll
 0002:00000158       __imp__FreeEnvironmentStringsW@4 03082158     kernel32:KERNEL32.dll
 0002:0000015c       __imp__GetEnvironmentStringsW@0 0308215c     kernel32:KERNEL32.dll
 0002:00000160       __imp__QueryPerformanceCounter@4 03082160     kernel32:KERNEL32.dll
 0002:00000164       __imp__GetCurrentProcessId@0 03082164     kernel32:KERNEL32.dll
 0002:00000168       __imp__InitializeCriticalSectionAndSpinCount@8 03082168     kernel32:KERNEL32.dll
 0002:0000016c       __imp__SetConsoleCtrlHandler@8 0308216c     kernel32:KERNEL32.dll
 0002:00000170       __imp__InterlockedExchange@8 03082170     kernel32:KERNEL32.dll
 0002:00000174       __imp__SetFilePointer@16   03082174     kernel32:KERNEL32.dll
 0002:00000178       __imp__GetConsoleCP@0      03082178     kernel32:KERNEL32.dll
 0002:0000017c       __imp__GetConsoleMode@8    0308217c     kernel32:KERNEL32.dll
 0002:00000180       __imp__GetStringTypeA@20   03082180     kernel32:KERNEL32.dll
 0002:00000184       __imp__GetStringTypeW@16   03082184     kernel32:KERNEL32.dll
 0002:00000188       __imp__GetTimeFormatA@24   03082188     kernel32:KERNEL32.dll
 0002:0000018c       __imp__GetDateFormatA@24   0308218c     kernel32:KERNEL32.dll
 0002:00000190       __imp__GetUserDefaultLCID@0 03082190     kernel32:KERNEL32.dll
 0002:00000194       __imp__GetLocaleInfoA@16   03082194     kernel32:KERNEL32.dll
 0002:00000198       __imp__EnumSystemLocalesA@8 03082198     kernel32:KERNEL32.dll
 0002:0000019c       __imp__IsValidLocale@8     0308219c     kernel32:KERNEL32.dll
 0002:000001a0       __imp__SetStdHandle@8      030821a0     kernel32:KERNEL32.dll
 0002:000001a4       __imp__FlushFileBuffers@4  030821a4     kernel32:KERNEL32.dll
 0002:000001a8       __imp__CreateFileA@28      030821a8     kernel32:KERNEL32.dll
 0002:000001ac       __imp__GetLocaleInfoW@16   030821ac     kernel32:KERNEL32.dll
 0002:000001b0       \177KERNEL32_NULL_THUNK_DATA 030821b0     kernel32:KERNEL32.dll
 0002:000001b4       __imp__ShellExecuteA@24    030821b4     shell32:SHELL32.dll
 0002:000001b8       \177SHELL32_NULL_THUNK_DATA 030821b8     shell32:SHELL32.dll
 0002:000001bc       __imp__UnhookWindowsHookEx@4 030821bc     user32:USER32.dll
 0002:000001c0       __imp__SetWindowsHookExA@16 030821c0     user32:USER32.dll
 0002:000001c4       __imp__MessageBoxA@16      030821c4     user32:USER32.dll
 0002:000001c8       __imp__CallNextHookEx@16   030821c8     user32:USER32.dll
 0002:000001cc       \177USER32_NULL_THUNK_DATA 030821cc     user32:USER32.dll
 0002:000001d0       __imp__PlaySoundA@12       030821d0     winmm:WINMM.dll
 0002:000001d4       \177WINMM_NULL_THUNK_DATA  030821d4     winmm:WINMM.dll
 0002:000001d8       ___xc_a                    030821d8     LIBCMT:crt0init.obj
 0002:0000020c       ___xc_z                    0308220c     LIBCMT:crt0init.obj
 0002:00000210       ___xi_a                    03082210     LIBCMT:crt0init.obj
 0002:0000022c       ___xi_z                    0308222c     LIBCMT:crt0init.obj
 0002:00000230       ___xp_a                    03082230     LIBCMT:crt0init.obj
 0002:0000023c       ___xp_z                    0308223c     LIBCMT:crt0init.obj
 0002:00000240       ___xt_a                    03082240     LIBCMT:crt0init.obj
 0002:00000244       ___xt_z                    03082244     LIBCMT:crt0init.obj
 0002:0000026c       ??_C@_03BMIBANNE@ber?$AA@  0308226c     EQClasses.obj
 0002:00000270       ??_C@_09MHCCJHFP@Berserker?$AA@ 03082270     EQClasses.obj
 0002:0000027c       ??_C@_03FCHAHFJA@bst?$AA@  0308227c     EQClasses.obj
 0002:00000280       ??_C@_09KINPMODP@Beastlord?$AA@ 03082280     EQClasses.obj
 0002:0000028c       ??_C@_03NONKPJJM@enc?$AA@  0308228c     EQClasses.obj
 0002:00000290       ??_C@_09EEJIJECG@Enchanter?$AA@ 03082290     EQClasses.obj
 0002:0000029c       ??_C@_03HEFOFDEK@mag?$AA@  0308229c     EQClasses.obj
 0002:000002a0       ??_C@_04EPDGEGDL@Mage?$AA@ 030822a0     EQClasses.obj
 0002:000002a8       ??_C@_03LKIFNJBF@wiz?$AA@  030822a8     EQClasses.obj
 0002:000002ac       ??_C@_06MNAGNDLP@Wizard?$AA@ 030822ac     EQClasses.obj
 0002:000002b4       ??_C@_03FIOJBHM@nec?$AA@   030822b4     EQClasses.obj
 0002:000002b8       ??_C@_0M@OEPIPDJH@Necromancer?$AA@ 030822b8     EQClasses.obj
 0002:000002c4       ??_C@_03DBKGKAOD@shm?$AA@  030822c4     EQClasses.obj
 0002:000002c8       ??_C@_06ELHMMIIB@Shaman?$AA@ 030822c8     EQClasses.obj
 0002:000002d0       ??_C@_03HGLKDJIJ@rog?$AA@  030822d0     EQClasses.obj
 0002:000002d4       ??_C@_05PIFIONNP@Rogue?$AA@ 030822d4     EQClasses.obj
 0002:000002dc       ??_C@_03BJHAANPG@brd?$AA@  030822dc     EQClasses.obj
 0002:000002e0       ??_C@_04MOJAIBDA@Bard?$AA@ 030822e0     EQClasses.obj
 0002:000002e8       ??_C@_03NDLHFLHL@mnk?$AA@  030822e8     EQClasses.obj
 0002:000002ec       ??_C@_04DOLLCHAJ@Monk?$AA@ 030822ec     EQClasses.obj
 0002:000002f4       ??_C@_03GPMCHBDK@dru?$AA@  030822f4     EQClasses.obj
 0002:000002f8       ??_C@_05EDJAKLCL@Druid?$AA@ 030822f8     EQClasses.obj
 0002:00000300       ??_C@_03OAGEBLKK@shd?$AA@  03082300     EQClasses.obj
 0002:00000304       ??_C@_0N@ICIHEJOD@Shadowknight?$AA@ 03082304     EQClasses.obj
 0002:00000314       ??_C@_03HHHIFDLO@rng?$AA@  03082314     EQClasses.obj
 0002:00000318       ??_C@_06MGJHBAMJ@Ranger?$AA@ 03082318     EQClasses.obj
 0002:00000320       ??_C@_03DFNJAFMD@pal?$AA@  03082320     EQClasses.obj
 0002:00000324       ??_C@_07DBGCNDAP@Paladin?$AA@ 03082324     EQClasses.obj
 0002:0000032c       ??_C@_03KLOMFBDO@clr?$AA@  0308232c     EQClasses.obj
 0002:00000330       ??_C@_06PBHENIKF@Cleric?$AA@ 03082330     EQClasses.obj
 0002:00000338       ??_C@_03HMEPACKF@war?$AA@  03082338     EQClasses.obj
 0002:0000033c       ??_C@_07DFKLKNJN@Warrior?$AA@ 0308233c     EQClasses.obj
 0002:00000344       ??_C@_00CNPNBAHC@?$AA@     03082344     EQClasses.obj
 0002:00000348       ??_C@_0P@GHFPNOJB@bad?5allocation?$AA@ 03082348     EQClasses.obj
 0002:00000358       ?collate@?$_Locbase@H@std@@2HB 03082358     EQClasses.obj
 0002:0000035c       ?ctype@?$_Locbase@H@std@@2HB 0308235c     EQClasses.obj
 0002:00000360       ?monetary@?$_Locbase@H@std@@2HB 03082360     EQClasses.obj
 0002:00000364       ?numeric@?$_Locbase@H@std@@2HB 03082364     EQClasses.obj
 0002:00000368       ?time@?$_Locbase@H@std@@2HB 03082368     EQClasses.obj
 0002:0000036c       ?messages@?$_Locbase@H@std@@2HB 0308236c     EQClasses.obj
 0002:00000370       ?all@?$_Locbase@H@std@@2HB 03082370     EQClasses.obj
 0002:00000374       ?none@?$_Locbase@H@std@@2HB 03082374     EQClasses.obj
 0002:00000378       ?table_size@?$ctype@D@std@@2IB 03082378     EQClasses.obj
 0002:0000037c       ?skipws@?$_Iosb@H@std@@2W4_Fmtflags@12@B 0308237c     EQClasses.obj
 0002:00000380       ?unitbuf@?$_Iosb@H@std@@2W4_Fmtflags@12@B 03082380     EQClasses.obj
 0002:00000384       ?uppercase@?$_Iosb@H@std@@2W4_Fmtflags@12@B 03082384     EQClasses.obj
 0002:00000388       ?showbase@?$_Iosb@H@std@@2W4_Fmtflags@12@B 03082388     EQClasses.obj
 0002:0000038c       ?showpoint@?$_Iosb@H@std@@2W4_Fmtflags@12@B 0308238c     EQClasses.obj
 0002:00000390       ?showpos@?$_Iosb@H@std@@2W4_Fmtflags@12@B 03082390     EQClasses.obj
 0002:00000394       ?left@?$_Iosb@H@std@@2W4_Fmtflags@12@B 03082394     EQClasses.obj
 0002:00000398       ?right@?$_Iosb@H@std@@2W4_Fmtflags@12@B 03082398     EQClasses.obj
 0002:0000039c       ?internal@?$_Iosb@H@std@@2W4_Fmtflags@12@B 0308239c     EQClasses.obj
 0002:000003a0       ?dec@?$_Iosb@H@std@@2W4_Fmtflags@12@B 030823a0     EQClasses.obj
 0002:000003a4       ?oct@?$_Iosb@H@std@@2W4_Fmtflags@12@B 030823a4     EQClasses.obj
 0002:000003a8       ?hex@?$_Iosb@H@std@@2W4_Fmtflags@12@B 030823a8     EQClasses.obj
 0002:000003ac       ?scientific@?$_Iosb@H@std@@2W4_Fmtflags@12@B 030823ac     EQClasses.obj
 0002:000003b0       ?fixed@?$_Iosb@H@std@@2W4_Fmtflags@12@B 030823b0     EQClasses.obj
 0002:000003b4       ?hexfloat@?$_Iosb@H@std@@2W4_Fmtflags@12@B 030823b4     EQClasses.obj
 0002:000003b8       ?boolalpha@?$_Iosb@H@std@@2W4_Fmtflags@12@B 030823b8     EQClasses.obj
 0002:000003bc       ?_Stdio@?$_Iosb@H@std@@2W4_Fmtflags@12@B 030823bc     EQClasses.obj
 0002:000003c0       ?adjustfield@?$_Iosb@H@std@@2W4_Fmtflags@12@B 030823c0     EQClasses.obj
 0002:000003c4       ?basefield@?$_Iosb@H@std@@2W4_Fmtflags@12@B 030823c4     EQClasses.obj
 0002:000003c8       ?floatfield@?$_Iosb@H@std@@2W4_Fmtflags@12@B 030823c8     EQClasses.obj
 0002:000003cc       ?goodbit@?$_Iosb@H@std@@2W4_Iostate@12@B 030823cc     EQClasses.obj
 0002:000003d0       ?eofbit@?$_Iosb@H@std@@2W4_Iostate@12@B 030823d0     EQClasses.obj
 0002:000003d4       ?failbit@?$_Iosb@H@std@@2W4_Iostate@12@B 030823d4     EQClasses.obj
 0002:000003d8       ?badbit@?$_Iosb@H@std@@2W4_Iostate@12@B 030823d8     EQClasses.obj
 0002:000003dc       ?_Hardfail@?$_Iosb@H@std@@2W4_Iostate@12@B 030823dc     EQClasses.obj
 0002:000003e0       ?in@?$_Iosb@H@std@@2W4_Openmode@12@B 030823e0     EQClasses.obj
 0002:000003e4       ?out@?$_Iosb@H@std@@2W4_Openmode@12@B 030823e4     EQClasses.obj
 0002:000003e8       ?ate@?$_Iosb@H@std@@2W4_Openmode@12@B 030823e8     EQClasses.obj
 0002:000003ec       ?app@?$_Iosb@H@std@@2W4_Openmode@12@B 030823ec     EQClasses.obj
 0002:000003f0       ?trunc@?$_Iosb@H@std@@2W4_Openmode@12@B 030823f0     EQClasses.obj
 0002:000003f4       ?_Nocreate@?$_Iosb@H@std@@2W4_Openmode@12@B 030823f4     EQClasses.obj
 0002:000003f8       ?_Noreplace@?$_Iosb@H@std@@2W4_Openmode@12@B 030823f8     EQClasses.obj
 0002:000003fc       ?binary@?$_Iosb@H@std@@2W4_Openmode@12@B 030823fc     EQClasses.obj
 0002:00000400       ?beg@?$_Iosb@H@std@@2W4_Seekdir@12@B 03082400     EQClasses.obj
 0002:00000404       ?cur@?$_Iosb@H@std@@2W4_Seekdir@12@B 03082404     EQClasses.obj
 0002:00000408       ?end@?$_Iosb@H@std@@2W4_Seekdir@12@B 03082408     EQClasses.obj
 0002:0000040c       ??_C@_0BF@KHBKOLEE@RemoveMQ2Benchmark?$CI?$CJ?$AA@ 0308240c     MQ2Benchmarks.obj
 0002:00000424       ??_C@_0P@BKIFDMBL@End?5Benchmarks?$AA@ 03082424     MQ2Benchmarks.obj
 0002:00000434       ??_C@_0CL@MCBOHMMP@?$FL?$AHy?$CFs?$AHx?$FN?5?$AHt?$CFd?$AHx?5for?5?$AHt?$CFd?$AHxms?0?5?$AHt@ 03082434     MQ2Benchmarks.obj
 0002:00000460       __real@00000000            03082460     MQ2Benchmarks.obj
 0002:00000464       ??_C@_0P@NMDNEMOJ@?9?9?9?9?9?9?9?9?9?9?9?9?9?9?$AA@ 03082464     MQ2Benchmarks.obj
 0002:00000474       ??_C@_0P@IBCBOIHC@MQ2?5Benchmarks?$AA@ 03082474     MQ2Benchmarks.obj
 0002:00000484       ??_C@_0BO@DLFCFMCM@?$AHy?$CFs?$AHx?5completed?5in?5?$AHt?$CF?42f?$AHxs?$AA@ 03082484     MQ2Benchmarks.obj
 0002:000004a8       __real@408f400000000000    030824a8     MQ2Benchmarks.obj
 0002:000004b0       __real@4f800000            030824b0     MQ2Benchmarks.obj
 0002:000004b4       ??_C@_0BN@PEBLFLBM@?$CF?940s?5?5?$CFd?5for?5?$CFdms?0?5?$CF?42f?5avg?$AA@ 030824b4     MQ2Benchmarks.obj
 0002:000004d4       ??_C@_0BE@CGLBCDCF@AddMQ2Benchmark?$CI?$CFs?$CJ?$AA@ 030824d4     MQ2Benchmarks.obj
 0002:000004e8       ??_C@_0L@OKCGGBKK@?1benchmark?$AA@ 030824e8     MQ2Benchmarks.obj
 0002:000004f4       ??_C@_0BM@HIBOGONL@Initializing?5MQ2?5Benchmarks?$AA@ 030824f4     MQ2Benchmarks.obj
 0002:00000510       ??_C@_0BN@OHNHPACO@Shutting?5down?5MQ2?5Benchmarks?$AA@ 03082510     MQ2Benchmarks.obj
 0002:00000534       ??_7bad_alloc@std@@6B@     03082534     MQ2ChatHook.obj
 0002:0000053c       ??_C@_0BA@GBDCPMBP@Lax?1Blech?51?47?44?$AA@ 0308253c     MQ2ChatHook.obj
 0002:0000054c       ??_C@_0BD@KHILPCBD@?$CFs?5tells?5you?0?5?8?$CFs?8?$AA@ 0308254c     MQ2ChatHook.obj
 0002:00000564       ??_7logic_error@std@@6B@   03082564     MQ2ChatHook.obj
 0002:00000570       ??_7out_of_range@std@@6B@  03082570     MQ2ChatHook.obj
 0002:00000578       ??_C@_0BM@PAPJHAGI@invalid?5map?1set?$DMT?$DO?5iterator?$AA@ 03082578     MQ2ChatHook.obj
 0002:00000594       ??_C@_02DKCKIIND@?$CFs?$AA@ 03082594     MQ2ChatHook.obj
 0002:00000598       ??_C@_0BH@MBDMBCCK@Initializing?5chat?5hook?$AA@ 03082598     MQ2ChatHook.obj
 0002:000005b0       ??_C@_0CJ@PFOKGMKL@MQ2?3?5Think?5of?5it?5as?5evolution?5in@ 030825b0     MQ2CleanUI.obj
 0002:000005dc       ??_C@_0BM@IFDPPKEL@Shutting?5down?5Display?5Hooks?$AA@ 030825dc     MQ2CleanUI.obj
 0002:000005f8       ??_C@_0BF@BIGKCLNP@Compat_DrawIndicator?$AA@ 030825f8     MQ2CleanUI.obj
 0002:00000610       ??_C@_0P@KNCDKOBN@EQPlayNice?4dll?$AA@ 03082610     MQ2CleanUI.obj
 0002:00000620       ??_C@_0BL@PDEFKKAN@Initializing?5Display?5Hooks?$AA@ 03082620     MQ2CleanUI.obj
 0002:0000063c       ??_C@_0CA@FCCFHNIH@DoCommand?5?9?5Couldn?8t?5parse?5?8?$CFs?8?$AA@ 0308263c     MQ2CommandAPI.obj
 0002:0000065c       ??_C@_0CC@GOBCALFN@Flow?5ran?5into?5another?5subroutine@ 0308265c     MQ2CommandAPI.obj
 0002:00000680       ??_C@_04FJJPJLP@sub?5?$AA@ 03082680     MQ2CommandAPI.obj
 0002:00000688       ??_C@_0BP@KIHJNNGN@no?5command?5or?5?$HL?5following?5else?$AA@ 03082688     MQ2CommandAPI.obj
 0002:000006a8       ??_C@_0DG@NJPAAPCP@?$HN?5and?5?$HL?5seen?5on?5the?5same?5line?5wi@ 030826a8     MQ2CommandAPI.obj
 0002:000006e0       ??_C@_04FHMCPBIP@else?$AA@ 030826e0     MQ2CommandAPI.obj
 0002:000006e8       ??_C@_01HCONENDN@?$HL?$AA@ 030826e8     MQ2CommandAPI.obj
 0002:000006ec       ??_C@_04HDOCAJNK@?$CFs?$CFs?$AA@ 030826ec     MQ2CommandAPI.obj
 0002:000006f4       ??_C@_0BE@MCKKGAJC@AddCommand?$CI?$CFs?00x?$CFX?$CJ?$AA@ 030826f4     MQ2CommandAPI.obj
 0002:00000708       ??_C@_0CG@MENHPNJK@RemoveCommand?3?5Command?5not?5found@ 03082708     MQ2CommandAPI.obj
 0002:00000730       ??_C@_0BA@OEDMGGGL@AddAlias?$CI?$CFs?0?$CFs?$CJ?$AA@ 03082730     MQ2CommandAPI.obj
 0002:00000740       ??_C@_0BF@PBPJDONC@AddSubstitute?$CI?$CFs?0?$CFs?$CJ?$AA@ 03082740     MQ2CommandAPI.obj
 0002:00000758       ??_C@_01CLKCMJKC@?5?$AA@   03082758     MQ2CommandAPI.obj
 0002:00000760       ??_C@_0FE@ILGAEGAN@A?5macro?5is?5currently?5running?4?5?5Y@ 03082760     MQ2CommandAPI.obj
 0002:000007b4       ??_C@_05IKPPFFMB@?1camp?$AA@ 030827b4     MQ2CommandAPI.obj
 0002:000007bc       ??_C@_0BJ@NGFEJMIF@CCommandHook?3?3Detour?$CI?$CFs?$CJ?$AA@ 030827bc     MQ2CommandAPI.obj
 0002:000007d8       ??_C@_0O@MJPLGCNG@Substitutions?$AA@ 030827d8     MQ2CommandAPI.obj
 0002:000007e8       ??_C@_03NHENGCKF@omg?$AA@  030827e8     MQ2CommandAPI.obj
 0002:000007ec       ??_C@_09OBOAKPMA@Oh?5My?5God?$AA@ 030827ec     MQ2CommandAPI.obj
 0002:000007f8       ??_C@_07ILNBOIJH@Aliases?$AA@ 030827f8     MQ2CommandAPI.obj
 0002:00000800       ??_C@_0BC@NGKFKJCB@?$CFs?2macroquest?4ini?$AA@ 03082800     MQ2CommandAPI.obj
 0002:00000814       ??_C@_06LKADFLEI@?1newif?$AA@ 03082814     MQ2CommandAPI.obj
 0002:0000081c       ??_C@_02COKGDMEE@?1r?$AA@  0308281c     MQ2CommandAPI.obj
 0002:00000820       ??_C@_06JIFBGNGE@?1reply?$AA@ 03082820     MQ2CommandAPI.obj
 0002:00000828       ??_C@_04CGIKALEB@?1key?$AA@ 03082828     MQ2CommandAPI.obj
 0002:00000830       ??_C@_05FOPNBDI@?1keys?$AA@ 03082830     MQ2CommandAPI.obj
 0002:00000838       ??_C@_03DJDKMPJN@?1gu?$AA@ 03082838     MQ2CommandAPI.obj
 0002:0000083c       ??_C@_09LNFJMHAN@?1guildsay?$AA@ 0308283c     MQ2CommandAPI.obj
 0002:00000848       ??_C@_02BJBDNKFA@?1g?$AA@  03082848     MQ2CommandAPI.obj
 0002:0000084c       ??_C@_05FNLHCODI@?1gsay?$AA@ 0308284c     MQ2CommandAPI.obj
 0002:00000854       ??_C@_03BBFPNKCD@?1ba?$AA@ 03082854     MQ2CommandAPI.obj
 0002:00000858       ??_C@_02GEGECOBF@?1b?$AA@  03082858     MQ2CommandAPI.obj
 0002:0000085c       ??_C@_07BOOADDE@?1bazaar?$AA@ 0308285c     MQ2CommandAPI.obj
 0002:00000864       ??_C@_05MPMEJLBC@?1load?$AA@ 03082864     MQ2CommandAPI.obj
 0002:0000086c       ??_C@_02ODPMDCNK@?1m?$AA@  0308286c     MQ2CommandAPI.obj
 0002:00000870       ??_C@_04MPALLEIA@?1msg?$AA@ 03082870     MQ2CommandAPI.obj
 0002:00000878       ??_C@_03BGFGHCPP@?1fa?$AA@ 03082878     MQ2CommandAPI.obj
 0002:0000087c       ??_C@_09BNBIFOMP@?1fastdrop?$AA@ 0308287c     MQ2CommandAPI.obj
 0002:00000888       ??_C@_02IOLBB@?1f?$AA@     03082888     MQ2CommandAPI.obj
 0002:0000088c       ??_C@_09PDEKMEHF@?1feedback?$AA@ 0308288c     MQ2CommandAPI.obj
 0002:00000898       ??_C@_04GJPNCIKE@?1cha?$AA@ 03082898     MQ2CommandAPI.obj
 0002:000008a0       ??_C@_08BLIELLHK@?1channel?$AA@ 030828a0     MQ2CommandAPI.obj
 0002:000008ac       ??_C@_02HNHPBPFE@?1c?$AA@  030828ac     MQ2CommandAPI.obj
 0002:000008b0       ??_C@_09OLEKOPKC@?1consider?$AA@ 030828b0     MQ2CommandAPI.obj
 0002:000008bc       ??_C@_03JPEAFOB@?1ta?$AA@  030828bc     MQ2CommandAPI.obj
 0002:000008c0       ??_C@_04PIDLFPBN@?1tap?$AA@ 030828c0     MQ2CommandAPI.obj
 0002:000008c8       ??_C@_02EPEJHNNG@?1a?$AA@  030828c8     MQ2CommandAPI.obj
 0002:000008cc       ??_C@_0L@IBDIANPL@?1anonymous?$AA@ 030828cc     MQ2CommandAPI.obj
 0002:000008d8       ??_C@_02FDNBMIAB@?1w?$AA@  030828d8     MQ2CommandAPI.obj
 0002:000008dc       ??_C@_02HIPMJLMC@?1t?$AA@  030828dc     MQ2CommandAPI.obj
 0002:000008e0       ??_C@_05DAOILOGO@?1tell?$AA@ 030828e0     MQ2CommandAPI.obj
 0002:000008e8       ??_C@_02DCDOIJJD@?1d?$AA@  030828e8     MQ2CommandAPI.obj
 0002:000008ec       ??_C@_05PMAEFPM@?1duel?$AA@ 030828ec     MQ2CommandAPI.obj
 0002:000008f4       ??_C@_09BMPONNKE@?1nomodkey?$AA@ 030828f4     MQ2CommandAPI.obj
 0002:00000900       ??_C@_08NMFKFKGG@?1noparse?$AA@ 03082900     MQ2CommandAPI.obj
 0002:0000090c       ??_C@_0O@CMAIFLBK@?1captioncolor?$AA@ 0308290c     MQ2CommandAPI.obj
 0002:0000091c       ??_C@_08MOLAHPFJ@?1caption?$AA@ 0308291c     MQ2CommandAPI.obj
 0002:00000928       ??_C@_04NHHFGLMD@?1hud?$AA@ 03082928     MQ2CommandAPI.obj
 0002:00000930       ??_C@_05HJPHKFMO@?1drop?$AA@ 03082930     MQ2CommandAPI.obj
 0002:00000938       ??_C@_0N@NPHAFMPN@?1clearerrors?$AA@ 03082938     MQ2CommandAPI.obj
 0002:00000948       ??_C@_08CMFBMEJP@?1combine?$AA@ 03082948     MQ2CommandAPI.obj
 0002:00000954       ??_C@_03FCELKDAF@?1if?$AA@ 03082954     MQ2CommandAPI.obj
 0002:00000958       ??_C@_06NJDGLLKJ@?1timed?$AA@ 03082958     MQ2CommandAPI.obj
 0002:00000960       ??_C@_09PIBEJDMC@?1shiftkey?$AA@ 03082960     MQ2CommandAPI.obj
 0002:0000096c       ??_C@_07LIOICFGF@?1altkey?$AA@ 0308296c     MQ2CommandAPI.obj
 0002:00000974       ??_C@_08EEBDHILD@?1ctrlkey?$AA@ 03082974     MQ2CommandAPI.obj
 0002:00000980       ??_C@_0L@OMNKDDLO@?1docommand?$AA@ 03082980     MQ2CommandAPI.obj
 0002:0000098c       ??_C@_09JGKEOKPK@?1dosocial?$AA@ 0308298c     MQ2CommandAPI.obj
 0002:00000998       ??_C@_08LAAGFDON@?1squelch?$AA@ 03082998     MQ2CommandAPI.obj
 0002:000009a4       ??_C@_0L@FIJAAEH@?1dumpbinds?$AA@ 030829a4     MQ2CommandAPI.obj
 0002:000009b0       ??_C@_08FOGLDALG@?1loadcfg?$AA@ 030829b0     MQ2CommandAPI.obj
 0002:000009bc       ??_C@_07MNKKOMGP@?1ranged?$AA@ 030829bc     MQ2CommandAPI.obj
 0002:000009c4       ??_C@_05FOMDDNJC@?1bind?$AA@ 030829c4     MQ2CommandAPI.obj
 0002:000009cc       ??_C@_0L@OPIGHIAL@?1multiline?$AA@ 030829cc     MQ2CommandAPI.obj
 0002:000009d8       ??_C@_06FNBMPHHI@?1popup?$AA@ 030829d8     MQ2CommandAPI.obj
 0002:000009e0       ??_C@_09ELIDKOOJ@?1keypress?$AA@ 030829e0     MQ2CommandAPI.obj
 0002:000009ec       ??_C@_05EHFCKIFO@?1exec?$AA@ 030829ec     MQ2CommandAPI.obj
 0002:000009f4       ??_C@_08DEDFHEPF@?1destroy?$AA@ 030829f4     MQ2CommandAPI.obj
 0002:00000a00       ??_C@_07CGOFJOF@?1plugin?$AA@ 03082a00     MQ2CommandAPI.obj
 0002:00000a08       ??_C@_0N@LIGHKJMK@?1windowstate?$AA@ 03082a08     MQ2CommandAPI.obj
 0002:00000a18       ??_C@_09ILJKCIHG@?1keepkeys?$AA@ 03082a18     MQ2CommandAPI.obj
 0002:00000a24       ??_C@_05ECMCKKNH@?1look?$AA@ 03082a24     MQ2CommandAPI.obj
 0002:00000a2c       ??_C@_09HCEFEGMM@?1banklist?$AA@ 03082a2c     MQ2CommandAPI.obj
 0002:00000a38       ??_C@_0M@FCHMGAGB@?1setautorun?$AA@ 03082a38     MQ2CommandAPI.obj
 0002:00000a44       ??_C@_0L@IKEEBMMA@?1dumpstack?$AA@ 03082a44     MQ2CommandAPI.obj
 0002:00000a50       ??_C@_04MKBEDOHK@?1ini?$AA@ 03082a50     MQ2CommandAPI.obj
 0002:00000a58       ??_C@_0N@CPICCDIF@?1updateitems?$AA@ 03082a58     MQ2CommandAPI.obj
 0002:00000a68       ??_C@_07GFPNODDB@?1return?$AA@ 03082a68     MQ2CommandAPI.obj
 0002:00000a70       ??_C@_05GNEKGCKL@?1call?$AA@ 03082a70     MQ2CommandAPI.obj
 0002:00000a78       ??_C@_05IDIMKCLI@?1next?$AA@ 03082a78     MQ2CommandAPI.obj
 0002:00000a80       ??_C@_04DKIDIPIB@?1for?$AA@ 03082a80     MQ2CommandAPI.obj
 0002:00000a88       ??_C@_05EBANBCFD@?1goto?$AA@ 03082a88     MQ2CommandAPI.obj
 0002:00000a90       ??_C@_09HDFDLCEB@?1doevents?$AA@ 03082a90     MQ2CommandAPI.obj
 0002:00000a9c       ??_C@_08MFLLEID@?1cleanup?$AA@ 03082a9c     MQ2CommandAPI.obj
 0002:00000aa8       ??_C@_06FPMJPHJG@?1delay?$AA@ 03082aa8     MQ2CommandAPI.obj
 0002:00000ab0       ??_C@_08IFJMAOCO@?1vardata?$AA@ 03082ab0     MQ2CommandAPI.obj
 0002:00000abc       ??_C@_07JEMGAGG@?1varset?$AA@ 03082abc     MQ2CommandAPI.obj
 0002:00000ac4       ??_C@_08BHLPECHE@?1varcalc?$AA@ 03082ac4     MQ2CommandAPI.obj
 0002:00000ad0       ??_C@_0L@MKAHHBJM@?1deletevar?$AA@ 03082ad0     MQ2CommandAPI.obj
 0002:00000adc       ??_C@_08NHFGDPCC@?1declare?$AA@ 03082adc     MQ2CommandAPI.obj
 0002:00000ae8       ??_C@_09KPLOLIBL@?1seterror?$AA@ 03082ae8     MQ2CommandAPI.obj
 0002:00000af4       ??_C@_06DDHJIFMJ@?1mqlog?$AA@ 03082af4     MQ2CommandAPI.obj
 0002:00000afc       ??_C@_05DGOOLKJO@?1beep?$AA@ 03082afc     MQ2CommandAPI.obj
 0002:00000b04       ??_C@_0M@LIOCPOCN@?1doortarget?$AA@ 03082b04     MQ2CommandAPI.obj
 0002:00000b10       ??_C@_06ODEDLFHK@?1doors?$AA@ 03082b10     MQ2CommandAPI.obj
 0002:00000b18       ??_C@_0M@JMINGACM@?1itemtarget?$AA@ 03082b18     MQ2CommandAPI.obj
 0002:00000b24       ??_C@_06DACKAEBO@?1items?$AA@ 03082b24     MQ2CommandAPI.obj
 0002:00000b2c       ??_C@_08PIODICKP@?1mqpause?$AA@ 03082b2c     MQ2CommandAPI.obj
 0002:00000b38       ??_C@_06DHCPBNA@?1click?$AA@ 03082b38     MQ2CommandAPI.obj
 0002:00000b40       ??_C@_06NENCCILK@?1alert?$AA@ 03082b40     MQ2CommandAPI.obj
 0002:00000b48       ??_C@_08EAOLFCNC@?1lootall?$AA@ 03082b48     MQ2CommandAPI.obj
 0002:00000b54       ??_C@_07MDAMOJBA@?1msgbox?$AA@ 03082b54     MQ2CommandAPI.obj
 0002:00000b5c       ??_C@_05GECHKEJP@?1echo?$AA@ 03082b5c     MQ2CommandAPI.obj
 0002:00000b64       ??_C@_0M@JHDAEFO@?1listmacros?$AA@ 03082b64     MQ2CommandAPI.obj
 0002:00000b70       ??_C@_09ICPEAAIC@?1endmacro?$AA@ 03082b70     MQ2CommandAPI.obj
 0002:00000b7c       ??_C@_0L@MCPOMPOM@?1loginname?$AA@ 03082b7c     MQ2CommandAPI.obj
 0002:00000b88       ??_C@_0M@DIELHCDN@?1loadspells?$AA@ 03082b88     MQ2CommandAPI.obj
 0002:00000b94       ??_C@_09INHMKEKD@?1memspell?$AA@ 03082b94     MQ2CommandAPI.obj
 0002:00000ba0       ??_C@_09COBGEJHN@?1sellitem?$AA@ 03082ba0     MQ2CommandAPI.obj
 0002:00000bac       ??_C@_08KKDNJMLG@?1buyitem?$AA@ 03082bac     MQ2CommandAPI.obj
 0002:00000bb8       ??_C@_06NHNNLIDG@?1macro?$AA@ 03082bb8     MQ2CommandAPI.obj
 0002:00000bc0       ??_C@_07EBCGLDGH@?1unload?$AA@ 03082bc0     MQ2CommandAPI.obj
 0002:00000bc8       ??_C@_07KFDFCALF@?1skills?$AA@ 03082bc8     MQ2CommandAPI.obj
 0002:00000bd0       ??_C@_06KHAEEMOM@?1where?$AA@ 03082bd0     MQ2CommandAPI.obj
 0002:00000bd8       ??_C@_09BFOJNAKJ@?1identify?$AA@ 03082bd8     MQ2CommandAPI.obj
 0002:00000be4       ??_C@_05HPDEBBKP@?1face?$AA@ 03082be4     MQ2CommandAPI.obj
 0002:00000bec       ??_C@_05MMNLIBKN@?1char?$AA@ 03082bec     MQ2CommandAPI.obj
 0002:00000bf4       ??_C@_09BOPGIKN@?1spewfile?$AA@ 03082bf4     MQ2CommandAPI.obj
 0002:00000c00       ??_C@_0L@FHOOKCDN@?1whofilter?$AA@ 03082c00     MQ2CommandAPI.obj
 0002:00000c0c       ??_C@_0M@OFHINLAD@?1substitute?$AA@ 03082c0c     MQ2CommandAPI.obj
 0002:00000c18       ??_C@_03BDBJGEHK@?1aa?$AA@ 03082c18     MQ2CommandAPI.obj
 0002:00000c1c       ??_C@_06MPCFBMOM@?1alias?$AA@ 03082c1c     MQ2CommandAPI.obj
 0002:00000c24       ??_C@_05PICLBOLP@?1cast?$AA@ 03082c24     MQ2CommandAPI.obj
 0002:00000c2c       ??_C@_0L@ECLAFMPA@?1doability?$AA@ 03082c2c     MQ2CommandAPI.obj
 0002:00000c38       ??_C@_07JGJMMIBJ@?1filter?$AA@ 03082c38     MQ2CommandAPI.obj
 0002:00000c40       ??_C@_09EOAMHHNG@?1charinfo?$AA@ 03082c40     MQ2CommandAPI.obj
 0002:00000c4c       ??_C@_07EBKILBIH@?1target?$AA@ 03082c4c     MQ2CommandAPI.obj
 0002:00000c54       ??_C@_05HDIPJJLA@?1help?$AA@ 03082c54     MQ2CommandAPI.obj
 0002:00000c5c       ??_C@_09JKMALBEG@?1location?$AA@ 03082c5c     MQ2CommandAPI.obj
 0002:00000c68       ??_C@_0L@IANKNLKD@?1whotarget?$AA@ 03082c68     MQ2CommandAPI.obj
 0002:00000c74       ??_C@_01KMDKNFGN@?1?$AA@   03082c74     MQ2CommandAPI.obj
 0002:00000c78       ??_C@_04CIAFMFOC@?1who?$AA@ 03082c78     MQ2CommandAPI.obj
 0002:00000c80       ??_C@_0BG@EGPIBHOK@Initializing?5Commands?$AA@ 03082c80     MQ2CommandAPI.obj
 0002:00000c98       ??_C@_0N@HNJJIAEL@DoN?5Merchant?$AA@ 03082c98     MQ2Commands.obj
 0002:00000ca8       ??_C@_08BMEIENOK@Campfire?$AA@ 03082ca8     MQ2Commands.obj
 0002:00000cb4       ??_C@_06NMEBMDIN@Banner?$AA@ 03082cb4     MQ2Commands.obj
 0002:00000cbc       ??_C@_04CLDMMPGN@Aura?$AA@ 03082cbc     MQ2Commands.obj
 0002:00000cc4       ??_C@_0BC@MKJKIPEE@Mercenary?5Liaison?$AA@ 03082cc4     MQ2Commands.obj
 0002:00000cd8       ??_C@_0BF@KHOIGALG@Fellowship?5Registrar?$AA@ 03082cd8     MQ2Commands.obj
 0002:00000cf0       ??_C@_0N@BNCLDFOJ@Guild?5Banker?$AA@ 03082cf0     MQ2Commands.obj
 0002:00000d00       ??_C@_0BF@KMGKBJKG@Guild?5Tribute?5Master?$AA@ 03082d00     MQ2Commands.obj
 0002:00000d18       ??_C@_0P@BKNMCCED@Tribute?5Master?$AA@ 03082d18     MQ2Commands.obj
 0002:00000d28       ??_C@_0BE@LNFKOHCE@Destructible?5Object?$AA@ 03082d28     MQ2Commands.obj
 0002:00000d3c       ??_C@_0O@MIBKNJNC@LDoN?5Merchant?$AA@ 03082d3c     MQ2Commands.obj
 0002:00000d4c       ??_C@_0P@HPHJOKMH@LDoN?5Recruiter?$AA@ 03082d4c     MQ2Commands.obj
 0002:00000d5c       ??_C@_0BB@HIDKNEJD@MQ2?5Unloading?4?4?4?$AA@ 03082d5c     MQ2Commands.obj
 0002:00000d70       ??_C@_0BB@OAGJBGHP@?9?9?9?9?9?9?9?9?9?9?9?9?9?9?9?9?$AA@ 03082d70     MQ2Commands.obj
 0002:00000d84       ??_C@_0L@EBEACPDN@Macro?5list?$AA@ 03082d84     MQ2Commands.obj
 0002:00000d90       ??_C@_0BJ@BLAMALJF@Couldn?8t?5find?5any?5macros?$AA@ 03082d90     MQ2Commands.obj
 0002:00000dac       ??_C@_06BNHEIDIH@?$CFs?2?$CK?4?$CK?$AA@ 03082dac     MQ2Commands.obj
 0002:00000db4       ??_C@_09GOEPMGFE@?$CFs?2?$CK?$CFs?$CK?4?$CK?$AA@ 03082db4     MQ2Commands.obj
 0002:00000dc0       ??_C@_0BB@NMCFJNCL@?$CFd?5item?$CFs?5found?4?$AA@ 03082dc0     MQ2Commands.obj
 0002:00000dd4       ??_C@_01LKDEMHDF@s?$AA@    03082dd4     MQ2Commands.obj
 0002:00000dd8       ??_C@_0BA@OCFEEJJD@No?5items?5found?4?$AA@ 03082dd8     MQ2Commands.obj
 0002:00000de8       ??_C@_0BJ@MJGHBAII@?$CFs?3?5?$CF1?42f?5away?5to?5the?5?$CFs?$AA@ 03082de8     MQ2Commands.obj
 0002:00000e08       __real@3fe0000000000000    03082e08     MQ2Commands.obj
 0002:00000e10       __real@4036800000000000    03082e10     MQ2Commands.obj
 0002:00000e18       __real@4076800000000000    03082e18     MQ2Commands.obj
 0002:00000e20       __real@4066800000000000    03082e20     MQ2Commands.obj
 0002:00000e28       ??_C@_0CG@PDFGJMLA@?5?5?5Item?5found?5?9?5?$CFd?3?5DropID?5?$CFd?5?$CFs@ 03082e28     MQ2Commands.obj
 0002:00000e50       ??_C@_0BM@DKGMJKGP@?9?9?9?9?9?9?9?9?9?9?9?9?9?9?9?9?9?9?9?9?9?9?9?9?9?9?9?$AA@ 03082e50     MQ2Commands.obj
 0002:00000e6c       ??_C@_0BF@FCEHKDNN@Items?5on?5the?5ground?3?$AA@ 03082e6c     MQ2Commands.obj
 0002:00000e84       ??_C@_0BO@HHPFLNLE@Couldn?8t?5find?5?8?$CFs?8?5to?5target?4?$AA@ 03082e84     MQ2Commands.obj
 0002:00000ea4       ??_C@_08HPLPOCJL@notarget?$AA@ 03082ea4     MQ2Commands.obj
 0002:00000eb0       ??_C@_0BE@GGABMIMN@Item?5?8?$CFs?8?5targeted?4?$AA@ 03082eb0     MQ2Commands.obj
 0002:00000ec8       __real@40c3880000000000    03082ec8     MQ2Commands.obj
 0002:00000ed0       __real@47c35000            03082ed0     MQ2Commands.obj
 0002:00000ed4       ??_C@_0BB@OPCICMGF@?$CFd?5door?$CFs?5found?4?$AA@ 03082ed4     MQ2Commands.obj
 0002:00000ee8       ??_C@_0BA@FPIGKJAL@No?5Doors?5found?4?$AA@ 03082ee8     MQ2Commands.obj
 0002:00000ef8       ??_C@_0BN@OGLAMBEN@?$CFd?3?5?$CFs?3?5?$CF1?42f?5away?5to?5the?5?$CFs?$AA@ 03082ef8     MQ2Commands.obj
 0002:00000f18       ??_C@_06ICDPEMJP@Doors?3?$AA@ 03082f18     MQ2Commands.obj
 0002:00000f20       ??_C@_0CD@FLDBPLKD@Couldn?8t?5find?5door?5?8?$CFs?8?5to?5targe@ 03082f20     MQ2Commands.obj
 0002:00000f44       ??_C@_0BH@LMEMPMP@Door?5?$CFd?5?8?$CFs?8?5targeted?4?$AA@ 03082f44     MQ2Commands.obj
 0002:00000f5c       ??_C@_0DB@BINHDJPL@DoorTarget?3?5id?5specified?5but?5no?5@ 03082f5c     MQ2Commands.obj
 0002:00000f90       ??_C@_02EGCJHIOB@id?$AA@   03082f90     MQ2Commands.obj
 0002:00000f94       ??_C@_0DC@GAHHIPAG@The?5location?5of?5your?5bind?5is?3?5?$CF1@ 03082f94     MQ2Commands.obj
 0002:00000fc8       ??_C@_06FKNHHIAI@?$CFd?7?$CFs?6?$AA@ 03082fc8     MQ2Commands.obj
 0002:00000fd0       ??_C@_02BKFDOEMK@wt?$AA@   03082fd0     MQ2Commands.obj
 0002:00000fd4       ??_C@_0BO@BDHIICDM@?5?5?5?5?5?5New?5Item?5found?5?9?5?$CFd?3?5?$CFs?$AA@ 03082fd4     MQ2Commands.obj
 0002:00000ff4       ??_C@_0BA@BKMNCINB@?5?5?5Opening?5Pack?$AA@ 03082ff4     MQ2Commands.obj
 0002:00001004       ??_C@_0BL@IIBCJNF@?5?5?5New?5Item?5found?5?9?5?$CFd?3?5?$CFs?$AA@ 03083004     MQ2Commands.obj
 0002:00001020       ??_C@_0M@IJMEKKGG@Mem?5a?5Spell?$AA@ 03083020     MQ2Commands.obj
 0002:0000102c       ??_C@_04GCLKCGOG@?5?5?$CFs?$AA@ 0308302c     MQ2Commands.obj
 0002:00001034       ??_C@_0CL@KBHDLLHO@?9?9?9?9?9?9?9?9?9?9?9?9?9?9?9?9?9?9?9?9?9?9?9?9?9?9?9?9?9?9?9?9@ 03083034     MQ2Commands.obj
 0002:00001060       ??_C@_0BB@OGFLECMB@List?5of?5commands?$AA@ 03083060     MQ2Commands.obj
 0002:00001074       ??_C@_0BA@JOGAALFN@MacroQuest?5?9?5?$CFs?$AA@ 03083074     MQ2Commands.obj
 0002:00001084       ??_C@_0CC@PNLGMHMM@Help?5?9?5Displaying?5MacroQuest?5hel@ 03083084     MQ2Commands.obj
 0002:000010a8       ??_C@_05MCIGIPJO@macro?$AA@ 030830a8     MQ2Commands.obj
 0002:000010b0       ??_C@_0DC@BIFHEIOG@Macro?5will?5display?5a?5list?5of?5Mac@ 030830b0     MQ2Commands.obj
 0002:000010e8       ??_C@_0JL@EJLJLBKJ@Usage?3?5?1whofilter?5?$DMlastname?$HMclas@ 030830e8     MQ2Commands.obj
 0002:00001184       ??_C@_09EPJGIIIJ@Invisible?$AA@ 03083184     MQ2Commands.obj
 0002:00001190       ??_C@_09MLILFJ@invisible?$AA@ 03083190     MQ2Commands.obj
 0002:0000119c       ??_C@_08JBHHBGLA@ConColor?$AA@ 0308319c     MQ2Commands.obj
 0002:000011a8       ??_C@_07CAAEHIKN@Holding?$AA@ 030831a8     MQ2Commands.obj
 0002:000011b0       ??_C@_05JODGIKH@Light?$AA@ 030831b0     MQ2Commands.obj
 0002:000011b8       ??_C@_08DFKPLDPN@Distance?$AA@ 030831b8     MQ2Commands.obj
 0002:000011c4       ??_C@_04DPECDDBP@Anon?$AA@ 030831c4     MQ2Commands.obj
 0002:000011cc       ??_C@_03JKIJHIAH@AFK?$AA@  030831cc     MQ2Commands.obj
 0002:000011d0       ??_C@_06LAOAGNPJ@Trader?$AA@ 030831d0     MQ2Commands.obj
 0002:000011d8       ??_C@_07BFOBFIMG@SpawnID?$AA@ 030831d8     MQ2Commands.obj
 0002:000011e0       ??_C@_06ECLMMAEJ@NPCTag?$AA@ 030831e0     MQ2Commands.obj
 0002:000011e8       ??_C@_03MEFGOPNG@LFG?$AA@  030831e8     MQ2Commands.obj
 0002:000011ec       ??_C@_05CBMBPJGD@Sneak?$AA@ 030831ec     MQ2Commands.obj
 0002:000011f4       ??_C@_02ONCLNIEI@LD?$AA@   030831f4     MQ2Commands.obj
 0002:000011f8       ??_C@_05GLCACPFJ@Guild?$AA@ 030831f8     MQ2Commands.obj
 0002:00001200       ??_C@_02DALMIMOA@GM?$AA@   03083200     MQ2Commands.obj
 0002:00001204       ??_C@_05KOHFLOFG@Level?$AA@ 03083204     MQ2Commands.obj
 0002:0000120c       ??_C@_04MJIIEFNN@Body?$AA@ 0308320c     MQ2Commands.obj
 0002:00001214       ??_C@_04KKIPOOLE@Race?$AA@ 03083214     MQ2Commands.obj
 0002:0000121c       ??_C@_05EKAMNAII@Class?$AA@ 0308321c     MQ2Commands.obj
 0002:00001224       ??_C@_08INDPKANN@Lastname?$AA@ 03083224     MQ2Commands.obj
 0002:00001230       ??_C@_0BJ@PBCBDOJ@Z?5range?5is?5set?5to?3?5?$CF1?42f?$AA@ 03083230     MQ2Commands.obj
 0002:0000124c       ??_C@_0BO@NAFOPLOK@Z?5range?5is?5not?5currently?5set?4?$AA@ 0308324c     MQ2Commands.obj
 0002:0000126c       ??_C@_0N@OCAOBFDM@FilterCustom?$AA@ 0308326c     MQ2Commands.obj
 0002:0000127c       ??_C@_0CM@OJOOMKPP@Filtering?5of?5custom?5messages?5cha@ 0308327c     MQ2Commands.obj
 0002:000012a8       ??_C@_0CN@JEOJNDHH@Usage?3?5?1filter?5name?5on?$HMoff?$HMadd?$HMr@ 030832a8     MQ2Commands.obj
 0002:000012d8       ??_C@_0CF@JFJDDNIN@Name?5?8?$CFs?8?5is?5already?5being?5filte@ 030832d8     MQ2Commands.obj
 0002:00001300       ??_C@_0BJ@LCAIIGFG@Started?5filtering?5on?3?5?$CFs?$AA@ 03083300     MQ2Commands.obj
 0002:0000131c       ??_C@_09MAEHMHEB@Add?5what?$DP?$AA@ 0308331c     MQ2Commands.obj
 0002:00001328       ??_C@_03BDGOHNNK@add?$AA@  03083328     MQ2Commands.obj
 0002:0000132c       ??_C@_0BJ@GDNCHKDB@Stopped?5filtering?5on?3?5?$CFs?$AA@ 0308332c     MQ2Commands.obj
 0002:00001348       ??_C@_0BK@DPKBLONL@Cleared?5all?5name?5filters?4?$AA@ 03083348     MQ2Commands.obj
 0002:00001364       ??_C@_0N@HBNGPCKC@Remove?5what?$DP?$AA@ 03083364     MQ2Commands.obj
 0002:00001374       ??_C@_06LEMKAMD@remove?$AA@ 03083374     MQ2Commands.obj
 0002:0000137c       ??_C@_05BCPGHFGO@?5?5?5?$CFs?$AA@ 0308337c     MQ2Commands.obj
 0002:00001384       ??_C@_0BK@GLIHLOGP@Names?5currently?5filtered?3?$AA@ 03083384     MQ2Commands.obj
 0002:000013a0       ??_C@_0L@HMLCPIFF@FilterFood?$AA@ 030833a0     MQ2Commands.obj
 0002:000013ac       ??_C@_0CK@GDOBPLGI@Filtering?5of?5food?5messages?5chang@ 030833ac     MQ2Commands.obj
 0002:000013d8       ??_C@_0BN@PEAAINHK@Usage?3?5?1filter?5food?5?$FLon?$HMoff?$FN?$AA@ 030833d8     MQ2Commands.obj
 0002:000013f8       ??_C@_0CJ@OIKJJKLH@Filtering?5of?5food?5messages?5is?5se@ 030833f8     MQ2Commands.obj
 0002:00001424       ??_C@_0P@JBNBDFAP@FilterEncumber?$AA@ 03083424     MQ2Commands.obj
 0002:00001434       ??_C@_0CO@EDNOBCBO@Filtering?5of?5encumber?5messages?5c@ 03083434     MQ2Commands.obj
 0002:00001464       ??_C@_0CB@COJFAJGP@Usage?3?5?1filter?5encumber?5?$FLon?$HMoff?$FN@ 03083464     MQ2Commands.obj
 0002:00001488       ??_C@_0CN@LIMFFPMC@Filtering?5of?5encumber?5messages?5i@ 03083488     MQ2Commands.obj
 0002:000014b8       ??_C@_0M@DGDJCIKN@FilterMoney?$AA@ 030834b8     MQ2Commands.obj
 0002:000014c4       ??_C@_0CL@HNFOGIDO@Filtering?5of?5money?5messages?5chan@ 030834c4     MQ2Commands.obj
 0002:000014f0       ??_C@_0BO@MFPGBBPO@Usage?3?5?1filter?5money?5?$FLon?$HMoff?$FN?$AA@ 030834f0     MQ2Commands.obj
 0002:00001510       ??_C@_0CK@FGMIKECF@Filtering?5of?5money?5messages?5is?5s@ 03083510     MQ2Commands.obj
 0002:0000153c       ??_C@_0M@NJDHECND@FilterDebug?$AA@ 0308353c     MQ2Commands.obj
 0002:00001548       ??_C@_0CL@IEDCPOGB@Filtering?5of?5debug?5messages?5chan@ 03083548     MQ2Commands.obj
 0002:00001574       ??_C@_0BO@LJBGHMA@Usage?3?5?1filter?5debug?5?$FLon?$HMoff?$FN?$AA@ 03083574     MQ2Commands.obj
 0002:00001594       ??_C@_0CK@IDIBJELJ@Filtering?5of?5debug?5messages?5is?5s@ 03083594     MQ2Commands.obj
 0002:000015c0       ??_C@_0N@DBGLAKPO@FilterTarget?$AA@ 030835c0     MQ2Commands.obj
 0002:000015d0       ??_C@_0DB@KFLNAMMN@Filtering?5of?5target?5lost?5message@ 030835d0     MQ2Commands.obj
 0002:00001604       ??_C@_0BP@IPGHEOAK@Usage?3?5?1filter?5target?5?$FLon?$HMoff?$FN?$AA@ 03083604     MQ2Commands.obj
 0002:00001624       ??_C@_0DA@LIIHININ@Filtering?5of?5target?5lost?5message@ 03083624     MQ2Commands.obj
 0002:00001654       ??_C@_0O@OLBOKJEK@FilterMQ2Data?$AA@ 03083654     MQ2Commands.obj
 0002:00001664       ??_C@_0CA@PPJJAGJF@Usage?3?5?1filter?5mq2data?5?$FLon?$HMoff?$FN?$AA@ 03083664     MQ2Commands.obj
 0002:00001684       ??_C@_0CK@IIHIOBIA@Filtering?5of?5MQ2Data?5Errors?5is?5s@ 03083684     MQ2Commands.obj
 0002:000016b0       ??_C@_07BCKIDDEE@mq2data?$AA@ 030836b0     MQ2Commands.obj
 0002:000016b8       ??_C@_08OMHJKBKG@FilterMQ?$AA@ 030836b8     MQ2Commands.obj
 0002:000016c4       ??_C@_0BP@JAKGNMIM@Filtering?5of?5MQ?5changed?5to?3?5?$CFs?$AA@ 030836c4     MQ2Commands.obj
 0002:000016e4       ??_C@_0BL@IKOCEIMD@Usage?3?5?1filter?5mq?5?$FLon?$HMoff?$FN?$AA@ 030836e4     MQ2Commands.obj
 0002:00001700       ??_C@_0BO@BGPPDGKF@Filtering?5of?5MQ?5is?5set?5to?3?5?$CFs?$AA@ 03083700     MQ2Commands.obj
 0002:00001720       ??_C@_0M@HOJCEODD@FilterMacro?$AA@ 03083720     MQ2Commands.obj
 0002:0000172c       ??_C@_0CD@OOGPFGOM@Filtering?5of?5macros?5changed?5to?3?5@ 0308372c     MQ2Commands.obj
 0002:00001750       ??_C@_0CK@OAIMHNEE@Usage?3?5?1filter?5macros?5?$FLall?$HMenhan@ 03083750     MQ2Commands.obj
 0002:0000177c       ??_C@_0CC@GOAJOLKI@Filtering?5of?5macros?5is?5set?5to?3?5?$CF@ 0308377c     MQ2Commands.obj
 0002:000017a0       ??_C@_0L@KGBILLBC@MacroQuest?$AA@ 030837a0     MQ2Commands.obj
 0002:000017ac       ??_C@_0N@NFPGJLMM@FilterSkills?$AA@ 030837ac     MQ2Commands.obj
 0002:000017bc       ??_C@_0CD@HHLADIOG@Filtering?5of?5skills?5changed?5to?3?5@ 030837bc     MQ2Commands.obj
 0002:000017e0       ??_C@_0CK@LKINODNM@Usage?3?5?1filter?5skills?5?$FLall?$HMincre@ 030837e0     MQ2Commands.obj
 0002:0000180c       ??_C@_0CC@LIDGFLKL@Filtering?5of?5skills?5is?5set?5to?3?5?$CF@ 0308380c     MQ2Commands.obj
 0002:00001830       ??_C@_03HFJGAJFE@All?$AA@  03083830     MQ2Commands.obj
 0002:00001834       ??_C@_08MOGHDHIG@Increase?$AA@ 03083834     MQ2Commands.obj
 0002:00001840       ??_C@_04OHJIHAFH@None?$AA@ 03083840     MQ2Commands.obj
 0002:00001848       ??_C@_06EGNIJPKE@zrange?$AA@ 03083848     MQ2Commands.obj
 0002:00001850       ??_C@_05GFCDIDHO@debug?$AA@ 03083850     MQ2Commands.obj
 0002:00001858       ??_C@_02HGJFDGCJ@mq?$AA@   03083858     MQ2Commands.obj
 0002:0000185c       ??_C@_08IIEKMJPC@encumber?$AA@ 0308385c     MQ2Commands.obj
 0002:00001868       ??_C@_05IKCNOJAA@money?$AA@ 03083868     MQ2Commands.obj
 0002:00001870       ??_C@_04OPAEPOE@food?$AA@  03083870     MQ2Commands.obj
 0002:00001878       ??_C@_04MEMAJGDJ@name?$AA@ 03083878     MQ2Commands.obj
 0002:00001880       ??_C@_06JJLAMBGK@target?$AA@ 03083880     MQ2Commands.obj
 0002:00001888       ??_C@_06BDGHBCPJ@macros?$AA@ 03083888     MQ2Commands.obj
 0002:00001890       ??_C@_06HNCNFAFI@skills?$AA@ 03083890     MQ2Commands.obj
 0002:00001898       ??_C@_0EH@FBJHCHMA@skills?0?5target?0?5money?0?5encumber?0@ 03083898     MQ2Commands.obj
 0002:000018e0       ??_C@_08PBIOHFOH@enhanced?$AA@ 030838e0     MQ2Commands.obj
 0002:000018ec       ??_C@_08EMJGLFCF@increase?$AA@ 030838ec     MQ2Commands.obj
 0002:000018f8       ??_C@_02LIELOMNJ@on?$AA@   030838f8     MQ2Commands.obj
 0002:000018fc       ??_C@_03NFKEKGGK@all?$AA@  030838fc     MQ2Commands.obj
 0002:00001900       ??_C@_03MCADLMAF@off?$AA@  03083900     MQ2Commands.obj
 0002:00001904       ??_C@_04CGFJFPFD@none?$AA@ 03083904     MQ2Commands.obj
 0002:0000190c       ??_C@_0BL@OIPKKAEC@Syntax?3?5?1spewfile?5?$FLon?$HMoff?$FN?$AA@ 0308390c     MQ2Commands.obj
 0002:00001928       ??_C@_0CG@HJGMFMHF@Debug?5Spew?5is?5being?5logged?5to?5a?5@ 03083928     MQ2Commands.obj
 0002:00001950       ??_C@_0CK@OBPLIJKD@Debug?5Spew?5is?5not?5being?5logged?5t@ 03083950     MQ2Commands.obj
 0002:0000197c       ??_C@_0BB@JCCCDKEI@Stack?5size?5?$DN?5?$CFd?5?$AA@ 0308397c     MQ2Commands.obj
 0002:00001990       ??_C@_0BA@OHOCPGLP@?$CFdSvCorruption?5?$AA@ 03083990     MQ2Commands.obj
 0002:000019a0       ??_C@_06LKMMCGJG@?$CFdSvC?5?$AA@ 030839a0     MQ2Commands.obj
 0002:000019a8       ??_C@_06LMAHOEHN@?$CFdSvF?5?$AA@ 030839a8     MQ2Commands.obj
 0002:000019b0       ??_C@_06KEKMDLLP@?$CFdSvP?5?$AA@ 030839b0     MQ2Commands.obj
 0002:000019b8       ??_C@_06LPIDDABD@?$CFdSvD?5?$AA@ 030839b8     MQ2Commands.obj
 0002:000019c0       ??_C@_06LAFCALJM@?$CFdSvM?5?$AA@ 030839c0     MQ2Commands.obj
 0002:000019c8       ??_C@_06MJFMOKOI@?$CFdCHA?5?$AA@ 030839c8     MQ2Commands.obj
 0002:000019d0       ??_C@_06LMGKMMAO@?$CFdINT?5?$AA@ 030839d0     MQ2Commands.obj
 0002:000019d8       ??_C@_06PLCCMLNB@?$CFdWIS?5?$AA@ 030839d8     MQ2Commands.obj
 0002:000019e0       ??_C@_06OFOMPIGG@?$CFdAGI?5?$AA@ 030839e0     MQ2Commands.obj
 0002:000019e8       ??_C@_06JKOBHGNK@?$CFdDEX?5?$AA@ 030839e8     MQ2Commands.obj
 0002:000019f0       ??_C@_06LDHDJFEN@?$CFdSTA?5?$AA@ 030839f0     MQ2Commands.obj
 0002:000019f8       ??_C@_06KNBDIIGE@?$CFdSTR?5?$AA@ 030839f8     MQ2Commands.obj
 0002:00001a00       ??_C@_07EEEOGGJI@?$CFdMana?5?$AA@ 03083a00     MQ2Commands.obj
 0002:00001a08       ??_C@_05NCHGGBJE@?$CFdHP?5?$AA@ 03083a08     MQ2Commands.obj
 0002:00001a10       ??_C@_06CNEFJOGK@?$CFdRng?5?$AA@ 03083a10     MQ2Commands.obj
 0002:00001a18       ??_C@_06HOFELKLJ@?$CFdDly?5?$AA@ 03083a18     MQ2Commands.obj
 0002:00001a20       ??_C@_06JHBBGJMI@?$CFdDam?5?$AA@ 03083a20     MQ2Commands.obj
 0002:00001a28       ??_C@_05NINMLNFO@AC?$CFd?5?$AA@ 03083a28     MQ2Commands.obj
 0002:00001a30       ??_C@_06HFFMMPL@Item?3?5?$AA@ 03083a30     MQ2Commands.obj
 0002:00001a38       ??_C@_0DC@GHNOAFHL@Container?3?5?$CFd?5Slot?5?$CFs?0?5?$CFd?$CF?$CF?5Redu@ 03083a38     MQ2Commands.obj
 0002:00001a6c       ??_C@_0L@DLGBCOOH@?$CKUnknown?$CFd?$AA@ 03083a6c     MQ2Commands.obj
 0002:00001a78       ??_C@_02KCKGHPCA@?$CJ?5?$AA@ 03083a78     MQ2Commands.obj
 0002:00001a7c       ??_C@_08KEFFGFDP@?$CILight?3?5?$AA@ 03083a7c     MQ2Commands.obj
 0002:00001a88       ??_C@_06GINMGJCE@MAGIC?5?$AA@ 03083a88     MQ2Commands.obj
 0002:00001a90       ??_C@_07EACGAGNM@NORENT?5?$AA@ 03083a90     MQ2Commands.obj
 0002:00001a98       ??_C@_07PINMGDHB@NODROP?5?$AA@ 03083a98     MQ2Commands.obj
 0002:00001aa0       ??_C@_05GONFPHHD@LORE?5?$AA@ 03083aa0     MQ2Commands.obj
 0002:00001aa8       ??_C@_07BEHBPBFJ@Flags?3?5?$AA@ 03083aa8     MQ2Commands.obj
 0002:00001ab0       ??_C@_0O@DFKKDBF@Lore?5Name?3?5?$CFs?$AA@ 03083ab0     MQ2Commands.obj
 0002:00001ac0       ??_C@_0DA@EEFPEBD@Item?3?5?$CFs?5?$CISlot?3?5?$CFs?0?5Weight?3?5?$CFd?4?$CF@ 03083ac0     MQ2Commands.obj
 0002:00001af0       ??_C@_0DK@PEJCAEGP@Item?3?5?$CFs?5?$CISlot?3?5?$CFs?0?5Weight?3?5?$CFd?4?$CF@ 03083af0     MQ2Commands.obj
 0002:00001b2c       ??_C@_0O@HJPPFJDN@Identify?5?9?5?$CFs?$AA@ 03083b2c     MQ2Commands.obj
 0002:00001b3c       ??_C@_0CM@OHMELLLC@You?5must?5be?5holding?5an?5item?5to?5i@ 03083b3c     MQ2Commands.obj
 0002:00001b68       ??_C@_0DK@ENGGHEJG@Your?5Location?5is?5?$CF3?42f?0?5?$CF3?42f?0?5?$CF@ 03083b68     MQ2Commands.obj
 0002:00001ba8       __real@4021000000000000    03083ba8     MQ2Commands.obj
 0002:00001bb0       __real@3fa0000000000000    03083bb0     MQ2Commands.obj
 0002:00001bb8       ??_C@_0HE@GONPHLIA@Usage?3?5?1alert?5?$FLclear?5?$CD?$FN?5?$FLlist?5?$CD?$FN@ 03083bb8     MQ2Commands.obj
 0002:00001c2c       ??_C@_0DB@BGCIDDPE@Alert?5?9?5Unable?5to?5allocate?5memor@ 03083c2c     MQ2Commands.obj
 0002:00001c60       ??_C@_0BH@EJDFMDCK@Couldn?8t?5create?5alert?4?$AA@ 03083c60     MQ2Commands.obj
 0002:00001c78       ??_C@_0L@MJICFHP@Alert?5?9?5?$CFs?$AA@ 03083c78     MQ2Commands.obj
 0002:00001c84       ??_C@_0BE@JOBMPBPK@Added?5alert?5for?3?5?$CFs?$AA@ 03083c84     MQ2Commands.obj
 0002:00001c98       ??_C@_0CF@IKCPJGKL@Alert?5would?5have?5cause?5recursion@ 03083c98     MQ2Commands.obj
 0002:00001cc0       ??_C@_0BC@DBBBGBPK@?$CFd?5alerts?5listed?4?$AA@ 03083cc0     MQ2Commands.obj
 0002:00001cd4       ??_C@_0BA@CDLPLJIM@Current?5alerts?3?$AA@ 03083cd4     MQ2Commands.obj
 0002:00001ce4       ??_C@_0BC@GHOJHFIM@No?5alerts?5active?4?$AA@ 03083ce4     MQ2Commands.obj
 0002:00001cf8       ??_C@_04DONFEANM@list?$AA@ 03083cf8     MQ2Commands.obj
 0002:00001d00       ??_C@_05MEHLAELG@clear?$AA@ 03083d00     MQ2Commands.obj
 0002:00001d08       ??_C@_0BE@BJGNOGMM@SuperWhoTarget?5?9?5?$CFs?$AA@ 03083d08     MQ2Commands.obj
 0002:00001d1c       ??_C@_0DA@NEDKEOPI@You?5must?5have?5a?5target?5selected?5@ 03083d1c     MQ2Commands.obj
 0002:00001d4c       ??_C@_0BI@OELIAELI@SuperWho?5?9?5filtering?5?$CFs?$AA@ 03083d4c     MQ2Commands.obj
 0002:00001d64       ??_C@_08BECKJBCF@concolor?$AA@ 03083d64     MQ2Commands.obj
 0002:00001d70       ??_C@_05GMIMCKGP@guild?$AA@ 03083d70     MQ2Commands.obj
 0002:00001d78       ??_C@_08LHFODBFO@distance?$AA@ 03083d78     MQ2Commands.obj
 0002:00001d84       ??_C@_05ENKANFLO@class?$AA@ 03083d84     MQ2Commands.obj
 0002:00001d8c       ??_C@_04GLEOMBLA@race?$AA@ 03083d8c     MQ2Commands.obj
 0002:00001d94       ??_C@_05KJNJLLGA@level?$AA@ 03083d94     MQ2Commands.obj
 0002:00001d9c       ??_C@_04PIMMHFGE@sort?$AA@ 03083d9c     MQ2Commands.obj
 0002:00001da4       ??_C@_05EIHKFLMK@?5all?5?$AA@ 03083da4     MQ2Commands.obj
 0002:00001dac       ??_C@_04PDADKBGP@?5all?$AA@ 03083dac     MQ2Commands.obj
 0002:00001db4       ??_C@_04DIDGAIEC@all?5?$AA@ 03083db4     MQ2Commands.obj
 0002:00001dbc       ??_C@_0BJ@DKANKBPF@$?$HLTime?4Date?$HN?5$?$HLTime?$HN?$AN?6?$CFs?$AA@ 03083dbc     MQ2Commands.obj
 0002:00001dd8       ??_C@_0O@JCLNHJC@MacroLog?5?9?5?$CFs?$AA@ 03083dd8     MQ2Commands.obj
 0002:00001de8       ??_C@_03OFAPEBGM@?$CFs?6?$AA@ 03083de8     MQ2Commands.obj
 0002:00001dec       ??_C@_0CB@CHMPCDMF@?$FL$?$HLTime?4Date?$HN?5$?$HLTime?4Time24?$HN?$FN?5?$CFs@ 03083dec     MQ2Commands.obj
 0002:00001e10       ??_C@_02CPIDLAI@at?$AA@    03083e10     MQ2Commands.obj
 0002:00001e14       ??_C@_0N@IFCBLBHJ@Cleared?5log?4?$AA@ 03083e14     MQ2Commands.obj
 0002:00001e24       ??_C@_0CC@MOKMJMDH@Log?5path?5doesn?8t?5appear?5valid?3?5?$CF@ 03083e24     MQ2Commands.obj
 0002:00001e48       ??_C@_0BL@KCCJKFIK@Couldn?8t?5open?5log?5file?3?5?$CFs?$AA@ 03083e48     MQ2Commands.obj
 0002:00001e64       ??_C@_09IKDIHHD@?$CFs?2?$CFs?4log?$AA@ 03083e64     MQ2Commands.obj
 0002:00001e70       ??_C@_0BC@LJKCCDOE@?$CFs?2MacroQuest?4log?$AA@ 03083e70     MQ2Commands.obj
 0002:00001e84       ??_C@_09OHHIFOBA@Face?5?9?5?$CFs?$AA@ 03083e84     MQ2Commands.obj
 0002:00001e90       ??_C@_0BB@INMCDPKF@Facing?5?$CFs?8?$CFs?8?4?4?4?$AA@ 03083e90     MQ2Commands.obj
 0002:00001ea4       ??_C@_0L@MNHMHLKG@away?5from?5?$AA@ 03083ea4     MQ2Commands.obj
 0002:00001eb0       __real@4070000000000000    03083eb0     MQ2Commands.obj
 0002:00001eb8       ??_C@_0BO@CDCKNGEL@There?5were?5no?5matches?5for?3?5?$CFs?$AA@ 03083eb8     MQ2Commands.obj
 0002:00001ed8       ??_C@_0FJ@FNJIBPIF@Usage?3?5?1face?5?$FLspawn?$FN?5?$FLitem?$FN?5?$FLdoo@ 03083ed8     MQ2Commands.obj
 0002:00001f38       __real@0000000000000000    03083f38     MQ2Commands.obj
 0002:00001f40       __real@4080000000000000    03083f40     MQ2Commands.obj
 0002:00001f48       __real@3fe6800000000000    03083f48     MQ2Commands.obj
 0002:00001f50       ??_C@_0CN@EHNCLEIB@Face?3?5heading?5specified?5but?5angl@ 03083f50     MQ2Commands.obj
 0002:00001f80       ??_C@_0CM@DCHEBBEB@Face?3?5door?5specified?5but?5no?5door@ 03083f80     MQ2Commands.obj
 0002:00001fac       ??_C@_0CM@GCIMGBPB@Face?3?5item?5specified?5but?5no?5item@ 03083fac     MQ2Commands.obj
 0002:00001fd8       ??_C@_0CL@KMLKLKFG@Face?3?5loc?5specified?5but?5?$DMy?$DO?0?$DMx?$DO?5@ 03083fd8     MQ2Commands.obj
 0002:00002004       ??_C@_04PCJFHION@help?$AA@ 03084004     MQ2Commands.obj
 0002:0000200c       ??_C@_07MBJMFGGL@heading?$AA@ 0308400c     MQ2Commands.obj
 0002:00002014       ??_C@_04GIKIKJFD@door?$AA@ 03084014     MQ2Commands.obj
 0002:0000201c       ??_C@_04NHONDGDE@item?$AA@ 0308401c     MQ2Commands.obj
 0002:00002024       ??_C@_01IHBHIGKO@?0?$AA@   03084024     MQ2Commands.obj
 0002:00002028       ??_C@_08CBBFJFMD@location?$AA@ 03084028     MQ2Commands.obj
 0002:00002034       ??_C@_03KCBANMCB@loc?$AA@  03084034     MQ2Commands.obj
 0002:00002038       ??_C@_06LKLNOJNO@nolook?$AA@ 03084038     MQ2Commands.obj
 0002:00002040       ??_C@_04NMIPKNJC@away?$AA@ 03084040     MQ2Commands.obj
 0002:00002048       ??_C@_04LBNBHAJC@fast?$AA@ 03084048     MQ2Commands.obj
 0002:00002050       ??_C@_07DOBNEOGC@predict?$AA@ 03084050     MQ2Commands.obj
 0002:00002058       ??_C@_0CA@ONEOHDL@?1look?5?9?9?5Angle?5?$CFf?5out?5of?5range?4?$AA@ 03084058     MQ2Commands.obj
 0002:00002078       __real@c3000000            03084078     MQ2Commands.obj
 0002:0000207c       __real@43000000            0308407c     MQ2Commands.obj
 0002:00002080       ??_C@_0L@ICJJBMPH@Where?5?9?5?$CFs?$AA@ 03084080     MQ2Commands.obj
 0002:00002090       ??_C@_0FE@NDADHGEB@The?5closest?5?8?$CFs?8?5is?5a?5level?5?$CFd?5?$CF@ 03084090     MQ2Commands.obj
 0002:000020e4       ??_C@_0CP@BIPPOJGB@You?5do?5not?5seem?5to?5have?5that?5abi@ 030840e4     MQ2Commands.obj
 0002:00002114       ??_C@_0BC@EJMKNIH@Combat?5Abilities?3?$AA@ 03084114     MQ2Commands.obj
 0002:00002128       ??_C@_08PKMELHFD@?$DM?$AHg?$CFs?$AHx?$DO?$AA@ 03084128     MQ2Commands.obj
 0002:00002134       ??_C@_0BL@DLEJGCFB@Abilities?5?$CG?5Combat?5Skills?3?$AA@ 03084134     MQ2Commands.obj
 0002:00002150       ??_C@_0CC@IEDPNJIK@Unable?5to?5find?5favorite?5list?5?8?$CFs@ 03084150     MQ2Commands.obj
 0002:00002174       ??_C@_0BE@DAFECDOJ@Favorite?5list?5?8?$CFs?8?3?$AA@ 03084174     MQ2Commands.obj
 0002:00002188       ??_C@_06DKAEDHID@?$CFd?$CJ?5?$CFs?$AA@ 03084188     MQ2Commands.obj
 0002:00002190       ??_C@_0BL@JMBEPNBE@?9?9?9?9?9?9?9?9?9?9?9?9?9?9?9?9?9?9?9?9?9?9?9?9?9?9?$AA@ 03084190     MQ2Commands.obj
 0002:000021ac       ??_C@_0BG@NGKIGGLP@Spell?5favorites?5list?3?$AA@ 030841ac     MQ2Commands.obj
 0002:000021c4       ??_C@_0BN@OMBCKOL@pChar?5?$DN?5?$CFx?5SpellName?5?$DN?5?$CFs?5?$CFs?$AA@ 030841c4     MQ2Commands.obj
 0002:000021e4       ??_C@_0P@KEFNIBPA@SpellName?5?$DN?5?$CFs?$AA@ 030841e4     MQ2Commands.obj
 0002:000021f4       ??_C@_0CO@KDHBGKGJ@You?5do?5not?5seem?5to?5have?5that?5spe@ 030841f4     MQ2Commands.obj
 0002:00002224       ??_C@_0BH@DBLIKMDA@cast?5test?5slot?5?$CFd?5?$DN?5?$CFs?$AA@ 03084224     MQ2Commands.obj
 0002:0000223c       ??_C@_0BF@MGMPDPFO@Item?5?8?$CFs?8?5not?5found?4?$AA@ 0308423c     MQ2Commands.obj
 0002:00002254       ??_C@_0BO@MBCFHOJL@Cast?3?5szArg1?5?$DN?5?$CFs?5szArg2?5?$DN?5?$CFs?$AA@ 03084254     MQ2Commands.obj
 0002:00002274       ??_C@_06IICEOLJD@?$CFd?4?5?$CFs?$AA@ 03084274     MQ2Commands.obj
 0002:0000227c       ??_C@_0M@EAIBFOMM@?$CFd?4?5?$DMEmpty?$DO?$AA@ 0308427c     MQ2Commands.obj
 0002:00002288       ??_C@_07KLAJEAPG@Spells?3?$AA@ 03084288     MQ2Commands.obj
 0002:00002290       ??_C@_0BO@EMGFHPMD@Unable?5to?5target?0?5address?5?$DN?50?$AA@ 03084290     MQ2Commands.obj
 0002:000022b0       ??_C@_0BF@GIFBJMN@Target?5?9?5?$CFs?5selected?$AA@ 030842b0     MQ2Commands.obj
 0002:000022c8       ??_C@_0CB@NGPCHBAF@There?5are?5no?5spawns?5matching?3?5?$CFs@ 030842c8     MQ2Commands.obj
 0002:000022ec       ??_C@_0BA@OIAFFHD@Target?5cleared?4?$AA@ 030842ec     MQ2Commands.obj
 0002:000022fc       ??_C@_0M@NEPAKMNG@?$CFs?8s?5Corpse?$AA@ 030842fc     MQ2Commands.obj
 0002:00002308       ??_C@_08OCCJLGDG@mycorpse?$AA@ 03084308     MQ2Commands.obj
 0002:00002314       ??_C@_06GEDPDCOG@myself?$AA@ 03084314     MQ2Commands.obj
 0002:0000231c       ??_C@_0BF@MHPGPELO@?$CFd?5skills?5displayed?4?$AA@ 0308431c     MQ2Commands.obj
 0002:00002334       ??_C@_0BK@FCEBLDDM@Skills?5?9?5?$CFd?5skills?5listed?$AA@ 03084334     MQ2Commands.obj
 0002:00002350       ??_C@_0BI@GMELLMNN@No?5skills?5matched?5?8?$CFs?8?4?$AA@ 03084350     MQ2Commands.obj
 0002:00002368       ??_C@_0BB@HOCECMED@?$CFs?3?5Unknown?$CI253?$CJ?$AA@ 03084368     MQ2Commands.obj
 0002:0000237c       ??_C@_0O@CKDOBHPO@?$CFs?3?5Trainable?$AA@ 0308437c     MQ2Commands.obj
 0002:0000238c       ??_C@_06GBEGMGE@?$CFs?3?5?$CFd?$AA@ 0308438c     MQ2Commands.obj
 0002:00002394       ??_C@_0BI@IBGPDPHJ@?9?9?9?9?9?9?9?9?9?9?9?9?9?9?9?9?9?9?9?9?9?9?9?$AA@ 03084394     MQ2Commands.obj
 0002:000023ac       ??_C@_06LCJAGJME@Skills?$AA@ 030843ac     MQ2Commands.obj
 0002:000023b4       ??_C@_0N@GAPODIAE@Macro?5is?5?$CFs?4?$AA@ 030843b4     MQ2Commands.obj
 0002:000023c4       ??_C@_0O@DKMHIIJP@running?5again?$AA@ 030843c4     MQ2Commands.obj
 0002:000023d4       ??_C@_0BF@FGNDMPLD@Macro?5is?5already?5?$CFs?4?$AA@ 030843d4     MQ2Commands.obj
 0002:000023ec       ??_C@_07PANPENDC@running?$AA@ 030843ec     MQ2Commands.obj
 0002:000023f4       ??_C@_06EKGGOLPA@paused?$AA@ 030843f4     MQ2Commands.obj
 0002:000023fc       ??_C@_0CK@DFDPICBN@Syntax?3?5?1mqpause?5?$FLon?$HMoff?$FN?5?$FLchat?5@ 030843fc     MQ2Commands.obj
 0002:00002428       ??_C@_0DB@MMANOKII@You?5cannot?5pause?5a?5macro?5when?5on@ 03084428     MQ2Commands.obj
 0002:0000245c       ??_C@_0CI@HAONENIG@Macros?5will?5?$CFspause?5while?5in?5cha@ 0308445c     MQ2Commands.obj
 0002:00002484       ??_C@_04LKOGMCLF@not?5?$AA@ 03084484     MQ2Commands.obj
 0002:0000248c       ??_C@_0O@IDEFGIKL@MQPauseOnChat?$AA@ 0308448c     MQ2Commands.obj
 0002:0000249c       ??_C@_01GBGANLPD@0?$AA@    0308449c     MQ2Commands.obj
 0002:000024a0       ??_C@_01HIHLOKLC@1?$AA@    030844a0     MQ2Commands.obj
 0002:000024a4       ??_C@_04BLJLMHHG@chat?$AA@ 030844a4     MQ2Commands.obj
 0002:000024ac       ??_C@_0BF@FJGBDDGL@Set?5autorun?5to?3?5?8?$CFs?8?$AA@ 030844ac     MQ2Commands.obj
 0002:000024c4       ??_C@_07ICCLJJJJ@AutoRun?$AA@ 030844c4     MQ2Commands.obj
 0002:000024cc       ??_C@_05NNFHCGPF@?$CFs?4?$CFs?$AA@ 030844cc     MQ2Commands.obj
 0002:000024d4       ??_C@_0DE@LEDPEEIB@Usage?3?5?1alias?5name?5?$FLdelete?$HMcomma@ 030844d4     MQ2Commands.obj
 0002:00002508       ??_C@_0BB@BKMDJFKD@Alias?5?8?$CFs?8?5?$CFsed?4?$AA@ 03084508     MQ2Commands.obj
 0002:0000251c       ??_C@_05FKACFPFA@updat?$AA@ 0308451c     MQ2Commands.obj
 0002:00002524       ??_C@_0BG@GABOEADE@Alias?5?8?$CFs?8?5not?5found?4?$AA@ 03084524     MQ2Commands.obj
 0002:0000253c       ??_C@_0BE@MCBOANGD@Alias?5?8?$CFs?8?5deleted?4?$AA@ 0308453c     MQ2Commands.obj
 0002:00002550       ??_C@_06FOBLBEIN@delete?$AA@ 03084550     MQ2Commands.obj
 0002:00002558       ??_C@_0BG@OHPPKPBN@?$CFd?5alias?$CFs?5displayed?4?$AA@ 03084558     MQ2Commands.obj
 0002:00002570       ??_C@_02EKLAAFBD@es?$AA@   03084570     MQ2Commands.obj
 0002:00002574       ??_C@_0BE@EJKJAEJH@No?5aliases?5defined?4?$AA@ 03084574     MQ2Commands.obj
 0002:00002588       ??_C@_06DJHOIPC@?$CFs?3?5?$CFs?$AA@ 03084588     MQ2Commands.obj
 0002:00002590       ??_C@_0FA@BKPDKJOJ@Usage?3?5?1substitute?5?$DMorig?$DO?5?$DMnew?$DO?0@ 03084590     MQ2Commands.obj
 0002:000025e0       ??_C@_0BM@BGKKAACE@Substitution?5for?5?8?$CFs?8?5?$CFsed?4?$AA@ 030845e0     MQ2Commands.obj
 0002:000025fc       ??_C@_0CB@CPFICID@Substitution?5for?5?8?$CFs?8?5not?5found?4@ 030845fc     MQ2Commands.obj
 0002:00002620       ??_C@_0BP@BODMKHMJ@Substitution?5for?5?8?$CFs?8?5deleted?4?$AA@ 03084620     MQ2Commands.obj
 0002:00002640       ??_C@_0BN@DEPBKNIF@?$CFd?5substitution?$CFs?5displayed?4?$AA@ 03084640     MQ2Commands.obj
 0002:00002660       ??_C@_0BK@LOMFAJBF@No?5Substitutions?5defined?4?$AA@ 03084660     MQ2Commands.obj
 0002:0000267c       ??_C@_0L@NLIINGHE@?$CFs?7?9?9?9?9?7?$CFs?$AA@ 0308467c     MQ2Commands.obj
 0002:00002688       ??_C@_0BM@LMNGACBB@IniOutput?5Write?5Successful?$CB?$AA@ 03084688     MQ2Commands.obj
 0002:000026a4       ??_C@_0DI@JAALPNLP@IniOutput?5ERROR?5?9?9?5during?5WriteP@ 030846a4     MQ2Commands.obj
 0002:000026dc       ??_C@_04PHHEBHMK@?4ini?$AA@ 030846dc     MQ2Commands.obj
 0002:000026e4       ??_C@_01LFCBOECM@?4?$AA@   030846e4     MQ2Commands.obj
 0002:000026e8       ??_C@_05BMGBEOOC@?$CFs?2?$CFs?$AA@ 030846e8     MQ2Commands.obj
 0002:000026f0       ??_C@_0BK@IHFIFJJG@?1ini?5input?5?9?9?5?$CFs?5?$CFs?5?$CFs?5?$CFs?$AA@ 030846f0     MQ2Commands.obj
 0002:0000270c       ??_C@_0BH@BHLHKMPK@?9?5Slot?5?$CFd?3?5?$CFdx?5?$CFs?5?$CI?$CFs?$CJ?$AA@ 0308470c     MQ2Commands.obj
 0002:00002724       ??_C@_0BF@DFPPNLAP@Slot?5?$CFd?3?5?$CFdx?5?$CFs?5?$CI?$CFs?$CJ?$AA@ 03084724     MQ2Commands.obj
 0002:0000273c       ??_C@_0BK@FICEOBLB@?9?9?9?9?9?9?9?9?9?9?9?9?9?9?9?9?9?9?9?9?9?9?9?9?9?$AA@ 0308473c     MQ2Commands.obj
 0002:00002758       ??_C@_0BK@BPHDOCEN@Listing?5of?5Bank?5Inventory?$AA@ 03084758     MQ2Commands.obj
 0002:00002774       ??_C@_0CC@KCBEHBLE@?1banklist?5?9?9?5Bad?5offset?3?5CharInf@ 03084774     MQ2Commands.obj
 0002:00002798       ??_C@_0CK@OIJPAMFD@Usage?3?5?1windowstate?5?$DMwindow?$DO?5?$FLop@ 03084798     MQ2Commands.obj
 0002:000027c4       ??_C@_0BL@OGLJNNEP@Window?5?8?$CFs?8?5is?5now?5closed?4?$AA@ 030847c4     MQ2Commands.obj
 0002:000027e0       ??_C@_0BJ@BBDFMGHF@Window?5?8?$CFs?8?5is?5now?5open?4?$AA@ 030847e0     MQ2Commands.obj
 0002:000027fc       ??_C@_0BM@JEHHAMLI@Window?5?8?$CFs?8?5is?5currently?5?$CFs?$AA@ 030847fc     MQ2Commands.obj
 0002:00002818       ??_C@_06IKJOPBFO@closed?$AA@ 03084818     MQ2Commands.obj
 0002:00002820       ??_C@_05LBOHBHFK@close?$AA@ 03084820     MQ2Commands.obj
 0002:00002828       ??_C@_04PMOCAHAA@open?$AA@ 03084828     MQ2Commands.obj
 0002:00002830       ??_C@_08HDHPKBFE@KeepKeys?$AA@ 03084830     MQ2Commands.obj
 0002:0000283c       ??_C@_0BO@HPNLFKGC@Auto?9Keep?5Keys?5changed?5to?3?5?$CFs?$AA@ 0308483c     MQ2Commands.obj
 0002:0000285c       ??_C@_0BK@FHGGLMDK@Usage?3?5?1keepkeys?5?$FLon?$HMoff?$FN?$AA@ 0308485c     MQ2Commands.obj
 0002:00002878       ??_C@_0BD@BLDNHHAD@Auto?9Keep?5Keys?3?5?$CFs?$AA@ 03084878     MQ2Commands.obj
 0002:0000288c       ??_C@_0BD@JOGLMJNH@Login?5name?3?5?$AHy?$CFs?$AHx?$AA@ 0308488c     MQ2Commands.obj
 0002:000028a0       ??_C@_0BP@ELBGBCFN@Unable?5to?5retrieve?5login?5name?4?$AA@ 030848a0     MQ2Commands.obj
 0002:000028c0       ??_C@_0CB@KBBCHEIM@Plugin?5?8?$CFs?8?5could?5not?5be?5loaded?4@ 030848c0     MQ2Commands.obj
 0002:000028e4       ??_C@_0BE@ENAJDLDB@Plugin?5?8?$CFs?8?5loaded?4?$AA@ 030848e4     MQ2Commands.obj
 0002:000028f8       ??_C@_0BH@PIOHFEPK@Plugin?5?8?$CFs?8?5not?5found?4?$AA@ 030848f8     MQ2Commands.obj
 0002:00002910       ??_C@_06JJGBDAB@noauto?$AA@ 03084910     MQ2Commands.obj
 0002:00002918       ??_C@_0BG@LBMJKLCP@Plugin?5?8?$CFs?8?5unloaded?4?$AA@ 03084918     MQ2Commands.obj
 0002:00002930       ??_C@_06JJDOMDIK@unload?$AA@ 03084930     MQ2Commands.obj
 0002:00002938       ??_C@_0DH@FIHILDHA@Usage?3?5?1Plugin?5name?5?$FLunload?$FN?5?$FLno@ 03084938     MQ2Commands.obj
 0002:00002970       ??_C@_0BH@DLNAHGED@?$CFd?5Plugin?$CFs?5displayed?4?$AA@ 03084970     MQ2Commands.obj
 0002:00002988       ??_C@_0BE@PBGCHNLM@No?5Plugins?5defined?4?$AA@ 03084988     MQ2Commands.obj
 0002:0000299c       ??_C@_0P@KODGPFDN@Active?5Plugins?$AA@ 0308499c     MQ2Commands.obj
 0002:000029ac       ??_C@_0BO@EOPMDMHC@?1exec?5?$FLapplication?$FN?5?$FLfg?5?$HM?5bg?$FN?$AA@ 030849ac     MQ2Commands.obj
 0002:000029cc       ??_C@_02GGFIGMBP@fg?$AA@   030849cc     MQ2Commands.obj
 0002:000029d0       ??_C@_02GBFBMEMD@bg?$AA@   030849d0     MQ2Commands.obj
 0002:000029d4       ??_C@_0BC@LHDPJLAH@Application?5Paths?$AA@ 030849d4     MQ2Commands.obj
 0002:000029e8       ??_C@_0O@OOLLPFLF@Opening?5?$CFs?5?$CFs?$AA@ 030849e8     MQ2Commands.obj
 0002:000029f8       ??_C@_0CL@LFKKCMFA@Invalid?5mappable?5command?5or?5key?5@ 030849f8     MQ2Commands.obj
 0002:00002a24       ??_C@_04LDIGEPNM@hold?$AA@ 03084a24     MQ2Commands.obj
 0002:00002a2c       ??_C@_0DC@CHDGLEMG@Usage?3?5?1keypress?5?$DMeqcommand?$HMkeyc@ 03084a2c     MQ2Commands.obj
 0002:00002a60       ??_C@_0FH@OJINLJCG@Usage?3?5?1multiline?5?$DMdelimiter?$DO?5?$DMc@ 03084a60     MQ2Commands.obj
 0002:00002ab8       ??_C@_0BM@DCOBFPNO@No?5target?5for?5ranged?5attack?$AA@ 03084ab8     MQ2Commands.obj
 0002:00002ad8       ??_C@_0EG@EDFLHKI@Invalid?5spawn?5ID?4?5?5Use?5?1ranged?5w@ 03084ad8     MQ2Commands.obj
 0002:00002b20       ??_C@_0BI@GGKBMJCF@Could?5not?5?1loadcfg?5?8?$CFs?8?$AA@ 03084b20     MQ2Commands.obj
 0002:00002b38       ??_C@_0BL@FGEKLAFJ@Usage?3?5?1loadcfg?5?$DMfilename?$DO?$AA@ 03084b38     MQ2Commands.obj
 0002:00002b54       ??_C@_0BG@IABIGCDL@Binds?5dumped?5to?5file?4?$AA@ 03084b54     MQ2Commands.obj
 0002:00002b6c       ??_C@_0BL@GDLCJMMP@Could?5not?5dump?5binds?5to?5?$CFs?$AA@ 03084b6c     MQ2Commands.obj
 0002:00002b88       ??_C@_0BM@JENCKHIA@Usage?5?1dumpbinds?5?$DMfilename?$DO?$AA@ 03084b88     MQ2Commands.obj
 0002:00002ba4       ??_C@_0BK@EOAPDCOG@Usage?3?5?1squelch?5?$DMcommand?$DO?$AA@ 03084ba4     MQ2Commands.obj
 0002:00002bc0       ??_C@_0BM@BPEAONIF@Usage?3?5?1docommand?5?$DMcommand?$DO?$AA@ 03084bc0     MQ2Commands.obj
 0002:00002bdc       ??_C@_0BG@JBGDGLMP@Usage?3?5?1alt?5?$DMcommand?$DO?$AA@ 03084bdc     MQ2Commands.obj
 0002:00002bf4       ??_C@_0BI@FMBKCBCA@Usage?3?5?1shift?5?$DMcommand?$DO?$AA@ 03084bf4     MQ2Commands.obj
 0002:00002c0c       ??_C@_0BH@JBIIHCFI@Usage?3?5?1ctrl?5?$DMcommand?$DO?$AA@ 03084c0c     MQ2Commands.obj
 0002:00002c24       ??_C@_0BL@LHDPGLDD@Usage?3?5?1nomodkey?5?$DMcommand?$DO?$AA@ 03084c24     MQ2Commands.obj
 0002:00002c40       ??_C@_0CG@EMDNKCPO@Usage?3?5?1dosocial?5?$DMlist?$HM?$CCsocial?5n@ 03084c40     MQ2Commands.obj
 0002:00002c68       ??_C@_0BI@BOBAEOOM@Invalid?5Argument?$CIs?$CJ?3?5?$CFs?$AA@ 03084c68     MQ2Commands.obj
 0002:00002c80       ??_C@_08BNKGPBPE@?5?5?$CFd?3?5?$CFs?$AA@ 03084c80     MQ2Commands.obj
 0002:00002c8c       ??_C@_0O@PGJMJLAI@?$CI?$CF2d?0?$CF2d?$CJ?5?$CFs?5?$AA@ 03084c8c     MQ2Commands.obj
 0002:00002c9c       ??_C@_0BM@KLMPKJAH@Socials?3?5?$CIpage?0number?$CJ?5name?$AA@ 03084c9c     MQ2Commands.obj
 0002:00002cb8       ??_C@_0CG@CJOOHEOH@Usage?3?5?1timed?5?$DMdeciseconds?$DO?5?$DMcom@ 03084cb8     MQ2Commands.obj
 0002:00002ce0       ??_C@_0CB@JIJECFDA@Window?5?8?$CFs?8?5not?5container?5window@ 03084ce0     MQ2Commands.obj
 0002:00002d04       ??_C@_0BF@EBAGIKLO@Window?5?8?$CFs?8?5not?5open?$AA@ 03084d04     MQ2Commands.obj
 0002:00002d1c       ??_C@_0BH@JCNLGBFK@Usage?3?5?1combine?5?$DMpack?$DO?$AA@ 03084d1c     MQ2Commands.obj
 0002:00002d34       ??_C@_06GIIDEEDO@Always?$AA@ 03084d34     MQ2Commands.obj
 0002:00002d3c       ??_C@_06KHDOHNKC@always?$AA@ 03084d3c     MQ2Commands.obj
 0002:00002d44       ??_C@_07BENPCPPN@UnderUI?$AA@ 03084d44     MQ2Commands.obj
 0002:00002d4c       ??_C@_07EAGACPOJ@underui?$AA@ 03084d4c     MQ2Commands.obj
 0002:00002d54       ??_C@_07BBPDPABH@HUDMode?$AA@ 03084d54     MQ2Commands.obj
 0002:00002d5c       ??_C@_06EFAGIKOH@Normal?$AA@ 03084d5c     MQ2Commands.obj
 0002:00002d64       ??_C@_06IKLLLDHL@normal?$AA@ 03084d64     MQ2Commands.obj
