 MQ2NetBots

 Timestamp is 4d3d7c87 (Mon Jan 24 08:20:07 2011)

 Preferred load address is 04000000

 Start         Length     Name                   Class
 0001:00000000 0002ccb2H .text                   CODE
 0001:0002ccc0 00000408H .text$x                 CODE
 0001:0002d0d0 000000aaH .text$yc                CODE
 0001:0002d180 0000006eH .text$yd                CODE
 0002:00000000 000001f8H .idata$5                DATA
 0002:000001f8 00000004H .CRT$XCA                DATA
 0002:000001fc 00000008H .CRT$XCU                DATA
 0002:00000204 00000004H .CRT$XCZ                DATA
 0002:00000208 00000004H .CRT$XIA                DATA
 0002:0000020c 00000014H .CRT$XIC                DATA
 0002:00000220 00000004H .CRT$XIZ                DATA
 0002:00000224 00000004H .CRT$XPA                DATA
 0002:00000228 00000004H .CRT$XPX                DATA
 0002:0000022c 00000004H .CRT$XPXA               DATA
 0002:00000230 00000004H .CRT$XPZ                DATA
 0002:00000234 00000004H .CRT$XTA                DATA
 0002:00000238 00000004H .CRT$XTZ                DATA
 0002:00000240 00003040H .rdata                  DATA
 0002:00003280 00000069H .rdata$debug            DATA
 0002:000032ec 000003e0H .rdata$r                DATA
 0002:000036d0 00000094H .rdata$sxdata           DATA
 0002:00003764 00000004H .rtc$IAA                DATA
 0002:00003768 00000004H .rtc$IZZ                DATA
 0002:0000376c 00000004H .rtc$TAA                DATA
 0002:00003770 00000004H .rtc$TZZ                DATA
 0002:00003778 00001064H .xdata$x                DATA
 0002:000047dc 00000028H .idata$2                DATA
 0002:00004804 00000014H .idata$3                DATA
 0002:00004818 000001f8H .idata$4                DATA
 0002:00004a10 00000956H .idata$6                DATA
 0002:00005370 0000010cH .edata                  DATA
 0003:00000000 000014e0H .data                   DATA
 0003:000014e0 00004168H .bss                    DATA

  Address         Publics by Value              Rva+Base       Lib:Object

 0000:00000000       __except_list              00000000     <absolute>
 0000:00000025       ___safe_se_handler_count   00000025     <absolute>
 0000:00000000       ___ImageBase               04000000     <linker-defined>
 0001:00000000       ??0bad_alloc@std@@QAE@PBD@Z 04001000 f i MQ2NetBots.obj
 0001:00000020       ??1bad_alloc@std@@UAE@XZ   04001020 f i MQ2NetBots.obj
 0001:00000030       ??_Gbad_alloc@std@@UAEPAXI@Z 04001030 f i MQ2NetBots.obj
 0001:00000030       ??_Ebad_alloc@std@@UAEPAXI@Z 04001030 f i MQ2NetBots.obj
 0001:00000060       ??2@YAPAXIPAX@Z            04001060 f i MQ2NetBots.obj
 0001:00000070       ??3@YAXPAX0@Z              04001070 f i MQ2NetBots.obj
 0001:00000080       ?assign@?$char_traits@D@std@@SAXAADABD@Z 04001080 f i MQ2NetBots.obj
 0001:00000090       ?compare@?$char_traits@D@std@@SAHPBD0I@Z 04001090 f i MQ2NetBots.obj
 0001:00000110       ?length@?$char_traits@D@std@@SAIPBD@Z 04001110 f i MQ2NetBots.obj
 0001:00000130       ?_Copy_s@?$char_traits@D@std@@SAPADPADIPBDI@Z 04001130 f i MQ2NetBots.obj
 0001:00000160       ?_Move_s@?$char_traits@D@std@@SAPADPADIPBDI@Z 04001160 f i MQ2NetBots.obj
 0001:00000190       ??0_Aux_cont@std@@QAE@QBV_Container_base_aux@1@@Z 04001190 f i MQ2NetBots.obj
 0001:000001a0       ?_Getcont@_Aux_cont@std@@QBEPBV_Container_base_aux@2@XZ 040011a0 f i MQ2NetBots.obj
 0001:000001b0       ??0_Container_base_aux@std@@QAE@XZ 040011b0 f i MQ2NetBots.obj
 0001:000001c0       ??1_Container_base_aux@std@@QAE@XZ 040011c0 f i MQ2NetBots.obj
 0001:000001d0       ??0_Iterator_base_aux@std@@QAE@XZ 040011d0 f i MQ2NetBots.obj
 0001:000001e0       ?_Set_container@_Iterator_base_aux@std@@QAEXQBV_Container_base_aux@2@@Z 040011e0 f i MQ2NetBots.obj
 0001:000001f0       ?_Getmycont@_Iterator_base_aux@std@@QBEPBV_Container_base_aux@2@XZ 040011f0 f i MQ2NetBots.obj
 0001:00000200       ?_Same_container@_Iterator_base_aux@std@@QBE_NABV12@@Z 04001200 f i MQ2NetBots.obj
 0001:00000220       ?_Has_container@_Iterator_base_aux@std@@QBE_NXZ 04001220 f i MQ2NetBots.obj
 0001:00000280       ??0BlechNode@@QAE@PAV0@PAPAV0@PBDW4eBlechStringType@@@Z 04001280 f i MQ2NetBots.obj
 0001:000002e0       ??1BlechNode@@QAE@XZ       040012e0 f i MQ2NetBots.obj
 0001:00000390       ?AddChild@BlechNode@@QAEPAV1@PBDW4eBlechStringType@@@Z 04001390 f i MQ2NetBots.obj
 0001:00000590       ?AddEvent@BlechNode@@QAEXPAU_BLECHEVENT@@@Z 04001590 f i MQ2NetBots.obj
 0001:000005d0       ??_GBlechNode@@QAEPAXI@Z   040015d0 f i MQ2NetBots.obj
 0001:000005f0       ?stristr@Blech@@SAPBDPBD0@Z 040015f0 f i MQ2NetBots.obj
 0001:000006b0       ?FreeExecution@Blech@@AAEXPAU_BLECHEXECUTE@@@Z 040016b0 f i MQ2NetBots.obj
 0001:00000700       ?ProcessExecutionList@Blech@@AAEIPAPAU_BLECHEXECUTE@@@Z 04001700 f i MQ2NetBots.obj
 0001:00000770       ?QueueEvent@Blech@@AAEXPAPAU_BLECHEXECUTE@@PAU_BLECHEVENT@@PAU_BLECHVALUE@@@Z 04001770 f i MQ2NetBots.obj
 0001:00000800       ?QueueEvents@Blech@@AAEXPAPAU_BLECHEXECUTE@@PAVBlechNode@@PBDI@Z 04001800 f i MQ2NetBots.obj
 0001:00000cb0       ?Chew@Blech@@AAEIPAVBlechNode@@PBD@Z 04001cb0 f i MQ2NetBots.obj
 0001:00000fa0       ?AddNode@Blech@@AAEPAVBlechNode@@IPBDW4eBlechStringType@@@Z 04001fa0 f i MQ2NetBots.obj
 0001:000011a0       ?AddNode@Blech@@AAEPAVBlechNode@@PAV2@PBD1W4eBlechStringType@@@Z 040021a0 f i MQ2NetBots.obj
 0001:00001250       ?Initialize@Blech@@AAEXXZ  04002250 f i MQ2NetBots.obj
 0001:00001290       ?Lock@CAutoLock@MQ2Internal@@QAEXXZ 04002290 f i MQ2NetBots.obj
 0001:000012b0       ?Unlock@CAutoLock@MQ2Internal@@QAEXXZ 040022b0 f i MQ2NetBots.obj
 0001:000012d0       ??0CAutoLock@MQ2Internal@@QAE@PAU_RTL_CRITICAL_SECTION@@@Z 040022d0 f i MQ2NetBots.obj
 0001:00001300       ??1CAutoLock@MQ2Internal@@QAE@XZ 04002300 f i MQ2NetBots.obj
 0001:00001440       _DllMain@12                04002440 f   MQ2NetBots.obj
 0001:000014a0       ?EQBCConnected@@YA_NXZ     040024a0 f   MQ2NetBots.obj
 0001:00001500       ?EQBCBroadCast@@YAXPAD@Z   04002500 f   MQ2NetBots.obj
 0001:00001580       ?inGroup@@YA_NK@Z          04002580 f   MQ2NetBots.obj
 0001:00001620       ?inZoned@@YA_NKK@Z         04002620 f   MQ2NetBots.obj
 0001:00001650       ?InfoSong@@YAXPAD@Z        04002650 f   MQ2NetBots.obj
 0001:000016c0       ?InfoPets@@YAXPAD@Z        040026c0 f   MQ2NetBots.obj
 0001:00001730       ?InfoBuff@@YAXPAD@Z        04002730 f   MQ2NetBots.obj
 0001:000017a0       ?ParseInfo@@YGXIPAXPAU_BLECHVALUE@@@Z 040027a0 f   MQ2NetBots.obj
 0001:00001b10       ?MakeBUFFS@@YAPADPAD@Z     04002b10 f   MQ2NetBots.obj
 0001:00001c00       ?MakeCASTD@@YAPADPAD@Z     04002c00 f   MQ2NetBots.obj
 0001:00001c40       ?MakeEXPER@@YAPADPAD@Z     04002c40 f   MQ2NetBots.obj
 0001:00001c80       ?MakeLEADR@@YAPADPAD@Z     04002c80 f   MQ2NetBots.obj
 0001:00001cc0       ?MakeLEVEL@@YAPADPAD@Z     04002cc0 f   MQ2NetBots.obj
 0001:00001d00       ?MakeLIFES@@YAPADPAD@Z     04002d00 f   MQ2NetBots.obj
 0001:00001d50       ?MakeMANAS@@YAPADPAD@Z     04002d50 f   MQ2NetBots.obj
 0001:00001db0       ?MakePBUFF@@YAPADPAD@Z     04002db0 f   MQ2NetBots.obj
 0001:00001e70       ?MakePETIL@@YAPADPAD@Z     04002e70 f   MQ2NetBots.obj
 0001:00001ef0       ?MakeSONGS@@YAPADPAD@Z     04002ef0 f   MQ2NetBots.obj
 0001:00001f70       ?MakeSTATE@@YAPADPAD@Z     04002f70 f   MQ2NetBots.obj
 0001:00002090       ?MakeOOCST@@YAPADPAD@Z     04003090 f   MQ2NetBots.obj
 0001:000020c0       ?MakeAAPTS@@YAPADPAD@Z     040030c0 f   MQ2NetBots.obj
 0001:00002100       ?MakeTARGT@@YAPADPAD@Z     04003100 f   MQ2NetBots.obj
 0001:00002150       ?MakeZONES@@YAPADPAD@Z     04003150 f   MQ2NetBots.obj
 0001:00002190       ?Command@@YAXPAU_SPAWNINFO@EQData@@PAD@Z 04003190 f   MQ2NetBots.obj
 0001:000023e0       _OnBeginZone               040033e0 f   MQ2NetBots.obj
 0001:00002420       _SetGameState              04003420 f   MQ2NetBots.obj
 0001:00002500       ?size@?$basic_string@DU?$char_traits@D@std@@V?$allocator@D@2@@std@@QBEIXZ 04003500 f i MQ2NetBots.obj
 0001:00002510       ??0?$CIndex@PAU_MQ2TypeMember@MQ2Internal@@@MQ2Internal@@QAE@XZ 04003510 f i MQ2NetBots.obj
 0001:00002530       ??1?$CIndex@PAU_MQ2TypeMember@MQ2Internal@@@MQ2Internal@@QAE@XZ 04003530 f i MQ2NetBots.obj
 0001:00002570       ?Cleanup@?$CIndex@PAU_MQ2TypeMember@MQ2Internal@@@MQ2Internal@@QAEXXZ 04003570 f i MQ2NetBots.obj
 0001:000025b0       ??A?$CIndex@PAU_MQ2TypeMember@MQ2Internal@@@MQ2Internal@@QAEAAPAU_MQ2TypeMember@1@K@Z 040035b0 f i MQ2NetBots.obj
 0001:000025c0       ??8const_iterator@?$_Tree@V?$_Tmap_traits@V?$basic_string@DU?$char_traits@D@std@@V?$allocator@D@2@@std@@VBotInfo@@U?$less@V?$basic_string@DU?$char_traits@D@std@@V?$allocator@D@2@@std@@@2@V?$allocator@U?$pair@$$CBV?$basic_string@DU?$char_traits@D@std@@V?$allocator@D@2@@std@@VBotInfo@@@std@@@2@$0A@@std@@@std@@QBE_NABV012@@Z 040035c0 f i MQ2NetBots.obj
 0001:000025f0       ??9const_iterator@?$_Tree@V?$_Tmap_traits@V?$basic_string@DU?$char_traits@D@std@@V?$allocator@D@2@@std@@VBotInfo@@U?$less@V?$basic_string@DU?$char_traits@D@std@@V?$allocator@D@2@@std@@@2@V?$allocator@U?$pair@$$CBV?$basic_string@DU?$char_traits@D@std@@V?$allocator@D@2@@std@@VBotInfo@@@std@@@2@$0A@@std@@@std@@QBE_NABV012@@Z 040035f0 f i MQ2NetBots.obj
 0001:00002620       ?_Myptr@?$basic_string@DU?$char_traits@D@std@@V?$allocator@D@2@@std@@IBEPBDXZ 04003620 f i MQ2NetBots.obj
 0001:00002630       ??0?$allocator@D@std@@QAE@XZ 04003630 f i MQ2NetBots.obj
 0001:00002640       ??0?$allocator@U?$pair@$$CBIPAU_BLECHEVENT@@@std@@@std@@QAE@XZ 04003640 f i MQ2NetBots.obj
 0001:00002650       ??R?$less@I@std@@QBE_NABI0@Z 04003650 f i MQ2NetBots.obj
 0001:00002670       ??8const_iterator@?$_Tree@V?$_Tmap_traits@IPAU_BLECHEVENT@@U?$less@I@std@@V?$allocator@U?$pair@$$CBIPAU_BLECHEVENT@@@std@@@3@$0A@@std@@@std@@QBE_NABV012@@Z 04003670 f i MQ2NetBots.obj
 0001:000026a0       ?_Mynode@const_iterator@?$_Tree@V?$_Tmap_traits@IPAU_BLECHEVENT@@U?$less@I@std@@V?$allocator@U?$pair@$$CBIPAU_BLECHEVENT@@@std@@@3@$0A@@std@@@std@@QBEPAU_Node@?$_Tree_nod@V?$_Tmap_traits@IPAU_BLECHEVENT@@U?$less@I@std@@V?$allocator@U?$pair@$$CBIPAU_BLECHEVENT@@@std@@@3@$0A@@std@@@3@XZ 040036a0 f i MQ2NetBots.obj
 0001:000026b0       ??0?$pair@$$CBIPAU_BLECHEVENT@@@std@@QAE@ABIABQAU_BLECHEVENT@@@Z 040036b0 f i MQ2NetBots.obj
 0001:000026d0       ?Resize@?$CIndex@PAU_MQ2TypeMember@MQ2Internal@@@MQ2Internal@@QAEXK@Z 040036d0 f i MQ2NetBots.obj
 0001:00002780       ??0?$allocator@U?$pair@$$CBV?$basic_string@DU?$char_traits@D@std@@V?$allocator@D@2@@std@@K@std@@@std@@QAE@XZ 04003780 f i MQ2NetBots.obj
 0001:00002790       ?_Color@?$_Tree@V?$_Tmap_traits@V?$basic_string@DU?$char_traits@D@std@@V?$allocator@D@2@@std@@VBotInfo@@U?$less@V?$basic_string@DU?$char_traits@D@std@@V?$allocator@D@2@@std@@@2@V?$allocator@U?$pair@$$CBV?$basic_string@DU?$char_traits@D@std@@V?$allocator@D@2@@std@@VBotInfo@@@std@@@2@$0A@@std@@@std@@KAAADPAU_Node@?$_Tree_nod@V?$_Tmap_traits@V?$basic_string@DU?$char_traits@D@std@@V?$allocator@D@2@@std@@VBotInfo@@U?$less@V?$basic_string@DU?$char_traits@D@std@@V?$allocator@D@2@@std@@@2@V?$allocator@U?$pair@$$CBV?$basic_string@DU?$char_traits@D@std@@V?$allocator@D@2@@std@@VBotInfo@@@std@@@2@$0A@@std@@@2@@Z 04003790 f i MQ2NetBots.obj
 0001:000027a0       ?_Isnil@?$_Tree@V?$_Tmap_traits@V?$basic_string@DU?$char_traits@D@std@@V?$allocator@D@2@@std@@VBotInfo@@U?$less@V?$basic_string@DU?$char_traits@D@std@@V?$allocator@D@2@@std@@@2@V?$allocator@U?$pair@$$CBV?$basic_string@DU?$char_traits@D@std@@V?$allocator@D@2@@std@@VBotInfo@@@std@@@2@$0A@@std@@@std@@KAAADPAU_Node@?$_Tree_nod@V?$_Tmap_traits@V?$basic_string@DU?$char_traits@D@std@@V?$allocator@D@2@@std@@VBotInfo@@U?$less@V?$basic_string@DU?$char_traits@D@std@@V?$allocator@D@2@@std@@@2@V?$allocator@U?$pair@$$CBV?$basic_string@DU?$char_traits@D@std@@V?$allocator@D@2@@std@@VBotInfo@@@std@@@2@$0A@@std@@@2@@Z 040037a0 f i MQ2NetBots.obj
 0001:000027b0       ?_Left@?$_Tree@V?$_Tmap_traits@V?$basic_string@DU?$char_traits@D@std@@V?$allocator@D@2@@std@@VBotInfo@@U?$less@V?$basic_string@DU?$char_traits@D@std@@V?$allocator@D@2@@std@@@2@V?$allocator@U?$pair@$$CBV?$basic_string@DU?$char_traits@D@std@@V?$allocator@D@2@@std@@VBotInfo@@@std@@@2@$0A@@std@@@std@@KAAAPAU_Node@?$_Tree_nod@V?$_Tmap_traits@V?$basic_string@DU?$char_traits@D@std@@V?$allocator@D@2@@std@@VBotInfo@@U?$less@V?$basic_string@DU?$char_traits@D@std@@V?$allocator@D@2@@std@@@2@V?$allocator@U?$pair@$$CBV?$basic_string@DU?$char_traits@D@std@@V?$allocator@D@2@@std@@VBotInfo@@@std@@@2@$0A@@std@@@2@PAU342@@Z 040037b0 f i MQ2NetBots.obj
 0001:000027c0       ?_Parent@?$_Tree@V?$_Tmap_traits@V?$basic_string@DU?$char_traits@D@std@@V?$allocator@D@2@@std@@VBotInfo@@U?$less@V?$basic_string@DU?$char_traits@D@std@@V?$allocator@D@2@@std@@@2@V?$allocator@U?$pair@$$CBV?$basic_string@DU?$char_traits@D@std@@V?$allocator@D@2@@std@@VBotInfo@@@std@@@2@$0A@@std@@@std@@KAAAPAU_Node@?$_Tree_nod@V?$_Tmap_traits@V?$basic_string@DU?$char_traits@D@std@@V?$allocator@D@2@@std@@VBotInfo@@U?$less@V?$basic_string@DU?$char_traits@D@std@@V?$allocator@D@2@@std@@@2@V?$allocator@U?$pair@$$CBV?$basic_string@DU?$char_traits@D@std@@V?$allocator@D@2@@std@@VBotInfo@@@std@@@2@$0A@@std@@@2@PAU342@@Z 040037c0 f i MQ2NetBots.obj
 0001:000027d0       ?_Right@?$_Tree@V?$_Tmap_traits@V?$basic_string@DU?$char_traits@D@std@@V?$allocator@D@2@@std@@VBotInfo@@U?$less@V?$basic_string@DU?$char_traits@D@std@@V?$allocator@D@2@@std@@@2@V?$allocator@U?$pair@$$CBV?$basic_string@DU?$char_traits@D@std@@V?$allocator@D@2@@std@@VBotInfo@@@std@@@2@$0A@@std@@@std@@KAAAPAU_Node@?$_Tree_nod@V?$_Tmap_traits@V?$basic_string@DU?$char_traits@D@std@@V?$allocator@D@2@@std@@VBotInfo@@U?$less@V?$basic_string@DU?$char_traits@D@std@@V?$allocator@D@2@@std@@@2@V?$allocator@U?$pair@$$CBV?$basic_string@DU?$char_traits@D@std@@V?$allocator@D@2@@std@@VBotInfo@@@std@@@2@$0A@@std@@@2@PAU342@@Z 040037d0 f i MQ2NetBots.obj
 0001:000027e0       ?_Lmost@?$_Tree@V?$_Tmap_traits@V?$basic_string@DU?$char_traits@D@std@@V?$allocator@D@2@@std@@VBotInfo@@U?$less@V?$basic_string@DU?$char_traits@D@std@@V?$allocator@D@2@@std@@@2@V?$allocator@U?$pair@$$CBV?$basic_string@DU?$char_traits@D@std@@V?$allocator@D@2@@std@@VBotInfo@@@std@@@2@$0A@@std@@@std@@IBEAAPAU_Node@?$_Tree_nod@V?$_Tmap_traits@V?$basic_string@DU?$char_traits@D@std@@V?$allocator@D@2@@std@@VBotInfo@@U?$less@V?$basic_string@DU?$char_traits@D@std@@V?$allocator@D@2@@std@@@2@V?$allocator@U?$pair@$$CBV?$basic_string@DU?$char_traits@D@std@@V?$allocator@D@2@@std@@VBotInfo@@@std@@@2@$0A@@std@@@2@XZ 040037e0 f i MQ2NetBots.obj
 0001:000027f0       ?_Max@?$_Tree@V?$_Tmap_traits@V?$basic_string@DU?$char_traits@D@std@@V?$allocator@D@2@@std@@VBotInfo@@U?$less@V?$basic_string@DU?$char_traits@D@std@@V?$allocator@D@2@@std@@@2@V?$allocator@U?$pair@$$CBV?$basic_string@DU?$char_traits@D@std@@V?$allocator@D@2@@std@@VBotInfo@@@std@@@2@$0A@@std@@@std@@KAPAU_Node@?$_Tree_nod@V?$_Tmap_traits@V?$basic_string@DU?$char_traits@D@std@@V?$allocator@D@2@@std@@VBotInfo@@U?$less@V?$basic_string@DU?$char_traits@D@std@@V?$allocator@D@2@@std@@@2@V?$allocator@U?$pair@$$CBV?$basic_string@DU?$char_traits@D@std@@V?$allocator@D@2@@std@@VBotInfo@@@std@@@2@$0A@@std@@@2@PAU342@@Z 040037f0 f i MQ2NetBots.obj
 0001:00002810       ?_Min@?$_Tree@V?$_Tmap_traits@V?$basic_string@DU?$char_traits@D@std@@V?$allocator@D@2@@std@@VBotInfo@@U?$less@V?$basic_string@DU?$char_traits@D@std@@V?$allocator@D@2@@std@@@2@V?$allocator@U?$pair@$$CBV?$basic_string@DU?$char_traits@D@std@@V?$allocator@D@2@@std@@VBotInfo@@@std@@@2@$0A@@std@@@std@@KAPAU_Node@?$_Tree_nod@V?$_Tmap_traits@V?$basic_string@DU?$char_traits@D@std@@V?$allocator@D@2@@std@@VBotInfo@@U?$less@V?$basic_string@DU?$char_traits@D@std@@V?$allocator@D@2@@std@@@2@V?$allocator@U?$pair@$$CBV?$basic_string@DU?$char_traits@D@std@@V?$allocator@D@2@@std@@VBotInfo@@@std@@@2@$0A@@std@@@2@PAU342@@Z 04003810 f i MQ2NetBots.obj
 0001:00002830       ?_Rmost@?$_Tree@V?$_Tmap_traits@V?$basic_string@DU?$char_traits@D@std@@V?$allocator@D@2@@std@@VBotInfo@@U?$less@V?$basic_string@DU?$char_traits@D@std@@V?$allocator@D@2@@std@@@2@V?$allocator@U?$pair@$$CBV?$basic_string@DU?$char_traits@D@std@@V?$allocator@D@2@@std@@VBotInfo@@@std@@@2@$0A@@std@@@std@@IBEAAPAU_Node@?$_Tree_nod@V?$_Tmap_traits@V?$basic_string@DU?$char_traits@D@std@@V?$allocator@D@2@@std@@VBotInfo@@U?$less@V?$basic_string@DU?$char_traits@D@std@@V?$allocator@D@2@@std@@@2@V?$allocator@U?$pair@$$CBV?$basic_string@DU?$char_traits@D@std@@V?$allocator@D@2@@std@@VBotInfo@@@std@@@2@$0A@@std@@@2@XZ 04003830 f i MQ2NetBots.obj
 0001:00002840       ?_Root@?$_Tree@V?$_Tmap_traits@V?$basic_string@DU?$char_traits@D@std@@V?$allocator@D@2@@std@@VBotInfo@@U?$less@V?$basic_string@DU?$char_traits@D@std@@V?$allocator@D@2@@std@@@2@V?$allocator@U?$pair@$$CBV?$basic_string@DU?$char_traits@D@std@@V?$allocator@D@2@@std@@VBotInfo@@@std@@@2@$0A@@std@@@std@@IBEAAPAU_Node@?$_Tree_nod@V?$_Tmap_traits@V?$basic_string@DU?$char_traits@D@std@@V?$allocator@D@2@@std@@VBotInfo@@U?$less@V?$basic_string@DU?$char_traits@D@std@@V?$allocator@D@2@@std@@@2@V?$allocator@U?$pair@$$CBV?$basic_string@DU?$char_traits@D@std@@V?$allocator@D@2@@std@@VBotInfo@@@std@@@2@$0A@@std@@@2@XZ 04003840 f i MQ2NetBots.obj
 0001:00002850       ?_Rrotate@?$_Tree@V?$_Tmap_traits@V?$basic_string@DU?$char_traits@D@std@@V?$allocator@D@2@@std@@VBotInfo@@U?$less@V?$basic_string@DU?$char_traits@D@std@@V?$allocator@D@2@@std@@@2@V?$allocator@U?$pair@$$CBV?$basic_string@DU?$char_traits@D@std@@V?$allocator@D@2@@std@@VBotInfo@@@std@@@2@$0A@@std@@@std@@IAEXPAU_Node@?$_Tree_nod@V?$_Tmap_traits@V?$basic_string@DU?$char_traits@D@std@@V?$allocator@D@2@@std@@VBotInfo@@U?$less@V?$basic_string@DU?$char_traits@D@std@@V?$allocator@D@2@@std@@@2@V?$allocator@U?$pair@$$CBV?$basic_string@DU?$char_traits@D@std@@V?$allocator@D@2@@std@@VBotInfo@@@std@@@2@$0A@@std@@@2@@Z 04003850 f i MQ2NetBots.obj
 0001:000028b0       ?_Kfn@?$_Tmap_traits@V?$basic_string@DU?$char_traits@D@std@@V?$allocator@D@2@@std@@VBotInfo@@U?$less@V?$basic_string@DU?$char_traits@D@std@@V?$allocator@D@2@@std@@@2@V?$allocator@U?$pair@$$CBV?$basic_string@DU?$char_traits@D@std@@V?$allocator@D@2@@std@@VBotInfo@@@std@@@2@$0A@@std@@SAABV?$basic_string@DU?$char_traits@D@std@@V?$allocator@D@2@@2@ABU?$pair@$$CBV?$basic_string@DU?$char_traits@D@std@@V?$allocator@D@2@@std@@VBotInfo@@@2@@Z 040038b0 f i MQ2NetBots.obj
 0001:000028c0       ??0?$allocator@U?$pair@$$CBV?$basic_string@DU?$char_traits@D@std@@V?$allocator@D@2@@std@@VBotInfo@@@std@@@std@@QAE@XZ 040038c0 f i MQ2NetBots.obj
 0001:000028d0       ?deallocate@?$allocator@U_Node@?$_Tree_nod@V?$_Tmap_traits@V?$basic_string@DU?$char_traits@D@std@@V?$allocator@D@2@@std@@VBotInfo@@U?$less@V?$basic_string@DU?$char_traits@D@std@@V?$allocator@D@2@@std@@@2@V?$allocator@U?$pair@$$CBV?$basic_string@DU?$char_traits@D@std@@V?$allocator@D@2@@std@@VBotInfo@@@std@@@2@$0A@@std@@@std@@@std@@QAEXPAU_Node@?$_Tree_nod@V?$_Tmap_traits@V?$basic_string@DU?$char_traits@D@std@@V?$allocator@D@2@@std@@VBotInfo@@U?$less@V?$basic_string@DU?$char_traits@D@std@@V?$allocator@D@2@@std@@@2@V?$allocator@U?$pair@$$CBV?$basic_string@DU?$char_traits@D@std@@V?$allocator@D@2@@std@@VBotInfo@@@std@@@2@$0A@@std@@@2@I@Z 040038d0 f i MQ2NetBots.obj
 0001:000028e0       ?_Mynode@const_iterator@?$_Tree@V?$_Tmap_traits@V?$basic_string@DU?$char_traits@D@std@@V?$allocator@D@2@@std@@VBotInfo@@U?$less@V?$basic_string@DU?$char_traits@D@std@@V?$allocator@D@2@@std@@@2@V?$allocator@U?$pair@$$CBV?$basic_string@DU?$char_traits@D@std@@V?$allocator@D@2@@std@@VBotInfo@@@std@@@2@$0A@@std@@@std@@QBEPAU_Node@?$_Tree_nod@V?$_Tmap_traits@V?$basic_string@DU?$char_traits@D@std@@V?$allocator@D@2@@std@@VBotInfo@@U?$less@V?$basic_string@DU?$char_traits@D@std@@V?$allocator@D@2@@std@@@2@V?$allocator@U?$pair@$$CBV?$basic_string@DU?$char_traits@D@std@@V?$allocator@D@2@@std@@VBotInfo@@@std@@@2@$0A@@std@@@3@XZ 040038e0 f i MQ2NetBots.obj
 0001:000028f0       ??0?$pair@Viterator@?$_Tree@V?$_Tmap_traits@V?$basic_string@DU?$char_traits@D@std@@V?$allocator@D@2@@std@@VBotInfo@@U?$less@V?$basic_string@DU?$char_traits@D@std@@V?$allocator@D@2@@std@@@2@V?$allocator@U?$pair@$$CBV?$basic_string@DU?$char_traits@D@std@@V?$allocator@D@2@@std@@VBotInfo@@@std@@@2@$0A@@std@@@std@@_N@std@@QAE@ABViterator@?$_Tree@V?$_Tmap_traits@V?$basic_string@DU?$char_traits@D@std@@V?$allocator@D@2@@std@@VBotInfo@@U?$less@V?$basic_string@DU?$char_traits@D@std@@V?$allocator@D@2@@std@@@2@V?$allocator@U?$pair@$$CBV?$basic_string@DU?$char_traits@D@std@@V?$allocator@D@2@@std@@VBotInfo@@@std@@@2@$0A@@std@@@1@AB_N@Z 040038f0 f i MQ2NetBots.obj
 0001:00002910       ??8const_iterator@?$_Tree@V?$_Tmap_traits@V?$basic_string@DU?$char_traits@D@std@@V?$allocator@D@2@@std@@KU?$less@V?$basic_string@DU?$char_traits@D@std@@V?$allocator@D@2@@std@@@2@V?$allocator@U?$pair@$$CBV?$basic_string@DU?$char_traits@D@std@@V?$allocator@D@2@@std@@K@std@@@2@$0A@@std@@@std@@QBE_NABV012@@Z 04003910 f i MQ2NetBots.obj
 0001:00002940       ?_Mynode@const_iterator@?$_Tree@V?$_Tmap_traits@V?$basic_string@DU?$char_traits@D@std@@V?$allocator@D@2@@std@@KU?$less@V?$basic_string@DU?$char_traits@D@std@@V?$allocator@D@2@@std@@@2@V?$allocator@U?$pair@$$CBV?$basic_string@DU?$char_traits@D@std@@V?$allocator@D@2@@std@@K@std@@@2@$0A@@std@@@std@@QBEPAU_Node@?$_Tree_nod@V?$_Tmap_traits@V?$basic_string@DU?$char_traits@D@std@@V?$allocator@D@2@@std@@KU?$less@V?$basic_string@DU?$char_traits@D@std@@V?$allocator@D@2@@std@@@2@V?$allocator@U?$pair@$$CBV?$basic_string@DU?$char_traits@D@std@@V?$allocator@D@2@@std@@K@std@@@2@$0A@@std@@@3@XZ 04003940 f i MQ2NetBots.obj
 0001:00002950       ??0?$_Iterator_with_base@Ubidirectional_iterator_tag@std@@U?$pair@$$CBV?$basic_string@DU?$char_traits@D@std@@V?$allocator@D@2@@std@@VBotInfo@@@2@HPBU32@ABU32@V_Iterator_base_aux@2@@std@@QAE@XZ 04003950 f i MQ2NetBots.obj
 0001:00002960       ?_Myptr@?$basic_string@DU?$char_traits@D@std@@V?$allocator@D@2@@std@@IAEPADXZ 04003960 f i MQ2NetBots.obj
 0001:00002970       ??0?$allocator@D@std@@QAE@ABV01@@Z 04003970 f i MQ2NetBots.obj
 0001:00002980       ?deallocate@?$allocator@D@std@@QAEXPADI@Z 04003980 f i MQ2NetBots.obj
 0001:00002990       ?_Isnil@?$_Tree@V?$_Tmap_traits@IPAU_BLECHEVENT@@U?$less@I@std@@V?$allocator@U?$pair@$$CBIPAU_BLECHEVENT@@@std@@@3@$0A@@std@@@std@@KAAADPAU_Node@?$_Tree_nod@V?$_Tmap_traits@IPAU_BLECHEVENT@@U?$less@I@std@@V?$allocator@U?$pair@$$CBIPAU_BLECHEVENT@@@std@@@3@$0A@@std@@@2@@Z 04003990 f i MQ2NetBots.obj
 0001:000029a0       ?_Left@?$_Tree@V?$_Tmap_traits@IPAU_BLECHEVENT@@U?$less@I@std@@V?$allocator@U?$pair@$$CBIPAU_BLECHEVENT@@@std@@@3@$0A@@std@@@std@@KAAAPAU_Node@?$_Tree_nod@V?$_Tmap_traits@IPAU_BLECHEVENT@@U?$less@I@std@@V?$allocator@U?$pair@$$CBIPAU_BLECHEVENT@@@std@@@3@$0A@@std@@@2@PAU342@@Z 040039a0 f i MQ2NetBots.obj
 0001:000029b0       ?_Parent@?$_Tree@V?$_Tmap_traits@IPAU_BLECHEVENT@@U?$less@I@std@@V?$allocator@U?$pair@$$CBIPAU_BLECHEVENT@@@std@@@3@$0A@@std@@@std@@KAAAPAU_Node@?$_Tree_nod@V?$_Tmap_traits@IPAU_BLECHEVENT@@U?$less@I@std@@V?$allocator@U?$pair@$$CBIPAU_BLECHEVENT@@@std@@@3@$0A@@std@@@2@PAU342@@Z 040039b0 f i MQ2NetBots.obj
 0001:000029c0       ?_Right@?$_Tree@V?$_Tmap_traits@IPAU_BLECHEVENT@@U?$less@I@std@@V?$allocator@U?$pair@$$CBIPAU_BLECHEVENT@@@std@@@3@$0A@@std@@@std@@KAAAPAU_Node@?$_Tree_nod@V?$_Tmap_traits@IPAU_BLECHEVENT@@U?$less@I@std@@V?$allocator@U?$pair@$$CBIPAU_BLECHEVENT@@@std@@@3@$0A@@std@@@2@PAU342@@Z 040039c0 f i MQ2NetBots.obj
 0001:000029d0       ?_Myval@?$_Tree@V?$_Tmap_traits@IPAU_BLECHEVENT@@U?$less@I@std@@V?$allocator@U?$pair@$$CBIPAU_BLECHEVENT@@@std@@@3@$0A@@std@@@std@@KAAAU?$pair@$$CBIPAU_BLECHEVENT@@@2@PAU_Node@?$_Tree_nod@V?$_Tmap_traits@IPAU_BLECHEVENT@@U?$less@I@std@@V?$allocator@U?$pair@$$CBIPAU_BLECHEVENT@@@std@@@3@$0A@@std@@@2@@Z 040039d0 f i MQ2NetBots.obj
 0001:000029e0       ?size@?$_Tree@V?$_Tmap_traits@IPAU_BLECHEVENT@@U?$less@I@std@@V?$allocator@U?$pair@$$CBIPAU_BLECHEVENT@@@std@@@3@$0A@@std@@@std@@QBEIXZ 040039e0 f i MQ2NetBots.obj
 0001:000029f0       ?_Kfn@?$_Tmap_traits@IPAU_BLECHEVENT@@U?$less@I@std@@V?$allocator@U?$pair@$$CBIPAU_BLECHEVENT@@@std@@@3@$0A@@std@@SAABIABU?$pair@$$CBIPAU_BLECHEVENT@@@2@@Z 040039f0 f i MQ2NetBots.obj
 0001:00002a00       ??0?$allocator@U?$pair@$$CBIPAU_BLECHEVENT@@@std@@@std@@QAE@ABV01@@Z 04003a00 f i MQ2NetBots.obj
 0001:00002a10       ?deallocate@?$allocator@V_Aux_cont@std@@@std@@QAEXPAV_Aux_cont@2@I@Z 04003a10 f i MQ2NetBots.obj
 0001:00002a20       ?deallocate@?$allocator@U_Node@?$_Tree_nod@V?$_Tmap_traits@IPAU_BLECHEVENT@@U?$less@I@std@@V?$allocator@U?$pair@$$CBIPAU_BLECHEVENT@@@std@@@3@$0A@@std@@@std@@@std@@QAEXPAU_Node@?$_Tree_nod@V?$_Tmap_traits@IPAU_BLECHEVENT@@U?$less@I@std@@V?$allocator@U?$pair@$$CBIPAU_BLECHEVENT@@@std@@@3@$0A@@std@@@2@I@Z 04003a20 f i MQ2NetBots.obj
 0001:00002a30       ??Dconst_iterator@?$_Tree@V?$_Tmap_traits@IPAU_BLECHEVENT@@U?$less@I@std@@V?$allocator@U?$pair@$$CBIPAU_BLECHEVENT@@@std@@@3@$0A@@std@@@std@@QBEABU?$pair@$$CBIPAU_BLECHEVENT@@@2@XZ 04003a30 f i MQ2NetBots.obj
 0001:00002a60       ?_Isnil@?$_Tree@V?$_Tmap_traits@V?$basic_string@DU?$char_traits@D@std@@V?$allocator@D@2@@std@@KU?$less@V?$basic_string@DU?$char_traits@D@std@@V?$allocator@D@2@@std@@@2@V?$allocator@U?$pair@$$CBV?$basic_string@DU?$char_traits@D@std@@V?$allocator@D@2@@std@@K@std@@@2@$0A@@std@@@std@@KAAADPAU_Node@?$_Tree_nod@V?$_Tmap_traits@V?$basic_string@DU?$char_traits@D@std@@V?$allocator@D@2@@std@@KU?$less@V?$basic_string@DU?$char_traits@D@std@@V?$allocator@D@2@@std@@@2@V?$allocator@U?$pair@$$CBV?$basic_string@DU?$char_traits@D@std@@V?$allocator@D@2@@std@@K@std@@@2@$0A@@std@@@2@@Z 04003a60 f i MQ2NetBots.obj
 0001:00002a70       ?_Left@?$_Tree@V?$_Tmap_traits@V?$basic_string@DU?$char_traits@D@std@@V?$allocator@D@2@@std@@KU?$less@V?$basic_string@DU?$char_traits@D@std@@V?$allocator@D@2@@std@@@2@V?$allocator@U?$pair@$$CBV?$basic_string@DU?$char_traits@D@std@@V?$allocator@D@2@@std@@K@std@@@2@$0A@@std@@@std@@KAAAPAU_Node@?$_Tree_nod@V?$_Tmap_traits@V?$basic_string@DU?$char_traits@D@std@@V?$allocator@D@2@@std@@KU?$less@V?$basic_string@DU?$char_traits@D@std@@V?$allocator@D@2@@std@@@2@V?$allocator@U?$pair@$$CBV?$basic_string@DU?$char_traits@D@std@@V?$allocator@D@2@@std@@K@std@@@2@$0A@@std@@@2@PAU342@@Z 04003a70 f i MQ2NetBots.obj
 0001:00002a80       ?_Parent@?$_Tree@V?$_Tmap_traits@V?$basic_string@DU?$char_traits@D@std@@V?$allocator@D@2@@std@@KU?$less@V?$basic_string@DU?$char_traits@D@std@@V?$allocator@D@2@@std@@@2@V?$allocator@U?$pair@$$CBV?$basic_string@DU?$char_traits@D@std@@V?$allocator@D@2@@std@@K@std@@@2@$0A@@std@@@std@@KAAAPAU_Node@?$_Tree_nod@V?$_Tmap_traits@V?$basic_string@DU?$char_traits@D@std@@V?$allocator@D@2@@std@@KU?$less@V?$basic_string@DU?$char_traits@D@std@@V?$allocator@D@2@@std@@@2@V?$allocator@U?$pair@$$CBV?$basic_string@DU?$char_traits@D@std@@V?$allocator@D@2@@std@@K@std@@@2@$0A@@std@@@2@PAU342@@Z 04003a80 f i MQ2NetBots.obj
 0001:00002a90       ?_Right@?$_Tree@V?$_Tmap_traits@V?$basic_string@DU?$char_traits@D@std@@V?$allocator@D@2@@std@@KU?$less@V?$basic_string@DU?$char_traits@D@std@@V?$allocator@D@2@@std@@@2@V?$allocator@U?$pair@$$CBV?$basic_string@DU?$char_traits@D@std@@V?$allocator@D@2@@std@@K@std@@@2@$0A@@std@@@std@@KAAAPAU_Node@?$_Tree_nod@V?$_Tmap_traits@V?$basic_string@DU?$char_traits@D@std@@V?$allocator@D@2@@std@@KU?$less@V?$basic_string@DU?$char_traits@D@std@@V?$allocator@D@2@@std@@@2@V?$allocator@U?$pair@$$CBV?$basic_string@DU?$char_traits@D@std@@V?$allocator@D@2@@std@@K@std@@@2@$0A@@std@@@2@PAU342@@Z 04003a90 f i MQ2NetBots.obj
 0001:00002aa0       ?_Myval@?$_Tree@V?$_Tmap_traits@V?$basic_string@DU?$char_traits@D@std@@V?$allocator@D@2@@std@@KU?$less@V?$basic_string@DU?$char_traits@D@std@@V?$allocator@D@2@@std@@@2@V?$allocator@U?$pair@$$CBV?$basic_string@DU?$char_traits@D@std@@V?$allocator@D@2@@std@@K@std@@@2@$0A@@std@@@std@@KAAAU?$pair@$$CBV?$basic_string@DU?$char_traits@D@std@@V?$allocator@D@2@@std@@K@2@PAU_Node@?$_Tree_nod@V?$_Tmap_traits@V?$basic_string@DU?$char_traits@D@std@@V?$allocator@D@2@@std@@KU?$less@V?$basic_string@DU?$char_traits@D@std@@V?$allocator@D@2@@std@@@2@V?$allocator@U?$pair@$$CBV?$basic_string@DU?$char_traits@D@std@@V?$allocator@D@2@@std@@K@std@@@2@$0A@@std@@@2@@Z 04003aa0 f i MQ2NetBots.obj
 0001:00002ab0       ?size@?$_Tree@V?$_Tmap_traits@V?$basic_string@DU?$char_traits@D@std@@V?$allocator@D@2@@std@@KU?$less@V?$basic_string@DU?$char_traits@D@std@@V?$allocator@D@2@@std@@@2@V?$allocator@U?$pair@$$CBV?$basic_string@DU?$char_traits@D@std@@V?$allocator@D@2@@std@@K@std@@@2@$0A@@std@@@std@@QBEIXZ 04003ab0 f i MQ2NetBots.obj
 0001:00002ac0       ?_Rmost@?$_Tree@V?$_Tmap_traits@V?$basic_string@DU?$char_traits@D@std@@V?$allocator@D@2@@std@@KU?$less@V?$basic_string@DU?$char_traits@D@std@@V?$allocator@D@2@@std@@@2@V?$allocator@U?$pair@$$CBV?$basic_string@DU?$char_traits@D@std@@V?$allocator@D@2@@std@@K@std@@@2@$0A@@std@@@std@@IBEAAPAU_Node@?$_Tree_nod@V?$_Tmap_traits@V?$basic_string@DU?$char_traits@D@std@@V?$allocator@D@2@@std@@KU?$less@V?$basic_string@DU?$char_traits@D@std@@V?$allocator@D@2@@std@@@2@V?$allocator@U?$pair@$$CBV?$basic_string@DU?$char_traits@D@std@@V?$allocator@D@2@@std@@K@std@@@2@$0A@@std@@@2@XZ 04003ac0 f i MQ2NetBots.obj
 0001:00002ad0       ?_Kfn@?$_Tmap_traits@V?$basic_string@DU?$char_traits@D@std@@V?$allocator@D@2@@std@@KU?$less@V?$basic_string@DU?$char_traits@D@std@@V?$allocator@D@2@@std@@@2@V?$allocator@U?$pair@$$CBV?$basic_string@DU?$char_traits@D@std@@V?$allocator@D@2@@std@@K@std@@@2@$0A@@std@@SAABV?$basic_string@DU?$char_traits@D@std@@V?$allocator@D@2@@2@ABU?$pair@$$CBV?$basic_string@DU?$char_traits@D@std@@V?$allocator@D@2@@std@@K@2@@Z 04003ad0 f i MQ2NetBots.obj
 0001:00002ae0       ??0?$allocator@U?$pair@$$CBV?$basic_string@DU?$char_traits@D@std@@V?$allocator@D@2@@std@@K@std@@@std@@QAE@ABV01@@Z 04003ae0 f i MQ2NetBots.obj
 0001:00002af0       ?deallocate@?$allocator@U_Node@?$_Tree_nod@V?$_Tmap_traits@V?$basic_string@DU?$char_traits@D@std@@V?$allocator@D@2@@std@@KU?$less@V?$basic_string@DU?$char_traits@D@std@@V?$allocator@D@2@@std@@@2@V?$allocator@U?$pair@$$CBV?$basic_string@DU?$char_traits@D@std@@V?$allocator@D@2@@std@@K@std@@@2@$0A@@std@@@std@@@std@@QAEXPAU_Node@?$_Tree_nod@V?$_Tmap_traits@V?$basic_string@DU?$char_traits@D@std@@V?$allocator@D@2@@std@@KU?$less@V?$basic_string@DU?$char_traits@D@std@@V?$allocator@D@2@@std@@@2@V?$allocator@U?$pair@$$CBV?$basic_string@DU?$char_traits@D@std@@V?$allocator@D@2@@std@@K@std@@@2@$0A@@std@@@2@I@Z 04003af0 f i MQ2NetBots.obj
 0001:00002b00       ?_Myval@?$_Tree@V?$_Tmap_traits@V?$basic_string@DU?$char_traits@D@std@@V?$allocator@D@2@@std@@VBotInfo@@U?$less@V?$basic_string@DU?$char_traits@D@std@@V?$allocator@D@2@@std@@@2@V?$allocator@U?$pair@$$CBV?$basic_string@DU?$char_traits@D@std@@V?$allocator@D@2@@std@@VBotInfo@@@std@@@2@$0A@@std@@@std@@KAAAU?$pair@$$CBV?$basic_string@DU?$char_traits@D@std@@V?$allocator@D@2@@std@@VBotInfo@@@2@PAU_Node@?$_Tree_nod@V?$_Tmap_traits@V?$basic_string@DU?$char_traits@D@std@@V?$allocator@D@2@@std@@VBotInfo@@U?$less@V?$basic_string@DU?$char_traits@D@std@@V?$allocator@D@2@@std@@@2@V?$allocator@U?$pair@$$CBV?$basic_string@DU?$char_traits@D@std@@V?$allocator@D@2@@std@@VBotInfo@@@std@@@2@$0A@@std@@@2@@Z 04003b00 f i MQ2NetBots.obj
 0001:00002b10       ??0?$allocator@U?$pair@$$CBV?$basic_string@DU?$char_traits@D@std@@V?$allocator@D@2@@std@@VBotInfo@@@std@@@std@@QAE@ABV01@@Z 04003b10 f i MQ2NetBots.obj
 0001:00002b20       ?_Inc@const_iterator@?$_Tree@V?$_Tmap_traits@V?$basic_string@DU?$char_traits@D@std@@V?$allocator@D@2@@std@@VBotInfo@@U?$less@V?$basic_string@DU?$char_traits@D@std@@V?$allocator@D@2@@std@@@2@V?$allocator@U?$pair@$$CBV?$basic_string@DU?$char_traits@D@std@@V?$allocator@D@2@@std@@VBotInfo@@@std@@@2@$0A@@std@@@std@@QAEXXZ 04003b20 f i MQ2NetBots.obj
 0001:00002ba0       ??Dconst_iterator@?$_Tree@V?$_Tmap_traits@V?$basic_string@DU?$char_traits@D@std@@V?$allocator@D@2@@std@@KU?$less@V?$basic_string@DU?$char_traits@D@std@@V?$allocator@D@2@@std@@@2@V?$allocator@U?$pair@$$CBV?$basic_string@DU?$char_traits@D@std@@V?$allocator@D@2@@std@@K@std@@@2@$0A@@std@@@std@@QBEABU?$pair@$$CBV?$basic_string@DU?$char_traits@D@std@@V?$allocator@D@2@@std@@K@2@XZ 04003ba0 f i MQ2NetBots.obj
 0001:00002bd0       ??0?$_Iterator_with_base@Ubidirectional_iterator_tag@std@@U?$pair@$$CBIPAU_BLECHEVENT@@@2@HPBU32@ABU32@V_Iterator_base_aux@2@@std@@QAE@XZ 04003bd0 f i MQ2NetBots.obj
 0001:00002be0       ??0?$_Iterator_with_base@Ubidirectional_iterator_tag@std@@U?$pair@$$CBV?$basic_string@DU?$char_traits@D@std@@V?$allocator@D@2@@std@@K@2@HPBU32@ABU32@V_Iterator_base_aux@2@@std@@QAE@XZ 04003be0 f i MQ2NetBots.obj
 0001:00002bf0       ?_Inside@?$basic_string@DU?$char_traits@D@std@@V?$allocator@D@2@@std@@IAE_NPBD@Z 04003bf0 f i MQ2NetBots.obj
 0001:00002c30       ?_Color@?$_Tree@V?$_Tmap_traits@IPAU_BLECHEVENT@@U?$less@I@std@@V?$allocator@U?$pair@$$CBIPAU_BLECHEVENT@@@std@@@3@$0A@@std@@@std@@KAAADPAU_Node@?$_Tree_nod@V?$_Tmap_traits@IPAU_BLECHEVENT@@U?$less@I@std@@V?$allocator@U?$pair@$$CBIPAU_BLECHEVENT@@@std@@@3@$0A@@std@@@2@@Z 04003c30 f i MQ2NetBots.obj
 0001:00002c40       ?_Max@?$_Tree@V?$_Tmap_traits@IPAU_BLECHEVENT@@U?$less@I@std@@V?$allocator@U?$pair@$$CBIPAU_BLECHEVENT@@@std@@@3@$0A@@std@@@std@@KAPAU_Node@?$_Tree_nod@V?$_Tmap_traits@IPAU_BLECHEVENT@@U?$less@I@std@@V?$allocator@U?$pair@$$CBIPAU_BLECHEVENT@@@std@@@3@$0A@@std@@@2@PAU342@@Z 04003c40 f i MQ2NetBots.obj
 0001:00002c60       ?_Min@?$_Tree@V?$_Tmap_traits@IPAU_BLECHEVENT@@U?$less@I@std@@V?$allocator@U?$pair@$$CBIPAU_BLECHEVENT@@@std@@@3@$0A@@std@@@std@@KAPAU_Node@?$_Tree_nod@V?$_Tmap_traits@IPAU_BLECHEVENT@@U?$less@I@std@@V?$allocator@U?$pair@$$CBIPAU_BLECHEVENT@@@std@@@3@$0A@@std@@@2@PAU342@@Z 04003c60 f i MQ2NetBots.obj
 0001:00002c80       ?_Dec@const_iterator@?$_Tree@V?$_Tmap_traits@IPAU_BLECHEVENT@@U?$less@I@std@@V?$allocator@U?$pair@$$CBIPAU_BLECHEVENT@@@std@@@3@$0A@@std@@@std@@QAEXXZ 04003c80 f i MQ2NetBots.obj
 0001:00002d10       ?_Inc@const_iterator@?$_Tree@V?$_Tmap_traits@IPAU_BLECHEVENT@@U?$less@I@std@@V?$allocator@U?$pair@$$CBIPAU_BLECHEVENT@@@std@@@3@$0A@@std@@@std@@QAEXXZ 04003d10 f i MQ2NetBots.obj
 0001:00002d80       ?_Color@?$_Tree@V?$_Tmap_traits@V?$basic_string@DU?$char_traits@D@std@@V?$allocator@D@2@@std@@KU?$less@V?$basic_string@DU?$char_traits@D@std@@V?$allocator@D@2@@std@@@2@V?$allocator@U?$pair@$$CBV?$basic_string@DU?$char_traits@D@std@@V?$allocator@D@2@@std@@K@std@@@2@$0A@@std@@@std@@KAAADPAU_Node@?$_Tree_nod@V?$_Tmap_traits@V?$basic_string@DU?$char_traits@D@std@@V?$allocator@D@2@@std@@KU?$less@V?$basic_string@DU?$char_traits@D@std@@V?$allocator@D@2@@std@@@2@V?$allocator@U?$pair@$$CBV?$basic_string@DU?$char_traits@D@std@@V?$allocator@D@2@@std@@K@std@@@2@$0A@@std@@@2@@Z 04003d80 f i MQ2NetBots.obj
 0001:00002d90       ?_Lmost@?$_Tree@V?$_Tmap_traits@V?$basic_string@DU?$char_traits@D@std@@V?$allocator@D@2@@std@@KU?$less@V?$basic_string@DU?$char_traits@D@std@@V?$allocator@D@2@@std@@@2@V?$allocator@U?$pair@$$CBV?$basic_string@DU?$char_traits@D@std@@V?$allocator@D@2@@std@@K@std@@@2@$0A@@std@@@std@@IBEAAPAU_Node@?$_Tree_nod@V?$_Tmap_traits@V?$basic_string@DU?$char_traits@D@std@@V?$allocator@D@2@@std@@KU?$less@V?$basic_string@DU?$char_traits@D@std@@V?$allocator@D@2@@std@@@2@V?$allocator@U?$pair@$$CBV?$basic_string@DU?$char_traits@D@std@@V?$allocator@D@2@@std@@K@std@@@2@$0A@@std@@@2@XZ 04003d90 f i MQ2NetBots.obj
 0001:00002da0       ?_Root@?$_Tree@V?$_Tmap_traits@V?$basic_string@DU?$char_traits@D@std@@V?$allocator@D@2@@std@@KU?$less@V?$basic_string@DU?$char_traits@D@std@@V?$allocator@D@2@@std@@@2@V?$allocator@U?$pair@$$CBV?$basic_string@DU?$char_traits@D@std@@V?$allocator@D@2@@std@@K@std@@@2@$0A@@std@@@std@@IBEAAPAU_Node@?$_Tree_nod@V?$_Tmap_traits@V?$basic_string@DU?$char_traits@D@std@@V?$allocator@D@2@@std@@KU?$less@V?$basic_string@DU?$char_traits@D@std@@V?$allocator@D@2@@std@@@2@V?$allocator@U?$pair@$$CBV?$basic_string@DU?$char_traits@D@std@@V?$allocator@D@2@@std@@K@std@@@2@$0A@@std@@@2@XZ 04003da0 f i MQ2NetBots.obj
 0001:00002db0       ?_Rrotate@?$_Tree@V?$_Tmap_traits@V?$basic_string@DU?$char_traits@D@std@@V?$allocator@D@2@@std@@KU?$less@V?$basic_string@DU?$char_traits@D@std@@V?$allocator@D@2@@std@@@2@V?$allocator@U?$pair@$$CBV?$basic_string@DU?$char_traits@D@std@@V?$allocator@D@2@@std@@K@std@@@2@$0A@@std@@@std@@IAEXPAU_Node@?$_Tree_nod@V?$_Tmap_traits@V?$basic_string@DU?$char_traits@D@std@@V?$allocator@D@2@@std@@KU?$less@V?$basic_string@DU?$char_traits@D@std@@V?$allocator@D@2@@std@@@2@V?$allocator@U?$pair@$$CBV?$basic_string@DU?$char_traits@D@std@@V?$allocator@D@2@@std@@K@std@@@2@$0A@@std@@@2@@Z 04003db0 f i MQ2NetBots.obj
 0001:00002e10       ?max_size@?$allocator@U?$pair@$$CBV?$basic_string@DU?$char_traits@D@std@@V?$allocator@D@2@@std@@VBotInfo@@@std@@@std@@QBEIXZ 04003e10 f i MQ2NetBots.obj
 0001:00002e20       ?_Dec@const_iterator@?$_Tree@V?$_Tmap_traits@V?$basic_string@DU?$char_traits@D@std@@V?$allocator@D@2@@std@@VBotInfo@@U?$less@V?$basic_string@DU?$char_traits@D@std@@V?$allocator@D@2@@std@@@2@V?$allocator@U?$pair@$$CBV?$basic_string@DU?$char_traits@D@std@@V?$allocator@D@2@@std@@VBotInfo@@@std@@@2@$0A@@std@@@std@@QAEXXZ 04003e20 f i MQ2NetBots.obj
 0001:00002ec0       ??9const_iterator@?$_Tree@V?$_Tmap_traits@V?$basic_string@DU?$char_traits@D@std@@V?$allocator@D@2@@std@@KU?$less@V?$basic_string@DU?$char_traits@D@std@@V?$allocator@D@2@@std@@@2@V?$allocator@U?$pair@$$CBV?$basic_string@DU?$char_traits@D@std@@V?$allocator@D@2@@std@@K@std@@@2@$0A@@std@@@std@@QBE_NABV012@@Z 04003ec0 f i MQ2NetBots.obj
 0001:00002ef0       ??0?$pair@Viterator@?$_Tree@V?$_Tmap_traits@IPAU_BLECHEVENT@@U?$less@I@std@@V?$allocator@U?$pair@$$CBIPAU_BLECHEVENT@@@std@@@3@$0A@@std@@@std@@_N@std@@QAE@ABViterator@?$_Tree@V?$_Tmap_traits@IPAU_BLECHEVENT@@U?$less@I@std@@V?$allocator@U?$pair@$$CBIPAU_BLECHEVENT@@@std@@@3@$0A@@std@@@1@AB_N@Z 04003ef0 f i MQ2NetBots.obj
 0001:00002f10       ??0?$pair@Viterator@?$_Tree@V?$_Tmap_traits@V?$basic_string@DU?$char_traits@D@std@@V?$allocator@D@2@@std@@KU?$less@V?$basic_string@DU?$char_traits@D@std@@V?$allocator@D@2@@std@@@2@V?$allocator@U?$pair@$$CBV?$basic_string@DU?$char_traits@D@std@@V?$allocator@D@2@@std@@K@std@@@2@$0A@@std@@@std@@_N@std@@QAE@ABViterator@?$_Tree@V?$_Tmap_traits@V?$basic_string@DU?$char_traits@D@std@@V?$allocator@D@2@@std@@KU?$less@V?$basic_string@DU?$char_traits@D@std@@V?$allocator@D@2@@std@@@2@V?$allocator@U?$pair@$$CBV?$basic_string@DU?$char_traits@D@std@@V?$allocator@D@2@@std@@K@std@@@2@$0A@@std@@@1@AB_N@Z 04003f10 f i MQ2NetBots.obj
 0001:00002f30       ?max_size@?$allocator@D@std@@QBEIXZ 04003f30 f i MQ2NetBots.obj
 0001:00002f40       ?max_size@?$allocator@U?$pair@$$CBIPAU_BLECHEVENT@@@std@@@std@@QBEIXZ 04003f40 f i MQ2NetBots.obj
 0001:00002f50       ?_Max@?$_Tree@V?$_Tmap_traits@V?$basic_string@DU?$char_traits@D@std@@V?$allocator@D@2@@std@@KU?$less@V?$basic_string@DU?$char_traits@D@std@@V?$allocator@D@2@@std@@@2@V?$allocator@U?$pair@$$CBV?$basic_string@DU?$char_traits@D@std@@V?$allocator@D@2@@std@@K@std@@@2@$0A@@std@@@std@@KAPAU_Node@?$_Tree_nod@V?$_Tmap_traits@V?$basic_string@DU?$char_traits@D@std@@V?$allocator@D@2@@std@@KU?$less@V?$basic_string@DU?$char_traits@D@std@@V?$allocator@D@2@@std@@@2@V?$allocator@U?$pair@$$CBV?$basic_string@DU?$char_traits@D@std@@V?$allocator@D@2@@std@@K@std@@@2@$0A@@std@@@2@PAU342@@Z 04003f50 f i MQ2NetBots.obj
 0001:00002f70       ?_Min@?$_Tree@V?$_Tmap_traits@V?$basic_string@DU?$char_traits@D@std@@V?$allocator@D@2@@std@@KU?$less@V?$basic_string@DU?$char_traits@D@std@@V?$allocator@D@2@@std@@@2@V?$allocator@U?$pair@$$CBV?$basic_string@DU?$char_traits@D@std@@V?$allocator@D@2@@std@@K@std@@@2@$0A@@std@@@std@@KAPAU_Node@?$_Tree_nod@V?$_Tmap_traits@V?$basic_string@DU?$char_traits@D@std@@V?$allocator@D@2@@std@@KU?$less@V?$basic_string@DU?$char_traits@D@std@@V?$allocator@D@2@@std@@@2@V?$allocator@U?$pair@$$CBV?$basic_string@DU?$char_traits@D@std@@V?$allocator@D@2@@std@@K@std@@@2@$0A@@std@@@2@PAU342@@Z 04003f70 f i MQ2NetBots.obj
 0001:00002f90       ?max_size@?$allocator@U?$pair@$$CBV?$basic_string@DU?$char_traits@D@std@@V?$allocator@D@2@@std@@K@std@@@std@@QBEIXZ 04003f90 f i MQ2NetBots.obj
 0001:00002fa0       ??0_Node@?$_Tree_nod@V?$_Tmap_traits@IPAU_BLECHEVENT@@U?$less@I@std@@V?$allocator@U?$pair@$$CBIPAU_BLECHEVENT@@@std@@@3@$0A@@std@@@std@@QAE@PAU012@00ABU?$pair@$$CBIPAU_BLECHEVENT@@@2@D@Z 04003fa0 f i MQ2NetBots.obj
 0001:00002fe0       ??$swap@D@std@@YAXAAD0@Z   04003fe0 f i MQ2NetBots.obj
 0001:00003000       ??$_Destroy@U_Node@?$_Tree_nod@V?$_Tmap_traits@IPAU_BLECHEVENT@@U?$less@I@std@@V?$allocator@U?$pair@$$CBIPAU_BLECHEVENT@@@std@@@3@$0A@@std@@@std@@@std@@YAXPAU_Node@?$_Tree_nod@V?$_Tmap_traits@IPAU_BLECHEVENT@@U?$less@I@std@@V?$allocator@U?$pair@$$CBIPAU_BLECHEVENT@@@std@@@3@$0A@@std@@@0@@Z 04004000 f i MQ2NetBots.obj
 0001:00003010       ??$_Destroy@PAU_Node@?$_Tree_nod@V?$_Tmap_traits@IPAU_BLECHEVENT@@U?$less@I@std@@V?$allocator@U?$pair@$$CBIPAU_BLECHEVENT@@@std@@@3@$0A@@std@@@std@@@std@@YAXPAPAU_Node@?$_Tree_nod@V?$_Tmap_traits@IPAU_BLECHEVENT@@U?$less@I@std@@V?$allocator@U?$pair@$$CBIPAU_BLECHEVENT@@@std@@@3@$0A@@std@@@0@@Z 04004010 f i MQ2NetBots.obj
 0001:00003020       ??$_Destroy@PAU_Node@?$_Tree_nod@V?$_Tmap_traits@V?$basic_string@DU?$char_traits@D@std@@V?$allocator@D@2@@std@@KU?$less@V?$basic_string@DU?$char_traits@D@std@@V?$allocator@D@2@@std@@@2@V?$allocator@U?$pair@$$CBV?$basic_string@DU?$char_traits@D@std@@V?$allocator@D@2@@std@@K@std@@@2@$0A@@std@@@std@@@std@@YAXPAPAU_Node@?$_Tree_nod@V?$_Tmap_traits@V?$basic_string@DU?$char_traits@D@std@@V?$allocator@D@2@@std@@KU?$less@V?$basic_string@DU?$char_traits@D@std@@V?$allocator@D@2@@std@@@2@V?$allocator@U?$pair@$$CBV?$basic_string@DU?$char_traits@D@std@@V?$allocator@D@2@@std@@K@std@@@2@$0A@@std@@@0@@Z 04004020 f i MQ2NetBots.obj
 0001:00003030       ??$_Destroy@PAU_Node@?$_Tree_nod@V?$_Tmap_traits@V?$basic_string@DU?$char_traits@D@std@@V?$allocator@D@2@@std@@VBotInfo@@U?$less@V?$basic_string@DU?$char_traits@D@std@@V?$allocator@D@2@@std@@@2@V?$allocator@U?$pair@$$CBV?$basic_string@DU?$char_traits@D@std@@V?$allocator@D@2@@std@@VBotInfo@@@std@@@2@$0A@@std@@@std@@@std@@YAXPAPAU_Node@?$_Tree_nod@V?$_Tmap_traits@V?$basic_string@DU?$char_traits@D@std@@V?$allocator@D@2@@std@@VBotInfo@@U?$less@V?$basic_string@DU?$char_traits@D@std@@V?$allocator@D@2@@std@@@2@V?$allocator@U?$pair@$$CBV?$basic_string@DU?$char_traits@D@std@@V?$allocator@D@2@@std@@VBotInfo@@@std@@@2@$0A@@std@@@0@@Z 04004030 f i MQ2NetBots.obj
 0001:00003040       ??$?0U?$pair@$$CBIPAU_BLECHEVENT@@@std@@@?$allocator@PAU_Node@?$_Tree_nod@V?$_Tmap_traits@IPAU_BLECHEVENT@@U?$less@I@std@@V?$allocator@U?$pair@$$CBIPAU_BLECHEVENT@@@std@@@3@$0A@@std@@@std@@@std@@QAE@ABV?$allocator@U?$pair@$$CBIPAU_BLECHEVENT@@@std@@@1@@Z 04004040 f i MQ2NetBots.obj
 0001:00003050       ??$?0U?$pair@$$CBV?$basic_string@DU?$char_traits@D@std@@V?$allocator@D@2@@std@@K@std@@@?$allocator@PAU_Node@?$_Tree_nod@V?$_Tmap_traits@V?$basic_string@DU?$char_traits@D@std@@V?$allocator@D@2@@std@@KU?$less@V?$basic_string@DU?$char_traits@D@std@@V?$allocator@D@2@@std@@@2@V?$allocator@U?$pair@$$CBV?$basic_string@DU?$char_traits@D@std@@V?$allocator@D@2@@std@@K@std@@@2@$0A@@std@@@std@@@std@@QAE@ABV?$allocator@U?$pair@$$CBV?$basic_string@DU?$char_traits@D@std@@V?$allocator@D@2@@std@@K@std@@@1@@Z 04004050 f i MQ2NetBots.obj
 0001:00003060       ??$?0U?$pair@$$CBV?$basic_string@DU?$char_traits@D@std@@V?$allocator@D@2@@std@@VBotInfo@@@std@@@?$allocator@PAU_Node@?$_Tree_nod@V?$_Tmap_traits@V?$basic_string@DU?$char_traits@D@std@@V?$allocator@D@2@@std@@VBotInfo@@U?$less@V?$basic_string@DU?$char_traits@D@std@@V?$allocator@D@2@@std@@@2@V?$allocator@U?$pair@$$CBV?$basic_string@DU?$char_traits@D@std@@V?$allocator@D@2@@std@@VBotInfo@@@std@@@2@$0A@@std@@@std@@@std@@QAE@ABV?$allocator@U?$pair@$$CBV?$basic_string@DU?$char_traits@D@std@@V?$allocator@D@2@@std@@VBotInfo@@@std@@@1@@Z 04004060 f i MQ2NetBots.obj
 0001:00003070       ??$_Allocate@U_Node@?$_Tree_nod@V?$_Tmap_traits@V?$basic_string@DU?$char_traits@D@std@@V?$allocator@D@2@@std@@VBotInfo@@U?$less@V?$basic_string@DU?$char_traits@D@std@@V?$allocator@D@2@@std@@@2@V?$allocator@U?$pair@$$CBV?$basic_string@DU?$char_traits@D@std@@V?$allocator@D@2@@std@@VBotInfo@@@std@@@2@$0A@@std@@@std@@@std@@YAPAU_Node@?$_Tree_nod@V?$_Tmap_traits@V?$basic_string@DU?$char_traits@D@std@@V?$allocator@D@2@@std@@VBotInfo@@U?$less@V?$basic_string@DU?$char_traits@D@std@@V?$allocator@D@2@@std@@@2@V?$allocator@U?$pair@$$CBV?$basic_string@DU?$char_traits@D@std@@V?$allocator@D@2@@std@@VBotInfo@@@std@@@2@$0A@@std@@@0@IPAU120@@Z 04004070 f i MQ2NetBots.obj
 0001:000030d0       ??$_Allocate@D@std@@YAPADIPAD@Z 040040d0 f i MQ2NetBots.obj
 0001:00003130       ??$?0U?$pair@$$CBIPAU_BLECHEVENT@@@std@@@?$allocator@U_Node@?$_Tree_nod@V?$_Tmap_traits@IPAU_BLECHEVENT@@U?$less@I@std@@V?$allocator@U?$pair@$$CBIPAU_BLECHEVENT@@@std@@@3@$0A@@std@@@std@@@std@@QAE@ABV?$allocator@U?$pair@$$CBIPAU_BLECHEVENT@@@std@@@1@@Z 04004130 f i MQ2NetBots.obj
 0001:00003140       ??$_Allocate@U_Node@?$_Tree_nod@V?$_Tmap_traits@IPAU_BLECHEVENT@@U?$less@I@std@@V?$allocator@U?$pair@$$CBIPAU_BLECHEVENT@@@std@@@3@$0A@@std@@@std@@@std@@YAPAU_Node@?$_Tree_nod@V?$_Tmap_traits@IPAU_BLECHEVENT@@U?$less@I@std@@V?$allocator@U?$pair@$$CBIPAU_BLECHEVENT@@@std@@@3@$0A@@std@@@0@IPAU120@@Z 04004140 f i MQ2NetBots.obj
 0001:000031a0       ??$_Construct@PAU_Node@?$_Tree_nod@V?$_Tmap_traits@IPAU_BLECHEVENT@@U?$less@I@std@@V?$allocator@U?$pair@$$CBIPAU_BLECHEVENT@@@std@@@3@$0A@@std@@@std@@PAU123@@std@@YAXPAPAU_Node@?$_Tree_nod@V?$_Tmap_traits@IPAU_BLECHEVENT@@U?$less@I@std@@V?$allocator@U?$pair@$$CBIPAU_BLECHEVENT@@@std@@@3@$0A@@std@@@0@ABQAU120@@Z 040041a0 f i MQ2NetBots.obj
 0001:000031c0       ??$?0U?$pair@$$CBV?$basic_string@DU?$char_traits@D@std@@V?$allocator@D@2@@std@@K@std@@@?$allocator@U_Node@?$_Tree_nod@V?$_Tmap_traits@V?$basic_string@DU?$char_traits@D@std@@V?$allocator@D@2@@std@@KU?$less@V?$basic_string@DU?$char_traits@D@std@@V?$allocator@D@2@@std@@@2@V?$allocator@U?$pair@$$CBV?$basic_string@DU?$char_traits@D@std@@V?$allocator@D@2@@std@@K@std@@@2@$0A@@std@@@std@@@std@@QAE@ABV?$allocator@U?$pair@$$CBV?$basic_string@DU?$char_traits@D@std@@V?$allocator@D@2@@std@@K@std@@@1@@Z 040041c0 f i MQ2NetBots.obj
 0001:000031d0       ??$_Allocate@U_Node@?$_Tree_nod@V?$_Tmap_traits@V?$basic_string@DU?$char_traits@D@std@@V?$allocator@D@2@@std@@KU?$less@V?$basic_string@DU?$char_traits@D@std@@V?$allocator@D@2@@std@@@2@V?$allocator@U?$pair@$$CBV?$basic_string@DU?$char_traits@D@std@@V?$allocator@D@2@@std@@K@std@@@2@$0A@@std@@@std@@@std@@YAPAU_Node@?$_Tree_nod@V?$_Tmap_traits@V?$basic_string@DU?$char_traits@D@std@@V?$allocator@D@2@@std@@KU?$less@V?$basic_string@DU?$char_traits@D@std@@V?$allocator@D@2@@std@@@2@V?$allocator@U?$pair@$$CBV?$basic_string@DU?$char_traits@D@std@@V?$allocator@D@2@@std@@K@std@@@2@$0A@@std@@@0@IPAU120@@Z 040041d0 f i MQ2NetBots.obj
 0001:00003230       ??$_Construct@PAU_Node@?$_Tree_nod@V?$_Tmap_traits@V?$basic_string@DU?$char_traits@D@std@@V?$allocator@D@2@@std@@KU?$less@V?$basic_string@DU?$char_traits@D@std@@V?$allocator@D@2@@std@@@2@V?$allocator@U?$pair@$$CBV?$basic_string@DU?$char_traits@D@std@@V?$allocator@D@2@@std@@K@std@@@2@$0A@@std@@@std@@PAU123@@std@@YAXPAPAU_Node@?$_Tree_nod@V?$_Tmap_traits@V?$basic_string@DU?$char_traits@D@std@@V?$allocator@D@2@@std@@KU?$less@V?$basic_string@DU?$char_traits@D@std@@V?$allocator@D@2@@std@@@2@V?$allocator@U?$pair@$$CBV?$basic_string@DU?$char_traits@D@std@@V?$allocator@D@2@@std@@K@std@@@2@$0A@@std@@@0@ABQAU120@@Z 04004230 f i MQ2NetBots.obj
 0001:00003250       ??$?0U?$pair@$$CBV?$basic_string@DU?$char_traits@D@std@@V?$allocator@D@2@@std@@VBotInfo@@@std@@@?$allocator@U_Node@?$_Tree_nod@V?$_Tmap_traits@V?$basic_string@DU?$char_traits@D@std@@V?$allocator@D@2@@std@@VBotInfo@@U?$less@V?$basic_string@DU?$char_traits@D@std@@V?$allocator@D@2@@std@@@2@V?$allocator@U?$pair@$$CBV?$basic_string@DU?$char_traits@D@std@@V?$allocator@D@2@@std@@VBotInfo@@@std@@@2@$0A@@std@@@std@@@std@@QAE@ABV?$allocator@U?$pair@$$CBV?$basic_string@DU?$char_traits@D@std@@V?$allocator@D@2@@std@@VBotInfo@@@std@@@1@@Z 04004250 f i MQ2NetBots.obj
 0001:00003260       ??$_Construct@PAU_Node@?$_Tree_nod@V?$_Tmap_traits@V?$basic_string@DU?$char_traits@D@std@@V?$allocator@D@2@@std@@VBotInfo@@U?$less@V?$basic_string@DU?$char_traits@D@std@@V?$allocator@D@2@@std@@@2@V?$allocator@U?$pair@$$CBV?$basic_string@DU?$char_traits@D@std@@V?$allocator@D@2@@std@@VBotInfo@@@std@@@2@$0A@@std@@@std@@PAU123@@std@@YAXPAPAU_Node@?$_Tree_nod@V?$_Tmap_traits@V?$basic_string@DU?$char_traits@D@std@@V?$allocator@D@2@@std@@VBotInfo@@U?$less@V?$basic_string@DU?$char_traits@D@std@@V?$allocator@D@2@@std@@@2@V?$allocator@U?$pair@$$CBV?$basic_string@DU?$char_traits@D@std@@V?$allocator@D@2@@std@@VBotInfo@@@std@@@2@$0A@@std@@@0@ABQAU120@@Z 04004260 f i MQ2NetBots.obj
 0001:00003280       ??$?0U?$pair@$$CBIPAU_BLECHEVENT@@@std@@@?$allocator@V_Aux_cont@std@@@std@@QAE@ABV?$allocator@U?$pair@$$CBIPAU_BLECHEVENT@@@std@@@1@@Z 04004280 f i MQ2NetBots.obj
 0001:00003290       ??$?0U?$pair@$$CBV?$basic_string@DU?$char_traits@D@std@@V?$allocator@D@2@@std@@K@std@@@?$allocator@V_Aux_cont@std@@@std@@QAE@ABV?$allocator@U?$pair@$$CBV?$basic_string@DU?$char_traits@D@std@@V?$allocator@D@2@@std@@K@std@@@1@@Z 04004290 f i MQ2NetBots.obj
 0001:000032a0       ??$?0U?$pair@$$CBV?$basic_string@DU?$char_traits@D@std@@V?$allocator@D@2@@std@@VBotInfo@@@std@@@?$allocator@V_Aux_cont@std@@@std@@QAE@ABV?$allocator@U?$pair@$$CBV?$basic_string@DU?$char_traits@D@std@@V?$allocator@D@2@@std@@VBotInfo@@@std@@@1@@Z 040042a0 f i MQ2NetBots.obj
 0001:000032b0       ??$_Allocate@V_Aux_cont@std@@@std@@YAPAV_Aux_cont@0@IPAV10@@Z 040042b0 f i MQ2NetBots.obj
 0001:00003310       ??0bad_alloc@std@@QAE@ABV01@@Z 04004310 f i MQ2NetBots.obj
 0001:00003330       ??$_Char_traits_cat@U?$char_traits@D@std@@@std@@YA?AU_Secure_char_traits_tag@0@XZ 04004330 f i MQ2NetBots.obj
 0001:00003340       ??$copy_s@U?$char_traits@D@std@@@_Traits_helper@std@@YAPADPADIPBDIU_Secure_char_traits_tag@1@@Z 04004340 f i MQ2NetBots.obj
 0001:00003370       ??$move_s@U?$char_traits@D@std@@@_Traits_helper@std@@YAPADPADIPBDIU_Secure_char_traits_tag@1@@Z 04004370 f i MQ2NetBots.obj
 0001:000033a0       ?Feed@Blech@@QAEIPBD@Z     040043a0 f i MQ2NetBots.obj
 0001:000033f0       ??9const_iterator@?$_Tree@V?$_Tmap_traits@IPAU_BLECHEVENT@@U?$less@I@std@@V?$allocator@U?$pair@$$CBIPAU_BLECHEVENT@@@std@@@3@$0A@@std@@@std@@QBE_NABV012@@Z 040043f0 f i MQ2NetBots.obj
 0001:00003420       ?GetUnused@?$CIndex@PAU_MQ2TypeMember@MQ2Internal@@@MQ2Internal@@QAEKXZ 04004420 f i MQ2NetBots.obj
 0001:00003470       ?compare@?$basic_string@DU?$char_traits@D@std@@V?$allocator@D@2@@std@@QBEHIIPBDI@Z 04004470 f i MQ2NetBots.obj
 0001:000034e0       ??0?$_String_val@DV?$allocator@D@std@@@std@@IAE@V?$allocator@D@1@@Z 040044e0 f i MQ2NetBots.obj
 0001:000034f0       ??0?$_String_val@DV?$allocator@D@std@@@std@@QAE@ABV01@@Z 040044f0 f i MQ2NetBots.obj
 0001:00003500       ?_Key@?$_Tree@V?$_Tmap_traits@IPAU_BLECHEVENT@@U?$less@I@std@@V?$allocator@U?$pair@$$CBIPAU_BLECHEVENT@@@std@@@3@$0A@@std@@@std@@KAABIPAU_Node@?$_Tree_nod@V?$_Tmap_traits@IPAU_BLECHEVENT@@U?$less@I@std@@V?$allocator@U?$pair@$$CBIPAU_BLECHEVENT@@@std@@@3@$0A@@std@@@2@@Z 04004500 f i MQ2NetBots.obj
 0001:00003510       ?_Lmost@?$_Tree@V?$_Tmap_traits@IPAU_BLECHEVENT@@U?$less@I@std@@V?$allocator@U?$pair@$$CBIPAU_BLECHEVENT@@@std@@@3@$0A@@std@@@std@@IBEAAPAU_Node@?$_Tree_nod@V?$_Tmap_traits@IPAU_BLECHEVENT@@U?$less@I@std@@V?$allocator@U?$pair@$$CBIPAU_BLECHEVENT@@@std@@@3@$0A@@std@@@2@XZ 04004510 f i MQ2NetBots.obj
 0001:00003520       ?_Rmost@?$_Tree@V?$_Tmap_traits@IPAU_BLECHEVENT@@U?$less@I@std@@V?$allocator@U?$pair@$$CBIPAU_BLECHEVENT@@@std@@@3@$0A@@std@@@std@@IBEAAPAU_Node@?$_Tree_nod@V?$_Tmap_traits@IPAU_BLECHEVENT@@U?$less@I@std@@V?$allocator@U?$pair@$$CBIPAU_BLECHEVENT@@@std@@@3@$0A@@std@@@2@XZ 04004520 f i MQ2NetBots.obj
 0001:00003530       ?_Root@?$_Tree@V?$_Tmap_traits@IPAU_BLECHEVENT@@U?$less@I@std@@V?$allocator@U?$pair@$$CBIPAU_BLECHEVENT@@@std@@@3@$0A@@std@@@std@@IBEAAPAU_Node@?$_Tree_nod@V?$_Tmap_traits@IPAU_BLECHEVENT@@U?$less@I@std@@V?$allocator@U?$pair@$$CBIPAU_BLECHEVENT@@@std@@@3@$0A@@std@@@2@XZ 04004530 f i MQ2NetBots.obj
 0001:00003540       ??1?$_Container_base_aux_alloc_real@V?$allocator@U?$pair@$$CBIPAU_BLECHEVENT@@@std@@@std@@@std@@IAE@XZ 04004540 f i MQ2NetBots.obj
 0001:00003550       ??Diterator@?$_Tree@V?$_Tmap_traits@IPAU_BLECHEVENT@@U?$less@I@std@@V?$allocator@U?$pair@$$CBIPAU_BLECHEVENT@@@std@@@3@$0A@@std@@@std@@QBEAAU?$pair@$$CBIPAU_BLECHEVENT@@@2@XZ 04004550 f i MQ2NetBots.obj
 0001:00003580       ?_Key@?$_Tree@V?$_Tmap_traits@V?$basic_string@DU?$char_traits@D@std@@V?$allocator@D@2@@std@@KU?$less@V?$basic_string@DU?$char_traits@D@std@@V?$allocator@D@2@@std@@@2@V?$allocator@U?$pair@$$CBV?$basic_string@DU?$char_traits@D@std@@V?$allocator@D@2@@std@@K@std@@@2@$0A@@std@@@std@@KAABV?$basic_string@DU?$char_traits@D@std@@V?$allocator@D@2@@2@PAU_Node@?$_Tree_nod@V?$_Tmap_traits@V?$basic_string@DU?$char_traits@D@std@@V?$allocator@D@2@@std@@KU?$less@V?$basic_string@DU?$char_traits@D@std@@V?$allocator@D@2@@std@@@2@V?$allocator@U?$pair@$$CBV?$basic_string@DU?$char_traits@D@std@@V?$allocator@D@2@@std@@K@std@@@2@$0A@@std@@@2@@Z 04004580 f i MQ2NetBots.obj
 0001:00003590       ??1?$_Container_base_aux_alloc_real@V?$allocator@U?$pair@$$CBV?$basic_string@DU?$char_traits@D@std@@V?$allocator@D@2@@std@@K@std@@@std@@@std@@IAE@XZ 04004590 f i MQ2NetBots.obj
 0001:000035a0       ?_Key@?$_Tree@V?$_Tmap_traits@V?$basic_string@DU?$char_traits@D@std@@V?$allocator@D@2@@std@@VBotInfo@@U?$less@V?$basic_string@DU?$char_traits@D@std@@V?$allocator@D@2@@std@@@2@V?$allocator@U?$pair@$$CBV?$basic_string@DU?$char_traits@D@std@@V?$allocator@D@2@@std@@VBotInfo@@@std@@@2@$0A@@std@@@std@@KAABV?$basic_string@DU?$char_traits@D@std@@V?$allocator@D@2@@2@PAU_Node@?$_Tree_nod@V?$_Tmap_traits@V?$basic_string@DU?$char_traits@D@std@@V?$allocator@D@2@@std@@VBotInfo@@U?$less@V?$basic_string@DU?$char_traits@D@std@@V?$allocator@D@2@@std@@@2@V?$allocator@U?$pair@$$CBV?$basic_string@DU?$char_traits@D@std@@V?$allocator@D@2@@std@@VBotInfo@@@std@@@2@$0A@@std@@@2@@Z 040045a0 f i MQ2NetBots.obj
 0001:000035b0       ?_Lrotate@?$_Tree@V?$_Tmap_traits@V?$basic_string@DU?$char_traits@D@std@@V?$allocator@D@2@@std@@VBotInfo@@U?$less@V?$basic_string@DU?$char_traits@D@std@@V?$allocator@D@2@@std@@@2@V?$allocator@U?$pair@$$CBV?$basic_string@DU?$char_traits@D@std@@V?$allocator@D@2@@std@@VBotInfo@@@std@@@2@$0A@@std@@@std@@IAEXPAU_Node@?$_Tree_nod@V?$_Tmap_traits@V?$basic_string@DU?$char_traits@D@std@@V?$allocator@D@2@@std@@VBotInfo@@U?$less@V?$basic_string@DU?$char_traits@D@std@@V?$allocator@D@2@@std@@@2@V?$allocator@U?$pair@$$CBV?$basic_string@DU?$char_traits@D@std@@V?$allocator@D@2@@std@@VBotInfo@@@std@@@2@$0A@@std@@@2@@Z 040045b0 f i MQ2NetBots.obj
 0001:00003610       ??1?$_Container_base_aux_alloc_real@V?$allocator@U?$pair@$$CBV?$basic_string@DU?$char_traits@D@std@@V?$allocator@D@2@@std@@VBotInfo@@@std@@@std@@@std@@IAE@XZ 04004610 f i MQ2NetBots.obj
 0001:00003620       ??Dconst_iterator@?$_Tree@V?$_Tmap_traits@V?$basic_string@DU?$char_traits@D@std@@V?$allocator@D@2@@std@@VBotInfo@@U?$less@V?$basic_string@DU?$char_traits@D@std@@V?$allocator@D@2@@std@@@2@V?$allocator@U?$pair@$$CBV?$basic_string@DU?$char_traits@D@std@@V?$allocator@D@2@@std@@VBotInfo@@@std@@@2@$0A@@std@@@std@@QBEABU?$pair@$$CBV?$basic_string@DU?$char_traits@D@std@@V?$allocator@D@2@@std@@VBotInfo@@@2@XZ 04004620 f i MQ2NetBots.obj
 0001:00003650       ??Econst_iterator@?$_Tree@V?$_Tmap_traits@V?$basic_string@DU?$char_traits@D@std@@V?$allocator@D@2@@std@@VBotInfo@@U?$less@V?$basic_string@DU?$char_traits@D@std@@V?$allocator@D@2@@std@@@2@V?$allocator@U?$pair@$$CBV?$basic_string@DU?$char_traits@D@std@@V?$allocator@D@2@@std@@VBotInfo@@@std@@@2@$0A@@std@@@std@@QAEAAV012@XZ 04004650 f i MQ2NetBots.obj
 0001:00003660       ??Diterator@?$_Tree@V?$_Tmap_traits@V?$basic_string@DU?$char_traits@D@std@@V?$allocator@D@2@@std@@KU?$less@V?$basic_string@DU?$char_traits@D@std@@V?$allocator@D@2@@std@@@2@V?$allocator@U?$pair@$$CBV?$basic_string@DU?$char_traits@D@std@@V?$allocator@D@2@@std@@K@std@@@2@$0A@@std@@@std@@QBEAAU?$pair@$$CBV?$basic_string@DU?$char_traits@D@std@@V?$allocator@D@2@@std@@K@2@XZ 04004660 f i MQ2NetBots.obj
 0001:00003690       ??0?$_Bidit@U?$pair@$$CBV?$basic_string@DU?$char_traits@D@std@@V?$allocator@D@2@@std@@VBotInfo@@@std@@HPBU12@ABU12@@std@@QAE@XZ 04004690 f i MQ2NetBots.obj
 0001:000036a0       ?_Eos@?$basic_string@DU?$char_traits@D@std@@V?$allocator@D@2@@std@@IAEXI@Z 040046a0 f i MQ2NetBots.obj
 0001:000036c0       ?_Lbound@?$_Tree@V?$_Tmap_traits@IPAU_BLECHEVENT@@U?$less@I@std@@V?$allocator@U?$pair@$$CBIPAU_BLECHEVENT@@@std@@@3@$0A@@std@@@std@@IBEPAU_Node@?$_Tree_nod@V?$_Tmap_traits@IPAU_BLECHEVENT@@U?$less@I@std@@V?$allocator@U?$pair@$$CBIPAU_BLECHEVENT@@@std@@@3@$0A@@std@@@2@ABI@Z 040046c0 f i MQ2NetBots.obj
 0001:000036f0       ?destroy@?$allocator@U_Node@?$_Tree_nod@V?$_Tmap_traits@IPAU_BLECHEVENT@@U?$less@I@std@@V?$allocator@U?$pair@$$CBIPAU_BLECHEVENT@@@std@@@3@$0A@@std@@@std@@@std@@QAEXPAU_Node@?$_Tree_nod@V?$_Tmap_traits@IPAU_BLECHEVENT@@U?$less@I@std@@V?$allocator@U?$pair@$$CBIPAU_BLECHEVENT@@@std@@@3@$0A@@std@@@2@@Z 040046f0 f i MQ2NetBots.obj
 0001:00003700       ?destroy@?$allocator@PAU_Node@?$_Tree_nod@V?$_Tmap_traits@IPAU_BLECHEVENT@@U?$less@I@std@@V?$allocator@U?$pair@$$CBIPAU_BLECHEVENT@@@std@@@3@$0A@@std@@@std@@@std@@QAEXPAPAU_Node@?$_Tree_nod@V?$_Tmap_traits@IPAU_BLECHEVENT@@U?$less@I@std@@V?$allocator@U?$pair@$$CBIPAU_BLECHEVENT@@@std@@@3@$0A@@std@@@2@@Z 04004700 f i MQ2NetBots.obj
 0001:00003710       ??Econst_iterator@?$_Tree@V?$_Tmap_traits@IPAU_BLECHEVENT@@U?$less@I@std@@V?$allocator@U?$pair@$$CBIPAU_BLECHEVENT@@@std@@@3@$0A@@std@@@std@@QAEAAV012@XZ 04004710 f i MQ2NetBots.obj
 0001:00003720       ??Econst_iterator@?$_Tree@V?$_Tmap_traits@IPAU_BLECHEVENT@@U?$less@I@std@@V?$allocator@U?$pair@$$CBIPAU_BLECHEVENT@@@std@@@3@$0A@@std@@@std@@QAE?AV012@H@Z 04004720 f i MQ2NetBots.obj
 0001:00003740       ??Fconst_iterator@?$_Tree@V?$_Tmap_traits@IPAU_BLECHEVENT@@U?$less@I@std@@V?$allocator@U?$pair@$$CBIPAU_BLECHEVENT@@@std@@@3@$0A@@std@@@std@@QAEAAV012@XZ 04004740 f i MQ2NetBots.obj
 0001:00003750       ?destroy@?$allocator@PAU_Node@?$_Tree_nod@V?$_Tmap_traits@V?$basic_string@DU?$char_traits@D@std@@V?$allocator@D@2@@std@@KU?$less@V?$basic_string@DU?$char_traits@D@std@@V?$allocator@D@2@@std@@@2@V?$allocator@U?$pair@$$CBV?$basic_string@DU?$char_traits@D@std@@V?$allocator@D@2@@std@@K@std@@@2@$0A@@std@@@std@@@std@@QAEXPAPAU_Node@?$_Tree_nod@V?$_Tmap_traits@V?$basic_string@DU?$char_traits@D@std@@V?$allocator@D@2@@std@@KU?$less@V?$basic_string@DU?$char_traits@D@std@@V?$allocator@D@2@@std@@@2@V?$allocator@U?$pair@$$CBV?$basic_string@DU?$char_traits@D@std@@V?$allocator@D@2@@std@@K@std@@@2@$0A@@std@@@2@@Z 04004750 f i MQ2NetBots.obj
 0001:00003760       ?max_size@?$_Tree@V?$_Tmap_traits@V?$basic_string@DU?$char_traits@D@std@@V?$allocator@D@2@@std@@VBotInfo@@U?$less@V?$basic_string@DU?$char_traits@D@std@@V?$allocator@D@2@@std@@@2@V?$allocator@U?$pair@$$CBV?$basic_string@DU?$char_traits@D@std@@V?$allocator@D@2@@std@@VBotInfo@@@std@@@2@$0A@@std@@@std@@QBEIXZ 04004760 f i MQ2NetBots.obj
 0001:00003770       ?destroy@?$allocator@PAU_Node@?$_Tree_nod@V?$_Tmap_traits@V?$basic_string@DU?$char_traits@D@std@@V?$allocator@D@2@@std@@VBotInfo@@U?$less@V?$basic_string@DU?$char_traits@D@std@@V?$allocator@D@2@@std@@@2@V?$allocator@U?$pair@$$CBV?$basic_string@DU?$char_traits@D@std@@V?$allocator@D@2@@std@@VBotInfo@@@std@@@2@$0A@@std@@@std@@@std@@QAEXPAPAU_Node@?$_Tree_nod@V?$_Tmap_traits@V?$basic_string@DU?$char_traits@D@std@@V?$allocator@D@2@@std@@VBotInfo@@U?$less@V?$basic_string@DU?$char_traits@D@std@@V?$allocator@D@2@@std@@@2@V?$allocator@U?$pair@$$CBV?$basic_string@DU?$char_traits@D@std@@V?$allocator@D@2@@std@@VBotInfo@@@std@@@2@$0A@@std@@@2@@Z 04004770 f i MQ2NetBots.obj
 0001:00003780       ??0const_iterator@?$_Tree@V?$_Tmap_traits@V?$basic_string@DU?$char_traits@D@std@@V?$allocator@D@2@@std@@VBotInfo@@U?$less@V?$basic_string@DU?$char_traits@D@std@@V?$allocator@D@2@@std@@@2@V?$allocator@U?$pair@$$CBV?$basic_string@DU?$char_traits@D@std@@V?$allocator@D@2@@std@@VBotInfo@@@std@@@2@$0A@@std@@@std@@QAE@PAU_Node@?$_Tree_nod@V?$_Tmap_traits@V?$basic_string@DU?$char_traits@D@std@@V?$allocator@D@2@@std@@VBotInfo@@U?$less@V?$basic_string@DU?$char_traits@D@std@@V?$allocator@D@2@@std@@@2@V?$allocator@U?$pair@$$CBV?$basic_string@DU?$char_traits@D@std@@V?$allocator@D@2@@std@@VBotInfo@@@std@@@2@$0A@@std@@@2@PBV12@@Z 04004780 f i MQ2NetBots.obj
 0001:000037b0       ??Fconst_iterator@?$_Tree@V?$_Tmap_traits@V?$basic_string@DU?$char_traits@D@std@@V?$allocator@D@2@@std@@VBotInfo@@U?$less@V?$basic_string@DU?$char_traits@D@std@@V?$allocator@D@2@@std@@@2@V?$allocator@U?$pair@$$CBV?$basic_string@DU?$char_traits@D@std@@V?$allocator@D@2@@std@@VBotInfo@@@std@@@2@$0A@@std@@@std@@QAEAAV012@XZ 040047b0 f i MQ2NetBots.obj
 0001:000037c0       ??0?$_Bidit@U?$pair@$$CBIPAU_BLECHEVENT@@@std@@HPBU12@ABU12@@std@@QAE@XZ 040047c0 f i MQ2NetBots.obj
 0001:000037d0       ??0?$_Bidit@U?$pair@$$CBV?$basic_string@DU?$char_traits@D@std@@V?$allocator@D@2@@std@@K@std@@HPBU12@ABU12@@std@@QAE@XZ 040047d0 f i MQ2NetBots.obj
 0001:000037e0       ?max_size@?$basic_string@DU?$char_traits@D@std@@V?$allocator@D@2@@std@@QBEIXZ 040047e0 f i MQ2NetBots.obj
 0001:000037f0       ?max_size@?$_Tree@V?$_Tmap_traits@IPAU_BLECHEVENT@@U?$less@I@std@@V?$allocator@U?$pair@$$CBIPAU_BLECHEVENT@@@std@@@3@$0A@@std@@@std@@QBEIXZ 040047f0 f i MQ2NetBots.obj
 0001:00003800       ?_Lrotate@?$_Tree@V?$_Tmap_traits@IPAU_BLECHEVENT@@U?$less@I@std@@V?$allocator@U?$pair@$$CBIPAU_BLECHEVENT@@@std@@@3@$0A@@std@@@std@@IAEXPAU_Node@?$_Tree_nod@V?$_Tmap_traits@IPAU_BLECHEVENT@@U?$less@I@std@@V?$allocator@U?$pair@$$CBIPAU_BLECHEVENT@@@std@@@3@$0A@@std@@@2@@Z 04004800 f i MQ2NetBots.obj
 0001:00003850       ?_Rrotate@?$_Tree@V?$_Tmap_traits@IPAU_BLECHEVENT@@U?$less@I@std@@V?$allocator@U?$pair@$$CBIPAU_BLECHEVENT@@@std@@@3@$0A@@std@@@std@@IAEXPAU_Node@?$_Tree_nod@V?$_Tmap_traits@IPAU_BLECHEVENT@@U?$less@I@std@@V?$allocator@U?$pair@$$CBIPAU_BLECHEVENT@@@std@@@3@$0A@@std@@@2@@Z 04004850 f i MQ2NetBots.obj
 0001:000038b0       ??Fiterator@?$_Tree@V?$_Tmap_traits@IPAU_BLECHEVENT@@U?$less@I@std@@V?$allocator@U?$pair@$$CBIPAU_BLECHEVENT@@@std@@@3@$0A@@std@@@std@@QAEAAV012@XZ 040048b0 f i MQ2NetBots.obj
 0001:000038c0       ?max_size@?$_Tree@V?$_Tmap_traits@V?$basic_string@DU?$char_traits@D@std@@V?$allocator@D@2@@std@@KU?$less@V?$basic_string@DU?$char_traits@D@std@@V?$allocator@D@2@@std@@@2@V?$allocator@U?$pair@$$CBV?$basic_string@DU?$char_traits@D@std@@V?$allocator@D@2@@std@@K@std@@@2@$0A@@std@@@std@@QBEIXZ 040048c0 f i MQ2NetBots.obj
 0001:000038d0       ?_Lrotate@?$_Tree@V?$_Tmap_traits@V?$basic_string@DU?$char_traits@D@std@@V?$allocator@D@2@@std@@KU?$less@V?$basic_string@DU?$char_traits@D@std@@V?$allocator@D@2@@std@@@2@V?$allocator@U?$pair@$$CBV?$basic_string@DU?$char_traits@D@std@@V?$allocator@D@2@@std@@K@std@@@2@$0A@@std@@@std@@IAEXPAU_Node@?$_Tree_nod@V?$_Tmap_traits@V?$basic_string@DU?$char_traits@D@std@@V?$allocator@D@2@@std@@KU?$less@V?$basic_string@DU?$char_traits@D@std@@V?$allocator@D@2@@std@@@2@V?$allocator@U?$pair@$$CBV?$basic_string@DU?$char_traits@D@std@@V?$allocator@D@2@@std@@K@std@@@2@$0A@@std@@@2@@Z 040048d0 f i MQ2NetBots.obj
 0001:00003920       ?allocate@?$allocator@U_Node@?$_Tree_nod@V?$_Tmap_traits@V?$basic_string@DU?$char_traits@D@std@@V?$allocator@D@2@@std@@VBotInfo@@U?$less@V?$basic_string@DU?$char_traits@D@std@@V?$allocator@D@2@@std@@@2@V?$allocator@U?$pair@$$CBV?$basic_string@DU?$char_traits@D@std@@V?$allocator@D@2@@std@@VBotInfo@@@std@@@2@$0A@@std@@@std@@@std@@QAEPAU_Node@?$_Tree_nod@V?$_Tmap_traits@V?$basic_string@DU?$char_traits@D@std@@V?$allocator@D@2@@std@@VBotInfo@@U?$less@V?$basic_string@DU?$char_traits@D@std@@V?$allocator@D@2@@std@@@2@V?$allocator@U?$pair@$$CBV?$basic_string@DU?$char_traits@D@std@@V?$allocator@D@2@@std@@VBotInfo@@@std@@@2@$0A@@std@@@2@I@Z 04004920 f i MQ2NetBots.obj
 0001:00003940       ??Econst_iterator@?$_Tree@V?$_Tmap_traits@V?$basic_string@DU?$char_traits@D@std@@V?$allocator@D@2@@std@@VBotInfo@@U?$less@V?$basic_string@DU?$char_traits@D@std@@V?$allocator@D@2@@std@@@2@V?$allocator@U?$pair@$$CBV?$basic_string@DU?$char_traits@D@std@@V?$allocator@D@2@@std@@VBotInfo@@@std@@@2@$0A@@std@@@std@@QAE?AV012@H@Z 04004940 f i MQ2NetBots.obj
 0001:00003960       ??0const_iterator@?$_Tree@V?$_Tmap_traits@V?$basic_string@DU?$char_traits@D@std@@V?$allocator@D@2@@std@@KU?$less@V?$basic_string@DU?$char_traits@D@std@@V?$allocator@D@2@@std@@@2@V?$allocator@U?$pair@$$CBV?$basic_string@DU?$char_traits@D@std@@V?$allocator@D@2@@std@@K@std@@@2@$0A@@std@@@std@@QAE@PAU_Node@?$_Tree_nod@V?$_Tmap_traits@V?$basic_string@DU?$char_traits@D@std@@V?$allocator@D@2@@std@@KU?$less@V?$basic_string@DU?$char_traits@D@std@@V?$allocator@D@2@@std@@@2@V?$allocator@U?$pair@$$CBV?$basic_string@DU?$char_traits@D@std@@V?$allocator@D@2@@std@@K@std@@@2@$0A@@std@@@2@PBV12@@Z 04004960 f i MQ2NetBots.obj
 0001:00003990       ?_Dec@const_iterator@?$_Tree@V?$_Tmap_traits@V?$basic_string@DU?$char_traits@D@std@@V?$allocator@D@2@@std@@KU?$less@V?$basic_string@DU?$char_traits@D@std@@V?$allocator@D@2@@std@@@2@V?$allocator@U?$pair@$$CBV?$basic_string@DU?$char_traits@D@std@@V?$allocator@D@2@@std@@K@std@@@2@$0A@@std@@@std@@QAEXXZ 04004990 f i MQ2NetBots.obj
 0001:00003a20       ?_Inc@const_iterator@?$_Tree@V?$_Tmap_traits@V?$basic_string@DU?$char_traits@D@std@@V?$allocator@D@2@@std@@KU?$less@V?$basic_string@DU?$char_traits@D@std@@V?$allocator@D@2@@std@@@2@V?$allocator@U?$pair@$$CBV?$basic_string@DU?$char_traits@D@std@@V?$allocator@D@2@@std@@K@std@@@2@$0A@@std@@@std@@QAEXXZ 04004a20 f i MQ2NetBots.obj
 0001:00003a90       ?allocate@?$allocator@D@std@@QAEPADI@Z 04004a90 f i MQ2NetBots.obj
 0001:00003ab0       ?allocate@?$allocator@U_Node@?$_Tree_nod@V?$_Tmap_traits@IPAU_BLECHEVENT@@U?$less@I@std@@V?$allocator@U?$pair@$$CBIPAU_BLECHEVENT@@@std@@@3@$0A@@std@@@std@@@std@@QAEPAU_Node@?$_Tree_nod@V?$_Tmap_traits@IPAU_BLECHEVENT@@U?$less@I@std@@V?$allocator@U?$pair@$$CBIPAU_BLECHEVENT@@@std@@@3@$0A@@std@@@2@I@Z 04004ab0 f i MQ2NetBots.obj
 0001:00003ad0       ?construct@?$allocator@PAU_Node@?$_Tree_nod@V?$_Tmap_traits@IPAU_BLECHEVENT@@U?$less@I@std@@V?$allocator@U?$pair@$$CBIPAU_BLECHEVENT@@@std@@@3@$0A@@std@@@std@@@std@@QAEXPAPAU_Node@?$_Tree_nod@V?$_Tmap_traits@IPAU_BLECHEVENT@@U?$less@I@std@@V?$allocator@U?$pair@$$CBIPAU_BLECHEVENT@@@std@@@3@$0A@@std@@@2@ABQAU342@@Z 04004ad0 f i MQ2NetBots.obj
 0001:00003af0       ?allocate@?$allocator@U_Node@?$_Tree_nod@V?$_Tmap_traits@V?$basic_string@DU?$char_traits@D@std@@V?$allocator@D@2@@std@@KU?$less@V?$basic_string@DU?$char_traits@D@std@@V?$allocator@D@2@@std@@@2@V?$allocator@U?$pair@$$CBV?$basic_string@DU?$char_traits@D@std@@V?$allocator@D@2@@std@@K@std@@@2@$0A@@std@@@std@@@std@@QAEPAU_Node@?$_Tree_nod@V?$_Tmap_traits@V?$basic_string@DU?$char_traits@D@std@@V?$allocator@D@2@@std@@KU?$less@V?$basic_string@DU?$char_traits@D@std@@V?$allocator@D@2@@std@@@2@V?$allocator@U?$pair@$$CBV?$basic_string@DU?$char_traits@D@std@@V?$allocator@D@2@@std@@K@std@@@2@$0A@@std@@@2@I@Z 04004af0 f i MQ2NetBots.obj
 0001:00003b10       ?construct@?$allocator@PAU_Node@?$_Tree_nod@V?$_Tmap_traits@V?$basic_string@DU?$char_traits@D@std@@V?$allocator@D@2@@std@@KU?$less@V?$basic_string@DU?$char_traits@D@std@@V?$allocator@D@2@@std@@@2@V?$allocator@U?$pair@$$CBV?$basic_string@DU?$char_traits@D@std@@V?$allocator@D@2@@std@@K@std@@@2@$0A@@std@@@std@@@std@@QAEXPAPAU_Node@?$_Tree_nod@V?$_Tmap_traits@V?$basic_string@DU?$char_traits@D@std@@V?$allocator@D@2@@std@@KU?$less@V?$basic_string@DU?$char_traits@D@std@@V?$allocator@D@2@@std@@@2@V?$allocator@U?$pair@$$CBV?$basic_string@DU?$char_traits@D@std@@V?$allocator@D@2@@std@@K@std@@@2@$0A@@std@@@2@ABQAU342@@Z 04004b10 f i MQ2NetBots.obj
 0001:00003b30       ?construct@?$allocator@PAU_Node@?$_Tree_nod@V?$_Tmap_traits@V?$basic_string@DU?$char_traits@D@std@@V?$allocator@D@2@@std@@VBotInfo@@U?$less@V?$basic_string@DU?$char_traits@D@std@@V?$allocator@D@2@@std@@@2@V?$allocator@U?$pair@$$CBV?$basic_string@DU?$char_traits@D@std@@V?$allocator@D@2@@std@@VBotInfo@@@std@@@2@$0A@@std@@@std@@@std@@QAEXPAPAU_Node@?$_Tree_nod@V?$_Tmap_traits@V?$basic_string@DU?$char_traits@D@std@@V?$allocator@D@2@@std@@VBotInfo@@U?$less@V?$basic_string@DU?$char_traits@D@std@@V?$allocator@D@2@@std@@@2@V?$allocator@U?$pair@$$CBV?$basic_string@DU?$char_traits@D@std@@V?$allocator@D@2@@std@@VBotInfo@@@std@@@2@$0A@@std@@@2@ABQAU342@@Z 04004b30 f i MQ2NetBots.obj
 0001:00003b50       ?allocate@?$allocator@V_Aux_cont@std@@@std@@QAEPAV_Aux_cont@2@I@Z 04004b50 f i MQ2NetBots.obj
 0001:00003b70       ??$copy_s@U?$char_traits@D@std@@@_Traits_helper@std@@YAPADPADIPBDI@Z 04004b70 f i MQ2NetBots.obj
 0001:00003ba0       ??$move_s@U?$char_traits@D@std@@@_Traits_helper@std@@YAPADPADIPBDI@Z 04004ba0 f i MQ2NetBots.obj
 0001:00003bd0       ?compare@?$basic_string@DU?$char_traits@D@std@@V?$allocator@D@2@@std@@QBEHABV12@@Z 04004bd0 f i MQ2NetBots.obj
 0001:00003c10       ??Citerator@?$_Tree@V?$_Tmap_traits@IPAU_BLECHEVENT@@U?$less@I@std@@V?$allocator@U?$pair@$$CBIPAU_BLECHEVENT@@@std@@@3@$0A@@std@@@std@@QBEPAU?$pair@$$CBIPAU_BLECHEVENT@@@2@XZ 04004c10 f i MQ2NetBots.obj
 0001:00003c40       ??Diterator@?$_Tree@V?$_Tmap_traits@V?$basic_string@DU?$char_traits@D@std@@V?$allocator@D@2@@std@@VBotInfo@@U?$less@V?$basic_string@DU?$char_traits@D@std@@V?$allocator@D@2@@std@@@2@V?$allocator@U?$pair@$$CBV?$basic_string@DU?$char_traits@D@std@@V?$allocator@D@2@@std@@VBotInfo@@@std@@@2@$0A@@std@@@std@@QBEAAU?$pair@$$CBV?$basic_string@DU?$char_traits@D@std@@V?$allocator@D@2@@std@@VBotInfo@@@2@XZ 04004c40 f i MQ2NetBots.obj
 0001:00003c70       ??1?$_Tmap_traits@IPAU_BLECHEVENT@@U?$less@I@std@@V?$allocator@U?$pair@$$CBIPAU_BLECHEVENT@@@std@@@3@$0A@@std@@QAE@XZ 04004c70 f i MQ2NetBots.obj
 0001:00003c80       ??1?$_Tmap_traits@V?$basic_string@DU?$char_traits@D@std@@V?$allocator@D@2@@std@@KU?$less@V?$basic_string@DU?$char_traits@D@std@@V?$allocator@D@2@@std@@@2@V?$allocator@U?$pair@$$CBV?$basic_string@DU?$char_traits@D@std@@V?$allocator@D@2@@std@@K@std@@@2@$0A@@std@@QAE@XZ 04004c80 f i MQ2NetBots.obj
 0001:00003c90       ??1?$_Tmap_traits@V?$basic_string@DU?$char_traits@D@std@@V?$allocator@D@2@@std@@VBotInfo@@U?$less@V?$basic_string@DU?$char_traits@D@std@@V?$allocator@D@2@@std@@@2@V?$allocator@U?$pair@$$CBV?$basic_string@DU?$char_traits@D@std@@V?$allocator@D@2@@std@@VBotInfo@@@std@@@2@$0A@@std@@QAE@XZ 04004c90 f i MQ2NetBots.obj
 0001:00003ca0       ?_Tidy@?$basic_string@DU?$char_traits@D@std@@V?$allocator@D@2@@std@@IAEX_NI@Z 04004ca0 f i MQ2NetBots.obj
 0001:00003cf0       ?_Erase@?$_Tree@V?$_Tmap_traits@IPAU_BLECHEVENT@@U?$less@I@std@@V?$allocator@U?$pair@$$CBIPAU_BLECHEVENT@@@std@@@3@$0A@@std@@@std@@IAEXPAU_Node@?$_Tree_nod@V?$_Tmap_traits@IPAU_BLECHEVENT@@U?$less@I@std@@V?$allocator@U?$pair@$$CBIPAU_BLECHEVENT@@@std@@@3@$0A@@std@@@2@@Z 04004cf0 f i MQ2NetBots.obj
 0001:00003d30       ??Eiterator@?$_Tree@V?$_Tmap_traits@IPAU_BLECHEVENT@@U?$less@I@std@@V?$allocator@U?$pair@$$CBIPAU_BLECHEVENT@@@std@@@3@$0A@@std@@@std@@QAEAAV012@XZ 04004d30 f i MQ2NetBots.obj
 0001:00003d40       ??0iterator@?$_Tree@V?$_Tmap_traits@V?$basic_string@DU?$char_traits@D@std@@V?$allocator@D@2@@std@@VBotInfo@@U?$less@V?$basic_string@DU?$char_traits@D@std@@V?$allocator@D@2@@std@@@2@V?$allocator@U?$pair@$$CBV?$basic_string@DU?$char_traits@D@std@@V?$allocator@D@2@@std@@VBotInfo@@@std@@@2@$0A@@std@@@std@@QAE@PAU_Node@?$_Tree_nod@V?$_Tmap_traits@V?$basic_string@DU?$char_traits@D@std@@V?$allocator@D@2@@std@@VBotInfo@@U?$less@V?$basic_string@DU?$char_traits@D@std@@V?$allocator@D@2@@std@@@2@V?$allocator@U?$pair@$$CBV?$basic_string@DU?$char_traits@D@std@@V?$allocator@D@2@@std@@VBotInfo@@@std@@@2@$0A@@std@@@2@PBV12@@Z 04004d40 f i MQ2NetBots.obj
 0001:00003d70       ??Eiterator@?$_Tree@V?$_Tmap_traits@V?$basic_string@DU?$char_traits@D@std@@V?$allocator@D@2@@std@@VBotInfo@@U?$less@V?$basic_string@DU?$char_traits@D@std@@V?$allocator@D@2@@std@@@2@V?$allocator@U?$pair@$$CBV?$basic_string@DU?$char_traits@D@std@@V?$allocator@D@2@@std@@VBotInfo@@@std@@@2@$0A@@std@@@std@@QAEAAV012@XZ 04004d70 f i MQ2NetBots.obj
 0001:00003d80       ??Fiterator@?$_Tree@V?$_Tmap_traits@V?$basic_string@DU?$char_traits@D@std@@V?$allocator@D@2@@std@@VBotInfo@@U?$less@V?$basic_string@DU?$char_traits@D@std@@V?$allocator@D@2@@std@@@2@V?$allocator@U?$pair@$$CBV?$basic_string@DU?$char_traits@D@std@@V?$allocator@D@2@@std@@VBotInfo@@@std@@@2@$0A@@std@@@std@@QAEAAV012@XZ 04004d80 f i MQ2NetBots.obj
 0001:00003d90       ??0const_iterator@?$_Tree@V?$_Tmap_traits@V?$basic_string@DU?$char_traits@D@std@@V?$allocator@D@2@@std@@VBotInfo@@U?$less@V?$basic_string@DU?$char_traits@D@std@@V?$allocator@D@2@@std@@@2@V?$allocator@U?$pair@$$CBV?$basic_string@DU?$char_traits@D@std@@V?$allocator@D@2@@std@@VBotInfo@@@std@@@2@$0A@@std@@@std@@QAE@XZ 04004d90 f i MQ2NetBots.obj
 0001:00003da0       ?erase@?$basic_string@DU?$char_traits@D@std@@V?$allocator@D@2@@std@@QAEAAV12@II@Z 04004da0 f i MQ2NetBots.obj
 0001:00003e30       ??0const_iterator@?$_Tree@V?$_Tmap_traits@IPAU_BLECHEVENT@@U?$less@I@std@@V?$allocator@U?$pair@$$CBIPAU_BLECHEVENT@@@std@@@3@$0A@@std@@@std@@QAE@XZ 04004e30 f i MQ2NetBots.obj
 0001:00003e40       ??0const_iterator@?$_Tree@V?$_Tmap_traits@IPAU_BLECHEVENT@@U?$less@I@std@@V?$allocator@U?$pair@$$CBIPAU_BLECHEVENT@@@std@@@3@$0A@@std@@@std@@QAE@PAU_Node@?$_Tree_nod@V?$_Tmap_traits@IPAU_BLECHEVENT@@U?$less@I@std@@V?$allocator@U?$pair@$$CBIPAU_BLECHEVENT@@@std@@@3@$0A@@std@@@2@PBV12@@Z 04004e40 f i MQ2NetBots.obj
 0001:00003e70       ??0iterator@?$_Tree@V?$_Tmap_traits@V?$basic_string@DU?$char_traits@D@std@@V?$allocator@D@2@@std@@KU?$less@V?$basic_string@DU?$char_traits@D@std@@V?$allocator@D@2@@std@@@2@V?$allocator@U?$pair@$$CBV?$basic_string@DU?$char_traits@D@std@@V?$allocator@D@2@@std@@K@std@@@2@$0A@@std@@@std@@QAE@PAU_Node@?$_Tree_nod@V?$_Tmap_traits@V?$basic_string@DU?$char_traits@D@std@@V?$allocator@D@2@@std@@KU?$less@V?$basic_string@DU?$char_traits@D@std@@V?$allocator@D@2@@std@@@2@V?$allocator@U?$pair@$$CBV?$basic_string@DU?$char_traits@D@std@@V?$allocator@D@2@@std@@K@std@@@2@$0A@@std@@@2@PBV12@@Z 04004e70 f i MQ2NetBots.obj
 0001:00003ea0       ??0const_iterator@?$_Tree@V?$_Tmap_traits@V?$basic_string@DU?$char_traits@D@std@@V?$allocator@D@2@@std@@KU?$less@V?$basic_string@DU?$char_traits@D@std@@V?$allocator@D@2@@std@@@2@V?$allocator@U?$pair@$$CBV?$basic_string@DU?$char_traits@D@std@@V?$allocator@D@2@@std@@K@std@@@2@$0A@@std@@@std@@QAE@XZ 04004ea0 f i MQ2NetBots.obj
 0001:00003eb0       ??Econst_iterator@?$_Tree@V?$_Tmap_traits@V?$basic_string@DU?$char_traits@D@std@@V?$allocator@D@2@@std@@KU?$less@V?$basic_string@DU?$char_traits@D@std@@V?$allocator@D@2@@std@@@2@V?$allocator@U?$pair@$$CBV?$basic_string@DU?$char_traits@D@std@@V?$allocator@D@2@@std@@K@std@@@2@$0A@@std@@@std@@QAEAAV012@XZ 04004eb0 f i MQ2NetBots.obj
 0001:00003ec0       ??Fconst_iterator@?$_Tree@V?$_Tmap_traits@V?$basic_string@DU?$char_traits@D@std@@V?$allocator@D@2@@std@@KU?$less@V?$basic_string@DU?$char_traits@D@std@@V?$allocator@D@2@@std@@@2@V?$allocator@U?$pair@$$CBV?$basic_string@DU?$char_traits@D@std@@V?$allocator@D@2@@std@@K@std@@@2@$0A@@std@@@std@@QAEAAV012@XZ 04004ec0 f i MQ2NetBots.obj
 0001:00003ed0       ?_Copy@?$basic_string@DU?$char_traits@D@std@@V?$allocator@D@2@@std@@IAEXII@Z 04004ed0 f i MQ2NetBots.obj
 0001:00004010       ?_Buynode@?$_Tree@V?$_Tmap_traits@IPAU_BLECHEVENT@@U?$less@I@std@@V?$allocator@U?$pair@$$CBIPAU_BLECHEVENT@@@std@@@3@$0A@@std@@@std@@IAEPAU_Node@?$_Tree_nod@V?$_Tmap_traits@IPAU_BLECHEVENT@@U?$less@I@std@@V?$allocator@U?$pair@$$CBIPAU_BLECHEVENT@@@std@@@3@$0A@@std@@@2@XZ 04005010 f i MQ2NetBots.obj
 0001:00004050       ?_Buynode@?$_Tree@V?$_Tmap_traits@IPAU_BLECHEVENT@@U?$less@I@std@@V?$allocator@U?$pair@$$CBIPAU_BLECHEVENT@@@std@@@3@$0A@@std@@@std@@IAEPAU_Node@?$_Tree_nod@V?$_Tmap_traits@IPAU_BLECHEVENT@@U?$less@I@std@@V?$allocator@U?$pair@$$CBIPAU_BLECHEVENT@@@std@@@3@$0A@@std@@@2@PAU342@00ABU?$pair@$$CBIPAU_BLECHEVENT@@@2@D@Z 04005050 f i MQ2NetBots.obj
 0001:00004090       ?_Make_iter@?$_Tree@V?$_Tmap_traits@V?$basic_string@DU?$char_traits@D@std@@V?$allocator@D@2@@std@@KU?$less@V?$basic_string@DU?$char_traits@D@std@@V?$allocator@D@2@@std@@@2@V?$allocator@U?$pair@$$CBV?$basic_string@DU?$char_traits@D@std@@V?$allocator@D@2@@std@@K@std@@@2@$0A@@std@@@std@@QBE?AViterator@12@Vconst_iterator@12@@Z 04005090 f i MQ2NetBots.obj
 0001:000040c0       ?_Buynode@?$_Tree@V?$_Tmap_traits@V?$basic_string@DU?$char_traits@D@std@@V?$allocator@D@2@@std@@KU?$less@V?$basic_string@DU?$char_traits@D@std@@V?$allocator@D@2@@std@@@2@V?$allocator@U?$pair@$$CBV?$basic_string@DU?$char_traits@D@std@@V?$allocator@D@2@@std@@K@std@@@2@$0A@@std@@@std@@IAEPAU_Node@?$_Tree_nod@V?$_Tmap_traits@V?$basic_string@DU?$char_traits@D@std@@V?$allocator@D@2@@std@@KU?$less@V?$basic_string@DU?$char_traits@D@std@@V?$allocator@D@2@@std@@@2@V?$allocator@U?$pair@$$CBV?$basic_string@DU?$char_traits@D@std@@V?$allocator@D@2@@std@@K@std@@@2@$0A@@std@@@2@XZ 040050c0 f i MQ2NetBots.obj
 0001:00004100       ?_Buynode@?$_Tree@V?$_Tmap_traits@V?$basic_string@DU?$char_traits@D@std@@V?$allocator@D@2@@std@@VBotInfo@@U?$less@V?$basic_string@DU?$char_traits@D@std@@V?$allocator@D@2@@std@@@2@V?$allocator@U?$pair@$$CBV?$basic_string@DU?$char_traits@D@std@@V?$allocator@D@2@@std@@VBotInfo@@@std@@@2@$0A@@std@@@std@@IAEPAU_Node@?$_Tree_nod@V?$_Tmap_traits@V?$basic_string@DU?$char_traits@D@std@@V?$allocator@D@2@@std@@VBotInfo@@U?$less@V?$basic_string@DU?$char_traits@D@std@@V?$allocator@D@2@@std@@@2@V?$allocator@U?$pair@$$CBV?$basic_string@DU?$char_traits@D@std@@V?$allocator@D@2@@std@@VBotInfo@@@std@@@2@$0A@@std@@@2@XZ 04005100 f i MQ2NetBots.obj
 0001:00004140       ??Fiterator@?$_Tree@V?$_Tmap_traits@V?$basic_string@DU?$char_traits@D@std@@V?$allocator@D@2@@std@@KU?$less@V?$basic_string@DU?$char_traits@D@std@@V?$allocator@D@2@@std@@@2@V?$allocator@U?$pair@$$CBV?$basic_string@DU?$char_traits@D@std@@V?$allocator@D@2@@std@@K@std@@@2@$0A@@std@@@std@@QAEAAV012@XZ 04005140 f i MQ2NetBots.obj
 0001:00004150       ??Econst_iterator@?$_Tree@V?$_Tmap_traits@V?$basic_string@DU?$char_traits@D@std@@V?$allocator@D@2@@std@@KU?$less@V?$basic_string@DU?$char_traits@D@std@@V?$allocator@D@2@@std@@@2@V?$allocator@U?$pair@$$CBV?$basic_string@DU?$char_traits@D@std@@V?$allocator@D@2@@std@@K@std@@@2@$0A@@std@@@std@@QAE?AV012@H@Z 04005150 f i MQ2NetBots.obj
 0001:00004170       ??0?$_Container_base_aux_alloc_real@V?$allocator@U?$pair@$$CBIPAU_BLECHEVENT@@@std@@@std@@@std@@IAE@V?$allocator@U?$pair@$$CBIPAU_BLECHEVENT@@@std@@@1@@Z 04005170 f i MQ2NetBots.obj
 0001:000041a0       ??0?$_Container_base_aux_alloc_real@V?$allocator@U?$pair@$$CBV?$basic_string@DU?$char_traits@D@std@@V?$allocator@D@2@@std@@K@std@@@std@@@std@@IAE@V?$allocator@U?$pair@$$CBV?$basic_string@DU?$char_traits@D@std@@V?$allocator@D@2@@std@@K@std@@@1@@Z 040051a0 f i MQ2NetBots.obj
 0001:000041d0       ??0?$_Container_base_aux_alloc_real@V?$allocator@U?$pair@$$CBV?$basic_string@DU?$char_traits@D@std@@V?$allocator@D@2@@std@@VBotInfo@@@std@@@std@@@std@@IAE@V?$allocator@U?$pair@$$CBV?$basic_string@DU?$char_traits@D@std@@V?$allocator@D@2@@std@@VBotInfo@@@std@@@1@@Z 040051d0 f i MQ2NetBots.obj
 0001:00004200       ??$?MDU?$char_traits@D@std@@V?$allocator@D@1@@std@@YA_NABV?$basic_string@DU?$char_traits@D@std@@V?$allocator@D@2@@0@0@Z 04005200 f i MQ2NetBots.obj
 0001:00004230       ??1?$basic_string@DU?$char_traits@D@std@@V?$allocator@D@2@@std@@QAE@XZ 04005230 f i MQ2NetBots.obj
 0001:00004260       ?clear@?$_Tree@V?$_Tmap_traits@IPAU_BLECHEVENT@@U?$less@I@std@@V?$allocator@U?$pair@$$CBIPAU_BLECHEVENT@@@std@@@3@$0A@@std@@@std@@QAEXXZ 04005260 f i MQ2NetBots.obj
 0001:00004290       ??Eiterator@?$_Tree@V?$_Tmap_traits@IPAU_BLECHEVENT@@U?$less@I@std@@V?$allocator@U?$pair@$$CBIPAU_BLECHEVENT@@@std@@@3@$0A@@std@@@std@@QAE?AV012@H@Z 04005290 f i MQ2NetBots.obj
 0001:000042b0       ?begin@?$_Tree@V?$_Tmap_traits@V?$basic_string@DU?$char_traits@D@std@@V?$allocator@D@2@@std@@VBotInfo@@U?$less@V?$basic_string@DU?$char_traits@D@std@@V?$allocator@D@2@@std@@@2@V?$allocator@U?$pair@$$CBV?$basic_string@DU?$char_traits@D@std@@V?$allocator@D@2@@std@@VBotInfo@@@std@@@2@$0A@@std@@@std@@QAE?AViterator@12@XZ 040052b0 f i MQ2NetBots.obj
 0001:000042d0       ?end@?$_Tree@V?$_Tmap_traits@V?$basic_string@DU?$char_traits@D@std@@V?$allocator@D@2@@std@@VBotInfo@@U?$less@V?$basic_string@DU?$char_traits@D@std@@V?$allocator@D@2@@std@@@2@V?$allocator@U?$pair@$$CBV?$basic_string@DU?$char_traits@D@std@@V?$allocator@D@2@@std@@VBotInfo@@@std@@@2@$0A@@std@@@std@@QAE?AViterator@12@XZ 040052d0 f i MQ2NetBots.obj
 0001:000042f0       ??0iterator@?$_Tree@V?$_Tmap_traits@V?$basic_string@DU?$char_traits@D@std@@V?$allocator@D@2@@std@@VBotInfo@@U?$less@V?$basic_string@DU?$char_traits@D@std@@V?$allocator@D@2@@std@@@2@V?$allocator@U?$pair@$$CBV?$basic_string@DU?$char_traits@D@std@@V?$allocator@D@2@@std@@VBotInfo@@@std@@@2@$0A@@std@@@std@@QAE@XZ 040052f0 f i MQ2NetBots.obj
 0001:00004300       ??Eiterator@?$_Tree@V?$_Tmap_traits@V?$basic_string@DU?$char_traits@D@std@@V?$allocator@D@2@@std@@VBotInfo@@U?$less@V?$basic_string@DU?$char_traits@D@std@@V?$allocator@D@2@@std@@@2@V?$allocator@U?$pair@$$CBV?$basic_string@DU?$char_traits@D@std@@V?$allocator@D@2@@std@@VBotInfo@@@std@@@2@$0A@@std@@@std@@QAE?AV012@H@Z 04005300 f i MQ2NetBots.obj
 0001:00004320       ??1?$pair@$$CBV?$basic_string@DU?$char_traits@D@std@@V?$allocator@D@2@@std@@K@std@@QAE@XZ 04005320 f i MQ2NetBots.obj
 0001:00004350       ??1?$_Tree_nod@V?$_Tmap_traits@IPAU_BLECHEVENT@@U?$less@I@std@@V?$allocator@U?$pair@$$CBIPAU_BLECHEVENT@@@std@@@3@$0A@@std@@@std@@QAE@XZ 04005350 f i MQ2NetBots.obj
 0001:00004360       ??1?$_Tree_nod@V?$_Tmap_traits@V?$basic_string@DU?$char_traits@D@std@@V?$allocator@D@2@@std@@KU?$less@V?$basic_string@DU?$char_traits@D@std@@V?$allocator@D@2@@std@@@2@V?$allocator@U?$pair@$$CBV?$basic_string@DU?$char_traits@D@std@@V?$allocator@D@2@@std@@K@std@@@2@$0A@@std@@@std@@QAE@XZ 04005360 f i MQ2NetBots.obj
 0001:00004370       ??1?$_Tree_nod@V?$_Tmap_traits@V?$basic_string@DU?$char_traits@D@std@@V?$allocator@D@2@@std@@VBotInfo@@U?$less@V?$basic_string@DU?$char_traits@D@std@@V?$allocator@D@2@@std@@@2@V?$allocator@U?$pair@$$CBV?$basic_string@DU?$char_traits@D@std@@V?$allocator@D@2@@std@@VBotInfo@@@std@@@2@$0A@@std@@@std@@QAE@XZ 04005370 f i MQ2NetBots.obj
 0001:00004380       ??0iterator@?$_Tree@V?$_Tmap_traits@IPAU_BLECHEVENT@@U?$less@I@std@@V?$allocator@U?$pair@$$CBIPAU_BLECHEVENT@@@std@@@3@$0A@@std@@@std@@QAE@PAU_Node@?$_Tree_nod@V?$_Tmap_traits@IPAU_BLECHEVENT@@U?$less@I@std@@V?$allocator@U?$pair@$$CBIPAU_BLECHEVENT@@@std@@@3@$0A@@std@@@2@PBV12@@Z 04005380 f i MQ2NetBots.obj
 0001:000043b0       ?end@?$_Tree@V?$_Tmap_traits@V?$basic_string@DU?$char_traits@D@std@@V?$allocator@D@2@@std@@KU?$less@V?$basic_string@DU?$char_traits@D@std@@V?$allocator@D@2@@std@@@2@V?$allocator@U?$pair@$$CBV?$basic_string@DU?$char_traits@D@std@@V?$allocator@D@2@@std@@K@std@@@2@$0A@@std@@@std@@QAE?AViterator@12@XZ 040053b0 f i MQ2NetBots.obj
 0001:000043d0       ??R?$less@V?$basic_string@DU?$char_traits@D@std@@V?$allocator@D@2@@std@@@std@@QBE_NABV?$basic_string@DU?$char_traits@D@std@@V?$allocator@D@2@@1@0@Z 040053d0 f i MQ2NetBots.obj
 0001:00004410       ?_Make_iter@?$_Tree@V?$_Tmap_traits@V?$basic_string@DU?$char_traits@D@std@@V?$allocator@D@2@@std@@VBotInfo@@U?$less@V?$basic_string@DU?$char_traits@D@std@@V?$allocator@D@2@@std@@@2@V?$allocator@U?$pair@$$CBV?$basic_string@DU?$char_traits@D@std@@V?$allocator@D@2@@std@@VBotInfo@@@std@@@2@$0A@@std@@@std@@QBE?AViterator@12@Vconst_iterator@12@@Z 04005410 f i MQ2NetBots.obj
 0001:00004440       ?_Grow@?$basic_string@DU?$char_traits@D@std@@V?$allocator@D@2@@std@@IAE_NI_N@Z 04005440 f i MQ2NetBots.obj
 0001:00004500       ?_Make_iter@?$_Tree@V?$_Tmap_traits@IPAU_BLECHEVENT@@U?$less@I@std@@V?$allocator@U?$pair@$$CBIPAU_BLECHEVENT@@@std@@@3@$0A@@std@@@std@@QBE?AViterator@12@Vconst_iterator@12@@Z 04005500 f i MQ2NetBots.obj
 0001:00004530       ?_Init@?$_Tree@V?$_Tmap_traits@IPAU_BLECHEVENT@@U?$less@I@std@@V?$allocator@U?$pair@$$CBIPAU_BLECHEVENT@@@std@@@3@$0A@@std@@@std@@IAEXXZ 04005530 f i MQ2NetBots.obj
 0001:00004560       ?begin@?$_Tree@V?$_Tmap_traits@V?$basic_string@DU?$char_traits@D@std@@V?$allocator@D@2@@std@@KU?$less@V?$basic_string@DU?$char_traits@D@std@@V?$allocator@D@2@@std@@@2@V?$allocator@U?$pair@$$CBV?$basic_string@DU?$char_traits@D@std@@V?$allocator@D@2@@std@@K@std@@@2@$0A@@std@@@std@@QAE?AViterator@12@XZ 04005560 f i MQ2NetBots.obj
 0001:00004580       ?_Init@?$_Tree@V?$_Tmap_traits@V?$basic_string@DU?$char_traits@D@std@@V?$allocator@D@2@@std@@KU?$less@V?$basic_string@DU?$char_traits@D@std@@V?$allocator@D@2@@std@@@2@V?$allocator@U?$pair@$$CBV?$basic_string@DU?$char_traits@D@std@@V?$allocator@D@2@@std@@K@std@@@2@$0A@@std@@@std@@IAEXXZ 04005580 f i MQ2NetBots.obj
 0001:000045b0       ?_Lbound@?$_Tree@V?$_Tmap_traits@V?$basic_string@DU?$char_traits@D@std@@V?$allocator@D@2@@std@@KU?$less@V?$basic_string@DU?$char_traits@D@std@@V?$allocator@D@2@@std@@@2@V?$allocator@U?$pair@$$CBV?$basic_string@DU?$char_traits@D@std@@V?$allocator@D@2@@std@@K@std@@@2@$0A@@std@@@std@@IBEPAU_Node@?$_Tree_nod@V?$_Tmap_traits@V?$basic_string@DU?$char_traits@D@std@@V?$allocator@D@2@@std@@KU?$less@V?$basic_string@DU?$char_traits@D@std@@V?$allocator@D@2@@std@@@2@V?$allocator@U?$pair@$$CBV?$basic_string@DU?$char_traits@D@std@@V?$allocator@D@2@@std@@K@std@@@2@$0A@@std@@@2@ABV?$basic_string@DU?$char_traits@D@std@@V?$allocator@D@2@@2@@Z 040055b0 f i MQ2NetBots.obj
 0001:00004640       ?_Init@?$_Tree@V?$_Tmap_traits@V?$basic_string@DU?$char_traits@D@std@@V?$allocator@D@2@@std@@VBotInfo@@U?$less@V?$basic_string@DU?$char_traits@D@std@@V?$allocator@D@2@@std@@@2@V?$allocator@U?$pair@$$CBV?$basic_string@DU?$char_traits@D@std@@V?$allocator@D@2@@std@@VBotInfo@@@std@@@2@$0A@@std@@@std@@IAEXXZ 04005640 f i MQ2NetBots.obj
 0001:00004670       ?_Lbound@?$_Tree@V?$_Tmap_traits@V?$basic_string@DU?$char_traits@D@std@@V?$allocator@D@2@@std@@VBotInfo@@U?$less@V?$basic_string@DU?$char_traits@D@std@@V?$allocator@D@2@@std@@@2@V?$allocator@U?$pair@$$CBV?$basic_string@DU?$char_traits@D@std@@V?$allocator@D@2@@std@@VBotInfo@@@std@@@2@$0A@@std@@@std@@IBEPAU_Node@?$_Tree_nod@V?$_Tmap_traits@V?$basic_string@DU?$char_traits@D@std@@V?$allocator@D@2@@std@@VBotInfo@@U?$less@V?$basic_string@DU?$char_traits@D@std@@V?$allocator@D@2@@std@@@2@V?$allocator@U?$pair@$$CBV?$basic_string@DU?$char_traits@D@std@@V?$allocator@D@2@@std@@VBotInfo@@@std@@@2@$0A@@std@@@2@ABV?$basic_string@DU?$char_traits@D@std@@V?$allocator@D@2@@2@@Z 04005670 f i MQ2NetBots.obj
 0001:00004710       ??0?$_Tmap_traits@IPAU_BLECHEVENT@@U?$less@I@std@@V?$allocator@U?$pair@$$CBIPAU_BLECHEVENT@@@std@@@3@$0A@@std@@QAE@U?$less@I@1@V?$allocator@U?$pair@$$CBIPAU_BLECHEVENT@@@std@@@1@@Z 04005710 f i MQ2NetBots.obj
 0001:00004740       ??0?$_Tmap_traits@V?$basic_string@DU?$char_traits@D@std@@V?$allocator@D@2@@std@@KU?$less@V?$basic_string@DU?$char_traits@D@std@@V?$allocator@D@2@@std@@@2@V?$allocator@U?$pair@$$CBV?$basic_string@DU?$char_traits@D@std@@V?$allocator@D@2@@std@@K@std@@@2@$0A@@std@@QAE@U?$less@V?$basic_string@DU?$char_traits@D@std@@V?$allocator@D@2@@std@@@1@V?$allocator@U?$pair@$$CBV?$basic_string@DU?$char_traits@D@std@@V?$allocator@D@2@@std@@K@std@@@1@@Z 04005740 f i MQ2NetBots.obj
 0001:00004770       ??0?$_Tmap_traits@V?$basic_string@DU?$char_traits@D@std@@V?$allocator@D@2@@std@@VBotInfo@@U?$less@V?$basic_string@DU?$char_traits@D@std@@V?$allocator@D@2@@std@@@2@V?$allocator@U?$pair@$$CBV?$basic_string@DU?$char_traits@D@std@@V?$allocator@D@2@@std@@VBotInfo@@@std@@@2@$0A@@std@@QAE@U?$less@V?$basic_string@DU?$char_traits@D@std@@V?$allocator@D@2@@std@@@1@V?$allocator@U?$pair@$$CBV?$basic_string@DU?$char_traits@D@std@@V?$allocator@D@2@@std@@VBotInfo@@@std@@@1@@Z 04005770 f i MQ2NetBots.obj
 0001:000047a0       ??1_Node@?$_Tree_nod@V?$_Tmap_traits@V?$basic_string@DU?$char_traits@D@std@@V?$allocator@D@2@@std@@KU?$less@V?$basic_string@DU?$char_traits@D@std@@V?$allocator@D@2@@std@@@2@V?$allocator@U?$pair@$$CBV?$basic_string@DU?$char_traits@D@std@@V?$allocator@D@2@@std@@K@std@@@2@$0A@@std@@@std@@QAE@XZ 040057a0 f i MQ2NetBots.obj
 0001:000047d0       ??1logic_error@std@@UAE@XZ 040057d0 f i MQ2NetBots.obj
 0001:00004810       ?c_str@?$basic_string@DU?$char_traits@D@std@@V?$allocator@D@2@@std@@QBEPBDXZ 04005810 f i MQ2NetBots.obj
 0001:00004820       ?what@logic_error@std@@UBEPBDXZ 04005820 f i MQ2NetBots.obj
 0001:00004830       ??_Glogic_error@std@@UAEPAXI@Z 04005830 f i MQ2NetBots.obj
 0001:00004830       ??_Elogic_error@std@@UAEPAXI@Z 04005830 f i MQ2NetBots.obj
 0001:00004880       ??1?$pair@$$CBV?$basic_string@DU?$char_traits@D@std@@V?$allocator@D@2@@std@@VBotInfo@@@std@@QAE@XZ 04005880 f i MQ2NetBots.obj
 0001:000048b0       _GetLowestHPBot            040058b0 f   MQ2NetBots.obj
 0001:00004990       ?begin@?$_Tree@V?$_Tmap_traits@IPAU_BLECHEVENT@@U?$less@I@std@@V?$allocator@U?$pair@$$CBIPAU_BLECHEVENT@@@std@@@3@$0A@@std@@@std@@QAE?AViterator@12@XZ 04005990 f i MQ2NetBots.obj
 0001:000049b0       ?end@?$_Tree@V?$_Tmap_traits@IPAU_BLECHEVENT@@U?$less@I@std@@V?$allocator@U?$pair@$$CBIPAU_BLECHEVENT@@@std@@@3@$0A@@std@@@std@@QAE?AViterator@12@XZ 040059b0 f i MQ2NetBots.obj
 0001:000049d0       ??1?$_Tree_ptr@V?$_Tmap_traits@IPAU_BLECHEVENT@@U?$less@I@std@@V?$allocator@U?$pair@$$CBIPAU_BLECHEVENT@@@std@@@3@$0A@@std@@@std@@QAE@XZ 040059d0 f i MQ2NetBots.obj
 0001:000049e0       ??1?$_Tree_ptr@V?$_Tmap_traits@V?$basic_string@DU?$char_traits@D@std@@V?$allocator@D@2@@std@@KU?$less@V?$basic_string@DU?$char_traits@D@std@@V?$allocator@D@2@@std@@@2@V?$allocator@U?$pair@$$CBV?$basic_string@DU?$char_traits@D@std@@V?$allocator@D@2@@std@@K@std@@@2@$0A@@std@@@std@@QAE@XZ 040059e0 f i MQ2NetBots.obj
 0001:000049f0       ??1?$_Tree_ptr@V?$_Tmap_traits@V?$basic_string@DU?$char_traits@D@std@@V?$allocator@D@2@@std@@VBotInfo@@U?$less@V?$basic_string@DU?$char_traits@D@std@@V?$allocator@D@2@@std@@@2@V?$allocator@U?$pair@$$CBV?$basic_string@DU?$char_traits@D@std@@V?$allocator@D@2@@std@@VBotInfo@@@std@@@2@$0A@@std@@@std@@QAE@XZ 040059f0 f i MQ2NetBots.obj
 0001:00004a00       ?assign@?$basic_string@DU?$char_traits@D@std@@V?$allocator@D@2@@std@@QAEAAV12@ABV12@II@Z 04005a00 f i MQ2NetBots.obj
 0001:00004ae0       ?lower_bound@?$_Tree@V?$_Tmap_traits@IPAU_BLECHEVENT@@U?$less@I@std@@V?$allocator@U?$pair@$$CBIPAU_BLECHEVENT@@@std@@@3@$0A@@std@@@std@@QAE?AViterator@12@ABI@Z 04005ae0 f i MQ2NetBots.obj
 0001:00004b20       ?lower_bound@?$_Tree@V?$_Tmap_traits@V?$basic_string@DU?$char_traits@D@std@@V?$allocator@D@2@@std@@KU?$less@V?$basic_string@DU?$char_traits@D@std@@V?$allocator@D@2@@std@@@2@V?$allocator@U?$pair@$$CBV?$basic_string@DU?$char_traits@D@std@@V?$allocator@D@2@@std@@K@std@@@2@$0A@@std@@@std@@QAE?AViterator@12@ABV?$basic_string@DU?$char_traits@D@std@@V?$allocator@D@2@@2@@Z 04005b20 f i MQ2NetBots.obj
 0001:00004b50       ?lower_bound@?$_Tree@V?$_Tmap_traits@V?$basic_string@DU?$char_traits@D@std@@V?$allocator@D@2@@std@@VBotInfo@@U?$less@V?$basic_string@DU?$char_traits@D@std@@V?$allocator@D@2@@std@@@2@V?$allocator@U?$pair@$$CBV?$basic_string@DU?$char_traits@D@std@@V?$allocator@D@2@@std@@VBotInfo@@@std@@@2@$0A@@std@@@std@@QAE?AViterator@12@ABV?$basic_string@DU?$char_traits@D@std@@V?$allocator@D@2@@2@@Z 04005b50 f i MQ2NetBots.obj
 0001:00004b80       ?assign@?$basic_string@DU?$char_traits@D@std@@V?$allocator@D@2@@std@@QAEAAV12@PBDI@Z 04005b80 f i MQ2NetBots.obj
 0001:00004c60       ??0?$_Tree_nod@V?$_Tmap_traits@IPAU_BLECHEVENT@@U?$less@I@std@@V?$allocator@U?$pair@$$CBIPAU_BLECHEVENT@@@std@@@3@$0A@@std@@@std@@IAE@ABU?$less@I@1@V?$allocator@U?$pair@$$CBIPAU_BLECHEVENT@@@std@@@1@@Z 04005c60 f i MQ2NetBots.obj
 0001:00004c90       ??0?$_Tree_nod@V?$_Tmap_traits@V?$basic_string@DU?$char_traits@D@std@@V?$allocator@D@2@@std@@KU?$less@V?$basic_string@DU?$char_traits@D@std@@V?$allocator@D@2@@std@@@2@V?$allocator@U?$pair@$$CBV?$basic_string@DU?$char_traits@D@std@@V?$allocator@D@2@@std@@K@std@@@2@$0A@@std@@@std@@IAE@ABU?$less@V?$basic_string@DU?$char_traits@D@std@@V?$allocator@D@2@@std@@@1@V?$allocator@U?$pair@$$CBV?$basic_string@DU?$char_traits@D@std@@V?$allocator@D@2@@std@@K@std@@@1@@Z 04005c90 f i MQ2NetBots.obj
 0001:00004cc0       ??0?$_Tree_nod@V?$_Tmap_traits@V?$basic_string@DU?$char_traits@D@std@@V?$allocator@D@2@@std@@VBotInfo@@U?$less@V?$basic_string@DU?$char_traits@D@std@@V?$allocator@D@2@@std@@@2@V?$allocator@U?$pair@$$CBV?$basic_string@DU?$char_traits@D@std@@V?$allocator@D@2@@std@@VBotInfo@@@std@@@2@$0A@@std@@@std@@IAE@ABU?$less@V?$basic_string@DU?$char_traits@D@std@@V?$allocator@D@2@@std@@@1@V?$allocator@U?$pair@$$CBV?$basic_string@DU?$char_traits@D@std@@V?$allocator@D@2@@std@@VBotInfo@@@std@@@1@@Z 04005cc0 f i MQ2NetBots.obj
 0001:00004cf0       ??_G_Node@?$_Tree_nod@V?$_Tmap_traits@V?$basic_string@DU?$char_traits@D@std@@V?$allocator@D@2@@std@@KU?$less@V?$basic_string@DU?$char_traits@D@std@@V?$allocator@D@2@@std@@@2@V?$allocator@U?$pair@$$CBV?$basic_string@DU?$char_traits@D@std@@V?$allocator@D@2@@std@@K@std@@@2@$0A@@std@@@std@@QAEPAXI@Z 04005cf0 f i MQ2NetBots.obj
 0001:00004d30       ??1_Node@?$_Tree_nod@V?$_Tmap_traits@V?$basic_string@DU?$char_traits@D@std@@V?$allocator@D@2@@std@@VBotInfo@@U?$less@V?$basic_string@DU?$char_traits@D@std@@V?$allocator@D@2@@std@@@2@V?$allocator@U?$pair@$$CBV?$basic_string@DU?$char_traits@D@std@@V?$allocator@D@2@@std@@VBotInfo@@@std@@@2@$0A@@std@@@std@@QAE@XZ 04005d30 f i MQ2NetBots.obj
 0001:00004d60       ?Cleanup@Blech@@AAEXXZ     04005d60 f i MQ2NetBots.obj
 0001:00004e60       ??0?$basic_string@DU?$char_traits@D@std@@V?$allocator@D@2@@std@@QAE@ABV01@@Z 04005e60 f i MQ2NetBots.obj
 0001:00004e90       ?find@?$_Tree@V?$_Tmap_traits@V?$basic_string@DU?$char_traits@D@std@@V?$allocator@D@2@@std@@VBotInfo@@U?$less@V?$basic_string@DU?$char_traits@D@std@@V?$allocator@D@2@@std@@@2@V?$allocator@U?$pair@$$CBV?$basic_string@DU?$char_traits@D@std@@V?$allocator@D@2@@std@@VBotInfo@@@std@@@2@$0A@@std@@@std@@QAE?AViterator@12@ABV?$basic_string@DU?$char_traits@D@std@@V?$allocator@D@2@@2@@Z 04005e90 f i MQ2NetBots.obj
 0001:00004f20       ??0?$pair@$$CBV?$basic_string@DU?$char_traits@D@std@@V?$allocator@D@2@@std@@VBotInfo@@@std@@QAE@ABV?$basic_string@DU?$char_traits@D@std@@V?$allocator@D@2@@1@ABVBotInfo@@@Z 04005f20 f i MQ2NetBots.obj
 0001:00004f60       ??1?$_Tree_val@V?$_Tmap_traits@IPAU_BLECHEVENT@@U?$less@I@std@@V?$allocator@U?$pair@$$CBIPAU_BLECHEVENT@@@std@@@3@$0A@@std@@@std@@QAE@XZ 04005f60 f i MQ2NetBots.obj
 0001:00004f70       ??1?$_Tree_val@V?$_Tmap_traits@V?$basic_string@DU?$char_traits@D@std@@V?$allocator@D@2@@std@@KU?$less@V?$basic_string@DU?$char_traits@D@std@@V?$allocator@D@2@@std@@@2@V?$allocator@U?$pair@$$CBV?$basic_string@DU?$char_traits@D@std@@V?$allocator@D@2@@std@@K@std@@@2@$0A@@std@@@std@@QAE@XZ 04005f70 f i MQ2NetBots.obj
 0001:00004f80       ??1?$_Tree_val@V?$_Tmap_traits@V?$basic_string@DU?$char_traits@D@std@@V?$allocator@D@2@@std@@VBotInfo@@U?$less@V?$basic_string@DU?$char_traits@D@std@@V?$allocator@D@2@@std@@@2@V?$allocator@U?$pair@$$CBV?$basic_string@DU?$char_traits@D@std@@V?$allocator@D@2@@std@@VBotInfo@@@std@@@2@$0A@@std@@@std@@QAE@XZ 04005f80 f i MQ2NetBots.obj
 0001:00004f90       ?assign@?$basic_string@DU?$char_traits@D@std@@V?$allocator@D@2@@std@@QAEAAV12@PBD@Z 04005f90 f i MQ2NetBots.obj
 0001:00004fc0       ??0?$pair@$$CBV?$basic_string@DU?$char_traits@D@std@@V?$allocator@D@2@@std@@K@std@@QAE@ABV?$basic_string@DU?$char_traits@D@std@@V?$allocator@D@2@@1@ABK@Z 04005fc0 f i MQ2NetBots.obj
 0001:00004ff0       ??0?$_Tree_ptr@V?$_Tmap_traits@IPAU_BLECHEVENT@@U?$less@I@std@@V?$allocator@U?$pair@$$CBIPAU_BLECHEVENT@@@std@@@3@$0A@@std@@@std@@IAE@ABU?$less@I@1@V?$allocator@U?$pair@$$CBIPAU_BLECHEVENT@@@std@@@1@@Z 04005ff0 f i MQ2NetBots.obj
 0001:00005020       ??0?$_Tree_ptr@V?$_Tmap_traits@V?$basic_string@DU?$char_traits@D@std@@V?$allocator@D@2@@std@@KU?$less@V?$basic_string@DU?$char_traits@D@std@@V?$allocator@D@2@@std@@@2@V?$allocator@U?$pair@$$CBV?$basic_string@DU?$char_traits@D@std@@V?$allocator@D@2@@std@@K@std@@@2@$0A@@std@@@std@@IAE@ABU?$less@V?$basic_string@DU?$char_traits@D@std@@V?$allocator@D@2@@std@@@1@V?$allocator@U?$pair@$$CBV?$basic_string@DU?$char_traits@D@std@@V?$allocator@D@2@@std@@K@std@@@1@@Z 04006020 f i MQ2NetBots.obj
 0001:00005050       ??0?$_Tree_ptr@V?$_Tmap_traits@V?$basic_string@DU?$char_traits@D@std@@V?$allocator@D@2@@std@@VBotInfo@@U?$less@V?$basic_string@DU?$char_traits@D@std@@V?$allocator@D@2@@std@@@2@V?$allocator@U?$pair@$$CBV?$basic_string@DU?$char_traits@D@std@@V?$allocator@D@2@@std@@VBotInfo@@@std@@@2@$0A@@std@@@std@@IAE@ABU?$less@V?$basic_string@DU?$char_traits@D@std@@V?$allocator@D@2@@std@@@1@V?$allocator@U?$pair@$$CBV?$basic_string@DU?$char_traits@D@std@@V?$allocator@D@2@@std@@VBotInfo@@@std@@@1@@Z 04006050 f i MQ2NetBots.obj
 0001:00005080       ??0?$pair@$$CBV?$basic_string@DU?$char_traits@D@std@@V?$allocator@D@2@@std@@VBotInfo@@@std@@QAE@ABU01@@Z 04006080 f i MQ2NetBots.obj
 0001:000050c0       ??0?$pair@$$CBV?$basic_string@DU?$char_traits@D@std@@V?$allocator@D@2@@std@@K@std@@QAE@ABU01@@Z 040060c0 f i MQ2NetBots.obj
 0001:000050f0       ??$_Destroy@U_Node@?$_Tree_nod@V?$_Tmap_traits@V?$basic_string@DU?$char_traits@D@std@@V?$allocator@D@2@@std@@KU?$less@V?$basic_string@DU?$char_traits@D@std@@V?$allocator@D@2@@std@@@2@V?$allocator@U?$pair@$$CBV?$basic_string@DU?$char_traits@D@std@@V?$allocator@D@2@@std@@K@std@@@2@$0A@@std@@@std@@@std@@YAXPAU_Node@?$_Tree_nod@V?$_Tmap_traits@V?$basic_string@DU?$char_traits@D@std@@V?$allocator@D@2@@std@@KU?$less@V?$basic_string@DU?$char_traits@D@std@@V?$allocator@D@2@@std@@@2@V?$allocator@U?$pair@$$CBV?$basic_string@DU?$char_traits@D@std@@V?$allocator@D@2@@std@@K@std@@@2@$0A@@std@@@0@@Z 040060f0 f i MQ2NetBots.obj
 0001:00005120       ??_G_Node@?$_Tree_nod@V?$_Tmap_traits@V?$basic_string@DU?$char_traits@D@std@@V?$allocator@D@2@@std@@VBotInfo@@U?$less@V?$basic_string@DU?$char_traits@D@std@@V?$allocator@D@2@@std@@@2@V?$allocator@U?$pair@$$CBV?$basic_string@DU?$char_traits@D@std@@V?$allocator@D@2@@std@@VBotInfo@@@std@@@2@$0A@@std@@@std@@QAEPAXI@Z 04006120 f i MQ2NetBots.obj
 0001:00005160       ??0logic_error@std@@QAE@ABV?$basic_string@DU?$char_traits@D@std@@V?$allocator@D@2@@1@@Z 04006160 f i MQ2NetBots.obj
 0001:000051c0       ??0length_error@std@@QAE@ABV?$basic_string@DU?$char_traits@D@std@@V?$allocator@D@2@@1@@Z 040061c0 f i MQ2NetBots.obj
 0001:000051e0       ??1length_error@std@@UAE@XZ 040061e0 f i MQ2NetBots.obj
 0001:00005220       ??_Elength_error@std@@UAEPAXI@Z 04006220 f i MQ2NetBots.obj
 0001:00005220       ??_Glength_error@std@@UAEPAXI@Z 04006220 f i MQ2NetBots.obj
 0001:00005270       ??0out_of_range@std@@QAE@ABV?$basic_string@DU?$char_traits@D@std@@V?$allocator@D@2@@1@@Z 04006270 f i MQ2NetBots.obj
 0001:00005290       ??1out_of_range@std@@UAE@XZ 04006290 f i MQ2NetBots.obj
 0001:000052d0       ??_Eout_of_range@std@@UAEPAXI@Z 040062d0 f i MQ2NetBots.obj
 0001:000052d0       ??_Gout_of_range@std@@UAEPAXI@Z 040062d0 f i MQ2NetBots.obj
 0001:00005320       ?Reset@Blech@@QAEXXZ       04006320 f i MQ2NetBots.obj
 0001:00005390       ??0?$basic_string@DU?$char_traits@D@std@@V?$allocator@D@2@@std@@QAE@PBD@Z 04006390 f i MQ2NetBots.obj
 0001:000053d0       ?erase@?$_Tree@V?$_Tmap_traits@IPAU_BLECHEVENT@@U?$less@I@std@@V?$allocator@U?$pair@$$CBIPAU_BLECHEVENT@@@std@@@3@$0A@@std@@@std@@QAE?AViterator@12@Vconst_iterator@12@@Z 040063d0 f i MQ2NetBots.obj
 0001:00005690       ??0logic_error@std@@QAE@ABV01@@Z 04006690 f i MQ2NetBots.obj
 0001:00005700       ?_Insert@?$_Tree@V?$_Tmap_traits@IPAU_BLECHEVENT@@U?$less@I@std@@V?$allocator@U?$pair@$$CBIPAU_BLECHEVENT@@@std@@@3@$0A@@std@@@std@@IAE?AViterator@12@_NPAU_Node@?$_Tree_nod@V?$_Tmap_traits@IPAU_BLECHEVENT@@U?$less@I@std@@V?$allocator@U?$pair@$$CBIPAU_BLECHEVENT@@@std@@@3@$0A@@std@@@2@ABU?$pair@$$CBIPAU_BLECHEVENT@@@2@@Z 04006700 f i MQ2NetBots.obj
 0001:000058f0       ??0length_error@std@@QAE@ABV01@@Z 040068f0 f i MQ2NetBots.obj
 0001:00005910       ??0?$_Tree_val@V?$_Tmap_traits@IPAU_BLECHEVENT@@U?$less@I@std@@V?$allocator@U?$pair@$$CBIPAU_BLECHEVENT@@@std@@@3@$0A@@std@@@std@@IAE@ABU?$less@I@1@V?$allocator@U?$pair@$$CBIPAU_BLECHEVENT@@@std@@@1@@Z 04006910 f i MQ2NetBots.obj
 0001:00005940       ??0?$_Tree_val@V?$_Tmap_traits@V?$basic_string@DU?$char_traits@D@std@@V?$allocator@D@2@@std@@KU?$less@V?$basic_string@DU?$char_traits@D@std@@V?$allocator@D@2@@std@@@2@V?$allocator@U?$pair@$$CBV?$basic_string@DU?$char_traits@D@std@@V?$allocator@D@2@@std@@K@std@@@2@$0A@@std@@@std@@IAE@ABU?$less@V?$basic_string@DU?$char_traits@D@std@@V?$allocator@D@2@@std@@@1@V?$allocator@U?$pair@$$CBV?$basic_string@DU?$char_traits@D@std@@V?$allocator@D@2@@std@@K@std@@@1@@Z 04006940 f i MQ2NetBots.obj
 0001:00005970       ??0?$_Tree_val@V?$_Tmap_traits@V?$basic_string@DU?$char_traits@D@std@@V?$allocator@D@2@@std@@VBotInfo@@U?$less@V?$basic_string@DU?$char_traits@D@std@@V?$allocator@D@2@@std@@@2@V?$allocator@U?$pair@$$CBV?$basic_string@DU?$char_traits@D@std@@V?$allocator@D@2@@std@@VBotInfo@@@std@@@2@$0A@@std@@@std@@IAE@ABU?$less@V?$basic_string@DU?$char_traits@D@std@@V?$allocator@D@2@@std@@@1@V?$allocator@U?$pair@$$CBV?$basic_string@DU?$char_traits@D@std@@V?$allocator@D@2@@std@@VBotInfo@@@std@@@1@@Z 04006970 f i MQ2NetBots.obj
 0001:000059a0       ??0_Node@?$_Tree_nod@V?$_Tmap_traits@V?$basic_string@DU?$char_traits@D@std@@V?$allocator@D@2@@std@@VBotInfo@@U?$less@V?$basic_string@DU?$char_traits@D@std@@V?$allocator@D@2@@std@@@2@V?$allocator@U?$pair@$$CBV?$basic_string@DU?$char_traits@D@std@@V?$allocator@D@2@@std@@VBotInfo@@@std@@@2@$0A@@std@@@std@@QAE@PAU012@00ABU?$pair@$$CBV?$basic_string@DU?$char_traits@D@std@@V?$allocator@D@2@@std@@VBotInfo@@@2@D@Z 040069a0 f i MQ2NetBots.obj
 0001:00005a10       ?destroy@?$allocator@U_Node@?$_Tree_nod@V?$_Tmap_traits@V?$basic_string@DU?$char_traits@D@std@@V?$allocator@D@2@@std@@KU?$less@V?$basic_string@DU?$char_traits@D@std@@V?$allocator@D@2@@std@@@2@V?$allocator@U?$pair@$$CBV?$basic_string@DU?$char_traits@D@std@@V?$allocator@D@2@@std@@K@std@@@2@$0A@@std@@@std@@@std@@QAEXPAU_Node@?$_Tree_nod@V?$_Tmap_traits@V?$basic_string@DU?$char_traits@D@std@@V?$allocator@D@2@@std@@KU?$less@V?$basic_string@DU?$char_traits@D@std@@V?$allocator@D@2@@std@@@2@V?$allocator@U?$pair@$$CBV?$basic_string@DU?$char_traits@D@std@@V?$allocator@D@2@@std@@K@std@@@2@$0A@@std@@@2@@Z 04006a10 f i MQ2NetBots.obj
 0001:00005a40       ??0_Node@?$_Tree_nod@V?$_Tmap_traits@V?$basic_string@DU?$char_traits@D@std@@V?$allocator@D@2@@std@@KU?$less@V?$basic_string@DU?$char_traits@D@std@@V?$allocator@D@2@@std@@@2@V?$allocator@U?$pair@$$CBV?$basic_string@DU?$char_traits@D@std@@V?$allocator@D@2@@std@@K@std@@@2@$0A@@std@@@std@@QAE@PAU012@00ABU?$pair@$$CBV?$basic_string@DU?$char_traits@D@std@@V?$allocator@D@2@@std@@K@2@D@Z 04006a40 f i MQ2NetBots.obj
 0001:00005aa0       ??$_Destroy@U_Node@?$_Tree_nod@V?$_Tmap_traits@V?$basic_string@DU?$char_traits@D@std@@V?$allocator@D@2@@std@@VBotInfo@@U?$less@V?$basic_string@DU?$char_traits@D@std@@V?$allocator@D@2@@std@@@2@V?$allocator@U?$pair@$$CBV?$basic_string@DU?$char_traits@D@std@@V?$allocator@D@2@@std@@VBotInfo@@@std@@@2@$0A@@std@@@std@@@std@@YAXPAU_Node@?$_Tree_nod@V?$_Tmap_traits@V?$basic_string@DU?$char_traits@D@std@@V?$allocator@D@2@@std@@VBotInfo@@U?$less@V?$basic_string@DU?$char_traits@D@std@@V?$allocator@D@2@@std@@@2@V?$allocator@U?$pair@$$CBV?$basic_string@DU?$char_traits@D@std@@V?$allocator@D@2@@std@@VBotInfo@@@std@@@2@$0A@@std@@@0@@Z 04006aa0 f i MQ2NetBots.obj
 0001:00005ad0       ??0out_of_range@std@@QAE@ABV01@@Z 04006ad0 f i MQ2NetBots.obj
 0001:00005af0       ?BotFind@@YAPAVBotInfo@@PAD@Z 04006af0 f   MQ2NetBots.obj
 0001:00005be0       ?Search@MQ2NetBotsType@@QAEXPAD@Z 04006be0 f i MQ2NetBots.obj
 0001:00005c40       ?dataNetBots@@YAHPADAAU_MQ2TypeVar@MQ2Internal@@@Z 04006c40 f   MQ2NetBots.obj
 0001:00005c70       ??0?$_Tree@V?$_Tmap_traits@IPAU_BLECHEVENT@@U?$less@I@std@@V?$allocator@U?$pair@$$CBIPAU_BLECHEVENT@@@std@@@3@$0A@@std@@@std@@QAE@ABU?$less@I@1@ABV?$allocator@U?$pair@$$CBIPAU_BLECHEVENT@@@std@@@1@@Z 04006c70 f i MQ2NetBots.obj
 0001:00005cf0       ?erase@?$_Tree@V?$_Tmap_traits@IPAU_BLECHEVENT@@U?$less@I@std@@V?$allocator@U?$pair@$$CBIPAU_BLECHEVENT@@@std@@@3@$0A@@std@@@std@@QAE?AViterator@12@Vconst_iterator@12@0@Z 04006cf0 f i MQ2NetBots.obj
 0001:00005dd0       ?_Tidy@?$_Tree@V?$_Tmap_traits@IPAU_BLECHEVENT@@U?$less@I@std@@V?$allocator@U?$pair@$$CBIPAU_BLECHEVENT@@@std@@@3@$0A@@std@@@std@@IAEXXZ 04006dd0 f i MQ2NetBots.obj
 0001:00005e10       ??0?$_Tree@V?$_Tmap_traits@V?$basic_string@DU?$char_traits@D@std@@V?$allocator@D@2@@std@@KU?$less@V?$basic_string@DU?$char_traits@D@std@@V?$allocator@D@2@@std@@@2@V?$allocator@U?$pair@$$CBV?$basic_string@DU?$char_traits@D@std@@V?$allocator@D@2@@std@@K@std@@@2@$0A@@std@@@std@@QAE@ABU?$less@V?$basic_string@DU?$char_traits@D@std@@V?$allocator@D@2@@std@@@1@ABV?$allocator@U?$pair@$$CBV?$basic_string@DU?$char_traits@D@std@@V?$allocator@D@2@@std@@K@std@@@1@@Z 04006e10 f i MQ2NetBots.obj
 0001:00005e90       ??0?$_Tree@V?$_Tmap_traits@V?$basic_string@DU?$char_traits@D@std@@V?$allocator@D@2@@std@@VBotInfo@@U?$less@V?$basic_string@DU?$char_traits@D@std@@V?$allocator@D@2@@std@@@2@V?$allocator@U?$pair@$$CBV?$basic_string@DU?$char_traits@D@std@@V?$allocator@D@2@@std@@VBotInfo@@@std@@@2@$0A@@std@@@std@@QAE@ABU?$less@V?$basic_string@DU?$char_traits@D@std@@V?$allocator@D@2@@std@@@1@ABV?$allocator@U?$pair@$$CBV?$basic_string@DU?$char_traits@D@std@@V?$allocator@D@2@@std@@VBotInfo@@@std@@@1@@Z 04006e90 f i MQ2NetBots.obj
 0001:00005f10       ?destroy@?$allocator@U_Node@?$_Tree_nod@V?$_Tmap_traits@V?$basic_string@DU?$char_traits@D@std@@V?$allocator@D@2@@std@@VBotInfo@@U?$less@V?$basic_string@DU?$char_traits@D@std@@V?$allocator@D@2@@std@@@2@V?$allocator@U?$pair@$$CBV?$basic_string@DU?$char_traits@D@std@@V?$allocator@D@2@@std@@VBotInfo@@@std@@@2@$0A@@std@@@std@@@std@@QAEXPAU_Node@?$_Tree_nod@V?$_Tmap_traits@V?$basic_string@DU?$char_traits@D@std@@V?$allocator@D@2@@std@@VBotInfo@@U?$less@V?$basic_string@DU?$char_traits@D@std@@V?$allocator@D@2@@std@@@2@V?$allocator@U?$pair@$$CBV?$basic_string@DU?$char_traits@D@std@@V?$allocator@D@2@@std@@VBotInfo@@@std@@@2@$0A@@std@@@2@@Z 04006f10 f i MQ2NetBots.obj
 0001:00005f40       ?insert@?$_Tree@V?$_Tmap_traits@IPAU_BLECHEVENT@@U?$less@I@std@@V?$allocator@U?$pair@$$CBIPAU_BLECHEVENT@@@std@@@3@$0A@@std@@@std@@QAE?AU?$pair@Viterator@?$_Tree@V?$_Tmap_traits@IPAU_BLECHEVENT@@U?$less@I@std@@V?$allocator@U?$pair@$$CBIPAU_BLECHEVENT@@@std@@@3@$0A@@std@@@std@@_N@2@ABU?$pair@$$CBIPAU_BLECHEVENT@@@2@@Z 04006f40 f i MQ2NetBots.obj
 0001:00006030       ?_Buynode@?$_Tree@V?$_Tmap_traits@V?$basic_string@DU?$char_traits@D@std@@V?$allocator@D@2@@std@@VBotInfo@@U?$less@V?$basic_string@DU?$char_traits@D@std@@V?$allocator@D@2@@std@@@2@V?$allocator@U?$pair@$$CBV?$basic_string@DU?$char_traits@D@std@@V?$allocator@D@2@@std@@VBotInfo@@@std@@@2@$0A@@std@@@std@@IAEPAU_Node@?$_Tree_nod@V?$_Tmap_traits@V?$basic_string@DU?$char_traits@D@std@@V?$allocator@D@2@@std@@VBotInfo@@U?$less@V?$basic_string@DU?$char_traits@D@std@@V?$allocator@D@2@@std@@@2@V?$allocator@U?$pair@$$CBV?$basic_string@DU?$char_traits@D@std@@V?$allocator@D@2@@std@@VBotInfo@@@std@@@2@$0A@@std@@@2@PAU342@00ABU?$pair@$$CBV?$basic_string@DU?$char_traits@D@std@@V?$allocator@D@2@@std@@VBotInfo@@@2@D@Z 04007030 f i MQ2NetBots.obj
 0001:000060c0       ?erase@?$_Tree@V?$_Tmap_traits@V?$basic_string@DU?$char_traits@D@std@@V?$allocator@D@2@@std@@KU?$less@V?$basic_string@DU?$char_traits@D@std@@V?$allocator@D@2@@std@@@2@V?$allocator@U?$pair@$$CBV?$basic_string@DU?$char_traits@D@std@@V?$allocator@D@2@@std@@K@std@@@2@$0A@@std@@@std@@QAE?AViterator@12@Vconst_iterator@12@@Z 040070c0 f i MQ2NetBots.obj
 0001:000063a0       ?_Buynode@?$_Tree@V?$_Tmap_traits@V?$basic_string@DU?$char_traits@D@std@@V?$allocator@D@2@@std@@KU?$less@V?$basic_string@DU?$char_traits@D@std@@V?$allocator@D@2@@std@@@2@V?$allocator@U?$pair@$$CBV?$basic_string@DU?$char_traits@D@std@@V?$allocator@D@2@@std@@K@std@@@2@$0A@@std@@@std@@IAEPAU_Node@?$_Tree_nod@V?$_Tmap_traits@V?$basic_string@DU?$char_traits@D@std@@V?$allocator@D@2@@std@@KU?$less@V?$basic_string@DU?$char_traits@D@std@@V?$allocator@D@2@@std@@@2@V?$allocator@U?$pair@$$CBV?$basic_string@DU?$char_traits@D@std@@V?$allocator@D@2@@std@@K@std@@@2@$0A@@std@@@2@PAU342@00ABU?$pair@$$CBV?$basic_string@DU?$char_traits@D@std@@V?$allocator@D@2@@std@@K@2@D@Z 040073a0 f i MQ2NetBots.obj
 0001:00006430       ?_Erase@?$_Tree@V?$_Tmap_traits@V?$basic_string@DU?$char_traits@D@std@@V?$allocator@D@2@@std@@KU?$less@V?$basic_string@DU?$char_traits@D@std@@V?$allocator@D@2@@std@@@2@V?$allocator@U?$pair@$$CBV?$basic_string@DU?$char_traits@D@std@@V?$allocator@D@2@@std@@K@std@@@2@$0A@@std@@@std@@IAEXPAU_Node@?$_Tree_nod@V?$_Tmap_traits@V?$basic_string@DU?$char_traits@D@std@@V?$allocator@D@2@@std@@KU?$less@V?$basic_string@DU?$char_traits@D@std@@V?$allocator@D@2@@std@@@2@V?$allocator@U?$pair@$$CBV?$basic_string@DU?$char_traits@D@std@@V?$allocator@D@2@@std@@K@std@@@2@$0A@@std@@@2@@Z 04007430 f i MQ2NetBots.obj
 0001:00006490       ??1?$_Tree@V?$_Tmap_traits@IPAU_BLECHEVENT@@U?$less@I@std@@V?$allocator@U?$pair@$$CBIPAU_BLECHEVENT@@@std@@@3@$0A@@std@@@std@@QAE@XZ 04007490 f i MQ2NetBots.obj
 0001:00006500       ?erase@?$_Tree@V?$_Tmap_traits@V?$basic_string@DU?$char_traits@D@std@@V?$allocator@D@2@@std@@VBotInfo@@U?$less@V?$basic_string@DU?$char_traits@D@std@@V?$allocator@D@2@@std@@@2@V?$allocator@U?$pair@$$CBV?$basic_string@DU?$char_traits@D@std@@V?$allocator@D@2@@std@@VBotInfo@@@std@@@2@$0A@@std@@@std@@QAE?AViterator@12@Vconst_iterator@12@@Z 04007500 f i MQ2NetBots.obj
 0001:00006870       ?insert@?$_Tree@V?$_Tmap_traits@IPAU_BLECHEVENT@@U?$less@I@std@@V?$allocator@U?$pair@$$CBIPAU_BLECHEVENT@@@std@@@3@$0A@@std@@@std@@QAE?AViterator@12@Vconst_iterator@12@ABU?$pair@$$CBIPAU_BLECHEVENT@@@2@@Z 04007870 f i MQ2NetBots.obj
 0001:00006a40       ?_Erase@?$_Tree@V?$_Tmap_traits@V?$basic_string@DU?$char_traits@D@std@@V?$allocator@D@2@@std@@VBotInfo@@U?$less@V?$basic_string@DU?$char_traits@D@std@@V?$allocator@D@2@@std@@@2@V?$allocator@U?$pair@$$CBV?$basic_string@DU?$char_traits@D@std@@V?$allocator@D@2@@std@@VBotInfo@@@std@@@2@$0A@@std@@@std@@IAEXPAU_Node@?$_Tree_nod@V?$_Tmap_traits@V?$basic_string@DU?$char_traits@D@std@@V?$allocator@D@2@@std@@VBotInfo@@U?$less@V?$basic_string@DU?$char_traits@D@std@@V?$allocator@D@2@@std@@@2@V?$allocator@U?$pair@$$CBV?$basic_string@DU?$char_traits@D@std@@V?$allocator@D@2@@std@@VBotInfo@@@std@@@2@$0A@@std@@@2@@Z 04007a40 f i MQ2NetBots.obj
 0001:00006aa0       ?_Insert@?$_Tree@V?$_Tmap_traits@V?$basic_string@DU?$char_traits@D@std@@V?$allocator@D@2@@std@@VBotInfo@@U?$less@V?$basic_string@DU?$char_traits@D@std@@V?$allocator@D@2@@std@@@2@V?$allocator@U?$pair@$$CBV?$basic_string@DU?$char_traits@D@std@@V?$allocator@D@2@@std@@VBotInfo@@@std@@@2@$0A@@std@@@std@@IAE?AViterator@12@_NPAU_Node@?$_Tree_nod@V?$_Tmap_traits@V?$basic_string@DU?$char_traits@D@std@@V?$allocator@D@2@@std@@VBotInfo@@U?$less@V?$basic_string@DU?$char_traits@D@std@@V?$allocator@D@2@@std@@@2@V?$allocator@U?$pair@$$CBV?$basic_string@DU?$char_traits@D@std@@V?$allocator@D@2@@std@@VBotInfo@@@std@@@2@$0A@@std@@@2@ABU?$pair@$$CBV?$basic_string@DU?$char_traits@D@std@@V?$allocator@D@2@@std@@VBotInfo@@@2@@Z 04007aa0 f i MQ2NetBots.obj
 0001:00006ca0       ?_Insert@?$_Tree@V?$_Tmap_traits@V?$basic_string@DU?$char_traits@D@std@@V?$allocator@D@2@@std@@KU?$less@V?$basic_string@DU?$char_traits@D@std@@V?$allocator@D@2@@std@@@2@V?$allocator@U?$pair@$$CBV?$basic_string@DU?$char_traits@D@std@@V?$allocator@D@2@@std@@K@std@@@2@$0A@@std@@@std@@IAE?AViterator@12@_NPAU_Node@?$_Tree_nod@V?$_Tmap_traits@V?$basic_string@DU?$char_traits@D@std@@V?$allocator@D@2@@std@@KU?$less@V?$basic_string@DU?$char_traits@D@std@@V?$allocator@D@2@@std@@@2@V?$allocator@U?$pair@$$CBV?$basic_string@DU?$char_traits@D@std@@V?$allocator@D@2@@std@@K@std@@@2@$0A@@std@@@2@ABU?$pair@$$CBV?$basic_string@DU?$char_traits@D@std@@V?$allocator@D@2@@std@@K@2@@Z 04007ca0 f i MQ2NetBots.obj
 0001:00006e90       ?clear@?$_Tree@V?$_Tmap_traits@V?$basic_string@DU?$char_traits@D@std@@V?$allocator@D@2@@std@@KU?$less@V?$basic_string@DU?$char_traits@D@std@@V?$allocator@D@2@@std@@@2@V?$allocator@U?$pair@$$CBV?$basic_string@DU?$char_traits@D@std@@V?$allocator@D@2@@std@@K@std@@@2@$0A@@std@@@std@@QAEXXZ 04007e90 f i MQ2NetBots.obj
 0001:00006ec0       ??1?$map@IPAU_BLECHEVENT@@U?$less@I@std@@V?$allocator@U?$pair@$$CBIPAU_BLECHEVENT@@@std@@@3@@std@@QAE@XZ 04007ec0 f i MQ2NetBots.obj
 0001:00006ed0       ?BotQuit@@YAXPAD@Z         04007ed0 f   MQ2NetBots.obj
 0001:00006fa0       ??0?$map@IPAU_BLECHEVENT@@U?$less@I@std@@V?$allocator@U?$pair@$$CBIPAU_BLECHEVENT@@@std@@@3@@std@@QAE@XZ 04007fa0 f i MQ2NetBots.obj
 0001:00006fc0       ??A?$map@IPAU_BLECHEVENT@@U?$less@I@std@@V?$allocator@U?$pair@$$CBIPAU_BLECHEVENT@@@std@@@3@@std@@QAEAAPAU_BLECHEVENT@@ABI@Z 04007fc0 f i MQ2NetBots.obj
 0001:00007070       ?insert@?$_Tree@V?$_Tmap_traits@V?$basic_string@DU?$char_traits@D@std@@V?$allocator@D@2@@std@@VBotInfo@@U?$less@V?$basic_string@DU?$char_traits@D@std@@V?$allocator@D@2@@std@@@2@V?$allocator@U?$pair@$$CBV?$basic_string@DU?$char_traits@D@std@@V?$allocator@D@2@@std@@VBotInfo@@@std@@@2@$0A@@std@@@std@@QAE?AU?$pair@Viterator@?$_Tree@V?$_Tmap_traits@V?$basic_string@DU?$char_traits@D@std@@V?$allocator@D@2@@std@@VBotInfo@@U?$less@V?$basic_string@DU?$char_traits@D@std@@V?$allocator@D@2@@std@@@2@V?$allocator@U?$pair@$$CBV?$basic_string@DU?$char_traits@D@std@@V?$allocator@D@2@@std@@VBotInfo@@@std@@@2@$0A@@std@@@std@@_N@2@ABU?$pair@$$CBV?$basic_string@DU?$char_traits@D@std@@V?$allocator@D@2@@std@@VBotInfo@@@2@@Z 04008070 f i MQ2NetBots.obj
 0001:000071d0       ?clear@?$_Tree@V?$_Tmap_traits@V?$basic_string@DU?$char_traits@D@std@@V?$allocator@D@2@@std@@VBotInfo@@U?$less@V?$basic_string@DU?$char_traits@D@std@@V?$allocator@D@2@@std@@@2@V?$allocator@U?$pair@$$CBV?$basic_string@DU?$char_traits@D@std@@V?$allocator@D@2@@std@@VBotInfo@@@std@@@2@$0A@@std@@@std@@QAEXXZ 040081d0 f i MQ2NetBots.obj
 0001:00007200       ?insert@?$_Tree@V?$_Tmap_traits@V?$basic_string@DU?$char_traits@D@std@@V?$allocator@D@2@@std@@KU?$less@V?$basic_string@DU?$char_traits@D@std@@V?$allocator@D@2@@std@@@2@V?$allocator@U?$pair@$$CBV?$basic_string@DU?$char_traits@D@std@@V?$allocator@D@2@@std@@K@std@@@2@$0A@@std@@@std@@QAE?AU?$pair@Viterator@?$_Tree@V?$_Tmap_traits@V?$basic_string@DU?$char_traits@D@std@@V?$allocator@D@2@@std@@KU?$less@V?$basic_string@DU?$char_traits@D@std@@V?$allocator@D@2@@std@@@2@V?$allocator@U?$pair@$$CBV?$basic_string@DU?$char_traits@D@std@@V?$allocator@D@2@@std@@K@std@@@2@$0A@@std@@@std@@_N@2@ABU?$pair@$$CBV?$basic_string@DU?$char_traits@D@std@@V?$allocator@D@2@@std@@K@2@@Z 04008200 f i MQ2NetBots.obj
 0001:00007360       ?erase@?$_Tree@V?$_Tmap_traits@V?$basic_string@DU?$char_traits@D@std@@V?$allocator@D@2@@std@@KU?$less@V?$basic_string@DU?$char_traits@D@std@@V?$allocator@D@2@@std@@@2@V?$allocator@U?$pair@$$CBV?$basic_string@DU?$char_traits@D@std@@V?$allocator@D@2@@std@@K@std@@@2@$0A@@std@@@std@@QAE?AViterator@12@Vconst_iterator@12@0@Z 04008360 f i MQ2NetBots.obj
 0001:00007440       ?erase@?$_Tree@V?$_Tmap_traits@V?$basic_string@DU?$char_traits@D@std@@V?$allocator@D@2@@std@@VBotInfo@@U?$less@V?$basic_string@DU?$char_traits@D@std@@V?$allocator@D@2@@std@@@2@V?$allocator@U?$pair@$$CBV?$basic_string@DU?$char_traits@D@std@@V?$allocator@D@2@@std@@VBotInfo@@@std@@@2@$0A@@std@@@std@@QAE?AViterator@12@Vconst_iterator@12@0@Z 04008440 f i MQ2NetBots.obj
 0001:00007520       ??0Blech@@QAE@D@Z          04008520 f i MQ2NetBots.obj
 0001:00007590       ??1Blech@@QAE@XZ           04008590 f i MQ2NetBots.obj
 0001:000075e0       ?AddEvent@Blech@@QAEIPBDP6GXIPAXPAU_BLECHVALUE@@@Z1@Z 040085e0 f i MQ2NetBots.obj
 0001:00007740       ?BotLoad@@YAPAVBotInfo@@PAD@Z 04008740 f   MQ2NetBots.obj
 0001:00007990       ?BroadCast@@YAXXZ          04008990 f   MQ2NetBots.obj
 0001:00007d90       _OnNetBotEVENT             04008d90 f   MQ2NetBots.obj
 0001:00007e00       _OnNetBotMSG               04008e00 f   MQ2NetBots.obj
 0001:00007ed0       _OnPulse                   04008ed0 f   MQ2NetBots.obj
 0001:00007f40       ?insert@?$_Tree@V?$_Tmap_traits@V?$basic_string@DU?$char_traits@D@std@@V?$allocator@D@2@@std@@KU?$less@V?$basic_string@DU?$char_traits@D@std@@V?$allocator@D@2@@std@@@2@V?$allocator@U?$pair@$$CBV?$basic_string@DU?$char_traits@D@std@@V?$allocator@D@2@@std@@K@std@@@2@$0A@@std@@@std@@QAE?AViterator@12@Vconst_iterator@12@ABU?$pair@$$CBV?$basic_string@DU?$char_traits@D@std@@V?$allocator@D@2@@std@@K@2@@Z 04008f40 f i MQ2NetBots.obj
 0001:00008170       ?_Tidy@?$_Tree@V?$_Tmap_traits@V?$basic_string@DU?$char_traits@D@std@@V?$allocator@D@2@@std@@KU?$less@V?$basic_string@DU?$char_traits@D@std@@V?$allocator@D@2@@std@@@2@V?$allocator@U?$pair@$$CBV?$basic_string@DU?$char_traits@D@std@@V?$allocator@D@2@@std@@K@std@@@2@$0A@@std@@@std@@IAEXXZ 04009170 f i MQ2NetBots.obj
 0001:000081b0       ?_Tidy@?$_Tree@V?$_Tmap_traits@V?$basic_string@DU?$char_traits@D@std@@V?$allocator@D@2@@std@@VBotInfo@@U?$less@V?$basic_string@DU?$char_traits@D@std@@V?$allocator@D@2@@std@@@2@V?$allocator@U?$pair@$$CBV?$basic_string@DU?$char_traits@D@std@@V?$allocator@D@2@@std@@VBotInfo@@@std@@@2@$0A@@std@@@std@@IAEXXZ 040091b0 f i MQ2NetBots.obj
 0001:000081f0       ??A?$map@V?$basic_string@DU?$char_traits@D@std@@V?$allocator@D@2@@std@@KU?$less@V?$basic_string@DU?$char_traits@D@std@@V?$allocator@D@2@@std@@@2@V?$allocator@U?$pair@$$CBV?$basic_string@DU?$char_traits@D@std@@V?$allocator@D@2@@std@@K@std@@@2@@std@@QAEAAKABV?$basic_string@DU?$char_traits@D@std@@V?$allocator@D@2@@1@@Z 040091f0 f i MQ2NetBots.obj
 0001:00008310       ??1?$_Tree@V?$_Tmap_traits@V?$basic_string@DU?$char_traits@D@std@@V?$allocator@D@2@@std@@KU?$less@V?$basic_string@DU?$char_traits@D@std@@V?$allocator@D@2@@std@@@2@V?$allocator@U?$pair@$$CBV?$basic_string@DU?$char_traits@D@std@@V?$allocator@D@2@@std@@K@std@@@2@$0A@@std@@@std@@QAE@XZ 04009310 f i MQ2NetBots.obj
 0001:00008380       ??1?$_Tree@V?$_Tmap_traits@V?$basic_string@DU?$char_traits@D@std@@V?$allocator@D@2@@std@@VBotInfo@@U?$less@V?$basic_string@DU?$char_traits@D@std@@V?$allocator@D@2@@std@@@2@V?$allocator@U?$pair@$$CBV?$basic_string@DU?$char_traits@D@std@@V?$allocator@D@2@@std@@VBotInfo@@@std@@@2@$0A@@std@@@std@@QAE@XZ 04009380 f i MQ2NetBots.obj
 0001:000083f0       ?AddMember@MQ2Type@MQ2Internal@@IAEHKPAD@Z 040093f0 f i MQ2NetBots.obj
 0001:00008550       ??1?$map@V?$basic_string@DU?$char_traits@D@std@@V?$allocator@D@2@@std@@KU?$less@V?$basic_string@DU?$char_traits@D@std@@V?$allocator@D@2@@std@@@2@V?$allocator@U?$pair@$$CBV?$basic_string@DU?$char_traits@D@std@@V?$allocator@D@2@@std@@K@std@@@2@@std@@QAE@XZ 04009550 f i MQ2NetBots.obj
 0001:00008560       ??1?$map@V?$basic_string@DU?$char_traits@D@std@@V?$allocator@D@2@@std@@VBotInfo@@U?$less@V?$basic_string@DU?$char_traits@D@std@@V?$allocator@D@2@@std@@@2@V?$allocator@U?$pair@$$CBV?$basic_string@DU?$char_traits@D@std@@V?$allocator@D@2@@std@@VBotInfo@@@std@@@2@@std@@QAE@XZ 04009560 f i MQ2NetBots.obj
 0001:00008570       ??0?$map@V?$basic_string@DU?$char_traits@D@std@@V?$allocator@D@2@@std@@KU?$less@V?$basic_string@DU?$char_traits@D@std@@V?$allocator@D@2@@std@@@2@V?$allocator@U?$pair@$$CBV?$basic_string@DU?$char_traits@D@std@@V?$allocator@D@2@@std@@K@std@@@2@@std@@QAE@XZ 04009570 f i MQ2NetBots.obj
 0001:00008590       ??0?$map@V?$basic_string@DU?$char_traits@D@std@@V?$allocator@D@2@@std@@VBotInfo@@U?$less@V?$basic_string@DU?$char_traits@D@std@@V?$allocator@D@2@@std@@@2@V?$allocator@U?$pair@$$CBV?$basic_string@DU?$char_traits@D@std@@V?$allocator@D@2@@std@@VBotInfo@@@std@@@2@@std@@QAE@XZ 04009590 f i MQ2NetBots.obj
 0001:000085b0       ??0MQ2Type@MQ2Internal@@QAE@PAD@Z 040095b0 f i MQ2NetBots.obj
 0001:00008640       ?InitVariable@MQ2Type@MQ2Internal@@UAEXAAU_MQ2VarPtr@2@@Z 04009640 f i MQ2NetBots.obj
 0001:00008650       ?FreeVariable@MQ2Type@MQ2Internal@@UAEXAAU_MQ2VarPtr@2@@Z 04009650 f i MQ2NetBots.obj
 0001:00008660       ?ToString@MQ2Type@MQ2Internal@@UAE_NU_MQ2VarPtr@2@PAD@Z 04009660 f i MQ2NetBots.obj
 0001:00008680       ??1MQ2Type@MQ2Internal@@QAE@XZ 04009680 f i MQ2NetBots.obj
 0001:00008720       ??0MQ2NetBotsType@@QAE@XZ  04009720 f i MQ2NetBots.obj
 0001:00008ab0       ?ToString@MQ2NetBotsType@@UAE_NU_MQ2VarPtr@MQ2Internal@@PAD@Z 04009ab0 f i MQ2NetBots.obj
 0001:00008ad0       ?FromData@MQ2NetBotsType@@UAE_NAAU_MQ2VarPtr@MQ2Internal@@AAU_MQ2TypeVar@3@@Z 04009ad0 f i MQ2NetBots.obj
 0001:00008ae0       ?FromString@MQ2NetBotsType@@UAE_NAAU_MQ2VarPtr@MQ2Internal@@PAD@Z 04009ae0 f i MQ2NetBots.obj
 0001:00008af0       ?FindMember@MQ2Type@MQ2Internal@@QAEPAU_MQ2TypeMember@2@PAD@Z 04009af0 f i MQ2NetBots.obj
 0001:00008bb0       ?GetMember@MQ2NetBotsType@@UAE_NU_MQ2VarPtr@MQ2Internal@@PAD1AAU_MQ2TypeVar@3@@Z 04009bb0 f i MQ2NetBots.obj
 0001:00009c40       ??1MQ2NetBotsType@@QAE@XZ  0400ac40 f i MQ2NetBots.obj
 0001:00009c50       _InitializePlugin          0400ac50 f   MQ2NetBots.obj
 0001:00009ef0       ??_GMQ2NetBotsType@@QAEPAXI@Z 0400aef0 f i MQ2NetBots.obj
 0001:00009f20       _ShutdownPlugin            0400af20 f   MQ2NetBots.obj
 0001:00009f5e       _EnterCriticalSection@4    0400af5e f   kernel32:KERNEL32.dll
 0001:00009f64       _LeaveCriticalSection@4    0400af64 f   kernel32:KERNEL32.dll
 0001:00009f6a       _GetProcAddress@8          0400af6a f   kernel32:KERNEL32.dll
 0001:00009f70       _WritePrivateProfileStringA@16 0400af70 f   kernel32:KERNEL32.dll
 0001:00009f76       _GetPrivateProfileIntA@16  0400af76 f   kernel32:KERNEL32.dll
 0001:00009f7c       _InitializeCriticalSection@4 0400af7c f   kernel32:KERNEL32.dll
 0001:00009f82       _DeleteCriticalSection@4   0400af82 f   kernel32:KERNEL32.dll
 0001:00009f88       ??0invalid_argument@std@@QAE@ABV?$basic_string@DU?$char_traits@D@std@@V?$allocator@D@2@@1@@Z 0400af88 f i libcpmt:string.obj
 0001:00009fa5       ??1invalid_argument@std@@UAE@XZ 0400afa5 f i libcpmt:string.obj
 0001:00009fb0       ??_Ginvalid_argument@std@@UAEPAXI@Z 0400afb0 f i libcpmt:string.obj
 0001:00009fb0       ??_Einvalid_argument@std@@UAEPAXI@Z 0400afb0 f i libcpmt:string.obj
 0001:00009fd7       ?_Xlen@_String_base@std@@SAXXZ 0400afd7 f   libcpmt:string.obj
 0001:0000a00f       ?_Xran@_String_base@std@@SAXXZ 0400b00f f   libcpmt:string.obj
 0001:0000a047       ?_Xinvarg@_String_base@std@@SAXXZ 0400b047 f   libcpmt:string.obj
 0001:0000a07f       ??0invalid_argument@std@@QAE@ABV01@@Z 0400b07f f i libcpmt:string.obj
 0001:0000a09c       ?GetSpawnByID@EQPlayerManager@EQClasses@@QAEPAVEQPlayer@2@H@Z 0400b09c f   MQ2Main:MQ2Main.dll
 0001:0000a0a2       ?GetSpawnByName@EQPlayerManager@EQClasses@@QAEPAVEQPlayer@2@PAD@Z 0400b0a2 f   MQ2Main:MQ2Main.dll
 0001:0000a0a8       _GetCXStr                  0400b0a8 f   MQ2Main:MQ2Main.dll
 0001:0000a0ae       _DebugSpewAlways           0400b0ae f   MQ2Main:MQ2Main.dll
 0001:0000a0b4       _GetArg                    0400b0b4 f   MQ2Main:MQ2Main.dll
 0001:0000a0ba       _ParseMacroData            0400b0ba f   MQ2Main:MQ2Main.dll
 0001:0000a0c0       ?Cur_HP@EQ_Character1@EQClasses@@QAEHHE@Z 0400b0c0 f   MQ2Main:MQ2Main.dll
 0001:0000a0c6       ?Max_HP@EQ_Character1@EQClasses@@QAEHHH@Z 0400b0c6 f   MQ2Main:MQ2Main.dll
 0001:0000a0cc       ?Max_Mana@EQ_Character1@EQClasses@@QAEHH@Z 0400b0cc f   MQ2Main:MQ2Main.dll
 0001:0000a0d2       _FindSpeed                 0400b0d2 f   MQ2Main:MQ2Main.dll
 0001:0000a0d8       _WriteChatf                0400b0d8 f   MQ2Main:MQ2Main.dll
 0001:0000a0de       _AddMQ2Type                0400b0de f   MQ2Main:MQ2Main.dll
 0001:0000a0e4       _RemoveMQ2Type             0400b0e4 f   MQ2Main:MQ2Main.dll
 0001:0000a0ea       _BuffStackTest             0400b0ea f   MQ2Main:MQ2Main.dll
 0001:0000a0f0       _AddCommand                0400b0f0 f   MQ2Main:MQ2Main.dll
 0001:0000a0f6       _AddMQ2Data                0400b0f6 f   MQ2Main:MQ2Main.dll
 0001:0000a0fc       _RemoveMQ2Data             0400b0fc f   MQ2Main:MQ2Main.dll
 0001:0000a102       _RemoveCommand             0400b102 f   MQ2Main:MQ2Main.dll
 0001:0000a108       ??0exception@std@@QAE@XZ   0400b108 f   LIBCMT:stdexcpt.obj
 0001:0000a119       ??0exception@std@@QAE@ABQBD@Z 0400b119 f   LIBCMT:stdexcpt.obj
 0001:0000a16c       ??0exception@std@@QAE@ABQBDH@Z 0400b16c f   LIBCMT:stdexcpt.obj
 0001:0000a189       ??0exception@std@@QAE@ABV01@@Z 0400b189 f   LIBCMT:stdexcpt.obj
 0001:0000a1e6       ??4exception@std@@QAEAAV01@ABV01@@Z 0400b1e6 f   LIBCMT:stdexcpt.obj
 0001:0000a241       ??1exception@std@@UAE@XZ   0400b241 f   LIBCMT:stdexcpt.obj
 0001:0000a257       ?what@exception@std@@UBEPBDXZ 0400b257 f   LIBCMT:stdexcpt.obj
 0001:0000a264       ??0bad_cast@std@@QAE@PBD@Z 0400b264 f   LIBCMT:stdexcpt.obj
 0001:0000a282       ??0bad_cast@std@@QAE@ABV01@@Z 0400b282 f   LIBCMT:stdexcpt.obj
 0001:0000a29f       ??1bad_cast@std@@UAE@XZ    0400b29f f   LIBCMT:stdexcpt.obj
 0001:0000a2aa       ??0bad_typeid@std@@QAE@PBD@Z 0400b2aa f   LIBCMT:stdexcpt.obj
 0001:0000a2c8       ??0bad_typeid@std@@QAE@ABV01@@Z 0400b2c8 f   LIBCMT:stdexcpt.obj
 0001:0000a2e5       ??1bad_typeid@std@@UAE@XZ  0400b2e5 f   LIBCMT:stdexcpt.obj
 0001:0000a2f0       ??0__non_rtti_object@std@@QAE@PBD@Z 0400b2f0 f   LIBCMT:stdexcpt.obj
 0001:0000a30d       ??0__non_rtti_object@std@@QAE@ABV01@@Z 0400b30d f   LIBCMT:stdexcpt.obj
 0001:0000a32a       ??1__non_rtti_object@std@@UAE@XZ 0400b32a f   LIBCMT:stdexcpt.obj
 0001:0000a335       ??_Gexception@std@@UAEPAXI@Z 0400b335 f i LIBCMT:stdexcpt.obj
 0001:0000a335       ??_Eexception@std@@UAEPAXI@Z 0400b335 f i LIBCMT:stdexcpt.obj
 0001:0000a356       ??_Ebad_cast@std@@UAEPAXI@Z 0400b356 f i LIBCMT:stdexcpt.obj
 0001:0000a356       ??_Gbad_cast@std@@UAEPAXI@Z 0400b356 f i LIBCMT:stdexcpt.obj
 0001:0000a37d       ??_Ebad_typeid@std@@UAEPAXI@Z 0400b37d f i LIBCMT:stdexcpt.obj
 0001:0000a37d       ??_Gbad_typeid@std@@UAEPAXI@Z 0400b37d f i LIBCMT:stdexcpt.obj
 0001:0000a3a4       ??_G__non_rtti_object@std@@UAEPAXI@Z 0400b3a4 f i LIBCMT:stdexcpt.obj
 0001:0000a3a4       ??_E__non_rtti_object@std@@UAEPAXI@Z 0400b3a4 f i LIBCMT:stdexcpt.obj
 0001:0000a3cb       ?name@type_info@@QBEPBDPAU__type_info_node@@@Z 0400b3cb f   LIBCMT:typinfo.obj
 0001:0000a3df       ??1type_info@@UAE@XZ       0400b3df f   LIBCMT:typinfo.obj
 0001:0000a3ef       ??_Etype_info@@UAEPAXI@Z   0400b3ef f i LIBCMT:typinfo.obj
 0001:0000a3ef       ??_Gtype_info@@UAEPAXI@Z   0400b3ef f i LIBCMT:typinfo.obj
 0001:0000a410       ?_name_internal_method@type_info@@QBEPBDPAU__type_info_node@@@Z 0400b410 f   LIBCMT:typinfo.obj
 0001:0000a424       ?_type_info_dtor_internal_method@type_info@@QAEXXZ 0400b424 f   LIBCMT:typinfo.obj
 0001:0000a42e       ??8type_info@@QBE_NABV0@@Z 0400b42e f   LIBCMT:typinfo.obj
 0001:0000a44e       ??9type_info@@QBE_NABV0@@Z 0400b44e f   LIBCMT:typinfo.obj
 0001:0000a46f       ?before@type_info@@QBEHABV1@@Z 0400b46f f   LIBCMT:typinfo.obj
 0001:0000a493       ?raw_name@type_info@@QBEPBDXZ 0400b493 f   LIBCMT:typinfo.obj
 0001:0000a497       ??0type_info@@AAE@ABV0@@Z  0400b497 f   LIBCMT:typinfo.obj
 0001:0000a4a2       ??4type_info@@AAEAAV0@ABV0@@Z 0400b4a2 f   LIBCMT:typinfo.obj
 0001:0000a4a7       ??3@YAXPAX@Z               0400b4a7 f   LIBCMT:delete.obj
 0001:0000a4b2       _memcpy_s                  0400b4b2 f   LIBCMT:memcpy_s.obj
 0001:0000a52f       _memmove_s                 0400b52f f   LIBCMT:memmove_s.obj
 0001:0000a58c       _free                      0400b58c f   LIBCMT:free.obj
 0001:0000a620       _memmove                   0400b620 f   LIBCMT:memmove.obj
 0001:0000a985       ??0bad_alloc@std@@QAE@XZ   0400b985 f i LIBCMT:new.obj
 0001:0000a9a0       ??2@YAPAXI@Z               0400b9a0 f   LIBCMT:new.obj
 0001:0000aa05       ??0_LocaleUpdate@@QAE@PAUlocaleinfo_struct@@@Z 0400ba05 f i LIBCMT:toupper.obj
 0001:0000aa8c       ??1_LocaleUpdate@@QAE@XZ   0400ba8c f i LIBCMT:toupper.obj
 0001:0000aa9a       ?GetLocaleT@_LocaleUpdate@@QAEPAUlocaleinfo_struct@@XZ 0400ba9a f i LIBCMT:toupper.obj
 0001:0000aa9d       __toupper                  0400ba9d f   LIBCMT:toupper.obj
 0001:0000aaaa       __toupper_l                0400baaa f   LIBCMT:toupper.obj
 0001:0000abc0       _toupper                   0400bbc0 f   LIBCMT:toupper.obj
 0001:0000abec       _V6_HeapAlloc              0400bbec f   LIBCMT:malloc.obj
 0001:0000ac3b       __heap_alloc               0400bc3b f i LIBCMT:malloc.obj
 0001:0000acb5       _malloc                    0400bcb5 f   LIBCMT:malloc.obj
 0001:0000ad80       __alloca_probe             0400bd80     LIBCMT:chkstk.obj
 0001:0000ad80       __chkstk                   0400bd80 f   LIBCMT:chkstk.obj
 0001:0000adb0       _memcpy                    0400bdb0 f   LIBCMT:memcpy.obj
 0001:0000b120       _memset                    0400c120 f   LIBCMT:memset.obj
 0001:0000b19a       _sprintf                   0400c19a f   LIBCMT:sprintf.obj
 0001:0000b217       __sprintf_l                0400c217 f   LIBCMT:sprintf.obj
 0001:0000b233       _sprintf_s                 0400c233 f   LIBCMT:sprintf.obj
 0001:0000b251       __sprintf_s_l              0400c251 f   LIBCMT:sprintf.obj
 0001:0000b270       __snprintf_s               0400c270 f   LIBCMT:sprintf.obj
 0001:0000b291       __snprintf_s_l             0400c291 f   LIBCMT:sprintf.obj
 0001:0000b2b3       __sprintf_p                0400c2b3 f   LIBCMT:sprintf.obj
 0001:0000b2d1       __sprintf_p_l              0400c2d1 f   LIBCMT:sprintf.obj
 0001:0000b2f0       __scprintf                 0400c2f0 f   LIBCMT:sprintf.obj
 0001:0000b305       __scprintf_p               0400c305 f   LIBCMT:sprintf.obj
 0001:0000b31a       __scprintf_l               0400c31a f   LIBCMT:sprintf.obj
 0001:0000b333       __scprintf_p_l             0400c333 f   LIBCMT:sprintf.obj
 0001:0000b34c       _atol                      0400c34c f   LIBCMT:atox.obj
 0001:0000b362       __atol_l                   0400c362 f   LIBCMT:atox.obj
 0001:0000b37b       _atoi                      0400c37b f   LIBCMT:atox.obj
 0001:0000b386       __atoi_l                   0400c386 f   LIBCMT:atox.obj
 0001:0000b391       __atoi64                   0400c391 f   LIBCMT:atox.obj
 0001:0000b3a7       __atoi64_l                 0400c3a7 f   LIBCMT:atox.obj
 0001:0000b3c0       __atof_l                   0400c3c0 f   LIBCMT:atof.obj
 0001:0000b46b       _atof                      0400c46b f   LIBCMT:atof.obj
 0001:0000b47e       ___strgtold12              0400c47e f   LIBCMT:atof.obj
 0001:0000b4c0       ___STRINGTOLD              0400c4c0 f   LIBCMT:atof.obj
 0001:0000b4f9       __fpclear                  0400c4f9 f   LIBCMT:_fpinit_.obj
 0001:0000b4fa       __cfltcvt_init             0400c4fa f   LIBCMT:_fpinit_.obj
 0001:0000b55a       ___setfflag                0400c55a f   LIBCMT:_fpinit_.obj
 0001:0000b56f       __fpmath                   0400c56f f   LIBCMT:_fpinit_.obj
 0001:0000b592       __initp_misc_invarg        0400c592 f   LIBCMT:invarg.obj
 0001:0000b5a1       __invoke_watson            0400c5a1 f   LIBCMT:invarg.obj
 0001:0000b6c9       __set_invalid_parameter_handler 0400c6c9 f   LIBCMT:invarg.obj
 0001:0000b6f0       __get_invalid_parameter_handler 0400c6f0 f   LIBCMT:invarg.obj
 0001:0000b6fd       ?_invoke_watson@@YAXPBG00II@Z 0400c6fd f   LIBCMT:invarg.obj
 0001:0000b708       __invalid_parameter        0400c708 f   LIBCMT:invarg.obj
 0001:0000b72e       __invalid_parameter_noinfo 0400c72e f   LIBCMT:invarg.obj
 0001:0000b73e       ?_invalid_parameter@@YAXPBG00II@Z 0400c73e f   LIBCMT:invarg.obj
 0001:0000b749       __CxxThrowException@8      0400c749 f   LIBCMT:throw.obj
 0001:0000b795       ?_JumpToContinuation@@YGXPAXPAUEHRegistrationNode@@@Z 0400c795 f   LIBCMT:_trnsctrl_.obj
 0001:0000b7c7       ?_CallMemberFunction0@@YGXPAX0@Z 0400c7c7 f   LIBCMT:_trnsctrl_.obj
 0001:0000b7ce       ?_CallMemberFunction1@@YGXPAX00@Z 0400c7ce f   LIBCMT:_trnsctrl_.obj
 0001:0000b7d5       ?_CallMemberFunction2@@YGXPAX00H@Z 0400c7d5 f   LIBCMT:_trnsctrl_.obj
 0001:0000b7dc       ?_UnwindNestedFrames@@YGXPAUEHRegistrationNode@@PAUEHExceptionRecord@@@Z 0400c7dc f   LIBCMT:_trnsctrl_.obj
 0001:0000b830       ___CxxFrameHandler         0400c830 f   LIBCMT:_trnsctrl_.obj
 0001:0000b866       ___CxxFrameHandler3        0400c866 f   LIBCMT:_trnsctrl_.obj
 0001:0000b89c       ___CxxFrameHandler2        0400c89c f   LIBCMT:_trnsctrl_.obj
 0001:0000b8d2       ___CxxLongjmpUnwind@4      0400c8d2 f   LIBCMT:_trnsctrl_.obj
 0001:0000b924       ?_CallSETranslator@@YAHPAUEHExceptionRecord@@PAUEHRegistrationNode@@PAX2PBU_s_FuncInfo@@H1@Z 0400c924 f   LIBCMT:_trnsctrl_.obj
 0001:0000ba9a       ?_GetRangeOfTrysToCheck@@YAPBU_s_TryBlockMapEntry@@PBU_s_FuncInfo@@HHPAI1@Z 0400ca9a f   LIBCMT:_trnsctrl_.obj
 0001:0000bb0f       __CreateFrameInfo          0400cb0f f   LIBCMT:_trnsctrl_.obj
 0001:0000bb3b       __IsExceptionObjectToBeDestroyed 0400cb3b f   LIBCMT:_trnsctrl_.obj
 0001:0000bb62       __FindAndUnlinkFrame       0400cb62 f   LIBCMT:_trnsctrl_.obj
 0001:0000bbb4       ?_CallCatchBlock2@@YAPAXPAUEHRegistrationNode@@PBU_s_FuncInfo@@PAXHK@Z 0400cbb4 f   LIBCMT:_trnsctrl_.obj
 0001:0000bc14       _clock                     0400cc14 f   LIBCMT:clock.obj
 0001:0000bc59       ___inittime                0400cc59 f   LIBCMT:clock.obj
 0001:0000bc92       _strncmp                   0400cc92 f   LIBCMT:strncmp.obj
 0001:0000bd60       _strncpy                   0400cd60 f   LIBCMT:strncpy.obj
 0001:0000be84       __purecall                 0400ce84 f   LIBCMT:purevirt.obj
 0001:0000beae       __set_purecall_handler     0400ceae f   LIBCMT:purevirt.obj
 0001:0000bed5       __get_purecall_handler     0400ced5 f   LIBCMT:purevirt.obj
 0001:0000bf9c       ___onexitinit              0400cf9c f   LIBCMT:onexit.obj
 0001:0000bfcd       __onexit                   0400cfcd f   LIBCMT:onexit.obj
 0001:0000c009       _atexit                    0400d009 f   LIBCMT:onexit.obj
 0001:0000c020       __CRT_INIT@12              0400d020 f   LIBCMT:dllcrt0.obj
 0001:0000c24b       __DllMainCRTStartup@12     0400d24b f   LIBCMT:dllcrt0.obj
 0001:0000c270       _strlen                    0400d270 f   LIBCMT:strlen.obj
 0001:0000c2fb       @__security_check_cookie@4 0400d2fb f   LIBCMT:secchk.obj
 0001:0000c30a       __EH_prolog3               0400d30a f   LIBCMT:ehprolg3.obj
 0001:0000c33d       __EH_prolog3_catch         0400d33d f   LIBCMT:ehprolg3.obj
 0001:0000c373       __EH_prolog3_GS            0400d373 f   LIBCMT:ehprolg3.obj
 0001:0000c3a9       __EH_prolog3_catch_GS      0400d3a9 f   LIBCMT:ehprolg3.obj
 0001:0000c3e2       __EH_epilog3               0400d3e2 f   LIBCMT:ehprolg3.obj
 0001:0000c3f6       __EH_epilog3_GS            0400d3f6 f   LIBCMT:ehprolg3.obj
 0001:0000c405       __EH_epilog3_catch_GS      0400d405 f   LIBCMT:ehprolg3.obj
 0001:0000c414       _strcpy_s                  0400d414 f   LIBCMT:strcpy_s.obj
 0001:0000c47c       __invoke_watson_if_error   0400d47c f i LIBCMT:typname.obj
 0001:0000c4a0       ?_Type_info_dtor@type_info@@CAXPAV1@@Z 0400d4a0 f   LIBCMT:typname.obj
 0001:0000c510       ?_Name_base@type_info@@CAPBDPBV1@PAU__type_info_node@@@Z 0400d510 f   LIBCMT:typname.obj
 0001:0000c605       ?_Type_info_dtor_internal@type_info@@CAXPAV1@@Z 0400d605 f   LIBCMT:typname.obj
 0001:0000c675       ___unDNameHelper           0400d675 f   LIBCMT:typname.obj
 0001:0000c6a8       ?_Name_base_internal@type_info@@CAPBDPBV1@PAU__type_info_node@@@Z 0400d6a8 f   LIBCMT:typname.obj
 0001:0000c7b7       ___clean_type_info_names_internal 0400d7b7 f   LIBCMT:typname.obj
 0001:0000c810       _strcmp                    0400d810 f   LIBCMT:strcmp.obj
 0001:0000c898       __get_errno_from_oserr     0400d898 f   LIBCMT:dosmap.obj
 0001:0000c8da       __errno                    0400d8da f   LIBCMT:dosmap.obj
 0001:0000c8ed       ___doserrno                0400d8ed f   LIBCMT:dosmap.obj
 0001:0000c900       __dosmaperr                0400d900 f   LIBCMT:dosmap.obj
 0001:0000c923       __set_errno                0400d923 f   LIBCMT:dosmap.obj
 0001:0000c944       __get_errno                0400d944 f   LIBCMT:dosmap.obj
 0001:0000c973       __set_doserrno             0400d973 f   LIBCMT:dosmap.obj
 0001:0000c994       __get_doserrno             0400d994 f   LIBCMT:dosmap.obj
 0001:0000c9c3       ___heap_select             0400d9c3 f   LIBCMT:heapinit.obj
 0001:0000c9c7       __heap_init                0400d9c7 f   LIBCMT:heapinit.obj
 0001:0000c9f7       __heap_term                0400d9f7 f   LIBCMT:heapinit.obj
 0001:0000ca6b       __get_heap_handle          0400da6b f   LIBCMT:heapinit.obj
 0001:0000ca71       __mtinitlocks              0400da71 f   LIBCMT:mlock.obj
 0001:0000cabc       __mtdeletelocks            0400dabc f   LIBCMT:mlock.obj
 0001:0000cb13       __unlock                   0400db13 f   LIBCMT:mlock.obj
 0001:0000cb2a       __lockerr_exit             0400db2a f   LIBCMT:mlock.obj
 0001:0000cb42       __mtinitlocknum            0400db42 f   LIBCMT:mlock.obj
 0001:0000cc05       __lock                     0400dc05 f   LIBCMT:mlock.obj
 0001:0000cc38       __get_sbh_threshold        0400dc38 f   LIBCMT:sbheap.obj
 0001:0000cc59       __set_amblksiz             0400dc59 f   LIBCMT:sbheap.obj
 0001:0000cca4       __get_amblksiz             0400dca4 f   LIBCMT:sbheap.obj
 0001:0000cce5       ___sbh_heap_init           0400dce5 f   LIBCMT:sbheap.obj
 0001:0000cd33       ___sbh_find_block          0400dd33 f   LIBCMT:sbheap.obj
 0001:0000cd63       ___sbh_free_block          0400dd63 f   LIBCMT:sbheap.obj
 0001:0000d079       ___sbh_alloc_new_region    0400e079 f   LIBCMT:sbheap.obj
 0001:0000d129       ___sbh_alloc_new_group     0400e129 f   LIBCMT:sbheap.obj
 0001:0000d231       ___sbh_resize_block        0400e231 f   LIBCMT:sbheap.obj
 0001:0000d512       ___sbh_heapmin             0400e512 f   LIBCMT:sbheap.obj
 0001:0000d5df       ___sbh_heap_check          0400e5df f   LIBCMT:sbheap.obj
 0001:0000d8c3       __set_sbh_threshold        0400e8c3 f   LIBCMT:sbheap.obj
 0001:0000d972       ___sbh_alloc_block         0400e972 f   LIBCMT:sbheap.obj
 0001:0000dc58       __SEH_prolog4              0400ec58 f   LIBCMT:sehprolg4.obj
 0001:0000dc9d       __SEH_epilog4              0400ec9d f   LIBCMT:sehprolg4.obj
 0001:0000dcf0       __except_handler4          0400ecf0 f   LIBCMT:chandler4.obj
 0001:0000df03       __VEC_memcpy               0400ef03 f   LIBCMT:p4_memcpy.obj
 0001:0000e036       __get_sse2_info            0400f036 f   LIBCMT:cpu_disp.obj
 0001:0000e098       ___sse2_available_init     0400f098 f   LIBCMT:cpu_disp.obj
 0001:0000e0a5       __initp_heap_handler       0400f0a5 f   LIBCMT:handler.obj
 0001:0000e0b4       ?_set_new_handler@@YAP6AHI@ZP6AHI@Z@Z 0400f0b4 f   LIBCMT:handler.obj
 0001:0000e0ea       ?_set_new_handler@@YAP6AHI@ZH@Z 0400f0ea f   LIBCMT:handler.obj
 0001:0000e0f3       ?_query_new_handler@@YAP6AHI@ZXZ 0400f0f3 f   LIBCMT:handler.obj
 0001:0000e100       __callnewh                 0400f100 f   LIBCMT:handler.obj
 0001:0000e34e       ___updatetmbcinfo          0400f34e f   LIBCMT:mbctype.obj
 0001:0000e46e       __setmbcp_nolock           0400f46e f   LIBCMT:mbctype.obj
 0001:0000e653       __getmbcp                  0400f653 f   LIBCMT:mbctype.obj
 0001:0000e691       __setmbcp                  0400f691 f   LIBCMT:mbctype.obj
 0001:0000e82b       ___initmbctable            0400f82b f   LIBCMT:mbctype.obj
 0001:0000e849       ____setlc_active_func      0400f849 f   LIBCMT:setlocal.obj
 0001:0000e84f       ____unguarded_readlc_active_add_func 0400f84f f   LIBCMT:setlocal.obj
 0001:0000e855       ___freetlocinfo            0400f855 f   LIBCMT:setlocal.obj
 0001:0000e99e       ___addlocaleref            0400f99e f   LIBCMT:setlocal.obj
 0001:0000ea2d       ___removelocaleref         0400fa2d f   LIBCMT:setlocal.obj
 0001:0000eb2a       ___updatetlocinfo          0400fb2a f   LIBCMT:setlocal.obj
 0001:0000eba0       __configthreadlocale       0400fba0 f   LIBCMT:setlocal.obj
 0001:0000ec5d       __free_locale              0400fc5d f   LIBCMT:setlocal.obj
 0001:0000ed1f       ___free_locale             0400fd1f f   LIBCMT:setlocal.obj
 0001:0000ed2a       __get_current_locale       0400fd2a f   LIBCMT:setlocal.obj
 0001:0000edd9       ___get_current_locale      0400fdd9 f   LIBCMT:setlocal.obj
 0001:0000edde       ___init_dummy              0400fdde f   LIBCMT:setlocal.obj
 0001:0000ede1       __strcats                  0400fde1 f   LIBCMT:setlocal.obj
 0001:0000ee21       ___lc_strtolc              0400fe21 f   LIBCMT:setlocal.obj
 0001:0000ef4a       ___lc_lctostr              0400ff4a f   LIBCMT:setlocal.obj
 0001:0000f134       __expandlocale             04010134 f   LIBCMT:setlocal.obj
 0001:0000f882       __create_locale            04010882 f   LIBCMT:setlocal.obj
 0001:0000f977       ___create_locale           04010977 f   LIBCMT:setlocal.obj
 0001:0000f982       _setlocale                 04010982 f   LIBCMT:setlocal.obj
 0001:0000faf2       __crt_wait_module_handle   04010af2 f i LIBCMT:tidtable.obj
 0001:0000fb0c       __encode_pointer           04010b0c f   LIBCMT:tidtable.obj
 0001:0000fb7e       __encoded_null             04010b7e f   LIBCMT:tidtable.obj
 0001:0000fb87       __decode_pointer           04010b87 f   LIBCMT:tidtable.obj
 0001:0000fbf9       ___crtTlsAlloc@4           04010bf9 f   LIBCMT:tidtable.obj
 0001:0000fc02       ___fls_getvalue@4          04010c02 f   LIBCMT:tidtable.obj
 0001:0000fc1c       ___get_flsindex            04010c1c f   LIBCMT:tidtable.obj
 0001:0000fc22       ___set_flsgetvalue         04010c22 f   LIBCMT:tidtable.obj
 0001:0000fc56       ___fls_setvalue@8          04010c56 f   LIBCMT:tidtable.obj
 0001:0000fc73       __mtterm                   04010c73 f   LIBCMT:tidtable.obj
 0001:0000fcb0       __initptd                  04010cb0 f   LIBCMT:tidtable.obj
 0001:0000fd97       __getptd_noexit            04010d97 f   LIBCMT:tidtable.obj
 0001:0000fe10       __getptd                   04010e10 f   LIBCMT:tidtable.obj
 0001:0000fe2a       __freefls@4                04010e2a f   LIBCMT:tidtable.obj
 0001:0000ff59       __freeptd                  04010f59 f   LIBCMT:tidtable.obj
 0001:0000ffc7       ___threadid                04010fc7 f   LIBCMT:tidtable.obj
 0001:0000ffcd       ___threadhandle            04010fcd f   LIBCMT:tidtable.obj
 0001:0000ffd3       __mtinit                   04010fd3 f   LIBCMT:tidtable.obj
 0001:00010160       __MarkAllocaS              04011160 f i LIBCMT:a_map.obj
 0001:00010176       __freea                    04011176 f i LIBCMT:a_map.obj
 0001:00010559       ___crtLCMapStringA         04011559 f   LIBCMT:a_map.obj
 0001:0001059e       __isleadbyte_l             0401159e f i LIBCMT:_wctype.obj
 0001:000105d6       _isleadbyte                040115d6 f i LIBCMT:_wctype.obj
 0001:000105e9       __iswalpha_l               040115e9 f i LIBCMT:_wctype.obj
 0001:00010603       _iswalpha                  04011603 f i LIBCMT:_wctype.obj
 0001:00010619       __iswupper_l               04011619 f i LIBCMT:_wctype.obj
 0001:00010630       _iswupper                  04011630 f i LIBCMT:_wctype.obj
 0001:00010643       __iswlower_l               04011643 f i LIBCMT:_wctype.obj
 0001:0001065a       _iswlower                  0401165a f i LIBCMT:_wctype.obj
 0001:0001066d       __iswdigit_l               0401166d f i LIBCMT:_wctype.obj
 0001:00010684       _iswdigit                  04011684 f i LIBCMT:_wctype.obj
 0001:00010697       __iswxdigit_l              04011697 f i LIBCMT:_wctype.obj
 0001:000106b1       _iswxdigit                 040116b1 f i LIBCMT:_wctype.obj
 0001:000106c7       __iswspace_l               040116c7 f i LIBCMT:_wctype.obj
 0001:000106de       _iswspace                  040116de f i LIBCMT:_wctype.obj
 0001:000106f1       __iswpunct_l               040116f1 f i LIBCMT:_wctype.obj
 0001:00010708       _iswpunct                  04011708 f i LIBCMT:_wctype.obj
 0001:0001071b       __iswalnum_l               0401171b f i LIBCMT:_wctype.obj
 0001:00010735       _iswalnum                  04011735 f i LIBCMT:_wctype.obj
 0001:0001074b       __iswprint_l               0401174b f i LIBCMT:_wctype.obj
 0001:00010765       _iswprint                  04011765 f i LIBCMT:_wctype.obj
 0001:0001077b       __iswgraph_l               0401177b f i LIBCMT:_wctype.obj
 0001:00010795       _iswgraph                  04011795 f i LIBCMT:_wctype.obj
 0001:000107ab       __iswcntrl_l               040117ab f i LIBCMT:_wctype.obj
 0001:000107c2       _iswcntrl                  040117c2 f i LIBCMT:_wctype.obj
 0001:000107d5       _iswascii                  040117d5 f i LIBCMT:_wctype.obj
 0001:000107e9       __iswcsym_l                040117e9 f i LIBCMT:_wctype.obj
 0001:00010813       ___iswcsym                 04011813 f i LIBCMT:_wctype.obj
 0001:00010839       __iswcsymf_l               04011839 f i LIBCMT:_wctype.obj
 0001:00010863       ___iswcsymf                04011863 f i LIBCMT:_wctype.obj
 0001:00010889       __isctype_l                04011889 f   LIBCMT:isctype.obj
 0001:00010941       __isctype                  04011941 f   LIBCMT:isctype.obj
 0001:00010973       __crt_waiting_on_module_handle 04011973 f   LIBCMT:crt0dat.obj
 0001:000109a3       __amsg_exit                040119a3 f   LIBCMT:crt0dat.obj
 0001:000109cc       ___crtCorExitProcess       040119cc f   LIBCMT:crt0dat.obj
 0001:000109f7       ___crtExitProcess          040119f7 f   LIBCMT:crt0dat.obj
 0001:00010a0f       __lockexit                 04011a0f f   LIBCMT:crt0dat.obj
 0001:00010a18       __unlockexit               04011a18 f   LIBCMT:crt0dat.obj
 0001:00010a3e       __initterm_e               04011a3e f   LIBCMT:crt0dat.obj
 0001:00010a62       __get_wpgmptr              04011a62 f   LIBCMT:crt0dat.obj
 0001:00010a9e       __get_pgmptr               04011a9e f   LIBCMT:crt0dat.obj
 0001:00010ada       __cinit                    04011ada f   LIBCMT:crt0dat.obj
 0001:00010c8b       _exit                      04011c8b f   LIBCMT:crt0dat.obj
 0001:00010ca1       __exit                     04011ca1 f   LIBCMT:crt0dat.obj
 0001:00010cb7       __cexit                    04011cb7 f   LIBCMT:crt0dat.obj
 0001:00010cc6       __c_exit                   04011cc6 f   LIBCMT:crt0dat.obj
 0001:00010cd5       __init_pointers            04011cd5 f   LIBCMT:crt0dat.obj
 0001:00010d23       __NMSG_WRITE               04011d23 f   LIBCMT:crt0msg.obj
 0001:00010ece       __GET_RTERRMSG             04011ece f   LIBCMT:crt0msg.obj
 0001:00010ef4       __FF_MSGBANNER             04011ef4 f   LIBCMT:crt0msg.obj
 0001:00010f84       __VEC_memzero              04011f84 f   LIBCMT:p4_memset.obj
 0001:00011013       __flsbuf                   04012013 f   LIBCMT:_flsbuf.obj
 0001:0001121d       _get_int_arg               0401221d f i LIBCMT:output.obj
 0001:0001122f       _get_int64_arg             0401222f f i LIBCMT:output.obj
 0001:00011244       _get_short_arg             04012244 f i LIBCMT:output.obj
 0001:00011257       __output_l                 04012257 f   LIBCMT:output.obj
 0001:00011def       __vsprintf_l               04012def f   LIBCMT:vsprintf.obj
 0001:00011e6d       _vsprintf                  04012e6d f   LIBCMT:vsprintf.obj
 0001:00011e87       __vscprintf_helper         04012e87 f   LIBCMT:vsprintf.obj
 0001:00011ede       __vscprintf                04012ede f   LIBCMT:vsprintf.obj
 0001:00011efa       __vscprintf_l              04012efa f   LIBCMT:vsprintf.obj
 0001:00011f17       __vscprintf_p              04012f17 f   LIBCMT:vsprintf.obj
 0001:00011f33       __vscprintf_p_l            04012f33 f   LIBCMT:vsprintf.obj
 0001:00011f50       __vsnprintf_helper         04012f50 f   LIBCMT:vsnprnc.obj
 0001:0001201c       __vsnprintf_c              0401301c f   LIBCMT:vsnprnc.obj
 0001:00012045       __vsnprintf_c_l            04013045 f   LIBCMT:vsnprnc.obj
 0001:0001206f       __vsprintf_s_l             0401306f f   LIBCMT:vsnprnc.obj
 0001:000120f7       _vsprintf_s                040130f7 f   LIBCMT:vsnprnc.obj
 0001:00012114       __vsnprintf_s_l            04013114 f   LIBCMT:vsnprnc.obj
 0001:0001221b       __vsnprintf_s              0401321b f   LIBCMT:vsnprnc.obj
 0001:0001223b       __vsprintf_p               0401323b f   LIBCMT:vsnprnc.obj
 0001:00012264       __vsprintf_p_l             04013264 f   LIBCMT:vsnprnc.obj
 0001:000124bd       _strtol                    040134bd f   LIBCMT:strtol.obj
 0001:000124e8       __strtol_l                 040134e8 f   LIBCMT:strtol.obj
 0001:00012505       _strtoul                   04013505 f   LIBCMT:strtol.obj
 0001:00012531       __strtoul_l                04013531 f   LIBCMT:strtol.obj
 0001:000127e5       __strtoi64                 040137e5 f   LIBCMT:strtoq.obj
 0001:00012810       __strtoi64_l               04013810 f   LIBCMT:strtoq.obj
 0001:0001282d       __strtoui64                0401382d f   LIBCMT:strtoq.obj
 0001:00012859       __strtoui64_l              04013859 f   LIBCMT:strtoq.obj
 0001:00012876       __fltin2                   04013876 f   LIBCMT:_cfin_.obj
 0001:0001291d       ___addl                    0401391d f i LIBCMT:_strgtold_.obj
 0001:00012941       ___shl_12                  04013941 f i LIBCMT:_strgtold_.obj
 0001:00012974       ___shr_12                  04013974 f i LIBCMT:_strgtold_.obj
 0001:000129a6       ___ld12mul                 040139a6 f i LIBCMT:_strgtold_.obj
 0001:00012c21       ___multtenpow12            04013c21 f i LIBCMT:_strgtold_.obj
 0001:00012f26       ___strgtold12_l            04013f26 f   LIBCMT:_strgtold_.obj
 0001:0001361e       ___STRINGTOLD_L            0401461e f   LIBCMT:_strgtold_.obj
 0001:00013679       ?strrchr@@YAPADPADH@Z      04014679 f i LIBCMT:cvt.obj
 0001:00013684       __forcdecpt_l              04014684 f   LIBCMT:cvt.obj
 0001:000136f7       __cropzeros_l              040146f7 f   LIBCMT:cvt.obj
 0001:00013779       __positive                 04014779 f   LIBCMT:cvt.obj
 0001:00013795       __fassign_l                04014795 f   LIBCMT:cvt.obj
 0001:000137d7       __fassign                  040147d7 f   LIBCMT:cvt.obj
 0001:00013810       __forcdecpt                04014810 f   LIBCMT:cvt.obj
 0001:00013823       __cropzeros                04014823 f   LIBCMT:cvt.obj
 0001:000139a5       __cftoe_l                  040149a5 f   LIBCMT:cvt.obj
 0001:00013a75       __cftoe                    04014a75 f   LIBCMT:cvt.obj
 0001:00013a95       __cftoa_l                  04014a95 f   LIBCMT:cvt.obj
 0001:00013e08       __cftoa                    04014e08 f   LIBCMT:cvt.obj
 0001:00013f1f       __cftof_l                  04014f1f f   LIBCMT:cvt.obj
 0001:00013fda       __cftof                    04014fda f   LIBCMT:cvt.obj
 0001:00013ff7       __cftog_l                  04014ff7 f   LIBCMT:cvt.obj
 0001:000140f1       __cftog                    040150f1 f   LIBCMT:cvt.obj
 0001:00014111       __cfltcvt_l                04015111 f   LIBCMT:cvt.obj
 0001:00014199       __cfltcvt                  04015199 f   LIBCMT:cvt.obj
 0001:000141bc       __initp_misc_cfltcvt_tab   040151bc f   LIBCMT:cmiscdat.obj
 0001:000141dd       __setdefaultprecision      040151dd f   LIBCMT:fp8.obj
 0001:00014208       __ms_p5_test_fdiv          04015208 f   LIBCMT:_testfdiv_.obj
 0001:00014246       __ms_p5_mp_test_fdiv       04015246 f   LIBCMT:_testfdiv_.obj
 0001:0001426f       __crt_debugger_hook        0401526f f   LIBCMT:dbghook.obj
 0001:00014277       ??0bad_exception@std@@QAE@PBD@Z 04015277 f i LIBCMT:frame.obj
 0001:00014295       ??1bad_exception@std@@UAE@XZ 04015295 f i LIBCMT:frame.obj
 0001:000142a0       ??_Gbad_exception@std@@UAEPAXI@Z 040152a0 f i LIBCMT:frame.obj
 0001:000142a0       ??_Ebad_exception@std@@UAEPAXI@Z 040152a0 f i LIBCMT:frame.obj
 0001:000142c7       ___TypeMatch               040152c7 f   LIBCMT:frame.obj
 0001:00014326       ___FrameUnwindFilter       04015326 f   LIBCMT:frame.obj
 0001:0001436f       ___FrameUnwindToState      0401536f f   LIBCMT:frame.obj
 0001:00014495       ___DestructExceptionObject 04015495 f   LIBCMT:frame.obj
 0001:000144ea       ___AdjustPointer           040154ea f   LIBCMT:frame.obj
 0001:00014513       ?__uncaught_exception@@YA_NXZ 04015513 f   LIBCMT:frame.obj
 0001:00014526       ___CxxRegisterExceptionObject 04015526 f   LIBCMT:frame.obj
 0001:000145dd       ___CxxDetectRethrow        040155dd f   LIBCMT:frame.obj
 0001:0001462f       ___CxxUnregisterExceptionObject 0401562f f   LIBCMT:frame.obj
 0001:0001476e       ___CxxQueryExceptionSize   0401576e f   LIBCMT:frame.obj
 0001:00014772       ___CxxCallUnwindDtor       04015772 f   LIBCMT:frame.obj
 0001:000147a4       ___CxxCallUnwindDelDtor    040157a4 f   LIBCMT:frame.obj
 0001:000147d7       ___CxxCallUnwindStdDelDtor 040157d7 f   LIBCMT:frame.obj
 0001:00014809       ___CxxCallUnwindVecDtor    04015809 f   LIBCMT:frame.obj
 0001:0001493a       ?_is_exception_typeof@@YAHABVtype_info@@PAU_EXCEPTION_POINTERS@@@Z 0401593a f   LIBCMT:frame.obj
 0001:00014b5c       ___BuildCatchObjectHelper  04015b5c f   LIBCMT:frame.obj
 0001:00014cdb       ___BuildCatchObject        04015cdb f   LIBCMT:frame.obj
 0001:00014d6d       ___CxxExceptionFilter      04015d6d f   LIBCMT:frame.obj
 0001:0001535b       ??0bad_exception@std@@QAE@ABV01@@Z 0401635b f i LIBCMT:frame.obj
 0001:00015378       ___InternalCxxFrameHandler 04016378 f   LIBCMT:frame.obj
 0001:0001545e       ?terminate@@YAXXZ          0401645e f   LIBCMT:hooks.obj
 0001:00015497       ?unexpected@@YAXXZ         04016497 f   LIBCMT:hooks.obj
 0001:000154aa       ?_inconsistency@@YAXXZ     040164aa f   LIBCMT:hooks.obj
 0001:000154e2       __initp_eh_hooks           040164e2 f   LIBCMT:hooks.obj
 0001:00015500       __CallSettingFrame@12      04016500 f   LIBCMT:lowhelpr.obj
 0001:00015527       __NLG_Return               04016527     LIBCMT:lowhelpr.obj
 0001:00015550       __aulldiv                  04016550 f   LIBCMT:ulldiv.obj
 0001:000155c0       __allmul                   040165c0 f   LIBCMT:llmul.obj
 0001:000155f4       _abort                     040165f4 f   LIBCMT:abort.obj
 0001:0001570b       __set_abort_behavior       0401670b f   LIBCMT:abort.obj
 0001:0001572c       ___getlocaleinfo           0401672c f   LIBCMT:inithelp.obj
 0001:000158ab       __initp_misc_purevirt      040168ab f   LIBCMT:inithelp.obj
 0001:000158ba       _wait_a_bit                040168ba f i LIBCMT:crtheap.obj
 0001:000158e0       __set_malloc_crt_max_wait  040168e0 f   LIBCMT:crtheap.obj
 0001:000158f5       __malloc_crt               040168f5 f   LIBCMT:crtheap.obj
 0001:0001593a       __calloc_crt               0401693a f   LIBCMT:crtheap.obj
 0001:00015986       __realloc_crt              04016986 f   LIBCMT:crtheap.obj
 0001:000159d4       __recalloc_crt             040169d4 f   LIBCMT:crtheap.obj
 0001:00015a26       __msize                    04016a26 f   LIBCMT:msize.obj
 0001:00015ac9       __ioinit                   04016ac9 f   LIBCMT:ioinit.obj
 0001:00015d1d       __ioterm                   04016d1d f   LIBCMT:ioinit.obj
 0001:00015d6b       __setenvp                  04016d6b f   LIBCMT:stdenvp.obj
 0001:00015e49       __set_pgmptr               04016e49 f i LIBCMT:stdargv.obj
 0001:00015ff2       __setargv                  04016ff2 f   LIBCMT:stdargv.obj
 0001:000160ad       ___crtGetEnvironmentStringsA 040170ad f   LIBCMT:a_env.obj
 0001:000161e4       __RTC_Initialize           040171e4 f   LIBCMT:_initsect_.obj
 0001:0001620a       __RTC_Terminate            0401720a f   LIBCMT:_initsect_.obj
 0001:00016230       __initp_misc_winxfltr      04017230 f   LIBCMT:winxfltr.obj
 0001:00016266       __XcptFilter               04017266 f   LIBCMT:winxfltr.obj
 0001:000163c6       ___CppXcptFilter           040173c6 f   LIBCMT:winxfltr.obj
 0001:000163e6       ___security_init_cookie    040173e6 f   LIBCMT:gs_support.obj
 0001:0001647c       ___report_gsfailure        0401747c f   LIBCMT:gs_report.obj
 0001:00016582       ??0Block@HeapManager@@QAE@XZ 04017582 f i LIBCMT:undname.obj
 0001:00016588       ?Constructor@HeapManager@@QAEXP6APAXI@ZP6AXPAX@Z@Z 04017588 f i LIBCMT:undname.obj
 0001:000165a7       ?Destructor@HeapManager@@QAEXXZ 040175a7 f i LIBCMT:undname.obj
 0001:000165cf       ?getNumberOfDimensions@UnDecorator@@CAHXZ 040175cf f   LIBCMT:undname.obj
 0001:00016632       ?getTypeEncoding@UnDecorator@@CAHXZ 04017632 f i LIBCMT:undname.obj
 0001:00016b1e       ?doUnderScore@UnDecorator@@SAHXZ 04017b1e f i LIBCMT:undname.obj
 0001:00016b29       ?doMSKeywords@UnDecorator@@SAHXZ 04017b29 f i LIBCMT:undname.obj
 0001:00016b36       ?doPtr64@UnDecorator@@SAHXZ 04017b36 f i LIBCMT:undname.obj
 0001:00016b44       ?doFunctionReturns@UnDecorator@@SAHXZ 04017b44 f i LIBCMT:undname.obj
 0001:00016b52       ?doAllocationModel@UnDecorator@@SAHXZ 04017b52 f i LIBCMT:undname.obj
 0001:00016b60       ?doAllocationLanguage@UnDecorator@@SAHXZ 04017b60 f i LIBCMT:undname.obj
 0001:00016b6e       ?doThisTypes@UnDecorator@@SAHXZ 04017b6e f i LIBCMT:undname.obj
 0001:00016b80       ?doAccessSpecifiers@UnDecorator@@SAHXZ 04017b80 f i LIBCMT:undname.obj
 0001:00016b8e       ?doThrowTypes@UnDecorator@@SAHXZ 04017b8e f i LIBCMT:undname.obj
 0001:00016b9c       ?doMemberTypes@UnDecorator@@SAHXZ 04017b9c f i LIBCMT:undname.obj
 0001:00016baa       ?doNameOnly@UnDecorator@@SAHXZ 04017baa f i LIBCMT:undname.obj
 0001:00016bb5       ?doTypeOnly@UnDecorator@@SAHXZ 04017bb5 f i LIBCMT:undname.obj
 0001:00016bc0       ?haveTemplateParameters@UnDecorator@@SAHXZ 04017bc0 f i LIBCMT:undname.obj
 0001:00016bcb       ?doEcsu@UnDecorator@@SAHXZ 04017bcb f i LIBCMT:undname.obj
 0001:00016bd9       ?doNoIdentCharCheck@UnDecorator@@SAHXZ 04017bd9 f i LIBCMT:undname.obj
 0001:00016be4       ?doEllipsis@UnDecorator@@SAHXZ 04017be4 f i LIBCMT:undname.obj
 0001:00016bf2       ?UScore@UnDecorator@@SAPBDW4Tokens@@@Z 04017bf2 f   LIBCMT:undname.obj
 0001:00016c10       ?getMemory@HeapManager@@QAEPAXIH@Z 04017c10 f   LIBCMT:undname.obj
 0001:00016c98       ??0DName@@QAE@XZ           04017c98 f i LIBCMT:undname.obj
 0001:00016ca9       ??0DName@@QAE@ABV0@@Z      04017ca9 f i LIBCMT:undname.obj
 0001:00016cc1       ?isValid@DName@@QBEHXZ     04017cc1 f i LIBCMT:undname.obj
 0001:00016ccb       ?isEmpty@DName@@QBEHXZ     04017ccb f i LIBCMT:undname.obj
 0001:00016cd3       ?status@DName@@QBE?AW4DNameStatus@@XZ 04017cd3 f i LIBCMT:undname.obj
 0001:00016cd8       ?setPtrRef@DName@@QAEAAV1@XZ 04017cd8 f i LIBCMT:undname.obj
 0001:00016ce2       ?isPtrRef@DName@@QBEHXZ    04017ce2 f i LIBCMT:undname.obj
 0001:00016cec       ?isUDC@DName@@QBEHXZ       04017cec f i LIBCMT:undname.obj
 0001:00016cfd       ?setIsUDC@DName@@QAEXXZ    04017cfd f i LIBCMT:undname.obj
 0001:00016d0a       ?isUDTThunk@DName@@QBEHXZ  04017d0a f i LIBCMT:undname.obj
 0001:00016d1b       ?setIsArray@DName@@QAEXXZ  04017d1b f i LIBCMT:undname.obj
 0001:00016d23       ?isArray@DName@@QBEHXZ     04017d23 f i LIBCMT:undname.obj
 0001:00016d2d       ?isNoTE@DName@@QBEHXZ      04017d2d f i LIBCMT:undname.obj
 0001:00016d37       ?setIsNoTE@DName@@QAEXXZ   04017d37 f i LIBCMT:undname.obj
 0001:00016d3f       ?isPinPtr@DName@@QBEHXZ    04017d3f f i LIBCMT:undname.obj
 0001:00016d49       ?setIsPinPtr@DName@@QAEXXZ 04017d49 f i LIBCMT:undname.obj
 0001:00016d51       ?isComArray@DName@@QBEHXZ  04017d51 f i LIBCMT:undname.obj
 0001:00016d5b       ?setIsComArray@DName@@QAEXXZ 04017d5b f i LIBCMT:undname.obj
 0001:00016d63       ?isVCallThunk@DName@@QBEHXZ 04017d63 f i LIBCMT:undname.obj
 0001:00016d6d       ?setIsVCallThunk@DName@@QAEXXZ 04017d6d f i LIBCMT:undname.obj
 0001:00016d75       ?length@DName@@QBEHXZ      04017d75 f i LIBCMT:undname.obj
 0001:00016d82       ?getLastChar@DName@@QBEDXZ 04017d82 f i LIBCMT:undname.obj
 0001:00016d90       ?getString@DName@@QBEPADPAD0@Z 04017d90 f i LIBCMT:undname.obj
 0001:00016da8       ??_5DName@@QAEAAV0@ABV0@@Z 04017da8 f   LIBCMT:undname.obj
 0001:00016dc7       ??4DName@@QAEAAV0@ABV0@@Z  04017dc7 f   LIBCMT:undname.obj
 0001:00016ddf       ?isFull@Replicator@@QBEHXZ 04017ddf f i LIBCMT:undname.obj
 0001:00016de8       ??0Replicator@@QAE@XZ      04017de8 f i LIBCMT:undname.obj
 0001:00016dee       ??0DNameNode@@IAE@XZ       04017dee f   LIBCMT:undname.obj
 0001:00016df7       ??0charNode@@QAE@D@Z       04017df7 f   LIBCMT:undname.obj
 0001:00016e0e       ?length@charNode@@UBEHXZ   04017e0e f i LIBCMT:undname.obj
 0001:00016e12       ?getLastChar@charNode@@UBEDXZ 04017e12 f i LIBCMT:undname.obj
 0001:00016e16       ?getString@charNode@@UBEPADPAD0@Z 04017e16 f i LIBCMT:undname.obj
 0001:00016e2d       ??0pDNameNode@@QAE@PAVDName@@@Z 04017e2d f   LIBCMT:undname.obj
 0001:00016e57       ?length@pDNameNode@@UBEHXZ 04017e57 f i LIBCMT:undname.obj
 0001:00016e6d       ?getLastChar@pDNameNode@@UBEDXZ 04017e6d f i LIBCMT:undname.obj
 0001:00016e84       ?getString@pDNameNode@@UBEPADPAD0@Z 04017e84 f i LIBCMT:undname.obj
 0001:00016e9d       ??0DNameStatusNode@@AAE@W4DNameStatus@@@Z 04017e9d f   LIBCMT:undname.obj
 0001:00016ec2       ?length@DNameStatusNode@@UBEHXZ 04017ec2 f i LIBCMT:undname.obj
 0001:00016ec6       ?getLastChar@DNameStatusNode@@UBEDXZ 04017ec6 f i LIBCMT:undname.obj
 0001:00016ed2       ?make@DNameStatusNode@@SAPAV1@W4DNameStatus@@@Z 04017ed2 f i LIBCMT:undname.obj
 0001:00016f58       ??0pairNode@@QAE@PAVDNameNode@@0@Z 04017f58 f   LIBCMT:undname.obj
 0001:00016f79       ?length@pairNode@@UBEHXZ   04017f79 f i LIBCMT:undname.obj
 0001:00016fa4       ?getLastChar@pairNode@@UBEDXZ 04017fa4 f i LIBCMT:undname.obj
 0001:00016fc0       ?getString@pairNode@@UBEPADPAD0@Z 04017fc0 f i LIBCMT:undname.obj
 0001:0001703a       ??0UnDecorator@@QAE@PADPBDHP6APADJ@ZK@Z 0401803a f i LIBCMT:undname.obj
 0001:000170a9       ?getDataIndirectType@UnDecorator@@CA?AVDName@@XZ 040180a9 f i LIBCMT:undname.obj
 0001:000170de       ?getThisType@UnDecorator@@CA?AVDName@@XZ 040180de f i LIBCMT:undname.obj
 0001:00017114       ??2@YAPAXIAAVHeapManager@@H@Z 04018114 f i LIBCMT:undname.obj
 0001:0001712b       ?getStringHelper@@YAPADPAD00H@Z 0401812b f i LIBCMT:undname.obj
 0001:00017162       ??0DName@@QAE@PAV0@@Z      04018162 f   LIBCMT:undname.obj
 0001:000171b5       ??0DName@@QAE@W4DNameStatus@@@Z 040181b5 f   LIBCMT:undname.obj
 0001:000171fa       ?getString@DName@@QBEPADPADH@Z 040181fa f i LIBCMT:undname.obj
 0001:00017252       ?append@DName@@AAEXPAVDNameNode@@@Z 04018252 f   LIBCMT:undname.obj
 0001:00017291       ??4DName@@QAEAAV0@PAV0@@Z  04018291 f   LIBCMT:undname.obj
 0001:000172de       ??4DName@@QAEAAV0@W4DNameStatus@@@Z 040182de f   LIBCMT:undname.obj
 0001:00017315       ??YReplicator@@QAEAAV0@ABVDName@@@Z 04018315 f   LIBCMT:undname.obj
 0001:0001735f       ??AReplicator@@QBE?AVDName@@H@Z 0401835f f   LIBCMT:undname.obj
 0001:0001739f       ??0pcharNode@@QAE@PBDH@Z   0401839f f   LIBCMT:undname.obj
 0001:000173f6       ?length@pcharNode@@UBEHXZ  040183f6 f i LIBCMT:undname.obj
 0001:000173fa       ?getLastChar@pcharNode@@UBEDXZ 040183fa f i LIBCMT:undname.obj
 0001:0001740c       ?getString@pcharNode@@UBEPADPAD0@Z 0401840c f i LIBCMT:undname.obj
 0001:00017429       ?getString@DNameStatusNode@@UBEPADPAD0@Z 04018429 f i LIBCMT:undname.obj
 0001:00017452       ?getReturnType@UnDecorator@@CA?AVDName@@PAV2@@Z 04018452 f   LIBCMT:undname.obj
 0001:00017483       ?getStorageConvention@UnDecorator@@CA?AVDName@@XZ 04018483 f i LIBCMT:undname.obj
 0001:00017496       ??YDName@@QAEAAV0@W4DNameStatus@@@Z 04018496 f   LIBCMT:undname.obj
 0001:000174d8       ?doPchar@DName@@AAEXPBDH@Z 040184d8 f   LIBCMT:undname.obj
 0001:00017554       ??0DName@@QAE@D@Z          04018554 f   LIBCMT:undname.obj
 0001:00017581       ??0DName@@QAE@PBD@Z        04018581 f   LIBCMT:undname.obj
 0001:000175ba       ??0DName@@QAE@AAPBDD@Z     040185ba f   LIBCMT:undname.obj
 0001:00017679       ??0DName@@QAE@_K@Z         04018679 f   LIBCMT:undname.obj
 0001:000176e7       ??0DName@@QAE@_J@Z         040186e7 f   LIBCMT:undname.obj
 0001:00017782       ??HDName@@QBE?AV0@W4DNameStatus@@@Z 04018782 f   LIBCMT:undname.obj
 0001:000177a6       ??YDName@@QAEAAV0@ABV0@@Z  040187a6 f   LIBCMT:undname.obj
 0001:000177e9       ??YDName@@QAEAAV0@PAV0@@Z  040187e9 f   LIBCMT:undname.obj
 0001:00017850       ??4DName@@QAEAAV0@D@Z      04018850 f i LIBCMT:undname.obj
 0001:0001787d       ??4DName@@QAEAAV0@PBD@Z    0401887d f   LIBCMT:undname.obj
 0001:000178b2       ?getCallingConvention@UnDecorator@@CA?AVDName@@XZ 040188b2 f   LIBCMT:undname.obj
 0001:0001795c       ?getVCallThunkType@UnDecorator@@CA?AVDName@@XZ 0401895c f i LIBCMT:undname.obj
 0001:00017995       ??HDName@@QBE?AV0@ABV0@@Z  04018995 f   LIBCMT:undname.obj
 0001:000179b9       ??HDName@@QBE?AV0@PAV0@@Z  040189b9 f   LIBCMT:undname.obj
 0001:000179dd       ??YDName@@QAEAAV0@D@Z      040189dd f   LIBCMT:undname.obj
 0001:00017a2f       ??YDName@@QAEAAV0@PBD@Z    04018a2f f   LIBCMT:undname.obj
 0001:00017a93       ?getArgumentList@UnDecorator@@CA?AVDName@@XZ 04018a93 f   LIBCMT:undname.obj
 0001:00017b95       ?getVdispMapType@UnDecorator@@CA?AVDName@@ABV2@@Z 04018b95 f i LIBCMT:undname.obj
 0001:00017be9       ??H@YA?AVDName@@DABV0@@Z   04018be9 f i LIBCMT:undname.obj
 0001:00017c0d       ??H@YA?AVDName@@W4DNameStatus@@ABV0@@Z 04018c0d f i LIBCMT:undname.obj
 0001:00017c31       ??H@YA?AVDName@@PBDABV0@@Z 04018c31 f i LIBCMT:undname.obj
 0001:00017c55       ??HDName@@QBE?AV0@D@Z      04018c55 f   LIBCMT:undname.obj
 0001:00017c79       ??HDName@@QBE?AV0@PBD@Z    04018c79 f   LIBCMT:undname.obj
 0001:00017c9d       ?getDimension@UnDecorator@@CA?AVDName@@_N@Z 04018c9d f   LIBCMT:undname.obj
 0001:00017def       ?getEnumType@UnDecorator@@CA?AVDName@@XZ 04018def f i LIBCMT:undname.obj
 0001:00017ec3       ?getArgumentTypes@UnDecorator@@CA?AVDName@@XZ 04018ec3 f   LIBCMT:undname.obj
 0001:00017f9f       ?getThrowTypes@UnDecorator@@CA?AVDName@@XZ 04018f9f f   LIBCMT:undname.obj
 0001:0001801e       ?getExtendedDataIndirectType@UnDecorator@@CA?AVDName@@AADAA_NH@Z 0401901e f   LIBCMT:undname.obj
 0001:0001819b       ?getArrayType@UnDecorator@@CA?AVDName@@ABV2@@Z 0401919b f i LIBCMT:undname.obj
 0001:00018315       ?getLexicalFrame@UnDecorator@@CA?AVDName@@XZ 04019315 f i LIBCMT:undname.obj
 0001:00018348       ?getDisplacement@UnDecorator@@CA?AVDName@@XZ 04019348 f i LIBCMT:undname.obj
 0001:0001835e       ?getCallIndex@UnDecorator@@CA?AVDName@@XZ 0401935e f i LIBCMT:undname.obj
 0001:00018374       ?getGuardNumber@UnDecorator@@CA?AVDName@@XZ 04019374 f i LIBCMT:undname.obj
 0001:0001838a       ?getVfTableType@UnDecorator@@CA?AVDName@@ABV2@@Z 0401938a f i LIBCMT:undname.obj
 0001:000184c1       ?getStringEncoding@UnDecorator@@CA?AVDName@@PADH@Z 040194c1 f   LIBCMT:undname.obj
 0001:00018565       ?getSignedDimension@UnDecorator@@CA?AVDName@@XZ 04019565 f   LIBCMT:undname.obj
 0001:000185b7       ?getTemplateConstant@UnDecorator@@CA?AVDName@@XZ 040195b7 f   LIBCMT:undname.obj
 0001:00018884       ?getPtrRefDataType@UnDecorator@@CA?AVDName@@ABV2@H@Z 04019884 f i LIBCMT:undname.obj
 0001:00018962       ?getVbTableType@UnDecorator@@CA?AVDName@@ABV2@@Z 04019962 f i LIBCMT:undname.obj
 0001:00018979       ?getTemplateArgumentList@UnDecorator@@CA?AVDName@@XZ 04019979 f   LIBCMT:undname.obj
 0001:00018b3d       ?getOperatorName@UnDecorator@@CA?AVDName@@_NPA_N@Z 04019b3d f i LIBCMT:undname.obj
 0001:000190da       ?getTemplateName@UnDecorator@@CA?AVDName@@_N@Z 0401a0da f   LIBCMT:undname.obj
 0001:00019221       ?getZName@UnDecorator@@CA?AVDName@@_N0@Z 0401a221 f   LIBCMT:undname.obj
 0001:00019417       ?getScopedName@UnDecorator@@CA?AVDName@@XZ 0401a417 f   LIBCMT:undname.obj
 0001:000194e8       ?getECSUName@UnDecorator@@CA?AVDName@@XZ 0401a4e8 f i LIBCMT:undname.obj
 0001:000194fb       ?getECSUDataType@UnDecorator@@CA?AVDName@@XZ 0401a4fb f   LIBCMT:undname.obj
 0001:00019602       ?getSymbolName@UnDecorator@@CA?AVDName@@XZ 0401a602 f i LIBCMT:undname.obj
 0001:0001964c       ?getBasedType@UnDecorator@@CA?AVDName@@XZ 0401a64c f   LIBCMT:undname.obj
 0001:000196e4       ?composeDeclaration@UnDecorator@@CA?AVDName@@ABV2@@Z 0401a6e4 f i LIBCMT:undname.obj
 0001:0001a27f       ?getDecoratedName@UnDecorator@@CA?AVDName@@XZ 0401b27f f   LIBCMT:undname.obj
 0001:0001a497       ?getScope@UnDecorator@@CA?AVDName@@XZ 0401b497 f   LIBCMT:undname.obj
 0001:0001a707       ?getFunctionIndirectType@UnDecorator@@CA?AVDName@@ABV2@@Z 0401b707 f   LIBCMT:undname.obj
 0001:0001aa5b       ?getDataIndirectType@UnDecorator@@CA?AVDName@@ABV2@D0H@Z 0401ba5b f   LIBCMT:undname.obj
 0001:0001af22       ??BUnDecorator@@QAEPADXZ   0401bf22 f i LIBCMT:undname.obj
 0001:0001b053       ?getPtrRefType@UnDecorator@@CA?AVDName@@ABV2@0D@Z 0401c053 f   LIBCMT:undname.obj
 0001:0001b14c       ?getPointerType@UnDecorator@@CA?AVDName@@ABV2@0@Z 0401c14c f i LIBCMT:undname.obj
 0001:0001b169       ?getPointerTypeArray@UnDecorator@@CA?AVDName@@ABV2@0@Z 0401c169 f i LIBCMT:undname.obj
 0001:0001b186       ?getReferenceType@UnDecorator@@CA?AVDName@@ABV2@0@Z 0401c186 f i LIBCMT:undname.obj
 0001:0001b1a3       ___unDName                 0401c1a3 f   LIBCMT:undname.obj
 0001:0001b23d       ___unDNameEx               0401c23d f   LIBCMT:undname.obj
 0001:0001b2d7       ?getBasicDataType@UnDecorator@@CA?AVDName@@ABV2@@Z 0401c2d7 f   LIBCMT:undname.obj
 0001:0001b68e       ?getPrimaryDataType@UnDecorator@@CA?AVDName@@ABV2@@Z 0401c68e f   LIBCMT:undname.obj
 0001:0001b7c6       ?getDataType@UnDecorator@@CA?AVDName@@PAV2@@Z 0401c7c6 f   LIBCMT:undname.obj
 0001:0001b886       ?getExternalDataType@UnDecorator@@CA?AVDName@@ABV2@@Z 0401c886 f i LIBCMT:undname.obj
 0001:0001b8f4       __local_unwind4            0401c8f4 f   LIBCMT:exsup4.obj
 0001:0001b9ca       __seh_longjmp_unwind4@4    0401c9ca f   LIBCMT:exsup4.obj
 0001:0001b9e6       @_EH4_CallFilterFunc@8     0401c9e6 f   LIBCMT:exsup4.obj
 0001:0001b9fd       @_EH4_TransferToHandler@8  0401c9fd f   LIBCMT:exsup4.obj
 0001:0001ba16       @_EH4_GlobalUnwind@4       0401ca16 f   LIBCMT:exsup4.obj
 0001:0001ba30       @_EH4_LocalUnwind@16       0401ca30 f   LIBCMT:exsup4.obj
 0001:0001ba47       __initp_misc_initcrit      0401ca47 f   LIBCMT:initcrit.obj
 0001:0001ba56       ___crtInitCritSecAndSpinCount 0401ca56 f   LIBCMT:initcrit.obj
 0001:0001bac0       __ValidateImageBase        0401cac0 f   LIBCMT:pesect.obj
 0001:0001bb00       __FindPESection            0401cb00 f   LIBCMT:pesect.obj
 0001:0001bb50       __IsNonwritableInCurrentImage 0401cb50 f   LIBCMT:pesect.obj
 0001:0001bdc7       ___crtGetStringTypeA       0401cdc7 f   LIBCMT:a_str.obj
 0001:0001be09       ___pwctype_func            0401ce09 f   LIBCMT:ctype.obj
 0001:0001be0f       ___pctype_func             0401ce0f f   LIBCMT:ctype.obj
 0001:0001c253       ___free_lc_time            0401d253 f   LIBCMT:inittime.obj
 0001:0001c3e8       ___init_time               0401d3e8 f   LIBCMT:inittime.obj
 0001:0001c494       ___free_lconv_num          0401d494 f   LIBCMT:initnum.obj
 0001:0001c4d9       ___init_numeric            0401d4d9 f   LIBCMT:initnum.obj
 0001:0001c6d6       ___free_lconv_mon          0401d6d6 f   LIBCMT:initmon.obj
 0001:0001c764       ___init_monetary           0401d764 f   LIBCMT:initmon.obj
 0001:0001ca2a       ___init_ctype              0401da2a f   LIBCMT:initctyp.obj
 0001:0001cdcc       ____mb_cur_max_func        0401ddcc f   LIBCMT:initctyp.obj
 0001:0001cdf5       ____mb_cur_max_l_func      0401ddf5 f   LIBCMT:initctyp.obj
 0001:0001ce11       ____lc_codepage_func       0401de11 f   LIBCMT:initctyp.obj
 0001:0001ce37       ____lc_collate_cp_func     0401de37 f   LIBCMT:initctyp.obj
 0001:0001ce5d       ____lc_handle_func         0401de5d f   LIBCMT:initctyp.obj
 0001:0001ce83       ___init_collate            0401de83 f   LIBCMT:initcoll.obj
 0001:0001ce86       __Getdays_l                0401de86 f   LIBCMT:strftime.obj
 0001:0001cf86       __Getdays                  0401df86 f   LIBCMT:strftime.obj
 0001:0001cf8f       __Getmonths_l              0401df8f f   LIBCMT:strftime.obj
 0001:0001d08f       __Getmonths                0401e08f f   LIBCMT:strftime.obj
 0001:0001d098       __Gettnames_l              0401e098 f   LIBCMT:strftime.obj
 0001:0001d3ef       __Gettnames                0401e3ef f   LIBCMT:strftime.obj
 0001:0001dd12       __Strftime_l               0401ed12 f   LIBCMT:strftime.obj
 0001:0001deb6       __strftime_l               0401eeb6 f   LIBCMT:strftime.obj
 0001:0001ded6       _strftime                  0401eed6 f   LIBCMT:strftime.obj
 0001:0001def5       __Strftime                 0401eef5 f   LIBCMT:strftime.obj
 0001:0001df15       _localeconv                0401ef15 f   LIBCMT:lconv.obj
 0001:0001df3b       _strcat_s                  0401ef3b f   LIBCMT:strcat_s.obj
 0001:0001dfb0       _strcspn                   0401efb0 f   LIBCMT:strcspn.obj
 0001:0001dff6       _strncpy_s                 0401eff6 f   LIBCMT:strncpy_s.obj
 0001:0001e6a6       ___get_qualified_locale    0401f6a6 f   LIBCMT:getqloc.obj
 0001:0001fe0d       _memcmp                    04020e0d f   LIBCMT:memcmp.obj
 0001:00021490       _strpbrk                   04022490 f   LIBCMT:strpbrk.obj
 0001:000214d0       ___ansicp                  040224d0 f   LIBCMT:convrtcp.obj
 0001:00021519       ___convertcp               04022519 f   LIBCMT:convrtcp.obj
 0001:000216d0       __alloca_probe_16          040226d0 f   LIBCMT:alloca16.obj
 0001:000216e6       __alloca_probe_8           040226e6     LIBCMT:alloca16.obj
 0001:000216fc       __iswctype_l               040226fc f   LIBCMT:iswctype.obj
 0001:00021786       _iswctype                  04022786 f   LIBCMT:iswctype.obj
 0001:000217fc       _is_wctype                 040227fc f   LIBCMT:iswctype.obj
 0001:00021807       __initp_misc_winsig        04022807 f   LIBCMT:winsig.obj
 0001:000218f7       ___get_sigabrt             040228f7 f   LIBCMT:winsig.obj
 0001:00021904       ___fpecode                 04022904 f   LIBCMT:winsig.obj
 0001:0002190d       ___pxcptinfoptrs           0402290d f   LIBCMT:winsig.obj
 0001:00021916       _signal                    04022916 f   LIBCMT:winsig.obj
 0001:00021b53       _raise                     04022b53 f   LIBCMT:winsig.obj
 0001:00021d03       __initp_misc_rand_s        04022d03 f   LIBCMT:rand_s.obj
 0001:00021d12       _rand_s                    04022d12 f   LIBCMT:rand_s.obj
 0001:00021e1a       ___crtMessageBoxA          04022e1a f   LIBCMT:crtmbox.obj
 0001:00021f83       __set_error_mode           04022f83 f   LIBCMT:errmode.obj
 0001:00021fce       ___set_app_type            04022fce f   LIBCMT:errmode.obj
 0001:00021fdd       ___get_app_type            04022fdd f   LIBCMT:errmode.obj
 0001:00021fe3       __lseeki64_nolock          04022fe3 f   LIBCMT:lseeki64.obj
 0001:00022068       __lseeki64                 04023068 f   LIBCMT:lseeki64.obj
 0001:00022181       __write_nolock             04023181 f   LIBCMT:write.obj
 0001:000228b4       __write                    040238b4 f   LIBCMT:write.obj
 0001:00022990       __getbuf                   04023990 f   LIBCMT:_getbuf.obj
 0001:000229d9       __isatty                   040239d9 f   LIBCMT:isatty.obj
 0001:00022a3d       ___iob_func                04023a3d f   LIBCMT:_file.obj
 0001:00022a43       ___initstdio               04023a43 f   LIBCMT:_file.obj
 0001:00022af4       ___endstdio                04023af4 f   LIBCMT:_file.obj
 0001:00022b14       __lock_file                04023b14 f   LIBCMT:_file.obj
 0001:00022b55       __lock_file2               04023b55 f   LIBCMT:_file.obj
 0001:00022b87       __unlock_file              04023b87 f   LIBCMT:_file.obj
 0001:00022bc3       __unlock_file2             04023bc3 f   LIBCMT:_file.obj
 0001:00022bf2       __fileno                   04023bf2 f   LIBCMT:fileno.obj
 0001:00022c24       _printf                    04023c24 f   LIBCMT:printf.obj
 0001:00022cd3       __printf_l                 04023cd3 f   LIBCMT:printf.obj
 0001:00022cec       __printf_s_l               04023cec f   LIBCMT:printf.obj
 0001:00022d05       _printf_s                  04023d05 f   LIBCMT:printf.obj
 0001:00022d1d       __printf_p_l               04023d1d f   LIBCMT:printf.obj
 0001:00022d36       __printf_p                 04023d36 f   LIBCMT:printf.obj
 0001:00022d4e       __set_printf_count_output  04023d4e f   LIBCMT:printf.obj
 0001:00022d78       __get_printf_count_output  04023d78 f   LIBCMT:printf.obj
 0001:00022d8e       __wctomb_s_l               04023d8e f   LIBCMT:wctomb.obj
 0001:00022efa       _wctomb_s                  04023efa f   LIBCMT:wctomb.obj
 0001:00022f17       __wctomb_l                 04023f17 f   LIBCMT:wctomb.obj
 0001:00022f68       _wctomb                    04023f68 f   LIBCMT:wctomb.obj
 0001:00022fa0       __aulldvrm                 04023fa0 f   LIBCMT:ulldvrm.obj
 0001:00023035       __validate_param_reuseA    04024035 f   LIBCMT:outputp.obj
 0001:00023206       _get_crtdouble_arg         04024206 f i LIBCMT:outputp.obj
 0001:0002321b       __output_p_l               0402421b f   LIBCMT:outputp.obj
 0001:00024581       __output_s_l               04025581 f   LIBCMT:outputs.obj
 0001:00025151       __ZeroTail                 04026151 f i LIBCMT:_intrncvt_.obj
 0001:0002519a       __IncMan                   0402619a f i LIBCMT:_intrncvt_.obj
 0001:00025207       __RoundMan                 04026207 f i LIBCMT:_intrncvt_.obj
 0001:000252f7       __CopyMan                  040262f7 f i LIBCMT:_intrncvt_.obj
 0001:00025316       __FillZeroMan              04026316 f i LIBCMT:_intrncvt_.obj
 0001:00025327       __IsZeroMan                04026327 f i LIBCMT:_intrncvt_.obj
 0001:00025346       __ShrMan                   04026346 f i LIBCMT:_intrncvt_.obj
 0001:000253e0       __ld12cvt                  040263e0 f i LIBCMT:_intrncvt_.obj
 0001:0002590b       __ld12tod                  0402690b f   LIBCMT:_intrncvt_.obj
 0001:00025e4f       __ld12tof                  04026e4f f   LIBCMT:_intrncvt_.obj
 0001:00026393       __ld12told                 04027393 f   LIBCMT:_intrncvt_.obj
 0001:0002645a       ___add_12                  0402745a f i LIBCMT:_mantold_.obj
 0001:000264cb       ___mtold12                 040274cb f   LIBCMT:_mantold_.obj
 0001:000266a0       _strrchr                   040276a0 f   LIBCMT:strrchr.obj
 0001:000266cd       __isalpha_l                040276cd f i LIBCMT:_ctype.obj
 0001:00026723       _isalpha                   04027723 f i LIBCMT:_ctype.obj
 0001:00026753       __isupper_l                04027753 f i LIBCMT:_ctype.obj
 0001:000267a4       _isupper                   040277a4 f i LIBCMT:_ctype.obj
 0001:000267d2       __islower_l                040277d2 f i LIBCMT:_ctype.obj
 0001:00026823       _islower                   04027823 f i LIBCMT:_ctype.obj
 0001:00026851       __isdigit_l                04027851 f i LIBCMT:_ctype.obj
 0001:000268a2       _isdigit                   040278a2 f i LIBCMT:_ctype.obj
 0001:000268d0       __isxdigit_l               040278d0 f i LIBCMT:_ctype.obj
 0001:00026926       _isxdigit                  04027926 f i LIBCMT:_ctype.obj
 0001:00026956       __isspace_l                04027956 f i LIBCMT:_ctype.obj
 0001:000269a7       _isspace                   040279a7 f i LIBCMT:_ctype.obj
 0001:000269d5       __ispunct_l                040279d5 f i LIBCMT:_ctype.obj
 0001:00026a26       _ispunct                   04027a26 f i LIBCMT:_ctype.obj
 0001:00026a54       __isalnum_l                04027a54 f i LIBCMT:_ctype.obj
 0001:00026aaa       _isalnum                   04027aaa f i LIBCMT:_ctype.obj
 0001:00026ada       __isprint_l                04027ada f i LIBCMT:_ctype.obj
 0001:00026b30       _isprint                   04027b30 f i LIBCMT:_ctype.obj
 0001:00026b60       __isgraph_l                04027b60 f i LIBCMT:_ctype.obj
 0001:00026bb6       _isgraph                   04027bb6 f i LIBCMT:_ctype.obj
 0001:00026be6       __iscntrl_l                04027be6 f i LIBCMT:_ctype.obj
 0001:00026c37       _iscntrl                   04027c37 f i LIBCMT:_ctype.obj
 0001:00026c65       ___isascii                 04027c65 f i LIBCMT:_ctype.obj
 0001:00026c77       ___toascii                 04027c77 f i LIBCMT:_ctype.obj
 0001:00026c84       __iscsymf_l                04027c84 f i LIBCMT:_ctype.obj
 0001:00026ca7       ___iscsymf                 04027ca7 f i LIBCMT:_ctype.obj
 0001:00026cc6       __iscsym_l                 04027cc6 f i LIBCMT:_ctype.obj
 0001:00026ce9       ___iscsym                  04027ce9 f i LIBCMT:_ctype.obj
 0001:00026d0a       __tolower                  04027d0a f   LIBCMT:tolower.obj
 0001:00026d17       __tolower_l                04027d17 f   LIBCMT:tolower.obj
 0001:00026e2c       _tolower                   04027e2c f   LIBCMT:tolower.obj
 0001:00026e58       __atodbl_l                 04027e58 f   LIBCMT:atodbl.obj
 0001:00026f00       __atodbl                   04027f00 f   LIBCMT:atodbl.obj
 0001:00026f17       __atoldbl_l                04027f17 f   LIBCMT:atodbl.obj
 0001:00026fc0       __atoldbl                  04027fc0 f   LIBCMT:atodbl.obj
 0001:00026fd7       __atoflt_l                 04027fd7 f   LIBCMT:atodbl.obj
 0001:0002707f       __atoflt                   0402807f f   LIBCMT:atodbl.obj
 0001:00027096       __set_output_format        04028096 f   LIBCMT:outputformat.obj
 0001:000270d2       __get_output_format        040280d2 f   LIBCMT:outputformat.obj
 0001:000270d8       __fptostr                  040280d8 f   LIBCMT:_fptostr.obj
 0001:00027197       ___dtold                   04028197 f   LIBCMT:_cfout_.obj
 0001:00027254       __fltout2                  04028254 f   LIBCMT:_cfout_.obj
 0001:000272f0       __alldvrm                  040282f0 f   LIBCMT:lldvrm.obj
 0001:000273d0       __aullshr                  040283d0 f   LIBCMT:ullshr.obj
 0001:000273ef       __fptrap                   040283ef f   LIBCMT:crt0fp.obj
 0001:000273f8       __controlfp_s              040283f8 f   LIBCMT:_contrlfp_.obj
 0001:00027464       ?_ValidateRead@@YAHPBXI@Z  04028464 f   LIBCMT:validate.obj
 0001:00027476       ?_ValidateWrite@@YAHPAXI@Z 04028476 f   LIBCMT:validate.obj
 0001:00027488       ?_ValidateExecute@@YAHP6GHXZ@Z 04028488 f   LIBCMT:validate.obj
 0001:0002749c       __global_unwind2           0402849c f   LIBCMT:exsup.obj
 0001:00027501       __local_unwind2            04028501 f   LIBCMT:exsup.obj
 0001:00027585       __abnormal_termination     04028585 f   LIBCMT:exsup.obj
 0001:000275a8       __NLG_Notify1              040285a8 f   LIBCMT:exsup.obj
 0001:000275b1       __NLG_Notify               040285b1 f   LIBCMT:exsup.obj
 0001:000275c8       __NLG_Dispatch2            040285c8     LIBCMT:exsup.obj
 0001:000275c8       __NLG_Dispatch             040285c8     LIBCMT:exsup.obj
 0001:000275d0       __NLG_Call                 040285d0 f   LIBCMT:exsup.obj
 0001:000275d2       __NLG_Return2              040285d2     LIBCMT:exsup.obj
 0001:000275ec       ___crtGetLocaleInfoW       040285ec f   LIBCMT:w_loc.obj
 0001:0002775f       ___crtGetLocaleInfoA       0402875f f   LIBCMT:a_loc.obj
 0001:0002779c       __calloc_impl              0402879c f   LIBCMT:calloc_impl.obj
 0001:000278ba       _realloc                   040288ba f   LIBCMT:realloc.obj
 0001:00027ad5       __recalloc                 04028ad5 f   LIBCMT:recalloc.obj
 0001:00027ba3       __ismbbkalnum_l            04028ba3 f   LIBCMT:ismbbyte.obj
 0001:00027bbc       __ismbbkalnum              04028bbc f   LIBCMT:ismbbyte.obj
 0001:00027bd4       __ismbbkprint_l            04028bd4 f   LIBCMT:ismbbyte.obj
 0001:00027bed       __ismbbkprint              04028bed f   LIBCMT:ismbbyte.obj
 0001:00027c05       __ismbbkpunct_l            04028c05 f   LIBCMT:ismbbyte.obj
 0001:00027c1e       __ismbbkpunct              04028c1e f   LIBCMT:ismbbyte.obj
 0001:00027c36       __ismbbalnum_l             04028c36 f   LIBCMT:ismbbyte.obj
 0001:00027c52       __ismbbalnum               04028c52 f   LIBCMT:ismbbyte.obj
 0001:00027c6d       __ismbbalpha_l             04028c6d f   LIBCMT:ismbbyte.obj
 0001:00027c89       __ismbbalpha               04028c89 f   LIBCMT:ismbbyte.obj
 0001:00027ca4       __ismbbgraph_l             04028ca4 f   LIBCMT:ismbbyte.obj
 0001:00027cc0       __ismbbgraph               04028cc0 f   LIBCMT:ismbbyte.obj
 0001:00027cdb       __ismbbprint_l             04028cdb f   LIBCMT:ismbbyte.obj
 0001:00027cf7       __ismbbprint               04028cf7 f   LIBCMT:ismbbyte.obj
 0001:00027d12       __ismbbpunct_l             04028d12 f   LIBCMT:ismbbyte.obj
 0001:00027d2b       __ismbbpunct               04028d2b f   LIBCMT:ismbbyte.obj
 0001:00027d43       __ismbblead_l              04028d43 f   LIBCMT:ismbbyte.obj
 0001:00027d5c       __ismbblead                04028d5c f   LIBCMT:ismbbyte.obj
 0001:00027d74       __ismbbtrail_l             04028d74 f   LIBCMT:ismbbyte.obj
 0001:00027d8d       __ismbbtrail               04028d8d f   LIBCMT:ismbbyte.obj
 0001:00027da5       __ismbbkana_l              04028da5 f   LIBCMT:ismbbyte.obj
 0001:00027dfa       __ismbbkana                04028dfa f   LIBCMT:ismbbyte.obj
 0001:00027e0d       __get_daylight             04028e0d f   LIBCMT:timeset.obj
 0001:00027e46       __get_dstbias              04028e46 f   LIBCMT:timeset.obj
 0001:00027e7f       __get_timezone             04028e7f f   LIBCMT:timeset.obj
 0001:00027eb8       __get_tzname               04028eb8 f   LIBCMT:timeset.obj
 0001:00027f5c       ___daylight                04028f5c f   LIBCMT:timeset.obj
 0001:00027f62       ___dstbias                 04028f62 f   LIBCMT:timeset.obj
 0001:00027f68       ___timezone                04028f68 f   LIBCMT:timeset.obj
 0001:00027f6e       ___tzname                  04028f6e f   LIBCMT:timeset.obj
 0001:00027f74       __set_daylight             04028f74 f i LIBCMT:tzset.obj
 0001:00027f85       __set_dstbias              04028f85 f i LIBCMT:tzset.obj
 0001:00027f96       __set_timezone             04028f96 f i LIBCMT:tzset.obj
 0001:000286bc       ___tzset                   040296bc f   LIBCMT:tzset.obj
 0001:0002870b       __tzset                    0402970b f   LIBCMT:tzset.obj
 0001:00028743       __isindst                  04029743 f   LIBCMT:tzset.obj
 0001:00028784       ___ascii_stricmp           04029784 f   LIBCMT:stricmp.obj
 0001:000287bd       __stricmp_l                040297bd f   LIBCMT:stricmp.obj
 0001:00028892       _stricmp                   04029892 f   LIBCMT:stricmp.obj
 0001:00028892       __stricmp                  04029892 f   LIBCMT:stricmp.obj
 0001:000288e4       __strnicmp_l               040298e4 f   LIBCMT:strnicmp.obj
 0001:000289d6       _strnicmp                  040299d6 f   LIBCMT:strnicmp.obj
 0001:000289d6       __strnicmp                 040299d6 f   LIBCMT:strnicmp.obj
 0001:00028b11       __itoa_s                   04029b11 f   LIBCMT:xtoas.obj
 0001:00028b3b       __ltoa_s                   04029b3b f   LIBCMT:xtoas.obj
 0001:00028b62       __ultoa_s                  04029b62 f   LIBCMT:xtoas.obj
 0001:00028c74       __i64toa_s                 04029c74 f   LIBCMT:xtoas.obj
 0001:00028ca9       __ui64toa_s                04029ca9 f   LIBCMT:xtoas.obj
 0001:00028ceb       ___crtGetStringTypeW       04029ceb f   LIBCMT:w_str.obj
 0001:00028d29       __set_osfhnd               04029d29 f   LIBCMT:osfinfo.obj
 0001:00028daa       __free_osfhnd              04029daa f   LIBCMT:osfinfo.obj
 0001:00028e30       __get_osfhandle            04029e30 f   LIBCMT:osfinfo.obj
 0001:00028ea7       ___lock_fhandle            04029ea7 f   LIBCMT:osfinfo.obj
 0001:00028f47       __unlock_fhandle           04029f47 f   LIBCMT:osfinfo.obj
 0001:00028f6e       __alloc_osfhnd             04029f6e f   LIBCMT:osfinfo.obj
 0001:00029108       __open_osfhandle           0402a108 f   LIBCMT:osfinfo.obj
 0001:0002921e       __putwch_nolock            0402a21e f   LIBCMT:putwch.obj
 0001:000292e3       __cputws                   0402a2e3 f   LIBCMT:putwch.obj
 0001:00029382       __putwch                   0402a382 f   LIBCMT:putwch.obj
 0001:000293c8       __mbtowc_l                 0402a3c8 f   LIBCMT:mbtowc.obj
 0001:000294df       _mbtowc                    0402a4df f   LIBCMT:mbtowc.obj
 0001:000294f9       __fcloseall                0402a4f9 f   LIBCMT:closeall.obj
 0001:00029598       __flush                    0402a598 f   LIBCMT:fflush.obj
 0001:00029600       __fflush_nolock            0402a600 f   LIBCMT:fflush.obj
 0001:00029722       _fflush                    0402a722 f   LIBCMT:fflush.obj
 0001:00029775       __flushall                 0402a775 f   LIBCMT:fflush.obj
 0001:0002977e       __stbuf                    0402a77e f   LIBCMT:_sftbuf.obj
 0001:0002981a       __ftbuf                    0402a81a f   LIBCMT:_sftbuf.obj
 0001:0002984e       _vprintf_helper            0402a84e f   LIBCMT:vprintf.obj
 0001:000298de       __vprintf_l                0402a8de f   LIBCMT:vprintf.obj
 0001:000298fb       __vprintf_s_l              0402a8fb f   LIBCMT:vprintf.obj
 0001:00029918       __vprintf_p_l              0402a918 f   LIBCMT:vprintf.obj
 0001:00029935       _vprintf                   0402a935 f   LIBCMT:vprintf.obj
 0001:00029951       _vprintf_s                 0402a951 f   LIBCMT:vprintf.obj
 0001:0002996d       __vprintf_p                0402a96d f   LIBCMT:vprintf.obj
 0001:00029989       _$I10_OUTPUT               0402a989 f   LIBCMT:_x10fout_.obj
 0001:0002a2ad       __set_controlfp            0402b2ad f   LIBCMT:_ieee87_.obj
 0001:0002a621       __statusfp                 0402b621 f   LIBCMT:_ieee87_.obj
 0001:0002a6b3       __fpreset                  0402b6b3 f   LIBCMT:_ieee87_.obj
 0001:0002a8ec       __statusfp2                0402b8ec f   LIBCMT:_ieee87_.obj
 0001:0002a946       __clearfp                  0402b946 f   LIBCMT:_ieee87_.obj
 0001:0002aa1f       ___control87_2             0402ba1f f   LIBCMT:_ieee87_.obj
 0001:0002ad33       __control87                0402bd33 f i LIBCMT:_ieee87_.obj
 0001:0002b042       __controlfp                0402c042 f   LIBCMT:_ieee87_.obj
 0001:0002b354       __getenv_helper_nolock     0402c354 f   LIBCMT:getenv.obj
 0001:0002b514       _getenv                    0402c514 f   LIBCMT:getenv.obj
 0001:0002b597       _getenv_s                  0402c597 f   LIBCMT:getenv.obj
 0001:0002b66f       __dupenv_s                 0402c66f f   LIBCMT:getenv.obj
 0001:0002b760       ___ascii_strnicmp          0402c760 f   LIBCMT:_strnicm.obj
 0001:0002b7c1       ___initconin               0402c7c1 f   LIBCMT:initcon.obj
 0001:0002b7e0       ___initconout              0402c7e0 f   LIBCMT:initcon.obj
 0001:0002b7ff       ___termcon                 0402c7ff f   LIBCMT:initcon.obj
 0001:0002b82c       _wcslen                    0402c82c f   LIBCMT:wcslen.obj
 0001:0002b846       __fclose_nolock            0402c846 f   LIBCMT:fclose.obj
 0001:0002b8bd       _fclose                    0402c8bd f   LIBCMT:fclose.obj
 0001:0002b939       __commit                   0402c939 f   LIBCMT:commit.obj
 0001:0002ba1a       __statfp                   0402ca1a f   LIBCMT:_fpctrl_.obj
 0001:0002ba2a       __clrfp                    0402ca2a f   LIBCMT:_fpctrl_.obj
 0001:0002ba3b       __ctrlfp                   0402ca3b f   LIBCMT:_fpctrl_.obj
 0001:0002ba64       __set_statfp               0402ca64 f   LIBCMT:_fpctrl_.obj
 0001:0002babc       ___get_fpsr_sse2           0402cabc f   LIBCMT:_fpctrl_.obj
 0001:0002bada       ___set_fpsr_sse2           0402cada f   LIBCMT:_fpctrl_.obj
 0001:0002bb4c       ___fclrf_sse2              0402cb4c f   LIBCMT:_fpctrl_.obj
 0001:0002bb69       ___statfp_sse2             0402cb69 f   LIBCMT:_fpctrl_.obj
 0001:0002bb7c       ___clrfp_sse2              0402cb7c f   LIBCMT:_fpctrl_.obj
 0001:0002bb94       ___ctrlfp_sse2             0402cb94 f   LIBCMT:_fpctrl_.obj
 0001:0002bbcb       ___set_statfp_sse2         0402cbcb f   LIBCMT:_fpctrl_.obj
 0001:0002bbe6       __mbsnbicoll_l             0402cbe6 f   LIBCMT:mbsnbico.obj
 0001:0002bcd4       __mbsnbicoll               0402ccd4 f   LIBCMT:mbsnbico.obj
 0001:0002bcee       ___wtomb_environ           0402ccee f   LIBCMT:wtombenv.obj
 0001:0002bd85       _calloc                    0402cd85 f   LIBCMT:calloc.obj
 0001:0002bdc5       _strnlen                   0402cdc5 f   LIBCMT:strlen_s.obj
 0001:0002bde2       __close_nolock             0402cde2 f   LIBCMT:close.obj
 0001:0002be7e       __close                    0402ce7e f   LIBCMT:close.obj
 0001:0002bf4b       __freebuf                  0402cf4b f   LIBCMT:_freebuf.obj
 0001:0002c30a       ___crtCompareStringA       0402d30a f   LIBCMT:a_cmp.obj
 0001:0002c34c       __strnicoll_l              0402d34c f   LIBCMT:strnicol.obj
 0001:0002c446       __strnicoll                0402d446 f   LIBCMT:strnicol.obj
 0001:0002c51b       ___crtsetenv               0402d51b f   LIBCMT:setenv.obj
 0001:0002c766       __strdup                   0402d766 f   LIBCMT:strdup.obj
 0001:0002c766       _strdup                    0402d766 f   LIBCMT:strdup.obj
 0001:0002c7bb       __mbschr_l                 0402d7bb f   LIBCMT:mbschr.obj
 0001:0002c877       __mbschr                   0402d877 f   LIBCMT:mbschr.obj
 0001:0002c8a0       _strchr                    0402d8a0 f   LIBCMT:strchr.obj
 0001:0002c8a6       ___from_strstr_to_strchr   0402d8a6     LIBCMT:strchr.obj
 0001:0002c95e       _GetLastError@0            0402d95e f   kernel32:KERNEL32.dll
 0001:0002c964       _HeapFree@12               0402d964 f   kernel32:KERNEL32.dll
 0001:0002c96a       _HeapAlloc@12              0402d96a f   kernel32:KERNEL32.dll
 0001:0002c970       _TerminateProcess@8        0402d970 f   kernel32:KERNEL32.dll
 0001:0002c976       _GetCurrentProcess@0       0402d976 f   kernel32:KERNEL32.dll
 0001:0002c97c       _UnhandledExceptionFilter@4 0402d97c f   kernel32:KERNEL32.dll
 0001:0002c982       _SetUnhandledExceptionFilter@4 0402d982 f   kernel32:KERNEL32.dll
 0001:0002c988       _IsDebuggerPresent@0       0402d988 f   kernel32:KERNEL32.dll
 0001:0002c98e       _RaiseException@16         0402d98e f   kernel32:KERNEL32.dll
 0001:0002c994       _RtlUnwind@16              0402d994 f   kernel32:KERNEL32.dll
 0001:0002c99a       _GetSystemTimeAsFileTime@4 0402d99a f   kernel32:KERNEL32.dll
 0001:0002c9a0       _GetCurrentThreadId@0      0402d9a0 f   kernel32:KERNEL32.dll
 0001:0002c9a6       _GetCommandLineA@0         0402d9a6 f   kernel32:KERNEL32.dll
 0001:0002c9ac       _HeapCreate@12             0402d9ac f   kernel32:KERNEL32.dll
 0001:0002c9b2       _HeapDestroy@4             0402d9b2 f   kernel32:KERNEL32.dll
 0001:0002c9b8       _VirtualFree@12            0402d9b8 f   kernel32:KERNEL32.dll
 0001:0002c9be       _FatalAppExitA@8           0402d9be f   kernel32:KERNEL32.dll
 0001:0002c9c4       _VirtualAlloc@16           0402d9c4 f   kernel32:KERNEL32.dll
 0001:0002c9ca       _HeapReAlloc@16            0402d9ca f   kernel32:KERNEL32.dll
 0001:0002c9d0       _GetCPInfo@8               0402d9d0 f   kernel32:KERNEL32.dll
 0001:0002c9d6       _InterlockedIncrement@4    0402d9d6 f   kernel32:KERNEL32.dll
 0001:0002c9dc       _InterlockedDecrement@4    0402d9dc f   kernel32:KERNEL32.dll
 0001:0002c9e2       _GetACP@0                  0402d9e2 f   kernel32:KERNEL32.dll
 0001:0002c9e8       _GetOEMCP@0                0402d9e8 f   kernel32:KERNEL32.dll
 0001:0002c9ee       _IsValidCodePage@4         0402d9ee f   kernel32:KERNEL32.dll
 0001:0002c9f4       _GetModuleHandleW@4        0402d9f4 f   kernel32:KERNEL32.dll
 0001:0002c9fa       _TlsGetValue@4             0402d9fa f   kernel32:KERNEL32.dll
 0001:0002ca00       _TlsAlloc@0                0402da00 f   kernel32:KERNEL32.dll
 0001:0002ca06       _TlsSetValue@8             0402da06 f   kernel32:KERNEL32.dll
 0001:0002ca0c       _TlsFree@4                 0402da0c f   kernel32:KERNEL32.dll
 0001:0002ca12       _SetLastError@4            0402da12 f   kernel32:KERNEL32.dll
 0001:0002ca18       _GetCurrentThread@0        0402da18 f   kernel32:KERNEL32.dll
 0001:0002ca1e       _LCMapStringA@24           0402da1e f   kernel32:KERNEL32.dll
 0001:0002ca24       _WideCharToMultiByte@32    0402da24 f   kernel32:KERNEL32.dll
 0001:0002ca2a       _MultiByteToWideChar@24    0402da2a f   kernel32:KERNEL32.dll
 0001:0002ca30       _LCMapStringW@24           0402da30 f   kernel32:KERNEL32.dll
 0001:0002ca36       _Sleep@4                   0402da36 f   kernel32:KERNEL32.dll
 0001:0002ca3c       _ExitProcess@4             0402da3c f   kernel32:KERNEL32.dll
 0001:0002ca42       _WriteFile@20              0402da42 f   kernel32:KERNEL32.dll
 0001:0002ca48       _GetStdHandle@4            0402da48 f   kernel32:KERNEL32.dll
 0001:0002ca4e       _GetModuleFileNameA@12     0402da4e f   kernel32:KERNEL32.dll
 0001:0002ca54       _GetModuleHandleA@4        0402da54 f   kernel32:KERNEL32.dll
 0001:0002ca5a       _HeapSize@12               0402da5a f   kernel32:KERNEL32.dll
 0001:0002ca60       _SetHandleCount@4          0402da60 f   kernel32:KERNEL32.dll
 0001:0002ca66       _GetFileType@4             0402da66 f   kernel32:KERNEL32.dll
 0001:0002ca6c       _GetStartupInfoA@4         0402da6c f   kernel32:KERNEL32.dll
 0001:0002ca72       _FreeEnvironmentStringsA@4 0402da72 f   kernel32:KERNEL32.dll
 0001:0002ca78       _GetEnvironmentStrings@0   0402da78 f   kernel32:KERNEL32.dll
 0001:0002ca7e       _FreeEnvironmentStringsW@4 0402da7e f   kernel32:KERNEL32.dll
 0001:0002ca84       _GetEnvironmentStringsW@0  0402da84 f   kernel32:KERNEL32.dll
 0001:0002ca8a       _QueryPerformanceCounter@4 0402da8a f   kernel32:KERNEL32.dll
 0001:0002ca90       _GetTickCount@0            0402da90 f   kernel32:KERNEL32.dll
 0001:0002ca96       _GetCurrentProcessId@0     0402da96 f   kernel32:KERNEL32.dll
 0001:0002ca9c       _InitializeCriticalSectionAndSpinCount@8 0402da9c f   kernel32:KERNEL32.dll
 0001:0002caa2       _GetStringTypeA@20         0402daa2 f   kernel32:KERNEL32.dll
 0001:0002caa8       _GetStringTypeW@16         0402daa8 f   kernel32:KERNEL32.dll
 0001:0002caae       _GetTimeFormatA@24         0402daae f   kernel32:KERNEL32.dll
 0001:0002cab4       _GetDateFormatA@24         0402dab4 f   kernel32:KERNEL32.dll
 0001:0002caba       _GetUserDefaultLCID@0      0402daba f   kernel32:KERNEL32.dll
 0001:0002cac0       _GetLocaleInfoA@16         0402dac0 f   kernel32:KERNEL32.dll
 0001:0002cac6       _EnumSystemLocalesA@8      0402dac6 f   kernel32:KERNEL32.dll
 0001:0002cacc       _IsValidLocale@8           0402dacc f   kernel32:KERNEL32.dll
 0001:0002cad2       _SetConsoleCtrlHandler@8   0402dad2 f   kernel32:KERNEL32.dll
 0001:0002cad8       _FreeLibrary@4             0402dad8 f   kernel32:KERNEL32.dll
 0001:0002cade       _InterlockedExchange@8     0402dade f   kernel32:KERNEL32.dll
 0001:0002cae4       _LoadLibraryA@4            0402dae4 f   kernel32:KERNEL32.dll
 0001:0002caea       _SetFilePointer@16         0402daea f   kernel32:KERNEL32.dll
 0001:0002caf0       _GetConsoleCP@0            0402daf0 f   kernel32:KERNEL32.dll
 0001:0002caf6       _GetConsoleMode@8          0402daf6 f   kernel32:KERNEL32.dll
 0001:0002cafc       _GetLocaleInfoW@16         0402dafc f   kernel32:KERNEL32.dll
 0001:0002cb02       _GetTimeZoneInformation@4  0402db02 f   kernel32:KERNEL32.dll
 0001:0002cb08       _SetStdHandle@8            0402db08 f   kernel32:KERNEL32.dll
 0001:0002cb0e       _WriteConsoleA@20          0402db0e f   kernel32:KERNEL32.dll
 0001:0002cb14       _GetConsoleOutputCP@0      0402db14 f   kernel32:KERNEL32.dll
 0001:0002cb1a       _WriteConsoleW@20          0402db1a f   kernel32:KERNEL32.dll
 0001:0002cb20       _CreateFileA@28            0402db20 f   kernel32:KERNEL32.dll
 0001:0002cb26       _CloseHandle@4             0402db26 f   kernel32:KERNEL32.dll
 0001:0002cb2c       _FlushFileBuffers@4        0402db2c f   kernel32:KERNEL32.dll
 0001:0002cb32       _CompareStringA@24         0402db32 f   kernel32:KERNEL32.dll
 0001:0002cb38       _CompareStringW@24         0402db38 f   kernel32:KERNEL32.dll
 0001:0002cb3e       _SetEnvironmentVariableA@8 0402db3e f   kernel32:KERNEL32.dll
 0001:0002cb88       __itoa                     0402db88 f   LIBCMT:xtoa.obj
 0001:0002cb88       _itoa                      0402db88 f   LIBCMT:xtoa.obj
 0001:0002cbb2       __ltoa                     0402dbb2 f   LIBCMT:xtoa.obj
 0001:0002cbd9       __ultoa                    0402dbd9 f   LIBCMT:xtoa.obj
 0001:0002cc62       __i64toa                   0402dc62 f   LIBCMT:xtoa.obj
 0001:0002cc95       __ui64toa                  0402dc95 f   LIBCMT:xtoa.obj
 0002:00000000       __imp__EnterCriticalSection@4 0402f000     kernel32:KERNEL32.dll
 0002:00000004       __imp__LeaveCriticalSection@4 0402f004     kernel32:KERNEL32.dll
 0002:00000008       __imp__GetProcAddress@8    0402f008     kernel32:KERNEL32.dll
 0002:0000000c       __imp__WritePrivateProfileStringA@16 0402f00c     kernel32:KERNEL32.dll
 0002:00000010       __imp__GetPrivateProfileIntA@16 0402f010     kernel32:KERNEL32.dll
 0002:00000014       __imp__InitializeCriticalSection@4 0402f014     kernel32:KERNEL32.dll
 0002:00000018       __imp__DeleteCriticalSection@4 0402f018     kernel32:KERNEL32.dll
 0002:0000001c       __imp__CompareStringW@24   0402f01c     kernel32:KERNEL32.dll
 0002:00000020       __imp__CompareStringA@24   0402f020     kernel32:KERNEL32.dll
 0002:00000024       __imp__FlushFileBuffers@4  0402f024     kernel32:KERNEL32.dll
 0002:00000028       __imp__CloseHandle@4       0402f028     kernel32:KERNEL32.dll
 0002:0000002c       __imp__CreateFileA@28      0402f02c     kernel32:KERNEL32.dll
 0002:00000030       __imp__WriteConsoleW@20    0402f030     kernel32:KERNEL32.dll
 0002:00000034       __imp__GetConsoleOutputCP@0 0402f034     kernel32:KERNEL32.dll
 0002:00000038       __imp__WriteConsoleA@20    0402f038     kernel32:KERNEL32.dll
 0002:0000003c       __imp__SetStdHandle@8      0402f03c     kernel32:KERNEL32.dll
 0002:00000040       __imp__GetTimeZoneInformation@4 0402f040     kernel32:KERNEL32.dll
 0002:00000044       __imp__GetLocaleInfoW@16   0402f044     kernel32:KERNEL32.dll
 0002:00000048       __imp__GetConsoleMode@8    0402f048     kernel32:KERNEL32.dll
 0002:0000004c       __imp__GetConsoleCP@0      0402f04c     kernel32:KERNEL32.dll
 0002:00000050       __imp__SetFilePointer@16   0402f050     kernel32:KERNEL32.dll
 0002:00000054       __imp__LoadLibraryA@4      0402f054     kernel32:KERNEL32.dll
 0002:00000058       __imp__InterlockedExchange@8 0402f058     kernel32:KERNEL32.dll
 0002:0000005c       __imp__FreeLibrary@4       0402f05c     kernel32:KERNEL32.dll
 0002:00000060       __imp__SetConsoleCtrlHandler@8 0402f060     kernel32:KERNEL32.dll
 0002:00000064       __imp__IsValidLocale@8     0402f064     kernel32:KERNEL32.dll
 0002:00000068       __imp__EnumSystemLocalesA@8 0402f068     kernel32:KERNEL32.dll
 0002:0000006c       __imp__GetLocaleInfoA@16   0402f06c     kernel32:KERNEL32.dll
 0002:00000070       __imp__GetUserDefaultLCID@0 0402f070     kernel32:KERNEL32.dll
 0002:00000074       __imp__GetDateFormatA@24   0402f074     kernel32:KERNEL32.dll
 0002:00000078       __imp__GetTimeFormatA@24   0402f078     kernel32:KERNEL32.dll
 0002:0000007c       __imp__GetStringTypeW@16   0402f07c     kernel32:KERNEL32.dll
 0002:00000080       __imp__GetStringTypeA@20   0402f080     kernel32:KERNEL32.dll
 0002:00000084       __imp__InitializeCriticalSectionAndSpinCount@8 0402f084     kernel32:KERNEL32.dll
 0002:00000088       __imp__GetCurrentProcessId@0 0402f088     kernel32:KERNEL32.dll
 0002:0000008c       __imp__GetTickCount@0      0402f08c     kernel32:KERNEL32.dll
 0002:00000090       __imp__QueryPerformanceCounter@4 0402f090     kernel32:KERNEL32.dll
 0002:00000094       __imp__GetEnvironmentStringsW@0 0402f094     kernel32:KERNEL32.dll
 0002:00000098       __imp__FreeEnvironmentStringsW@4 0402f098     kernel32:KERNEL32.dll
 0002:0000009c       __imp__GetEnvironmentStrings@0 0402f09c     kernel32:KERNEL32.dll
 0002:000000a0       __imp__FreeEnvironmentStringsA@4 0402f0a0     kernel32:KERNEL32.dll
 0002:000000a4       __imp__GetStartupInfoA@4   0402f0a4     kernel32:KERNEL32.dll
 0002:000000a8       __imp__GetFileType@4       0402f0a8     kernel32:KERNEL32.dll
 0002:000000ac       __imp__SetHandleCount@4    0402f0ac     kernel32:KERNEL32.dll
 0002:000000b0       __imp__GetLastError@0      0402f0b0     kernel32:KERNEL32.dll
 0002:000000b4       __imp__HeapFree@12         0402f0b4     kernel32:KERNEL32.dll
 0002:000000b8       __imp__HeapAlloc@12        0402f0b8     kernel32:KERNEL32.dll
 0002:000000bc       __imp__TerminateProcess@8  0402f0bc     kernel32:KERNEL32.dll
 0002:000000c0       __imp__GetCurrentProcess@0 0402f0c0     kernel32:KERNEL32.dll
 0002:000000c4       __imp__UnhandledExceptionFilter@4 0402f0c4     kernel32:KERNEL32.dll
 0002:000000c8       __imp__SetUnhandledExceptionFilter@4 0402f0c8     kernel32:KERNEL32.dll
 0002:000000cc       __imp__IsDebuggerPresent@0 0402f0cc     kernel32:KERNEL32.dll
 0002:000000d0       __imp__RaiseException@16   0402f0d0     kernel32:KERNEL32.dll
 0002:000000d4       __imp__RtlUnwind@16        0402f0d4     kernel32:KERNEL32.dll
 0002:000000d8       __imp__GetSystemTimeAsFileTime@4 0402f0d8     kernel32:KERNEL32.dll
 0002:000000dc       __imp__GetCurrentThreadId@0 0402f0dc     kernel32:KERNEL32.dll
 0002:000000e0       __imp__GetCommandLineA@0   0402f0e0     kernel32:KERNEL32.dll
 0002:000000e4       __imp__HeapCreate@12       0402f0e4     kernel32:KERNEL32.dll
 0002:000000e8       __imp__HeapDestroy@4       0402f0e8     kernel32:KERNEL32.dll
 0002:000000ec       __imp__VirtualFree@12      0402f0ec     kernel32:KERNEL32.dll
 0002:000000f0       __imp__FatalAppExitA@8     0402f0f0     kernel32:KERNEL32.dll
 0002:000000f4       __imp__VirtualAlloc@16     0402f0f4     kernel32:KERNEL32.dll
 0002:000000f8       __imp__HeapReAlloc@16      0402f0f8     kernel32:KERNEL32.dll
 0002:000000fc       __imp__GetCPInfo@8         0402f0fc     kernel32:KERNEL32.dll
 0002:00000100       __imp__InterlockedIncrement@4 0402f100     kernel32:KERNEL32.dll
 0002:00000104       __imp__InterlockedDecrement@4 0402f104     kernel32:KERNEL32.dll
 0002:00000108       __imp__GetACP@0            0402f108     kernel32:KERNEL32.dll
 0002:0000010c       __imp__GetOEMCP@0          0402f10c     kernel32:KERNEL32.dll
 0002:00000110       __imp__IsValidCodePage@4   0402f110     kernel32:KERNEL32.dll
 0002:00000114       __imp__GetModuleHandleW@4  0402f114     kernel32:KERNEL32.dll
 0002:00000118       __imp__TlsGetValue@4       0402f118     kernel32:KERNEL32.dll
 0002:0000011c       __imp__TlsAlloc@0          0402f11c     kernel32:KERNEL32.dll
 0002:00000120       __imp__TlsSetValue@8       0402f120     kernel32:KERNEL32.dll
 0002:00000124       __imp__TlsFree@4           0402f124     kernel32:KERNEL32.dll
 0002:00000128       __imp__SetLastError@4      0402f128     kernel32:KERNEL32.dll
 0002:0000012c       __imp__GetCurrentThread@0  0402f12c     kernel32:KERNEL32.dll
 0002:00000130       __imp__LCMapStringA@24     0402f130     kernel32:KERNEL32.dll
 0002:00000134       __imp__WideCharToMultiByte@32 0402f134     kernel32:KERNEL32.dll
 0002:00000138       __imp__MultiByteToWideChar@24 0402f138     kernel32:KERNEL32.dll
 0002:0000013c       __imp__LCMapStringW@24     0402f13c     kernel32:KERNEL32.dll
 0002:00000140       __imp__Sleep@4             0402f140     kernel32:KERNEL32.dll
 0002:00000144       __imp__ExitProcess@4       0402f144     kernel32:KERNEL32.dll
 0002:00000148       __imp__WriteFile@20        0402f148     kernel32:KERNEL32.dll
 0002:0000014c       __imp__GetStdHandle@4      0402f14c     kernel32:KERNEL32.dll
 0002:00000150       __imp__GetModuleFileNameA@12 0402f150     kernel32:KERNEL32.dll
 0002:00000154       __imp__GetModuleHandleA@4  0402f154     kernel32:KERNEL32.dll
 0002:00000158       __imp__HeapSize@12         0402f158     kernel32:KERNEL32.dll
 0002:0000015c       __imp__SetEnvironmentVariableA@8 0402f15c     kernel32:KERNEL32.dll
 0002:00000160       \177KERNEL32_NULL_THUNK_DATA 0402f160     kernel32:KERNEL32.dll
 0002:00000164       __imp__RemoveCommand       0402f164     MQ2Main:MQ2Main.dll
 0002:00000168       __imp__RemoveMQ2Data       0402f168     MQ2Main:MQ2Main.dll
 0002:0000016c       __imp__AddMQ2Data          0402f16c     MQ2Main:MQ2Main.dll
 0002:00000170       __imp__AddCommand          0402f170     MQ2Main:MQ2Main.dll
 0002:00000174       __imp__pBoolType           0402f174     MQ2Main:MQ2Main.dll
 0002:00000178       __imp__pIntType            0402f178     MQ2Main:MQ2Main.dll
 0002:0000017c       __imp__pStringType         0402f17c     MQ2Main:MQ2Main.dll
 0002:00000180       __imp__pClassType          0402f180     MQ2Main:MQ2Main.dll
 0002:00000184       __imp__pFloatType          0402f184     MQ2Main:MQ2Main.dll
 0002:00000188       __imp__pSpellType          0402f188     MQ2Main:MQ2Main.dll
 0002:0000018c       __imp__BuffStackTest       0402f18c     MQ2Main:MQ2Main.dll
 0002:00000190       __imp__ppSpellMgr          0402f190     MQ2Main:MQ2Main.dll
 0002:00000194       __imp__RemoveMQ2Type       0402f194     MQ2Main:MQ2Main.dll
 0002:00000198       __imp__AddMQ2Type          0402f198     MQ2Main:MQ2Main.dll
 0002:0000019c       __imp__gbInZone            0402f19c     MQ2Main:MQ2Main.dll
 0002:000001a0       __imp__EQADDR_SERVERNAME   0402f1a0     MQ2Main:MQ2Main.dll
 0002:000001a4       __imp__WriteChatf          0402f1a4     MQ2Main:MQ2Main.dll
 0002:000001a8       __imp__ppTarget            0402f1a8     MQ2Main:MQ2Main.dll
 0002:000001ac       __imp__ppPlayerWnd         0402f1ac     MQ2Main:MQ2Main.dll
 0002:000001b0       __imp__EQADDR_ATTACK       0402f1b0     MQ2Main:MQ2Main.dll
 0002:000001b4       __imp__pRaid               0402f1b4     MQ2Main:MQ2Main.dll
 0002:000001b8       __imp__FindSpeed           0402f1b8     MQ2Main:MQ2Main.dll
 0002:000001bc       __imp__ppPetInfoWnd        0402f1bc     MQ2Main:MQ2Main.dll
 0002:000001c0       __imp_?Max_Mana@EQ_Character1@EQClasses@@QAEHH@Z 0402f1c0     MQ2Main:MQ2Main.dll
 0002:000001c4       __imp_?Max_HP@EQ_Character1@EQClasses@@QAEHHH@Z 0402f1c4     MQ2Main:MQ2Main.dll
 0002:000001c8       __imp_?Cur_HP@EQ_Character1@EQClasses@@QAEHHE@Z 0402f1c8     MQ2Main:MQ2Main.dll
 0002:000001cc       __imp__ParseMacroData      0402f1cc     MQ2Main:MQ2Main.dll
 0002:000001d0       __imp__GetArg              0402f1d0     MQ2Main:MQ2Main.dll
 0002:000001d4       __imp__pPlugins            0402f1d4     MQ2Main:MQ2Main.dll
 0002:000001d8       __imp__DebugSpewAlways     0402f1d8     MQ2Main:MQ2Main.dll
 0002:000001dc       __imp__gszINIPath          0402f1dc     MQ2Main:MQ2Main.dll
 0002:000001e0       __imp__GetCXStr            0402f1e0     MQ2Main:MQ2Main.dll
 0002:000001e4       __imp_?GetSpawnByName@EQPlayerManager@EQClasses@@QAEPAVEQPlayer@2@PAD@Z 0402f1e4     MQ2Main:MQ2Main.dll
 0002:000001e8       __imp__ppSpawnManager      0402f1e8     MQ2Main:MQ2Main.dll
 0002:000001ec       __imp_?GetSpawnByID@EQPlayerManager@EQClasses@@QAEPAVEQPlayer@2@H@Z 0402f1ec     MQ2Main:MQ2Main.dll
 0002:000001f0       __imp__ppCharData          0402f1f0     MQ2Main:MQ2Main.dll
 0002:000001f4       \177MQ2Main_NULL_THUNK_DATA 0402f1f4     MQ2Main:MQ2Main.dll
 0002:000001f8       ___xc_a                    0402f1f8     LIBCMT:crt0init.obj
 0002:00000204       ___xc_z                    0402f204     LIBCMT:crt0init.obj
 0002:00000208       ___xi_a                    0402f208     LIBCMT:crt0init.obj
 0002:00000220       ___xi_z                    0402f220     LIBCMT:crt0init.obj
 0002:00000224       ___xp_a                    0402f224     LIBCMT:crt0init.obj
 0002:00000230       ___xp_z                    0402f230     LIBCMT:crt0init.obj
 0002:00000234       ___xt_a                    0402f234     LIBCMT:crt0init.obj
 0002:00000238       ___xt_z                    0402f238     LIBCMT:crt0init.obj
 0002:0000025c       ??_C@_03BMIBANNE@ber?$AA@  0402f25c     MQ2NetBots.obj
 0002:00000260       ??_C@_09MHCCJHFP@Berserker?$AA@ 0402f260     MQ2NetBots.obj
 0002:0000026c       ??_C@_03FCHAHFJA@bst?$AA@  0402f26c     MQ2NetBots.obj
 0002:00000270       ??_C@_09KINPMODP@Beastlord?$AA@ 0402f270     MQ2NetBots.obj
 0002:0000027c       ??_C@_03NONKPJJM@enc?$AA@  0402f27c     MQ2NetBots.obj
 0002:00000280       ??_C@_09EEJIJECG@Enchanter?$AA@ 0402f280     MQ2NetBots.obj
 0002:0000028c       ??_C@_03HEFOFDEK@mag?$AA@  0402f28c     MQ2NetBots.obj
 0002:00000290       ??_C@_04EPDGEGDL@Mage?$AA@ 0402f290     MQ2NetBots.obj
 0002:00000298       ??_C@_03LKIFNJBF@wiz?$AA@  0402f298     MQ2NetBots.obj
 0002:0000029c       ??_C@_06MNAGNDLP@Wizard?$AA@ 0402f29c     MQ2NetBots.obj
 0002:000002a4       ??_C@_03FIOJBHM@nec?$AA@   0402f2a4     MQ2NetBots.obj
 0002:000002a8       ??_C@_0M@OEPIPDJH@Necromancer?$AA@ 0402f2a8     MQ2NetBots.obj
 0002:000002b4       ??_C@_03DBKGKAOD@shm?$AA@  0402f2b4     MQ2NetBots.obj
 0002:000002b8       ??_C@_06ELHMMIIB@Shaman?$AA@ 0402f2b8     MQ2NetBots.obj
 0002:000002c0       ??_C@_03HGLKDJIJ@rog?$AA@  0402f2c0     MQ2NetBots.obj
 0002:000002c4       ??_C@_05PIFIONNP@Rogue?$AA@ 0402f2c4     MQ2NetBots.obj
 0002:000002cc       ??_C@_03BJHAANPG@brd?$AA@  0402f2cc     MQ2NetBots.obj
 0002:000002d0       ??_C@_04MOJAIBDA@Bard?$AA@ 0402f2d0     MQ2NetBots.obj
 0002:000002d8       ??_C@_03NDLHFLHL@mnk?$AA@  0402f2d8     MQ2NetBots.obj
 0002:000002dc       ??_C@_04DOLLCHAJ@Monk?$AA@ 0402f2dc     MQ2NetBots.obj
 0002:000002e4       ??_C@_03GPMCHBDK@dru?$AA@  0402f2e4     MQ2NetBots.obj
 0002:000002e8       ??_C@_05EDJAKLCL@Druid?$AA@ 0402f2e8     MQ2NetBots.obj
 0002:000002f0       ??_C@_03OAGEBLKK@shd?$AA@  0402f2f0     MQ2NetBots.obj
 0002:000002f4       ??_C@_0N@ICIHEJOD@Shadowknight?$AA@ 0402f2f4     MQ2NetBots.obj
 0002:00000304       ??_C@_03HHHIFDLO@rng?$AA@  0402f304     MQ2NetBots.obj
 0002:00000308       ??_C@_06MGJHBAMJ@Ranger?$AA@ 0402f308     MQ2NetBots.obj
 0002:00000310       ??_C@_03DFNJAFMD@pal?$AA@  0402f310     MQ2NetBots.obj
 0002:00000314       ??_C@_07DBGCNDAP@Paladin?$AA@ 0402f314     MQ2NetBots.obj
 0002:0000031c       ??_C@_03KLOMFBDO@clr?$AA@  0402f31c     MQ2NetBots.obj
 0002:00000320       ??_C@_06PBHENIKF@Cleric?$AA@ 0402f320     MQ2NetBots.obj
 0002:00000328       ??_C@_03HMEPACKF@war?$AA@  0402f328     MQ2NetBots.obj
 0002:0000032c       ??_C@_07DFKLKNJN@Warrior?$AA@ 0402f32c     MQ2NetBots.obj
 0002:00000334       ??_C@_00CNPNBAHC@?$AA@     0402f334     MQ2NetBots.obj
 0002:00000338       ??_C@_0P@GHFPNOJB@bad?5allocation?$AA@ 0402f338     MQ2NetBots.obj
 0002:00000348       ?collate@?$_Locbase@H@std@@2HB 0402f348     MQ2NetBots.obj
 0002:0000034c       ?ctype@?$_Locbase@H@std@@2HB 0402f34c     MQ2NetBots.obj
 0002:00000350       ?monetary@?$_Locbase@H@std@@2HB 0402f350     MQ2NetBots.obj
 0002:00000354       ?numeric@?$_Locbase@H@std@@2HB 0402f354     MQ2NetBots.obj
 0002:00000358       ?time@?$_Locbase@H@std@@2HB 0402f358     MQ2NetBots.obj
 0002:0000035c       ?messages@?$_Locbase@H@std@@2HB 0402f35c     MQ2NetBots.obj
 0002:00000360       ?all@?$_Locbase@H@std@@2HB 0402f360     MQ2NetBots.obj
 0002:00000364       ?none@?$_Locbase@H@std@@2HB 0402f364     MQ2NetBots.obj
 0002:00000368       ?table_size@?$ctype@D@std@@2IB 0402f368     MQ2NetBots.obj
 0002:0000036c       ?skipws@?$_Iosb@H@std@@2W4_Fmtflags@12@B 0402f36c     MQ2NetBots.obj
 0002:00000370       ?unitbuf@?$_Iosb@H@std@@2W4_Fmtflags@12@B 0402f370     MQ2NetBots.obj
 0002:00000374       ?uppercase@?$_Iosb@H@std@@2W4_Fmtflags@12@B 0402f374     MQ2NetBots.obj
 0002:00000378       ?showbase@?$_Iosb@H@std@@2W4_Fmtflags@12@B 0402f378     MQ2NetBots.obj
 0002:0000037c       ?showpoint@?$_Iosb@H@std@@2W4_Fmtflags@12@B 0402f37c     MQ2NetBots.obj
 0002:00000380       ?showpos@?$_Iosb@H@std@@2W4_Fmtflags@12@B 0402f380     MQ2NetBots.obj
 0002:00000384       ?left@?$_Iosb@H@std@@2W4_Fmtflags@12@B 0402f384     MQ2NetBots.obj
 0002:00000388       ?right@?$_Iosb@H@std@@2W4_Fmtflags@12@B 0402f388     MQ2NetBots.obj
 0002:0000038c       ?internal@?$_Iosb@H@std@@2W4_Fmtflags@12@B 0402f38c     MQ2NetBots.obj
 0002:00000390       ?dec@?$_Iosb@H@std@@2W4_Fmtflags@12@B 0402f390     MQ2NetBots.obj
 0002:00000394       ?oct@?$_Iosb@H@std@@2W4_Fmtflags@12@B 0402f394     MQ2NetBots.obj
 0002:00000398       ?hex@?$_Iosb@H@std@@2W4_Fmtflags@12@B 0402f398     MQ2NetBots.obj
 0002:0000039c       ?scientific@?$_Iosb@H@std@@2W4_Fmtflags@12@B 0402f39c     MQ2NetBots.obj
 0002:000003a0       ?fixed@?$_Iosb@H@std@@2W4_Fmtflags@12@B 0402f3a0     MQ2NetBots.obj
 0002:000003a4       ?hexfloat@?$_Iosb@H@std@@2W4_Fmtflags@12@B 0402f3a4     MQ2NetBots.obj
 0002:000003a8       ?boolalpha@?$_Iosb@H@std@@2W4_Fmtflags@12@B 0402f3a8     MQ2NetBots.obj
 0002:000003ac       ?_Stdio@?$_Iosb@H@std@@2W4_Fmtflags@12@B 0402f3ac     MQ2NetBots.obj
 0002:000003b0       ?adjustfield@?$_Iosb@H@std@@2W4_Fmtflags@12@B 0402f3b0     MQ2NetBots.obj
 0002:000003b4       ?basefield@?$_Iosb@H@std@@2W4_Fmtflags@12@B 0402f3b4     MQ2NetBots.obj
 0002:000003b8       ?floatfield@?$_Iosb@H@std@@2W4_Fmtflags@12@B 0402f3b8     MQ2NetBots.obj
 0002:000003bc       ?goodbit@?$_Iosb@H@std@@2W4_Iostate@12@B 0402f3bc     MQ2NetBots.obj
 0002:000003c0       ?eofbit@?$_Iosb@H@std@@2W4_Iostate@12@B 0402f3c0     MQ2NetBots.obj
 0002:000003c4       ?failbit@?$_Iosb@H@std@@2W4_Iostate@12@B 0402f3c4     MQ2NetBots.obj
 0002:000003c8       ?badbit@?$_Iosb@H@std@@2W4_Iostate@12@B 0402f3c8     MQ2NetBots.obj
 0002:000003cc       ?_Hardfail@?$_Iosb@H@std@@2W4_Iostate@12@B 0402f3cc     MQ2NetBots.obj
 0002:000003d0       ?in@?$_Iosb@H@std@@2W4_Openmode@12@B 0402f3d0     MQ2NetBots.obj
 0002:000003d4       ?out@?$_Iosb@H@std@@2W4_Openmode@12@B 0402f3d4     MQ2NetBots.obj
 0002:000003d8       ?ate@?$_Iosb@H@std@@2W4_Openmode@12@B 0402f3d8     MQ2NetBots.obj
 0002:000003dc       ?app@?$_Iosb@H@std@@2W4_Openmode@12@B 0402f3dc     MQ2NetBots.obj
 0002:000003e0       ?trunc@?$_Iosb@H@std@@2W4_Openmode@12@B 0402f3e0     MQ2NetBots.obj
 0002:000003e4       ?_Nocreate@?$_Iosb@H@std@@2W4_Openmode@12@B 0402f3e4     MQ2NetBots.obj
 0002:000003e8       ?_Noreplace@?$_Iosb@H@std@@2W4_Openmode@12@B 0402f3e8     MQ2NetBots.obj
 0002:000003ec       ?binary@?$_Iosb@H@std@@2W4_Openmode@12@B 0402f3ec     MQ2NetBots.obj
 0002:000003f0       ?beg@?$_Iosb@H@std@@2W4_Seekdir@12@B 0402f3f0     MQ2NetBots.obj
 0002:000003f4       ?cur@?$_Iosb@H@std@@2W4_Seekdir@12@B 0402f3f4     MQ2NetBots.obj
 0002:000003f8       ?end@?$_Iosb@H@std@@2W4_Seekdir@12@B 0402f3f8     MQ2NetBots.obj
 0002:00000400       ??_7bad_alloc@std@@6B@     0402f400     MQ2NetBots.obj
 0002:00000408       ??_C@_0BA@GBDCPMBP@Lax?1Blech?51?47?44?$AA@ 0402f408     MQ2NetBots.obj
 0002:00000418       ??_C@_0BD@GHJBOHNK@?$CFs?5Module?5Unloaded?$AA@ 0402f418     MQ2NetBots.obj
 0002:0000042c       ??_C@_09KADMDAPI@?$CFs?2?$CFs?4ini?$AA@ 0402f42c     MQ2NetBots.obj
 0002:00000438       ??_C@_0BB@OIFMLBEG@?$CFs?5Module?5Loaded?$AA@ 0402f438     MQ2NetBots.obj
 0002:0000044c       ??_C@_0L@LMADOFFG@MQ2NetBots?$AA@ 0402f44c     MQ2NetBots.obj
 0002:00000458       ??_C@_0M@JDNFCPML@isConnected?$AA@ 0402f458     MQ2NetBots.obj
 0002:00000464       ??_C@_07FFEMPACL@mq2eqbc?$AA@ 0402f464     MQ2NetBots.obj
 0002:0000046c       ??_C@_0O@NKGPBJMM@NetBotSendMsg?$AA@ 0402f46c     MQ2NetBots.obj
 0002:0000047c       ??_C@_0BH@IBNLENGB@?$HMF?$DN$?$HLMe?4FreeBuffSlots?$HN?$AA@ 0402f47c     MQ2NetBots.obj
 0002:00000494       ??_C@_03CDCAMCGK@?$CFd?3?$AA@ 0402f494     MQ2NetBots.obj
 0002:00000498       ??_C@_0N@BEMEOHGI@?$CFd?3?$CFd?3?$CF02?43f?$AA@ 0402f498     MQ2NetBots.obj
 0002:000004a8       ??_C@_05NFGPCJDJ@?$CFd?3?$CFd?$AA@ 0402f4a8     MQ2NetBots.obj
 0002:000004b0       ??_C@_05LCKIIOJE@?$CFd?1?$CFd?$AA@ 0402f4b0     MQ2NetBots.obj
 0002:000004b8       __real@00000000            0402f4b8     MQ2NetBots.obj
 0002:000004bc       ??_C@_08BCHAAPIF@?$CFd?3?$CFd?3?$CFd?$AA@ 0402f4bc     MQ2NetBots.obj
 0002:000004c8       ??_C@_08JNBCJINC@?$CFd?3?$CFd?$DO?$CFd?$AA@ 0402f4c8     MQ2NetBots.obj
 0002:000004d4       ??_C@_0BP@OHMJEPPP@?$CFs?3?3?5?$CI?$CFs?$CJ?5Grab?5?$CI?$CFs?$CJ?5Send?5?$CI?$CFs?$CJ?4?$AA@ 0402f4d4     MQ2NetBots.obj
 0002:000004f4       ??_C@_07PINLJKEL@?$AHroff?$AHx?$AA@ 0402f4f4     MQ2NetBots.obj
 0002:000004fc       ??_C@_06JAPHKEDK@?$AHgon?$AHx?$AA@ 0402f4fc     MQ2NetBots.obj
 0002:00000504       ??_C@_04KAHFJHNH@Stat?$AA@ 0402f504     MQ2NetBots.obj
 0002:0000050c       ??_C@_04JEOPCEB@Send?$AA@  0402f50c     MQ2NetBots.obj
 0002:00000514       ??_C@_04MIIPNNEF@send?$AA@ 0402f514     MQ2NetBots.obj
 0002:0000051c       ??_C@_04MOGEMJO@Grab?$AA@  0402f51c     MQ2NetBots.obj
 0002:00000524       ??_C@_01GBGANLPD@0?$AA@    0402f524     MQ2NetBots.obj
 0002:00000528       ??_C@_01HIHLOKLC@1?$AA@    0402f528     MQ2NetBots.obj
 0002:0000052c       ??_C@_04MNCHGDJK@grab?$AA@ 0402f52c     MQ2NetBots.obj
 0002:00000534       ??_C@_06NKHGCJAI@plugin?$AA@ 0402f534     MQ2NetBots.obj
 0002:0000053c       ??_C@_04GBLELIND@stat?$AA@ 0402f53c     MQ2NetBots.obj
 0002:00000544       ??_C@_03MCADLMAF@off?$AA@  0402f544     MQ2NetBots.obj
 0002:00000548       ??_C@_02LIELOMNJ@on?$AA@   0402f548     MQ2NetBots.obj
 0002:0000054c       ??_C@_0P@NAKEGFPE@?$FLNB?$FN?$HMZ?$DN?3?$DO?$HM?$FLNB?$FN?$AA@ 0402f54c     MQ2NetBots.obj
 0002:0000055c       ??_C@_0N@ENGMPNOO@?$CFs?2?$CFs_?$CFs?4ini?$AA@ 0402f55c     MQ2NetBots.obj
 0002:00000570       ??_7logic_error@std@@6B@   0402f570     MQ2NetBots.obj
 0002:0000057c       ??_7length_error@std@@6B@  0402f57c     MQ2NetBots.obj
 0002:00000588       ??_7out_of_range@std@@6B@  0402f588     MQ2NetBots.obj
 0002:00000590       ??_C@_0BM@PAPJHAGI@invalid?5map?1set?$DMT?$DO?5iterator?$AA@ 0402f590     MQ2NetBots.obj
 0002:000005ac       ??_C@_0BE@JONHPENG@map?1set?$DMT?$DO?5too?5long?$AA@ 0402f5ac     MQ2NetBots.obj
 0002:000005c0       ??_C@_04HBNOKDIB@?$FLNB?$FN?$AA@ 0402f5c0     MQ2NetBots.obj
 0002:000005c8       ??_C@_05BJEEFLOP@?$FLNB?$FN?$HM?$AA@ 0402f5c8     MQ2NetBots.obj
 0002:000005d0       ??_C@_05KLFDCFCN@O?$DN?$CFs?$HM?$AA@ 0402f5d0     MQ2NetBots.obj
 0002:000005d8       ??_C@_05JBFJEEFN@A?$DN?$CFs?$HM?$AA@ 0402f5d8     MQ2NetBots.obj
 0002:000005e0       ??_C@_05PIEILGAF@Z?$DN?$CFs?$HM?$AA@ 0402f5e0     MQ2NetBots.obj
 0002:000005e8       ??_C@_05MCECNHHF@T?$DN?$CFs?$HM?$AA@ 0402f5e8     MQ2NetBots.obj
 0002:000005f0       ??_C@_05HONMMEKL@Y?$DN?$CFs?$HM?$AA@ 0402f5f0     MQ2NetBots.obj
 0002:000005f8       ??_C@_05NPEHOHMN@S?$DN?$CFs?$HM?$AA@ 0402f5f8     MQ2NetBots.obj
 0002:00000600       ??_C@_05FJNDJFGD@P?$DN?$CFs?$HM?$AA@ 0402f600     MQ2NetBots.obj
 0002:00000608       ??_C@_05EENGKFNL@W?$DN?$CFs?$HM?$AA@ 0402f608     MQ2NetBots.obj
 0002:00000610       ??_C@_05OGJLIECG@M?$DN?$CFs?$HM?$AA@ 0402f610     MQ2NetBots.obj
 0002:00000618       ??_C@_05LGFGBFJF@H?$DN?$CFs?$HM?$AA@ 0402f618     MQ2NetBots.obj
 0002:00000620       ??_C@_05CNMHFHID@L?$DN?$CFs?$HM?$AA@ 0402f620     MQ2NetBots.obj
 0002:00000628       ??_C@_05GAAPPGII@N?$DN?$CFs?$HM?$AA@ 0402f628     MQ2NetBots.obj
 0002:00000630       ??_C@_05LFIABHAO@X?$DN?$CFs?$HM?$AA@ 0402f630     MQ2NetBots.obj
 0002:00000638       ??_C@_05NMJBOFFG@C?$DN?$CFs?$HM?$AA@ 0402f638     MQ2NetBots.obj
 0002:00000640       ??_C@_05BHMNDGPD@B?$DN?$CFs?$HM?$AA@ 0402f640     MQ2NetBots.obj
 0002:00000648       ??_C@_06LABFLKJ@NBEXIT?$AA@ 0402f648     MQ2NetBots.obj
 0002:00000650       ??_C@_07PHMOINEI@NBJOIN?$DN?$AA@ 0402f650     MQ2NetBots.obj
 0002:00000658       ??_C@_07KFDONGJF@NBQUIT?$DN?$AA@ 0402f658     MQ2NetBots.obj
 0002:00000664       ??_7MQ2Type@MQ2Internal@@6B@ 0402f664     MQ2NetBots.obj
 0002:0000067c       ??_C@_06CNEMJEJI@Stacks?$AA@ 0402f67c     MQ2NetBots.obj
 0002:00000684       ??_C@_0M@BMLBLPMP@CombatState?$AA@ 0402f684     MQ2NetBots.obj
 0002:00000690       ??_C@_08KKBINMNI@UnusedAA?$AA@ 0402f690     MQ2NetBots.obj
 0002:0000069c       ??_C@_06ODGEJICE@UsedAA?$AA@ 0402f69c     MQ2NetBots.obj
 0002:000006a4       ??_C@_07OLGECBIE@TotalAA?$AA@ 0402f6a4     MQ2NetBots.obj
 0002:000006ac       ??_C@_07PHJEIOAN@Updated?$AA@ 0402f6ac     MQ2NetBots.obj
 0002:000006b4       ??_C@_06PKACINHD@Leader?$AA@ 0402f6b4     MQ2NetBots.obj
 0002:000006bc       ??_C@_07PIIJHDIL@InGroup?$AA@ 0402f6bc     MQ2NetBots.obj
 0002:000006c4       ??_C@_06MKNLDHPG@InZone?$AA@ 0402f6c4     MQ2NetBots.obj
 0002:000006cc       ??_C@_0O@OAALLOMP@FreeBuffSlots?$AA@ 0402f6cc     MQ2NetBots.obj
 0002:000006dc       ??_C@_07IHOJNPPB@PetBuff?$AA@ 0402f6dc     MQ2NetBots.obj
 0002:000006e4       ??_C@_09EKENJFII@ShortBuff?$AA@ 0402f6e4     MQ2NetBots.obj
 0002:000006f0       ??_C@_04DIPCCING@Buff?$AA@ 0402f6f0     MQ2NetBots.obj
 0002:000006f8       ??_C@_07LAMKFCIN@Stunned?$AA@ 0402f6f8     MQ2NetBots.obj
 0002:00000700       ??_C@_08CHGFFCLN@Standing?$AA@ 0402f700     MQ2NetBots.obj
 0002:0000070c       ??_C@_07ONGAHHJO@Sitting?$AA@ 0402f70c     MQ2NetBots.obj
 0002:00000714       ??_C@_04LOADFKCD@Raid?$AA@ 0402f714     MQ2NetBots.obj
 0002:0000071c       ??_C@_06OGKEDPBL@Moving?$AA@ 0402f71c     MQ2NetBots.obj
 0002:00000724       ??_C@_07IDIGAOFL@Mounted?$AA@ 0402f724     MQ2NetBots.obj
 0002:0000072c       ??_C@_03MEFGOPNG@LFG?$AA@  0402f72c     MQ2NetBots.obj
 0002:00000730       ??_C@_0L@MKPPMGML@Levitating?$AA@ 0402f730     MQ2NetBots.obj
 0002:0000073c       ??_C@_07COFAPPKE@Grouped?$AA@ 0402f73c     MQ2NetBots.obj
 0002:00000744       ??_C@_08CPHDGDDI@Feigning?$AA@ 0402f744     MQ2NetBots.obj
 0002:00000750       ??_C@_05ENCIOJAO@Invis?$AA@ 0402f750     MQ2NetBots.obj
 0002:00000758       ??_C@_07MHADILGG@Ducking?$AA@ 0402f758     MQ2NetBots.obj
 0002:00000760       ??_C@_07JPNMPAFE@Binding?$AA@ 0402f760     MQ2NetBots.obj
 0002:00000768       ??_C@_03JKIJHIAH@AFK?$AA@  0402f768     MQ2NetBots.obj
 0002:0000076c       ??_C@_09ILMACJJO@Attacking?$AA@ 0402f76c     MQ2NetBots.obj
 0002:00000778       ??_C@_05JNKNAC@State?$AA@  0402f778     MQ2NetBots.obj
 0002:00000780       ??_C@_07LPDBDIGK@Casting?$AA@ 0402f780     MQ2NetBots.obj
 0002:00000788       ??_C@_08DFLCOLDE@TargetHP?$AA@ 0402f788     MQ2NetBots.obj
 0002:00000794       ??_C@_08BKNOFGFG@TargetID?$AA@ 0402f794     MQ2NetBots.obj
 0002:000007a0       ??_C@_05DDAOBIHB@PetHP?$AA@ 0402f7a0     MQ2NetBots.obj
 0002:000007a8       ??_C@_05BMGCKFBD@PetID?$AA@ 0402f7a8     MQ2NetBots.obj
 0002:000007b0       ??_C@_07PIEAHKKN@PctMana?$AA@ 0402f7b0     MQ2NetBots.obj
 0002:000007b8       ??_C@_07PPKDIPAF@MaxMana?$AA@ 0402f7b8     MQ2NetBots.obj
 0002:000007c0       ??_C@_0M@KOCMHKDF@CurrentMana?$AA@ 0402f7c0     MQ2NetBots.obj
 0002:000007cc       ??_C@_06PFHKIGJK@PctHPs?$AA@ 0402f7cc     MQ2NetBots.obj
 0002:000007d4       ??_C@_06HLELDHJO@MaxHPs?$AA@ 0402f7d4     MQ2NetBots.obj
 0002:000007dc       ??_C@_0L@CKLODNKP@CurrentHPs?$AA@ 0402f7dc     MQ2NetBots.obj
 0002:000007e8       ??_C@_0BC@OFKHGJGM@PctGroupLeaderExp?$AA@ 0402f7e8     MQ2NetBots.obj
 0002:000007fc       ??_C@_08FFGHLJGG@PctAAExp?$AA@ 0402f7fc     MQ2NetBots.obj
 0002:00000808       ??_C@_06BKGDBKNM@PctExp?$AA@ 0402f808     MQ2NetBots.obj
 0002:00000810       ??_C@_05KOHFLOFG@Level?$AA@ 0402f810     MQ2NetBots.obj
 0002:00000818       ??_C@_05EKAMNAII@Class?$AA@ 0402f818     MQ2NetBots.obj
 0002:00000820       ??_C@_02OLOABKKD@ID?$AA@   0402f820     MQ2NetBots.obj
 0002:00000824       ??_C@_08MOCFFNLD@Instance?$AA@ 0402f824     MQ2NetBots.obj
 0002:00000830       ??_C@_04HCPIEBBF@Zone?$AA@ 0402f830     MQ2NetBots.obj
 0002:00000838       ??_C@_04FABLJDN@Name?$AA@  0402f838     MQ2NetBots.obj
 0002:00000840       ??_C@_06PJIGMIJB@Client?$AA@ 0402f840     MQ2NetBots.obj
 0002:00000848       ??_C@_06FDPDPHNM@Counts?$AA@ 0402f848     MQ2NetBots.obj
 0002:00000850       ??_C@_06PFDLEJLJ@Output?$AA@ 0402f850     MQ2NetBots.obj
 0002:00000858       ??_C@_06CBIOIDCI@Listen?$AA@ 0402f858     MQ2NetBots.obj
 0002:00000864       ??_7MQ2NetBotsType@@6B@    0402f864     MQ2NetBots.obj
 0002:0000087c       ??_C@_06CKGENIKG@Enable?$AA@ 0402f87c     MQ2NetBots.obj
 0002:00000884       ??_C@_07PJGLNKBJ@NetBots?$AA@ 0402f884     MQ2NetBots.obj
 0002:0000088c       ??_C@_04HCDDPBNL@TRUE?$AA@ 0402f88c     MQ2NetBots.obj
 0002:00000894       ??_C@_04HIBGFPH@NULL?$AA@  0402f894     MQ2NetBots.obj
 0002:0000089c       ??_C@_03JDANDILB@?$CFd?5?$AA@ 0402f89c     MQ2NetBots.obj
 0002:000008a0       ??_C@_07NFANNNEC@UNKNOWN?$AA@ 0402f8a0     MQ2NetBots.obj
 0002:000008a8       ??_C@_04NNCJDDJC@DEAD?$AA@ 0402f8a8     MQ2NetBots.obj
 0002:000008b0       ??_C@_05PKBMIOGN@FEIGN?$AA@ 0402f8b0     MQ2NetBots.obj
 0002:000008b8       ??_C@_04BDODDOLH@BIND?$AA@ 0402f8b8     MQ2NetBots.obj
 0002:000008c0       ??_C@_04JCMKMKM@DUCK?$AA@  0402f8c0     MQ2NetBots.obj
 0002:000008c8       ??_C@_05MEANFIJN@STAND?$AA@ 0402f8c8     MQ2NetBots.obj
 0002:000008d0       ??_C@_04GIMKLNM@STUN?$AA@  0402f8d0     MQ2NetBots.obj
 0002:000008d8       __real@4024000000000000    0402f8d8     MQ2NetBots.obj
 0002:000008e0       __real@400a666660000000    0402f8e0     MQ2NetBots.obj
 0002:000008e8       __real@4f800000            0402f8e8     MQ2NetBots.obj
 0002:000008ec       ??_C@_01CLKCMJKC@?5?$AA@   0402f8ec     MQ2NetBots.obj
 0002:000008f0       ??_C@_08BPLPBBPO@?1netbots?$AA@ 0402f8f0     MQ2NetBots.obj
 0002:000008fc       ??_C@_0BK@FCCDHNGI@?$CD?$CK?$CD?$FLNB?$FN?$CD?$CK?$CD?$HMO?$DN?$CD38?$CD?$HM?$CD?$CK?$CD?$FLNB?$FN?$AA@ 0402f8fc     MQ2NetBots.obj
 0002:00000918       ??_C@_0CE@JLJAAKNF@?$CD?$CK?$CD?$FLNB?$FN?$CD?$CK?$CD?$HMA?$DN?$CD35?$CD?3?$CD36?$CD?3?$CD37?$CD?$HM?$CD?$CK?$CD?$FL@ 0402f918     MQ2NetBots.obj
 0002:0000093c       ??_C@_0BK@IGMNEJFB@?$CD?$CK?$CD?$FLNB?$FN?$CD?$CK?$CD?$HMD?$DN?$CD34?$CD?$HM?$CD?$CK?$CD?$FLNB?$FN?$AA@ 0402f93c     MQ2NetBots.obj
 0002:00000958       ??_C@_0BK@PKOJKJOE@?$CD?$CK?$CD?$FLNB?$FN?$CD?$CK?$CD?$HMW?$DN?$CD33?$CD?$HM?$CD?$CK?$CD?$FLNB?$FN?$AA@ 0402f958     MQ2NetBots.obj
 0002:00000974       ??_C@_0BK@LBBLBDEH@?$CD?$CK?$CD?$FLNB?$FN?$CD?$CK?$CD?$HMS?$DN?$CD32?$CD?$HM?$CD?$CK?$CD?$FLNB?$FN?$AA@ 0402f974     MQ2NetBots.obj
 0002:00000990       ??_C@_0BK@NFGADBOB@?$CD?$CK?$CD?$FLNB?$FN?$CD?$CK?$CD?$HMB?$DN?$CD31?$CD?$HM?$CD?$CK?$CD?$FLNB?$FN?$AA@ 0402f990     MQ2NetBots.obj
 0002:000009ac       ??_C@_0BK@CHGJFAKK@?$CD?$CK?$CD?$FLNB?$FN?$CD?$CK?$CD?$HMG?$DN?$CD30?$CD?$HM?$CD?$CK?$CD?$FLNB?$FN?$AA@ 0402f9ac     MQ2NetBots.obj
 0002:000009c8       ??_C@_0BK@JCNCLCGL@?$CD?$CK?$CD?$FLNB?$FN?$CD?$CK?$CD?$HMN?$DN?$CD22?$CD?$HM?$CD?$CK?$CD?$FLNB?$FN?$AA@ 0402f9c8     MQ2NetBots.obj
 0002:000009e4       ??_C@_0BL@HHCPGPNH@?$CD?$CK?$CD?$FLNB?$FN?$CD?$CK?$CD?$HMF?$DN?$CD21?$CD?3?$HM?$CD?$CK?$CD?$FLNB?$FN?$AA@ 0402f9e4     MQ2NetBots.obj
 0002:00000a00       ??_C@_0CE@CEMOMHMA@?$CD?$CK?$CD?$FLNB?$FN?$CD?$CK?$CD?$HMX?$DN?$CD18?$CD?3?$CD19?$CD?3?$CD20?$CD?$HM?$CD?$CK?$CD?$FL@ 0402fa00     MQ2NetBots.obj
 0002:00000a24       ??_C@_0BK@ELHIFMIM@?$CD?$CK?$CD?$FLNB?$FN?$CD?$CK?$CD?$HMY?$DN?$CD17?$CD?$HM?$CD?$CK?$CD?$FLNB?$FN?$AA@ 0402fa24     MQ2NetBots.obj
 0002:00000a40       ??_C@_0BK@KJJLGBBF@?$CD?$CK?$CD?$FLNB?$FN?$CD?$CK?$CD?$HMC?$DN?$CD16?$CD?$HM?$CD?$CK?$CD?$FLNB?$FN?$AA@ 0402fa40     MQ2NetBots.obj
 0002:00000a5c       ??_C@_0BP@LIGFLEIO@?$CD?$CK?$CD?$FLNB?$FN?$CD?$CK?$CD?$HMT?$DN?$CD14?$CD?3?$CD15?$CD?$HM?$CD?$CK?$CD?$FLNB?$FN?$AA@ 0402fa5c     MQ2NetBots.obj
 0002:00000a7c       ??_C@_0BP@ENKMPMHA@?$CD?$CK?$CD?$FLNB?$FN?$CD?$CK?$CD?$HMP?$DN?$CD12?$CD?3?$CD13?$CD?$HM?$CD?$CK?$CD?$FLNB?$FN?$AA@ 0402fa7c     MQ2NetBots.obj
 0002:00000a9c       ??_C@_0BP@CGOGJPFL@?$CD?$CK?$CD?$FLNB?$FN?$CD?$CK?$CD?$HMM?$DN?$CD10?$CD?1?$CD11?$CD?$HM?$CD?$CK?$CD?$FLNB?$FN?$AA@ 0402fa9c     MQ2NetBots.obj
 0002:00000abc       ??_C@_0BN@BJFPFDGC@?$CD?$CK?$CD?$FLNB?$FN?$CD?$CK?$CD?$HME?$DN?$CD8?$CD?1?$CD9?$CD?$HM?$CD?$CK?$CD?$FLNB?$FN?$AA@ 0402fabc     MQ2NetBots.obj
 0002:00000adc       ??_C@_0BN@FFPBKPPK@?$CD?$CK?$CD?$FLNB?$FN?$CD?$CK?$CD?$HMH?$DN?$CD6?$CD?1?$CD7?$CD?$HM?$CD?$CK?$CD?$FLNB?$FN?$AA@ 0402fadc     MQ2NetBots.obj
 0002:00000afc       ??_C@_0BN@HJLGFGF@?$CD?$CK?$CD?$FLNB?$FN?$CD?$CK?$CD?$HML?$DN?$CD4?$CD?3?$CD5?$CD?$HM?$CD?$CK?$CD?$FLNB?$FN?$AA@ 0402fafc     MQ2NetBots.obj
 0002:00000b1c       ??_C@_0CB@FENOBLBH@?$CD?$CK?$CD?$FLNB?$FN?$CD?$CK?$CD?$HMZ?$DN?$CD1?$CD?3?$CD2?$CD?$DO?$CD3?$CD?$HM?$CD?$CK?$CD?$FLNB?$FN@ 0402fb1c     MQ2NetBots.obj
 0002:00000b44       ??_7invalid_argument@std@@6B@ 0402fb44     libcpmt:string.obj
 0002:00000b4c       ??_C@_0BA@JFNIOLAK@string?5too?5long?$AA@ 0402fb4c     libcpmt:string.obj
 0002:00000b5c       ??_C@_0BI@CFPLBAOH@invalid?5string?5position?$AA@ 0402fb5c     libcpmt:string.obj
 0002:00000b74       ??_C@_0BI@ILCMCLF@invalid?5string?5argument?$AA@ 0402fb74     libcpmt:string.obj
 0002:00000b90       ??_7exception@std@@6B@     0402fb90     LIBCMT:stdexcpt.obj
 0002:00000b98       ??_C@_0BC@EOODALEL@Unknown?5exception?$AA@ 0402fb98     LIBCMT:stdexcpt.obj
 0002:00000bb0       ??_7bad_cast@std@@6B@      0402fbb0     LIBCMT:stdexcpt.obj
 0002:00000bbc       ??_7bad_typeid@std@@6B@    0402fbbc     LIBCMT:stdexcpt.obj
 0002:00000bc8       ??_7__non_rtti_object@std@@6B@ 0402fbc8     LIBCMT:stdexcpt.obj
 0002:00000bd4       ??_7type_info@@6B@         0402fbd4     LIBCMT:typinfo.obj
 0002:00000bd8       ?ProcessDetach@NativeDll@<CrtImplementationDetails>@@0IB 0402fbd8     LIBCMT:toupper.obj
 0002:00000bdc       ?ProcessAttach@NativeDll@<CrtImplementationDetails>@@0IB 0402fbdc     LIBCMT:toupper.obj
 0002:00000be0       ?ThreadAttach@NativeDll@<CrtImplementationDetails>@@0IB 0402fbe0     LIBCMT:toupper.obj
 0002:00000be4       ?ThreadDetach@NativeDll@<CrtImplementationDetails>@@0IB 0402fbe4     LIBCMT:toupper.obj
 0002:00000be8       ?ProcessVerifier@NativeDll@<CrtImplementationDetails>@@0IB 0402fbe8     LIBCMT:toupper.obj
 0002:00000bf0       __real@0000000000000000    0402fbf0     LIBCMT:atof.obj
 0002:00000bf8       __FPinit                   0402fbf8     LIBCMT:_fpinit_.obj
 0002:00000bfc       __FPmtinit                 0402fbfc     LIBCMT:_fpinit_.obj
 0002:00000c00       __FPmtterm                 0402fc00     LIBCMT:_fpinit_.obj
 0002:00000c24       __pDefaultRawDllMain       0402fc24     LIBCMT:dllcrt0.obj
 0002:00000c24       __pRawDllMain              0402fc24     LIBCMT:dllcrt0.obj
 0002:00000c28       ??_C@_07LCBHPJJN@LC_TIME?$AA@ 0402fc28     LIBCMT:setlocal.obj
 0002:00000c30       ??_C@_0L@DLHIECNL@LC_NUMERIC?$AA@ 0402fc30     LIBCMT:setlocal.obj
 0002:00000c3c       ??_C@_0M@MIENIKLA@LC_MONETARY?$AA@ 0402fc3c     LIBCMT:setlocal.obj
 0002:00000c48       ??_C@_08EADHIDAD@LC_CTYPE?$AA@ 0402fc48     LIBCMT:setlocal.obj
 0002:00000c54       ??_C@_0L@KFJHEKIK@LC_COLLATE?$AA@ 0402fc54     LIBCMT:setlocal.obj
 0002:00000c60       ??_C@_06NEFDFEKB@LC_ALL?$AA@ 0402fc60     LIBCMT:setlocal.obj
 0002:00000c68       ___lc_category             0402fc68     LIBCMT:setlocal.obj
 0002:00000d30       ??_C@_03EGDHDPFD@_?4?0?$AA@ 0402fd30     LIBCMT:setlocal.obj
 0002:00000d34       ??_C@_01LFCBOECM@?4?$AA@   0402fd34     LIBCMT:setlocal.obj
 0002:00000d38       ??_C@_01IDAFKMJL@_?$AA@    0402fd38     LIBCMT:setlocal.obj
 0002:00000d3c       ??_C@_01ICJEACDI@?$DL?$AA@ 0402fd3c     LIBCMT:setlocal.obj
 0002:00000d40       ??_C@_01NEMOKFLO@?$DN?$AA@ 0402fd40     LIBCMT:setlocal.obj
 0002:00000d44       ??_C@_01GFHCPBMG@C?$AA@    0402fd44     LIBCMT:setlocal.obj
 0002:00000d48       ??_C@_02BALPLPBG@?$DN?$DL?$AA@ 0402fd48     LIBCMT:setlocal.obj
 0002:00000d4c       ??_C@_0O@NLDKAIKN@EncodePointer?$AA@ 0402fd4c     LIBCMT:tidtable.obj
 0002:00000d5c       ??_C@_1BK@DBDEIDLH@?$AAK?$AAE?$AAR?$AAN?$AAE?$AAL?$AA3?$AA2?$AA?4?$AAD?$AAL?$AAL?$AA?$AA@ 0402fd5c     LIBCMT:tidtable.obj
 0002:00000d78       ??_C@_0O@KBPMFGHI@DecodePointer?$AA@ 0402fd78     LIBCMT:tidtable.obj
 0002:00000d88       ??_C@_07PEJMOBNF@FlsFree?$AA@ 0402fd88     LIBCMT:tidtable.obj
 0002:00000d90       ??_C@_0M@JCPCPOEF@FlsSetValue?$AA@ 0402fd90     LIBCMT:tidtable.obj
 0002:00000d9c       ??_C@_0M@GDNOONDI@FlsGetValue?$AA@ 0402fd9c     LIBCMT:tidtable.obj
 0002:00000da8       ??_C@_08KNHFBNJ@FlsAlloc?$AA@ 0402fda8     LIBCMT:tidtable.obj
 0002:00000db4       ??_C@_13NOLLCAOD@?$AA?$AA?$AA?$AA@ 0402fdb4     LIBCMT:a_map.obj
 0002:00000db8       ??_C@_0P@MIGLKIOC@CorExitProcess?$AA@ 0402fdb8     LIBCMT:crt0dat.obj
 0002:00000dc8       ??_C@_1BI@BGOHAHKC@?$AAm?$AAs?$AAc?$AAo?$AAr?$AAe?$AAe?$AA?4?$AAd?$AAl?$AAl?$AA?$AA@ 0402fdc8     LIBCMT:crt0dat.obj
 0002:00000de0       ??_C@_0P@GGKDKEEG@runtime?5error?5?$AA@ 0402fde0     LIBCMT:crt0msg.obj
 0002:00000df0       ??_C@_02PCIJFNDE@?$AN?6?$AA@ 0402fdf0     LIBCMT:crt0msg.obj
 0002:00000df4       ??_C@_0O@MJNIPGOH@TLOSS?5error?$AN?6?$AA@ 0402fdf4     LIBCMT:crt0msg.obj
 0002:00000e04       ??_C@_0N@BONNPDHF@SING?5error?$AN?6?$AA@ 0402fe04     LIBCMT:crt0msg.obj
 0002:00000e14       ??_C@_0P@MBDAJNE@DOMAIN?5error?$AN?6?$AA@ 0402fe14     LIBCMT:crt0msg.obj
 0002:00000e28       ??_C@_0JL@DFDOOABL@R6034?$AN?6An?5application?5has?5made?5a@ 0402fe28     LIBCMT:crt0msg.obj
 0002:00000ec8       ??_C@_0PH@EPAFIJ@R6033?$AN?6?9?5Attempt?5to?5use?5MSIL?5cod@ 0402fec8     LIBCMT:crt0msg.obj
 0002:00000fc0       ??_C@_0DD@BKEEABMM@R6032?$AN?6?9?5not?5enough?5space?5for?5lo@ 0402ffc0     LIBCMT:crt0msg.obj
 0002:00000ff8       ??_C@_0GD@OFKILIED@R6031?$AN?6?9?5Attempt?5to?5initialize?5t@ 0402fff8     LIBCMT:crt0msg.obj
 0002:0000105c       ??_C@_0BP@LPMHJOKI@R6030?$AN?6?9?5CRT?5not?5initialized?$AN?6?$AA@ 0403005c     LIBCMT:crt0msg.obj
 0002:0000107c       ??_C@_0CF@KJDAIALP@R6028?$AN?6?9?5unable?5to?5initialize?5he@ 0403007c     LIBCMT:crt0msg.obj
 0002:000010a4       ??_C@_0DF@GAKBPDFP@R6027?$AN?6?9?5not?5enough?5space?5for?5lo@ 040300a4     LIBCMT:crt0msg.obj
 0002:000010dc       ??_C@_0DF@IBLNNAIG@R6026?$AN?6?9?5not?5enough?5space?5for?5st@ 040300dc     LIBCMT:crt0msg.obj
 0002:00001114       ??_C@_0CG@IOHKGFNJ@R6025?$AN?6?9?5pure?5virtual?5function?5c@ 04030114     LIBCMT:crt0msg.obj
 0002:0000113c       ??_C@_0DF@JIJJFJDC@R6024?$AN?6?9?5not?5enough?5space?5for?5_o@ 0403013c     LIBCMT:crt0msg.obj
 0002:00001174       ??_C@_0CJ@EGEJHFME@R6019?$AN?6?9?5unable?5to?5open?5console?5@ 04030174     LIBCMT:crt0msg.obj
 0002:000011a0       ??_C@_0CB@GNHNIELH@R6018?$AN?6?9?5unexpected?5heap?5error?$AN?6@ 040301a0     LIBCMT:crt0msg.obj
 0002:000011c4       ??_C@_0CN@FOLDKNG@R6017?$AN?6?9?5unexpected?5multithread?5@ 040301c4     LIBCMT:crt0msg.obj
 0002:000011f4       ??_C@_0CM@FAHFJNHO@R6016?$AN?6?9?5not?5enough?5space?5for?5th@ 040301f4     LIBCMT:crt0msg.obj
 0002:00001220       ??_C@_0JG@LBKMGKLD@?$AN?6This?5application?5has?5requested@ 04030220     LIBCMT:crt0msg.obj
 0002:000012b8       ??_C@_0CM@FLCNIPKK@R6009?$AN?6?9?5not?5enough?5space?5for?5en@ 040302b8     LIBCMT:crt0msg.obj
 0002:000012e4       ??_C@_0CK@KMMJOAPP@R6008?$AN?6?9?5not?5enough?5space?5for?5ar@ 040302e4     LIBCMT:crt0msg.obj
 0002:00001310       ??_C@_0CN@LEKKICBM@R6002?$AN?6?9?5floating?5point?5support?5@ 04030310     LIBCMT:crt0msg.obj
 0002:00001340       ??_C@_0CF@GOGNBNAK@Microsoft?5Visual?5C?$CL?$CL?5Runtime?5Lib@ 04030340     LIBCMT:crt0msg.obj
 0002:00001368       ??_C@_02PHMGELLB@?6?6?$AA@ 04030368     LIBCMT:crt0msg.obj
 0002:0000136c       ??_C@_03KHICJKCI@?4?4?4?$AA@ 0403036c     LIBCMT:crt0msg.obj
 0002:00001370       ??_C@_0BH@DNAGHKFM@?$DMprogram?5name?5unknown?$DO?$AA@ 04030370     LIBCMT:crt0msg.obj
 0002:00001388       ??_C@_0BK@OFGJDLJJ@Runtime?5Error?$CB?6?6Program?3?5?$AA@ 04030388     LIBCMT:crt0msg.obj
 0002:000013a4       ??_C@_1O@CEDCILHN@?$AA?$CI?$AAn?$AAu?$AAl?$AAl?$AA?$CJ?$AA?$AA@ 040303a4     LIBCMT:output.obj
 0002:000013b4       ??_C@_06OJHGLDPL@?$CInull?$CJ?$AA@ 040303b4     LIBCMT:output.obj
 0002:000013c0       ___lookuptable             040303c0     LIBCMT:output.obj
 0002:0000141c       ??_C@_05KLBDPFGC@e?$CL000?$AA@ 0403041c     LIBCMT:cvt.obj
 0002:00001428       __real@3ff0000000000000    04030428     LIBCMT:_testfdiv_.obj
 0002:00001430       __real@4150017ec0000000    04030430     LIBCMT:_testfdiv_.obj
 0002:00001438       __real@4147ffff80000000    04030438     LIBCMT:_testfdiv_.obj
 0002:00001440       ??_C@_0BK@NHEOCAHP@IsProcessorFeaturePresent?$AA@ 04030440     LIBCMT:_testfdiv_.obj
 0002:0000145c       ??_C@_08CPNIBGIE@KERNEL32?$AA@ 0403045c     LIBCMT:_testfdiv_.obj
 0002:00001468       __pDestructExceptionObject 04030468     LIBCMT:frame.obj
 0002:00001470       ??_7bad_exception@std@@6B@ 04030470     LIBCMT:frame.obj
 0002:00001478       ??_C@_0O@DPKOEFFH@bad?5exception?$AA@ 04030478     LIBCMT:frame.obj
 0002:00001488       __XcptActTab               04030488     LIBCMT:winxfltr.obj
 0002:00001508       ??_C@_0BK@CFCOFLF@?5Complete?5Object?5Locator?8?$AA@ 04030508     LIBCMT:undname.obj
 0002:00001524       ??_C@_0BN@MECKDCOJ@?5Class?5Hierarchy?5Descriptor?8?$AA@ 04030524     LIBCMT:undname.obj
 0002:00001544       ??_C@_0BD@LGICGFMM@?5Base?5Class?5Array?8?$AA@ 04030544     LIBCMT:undname.obj
 0002:00001558       ??_C@_0BM@LDKODKLH@?5Base?5Class?5Descriptor?5at?5?$CI?$AA@ 04030558     LIBCMT:undname.obj
 0002:00001574       ??_C@_0BC@DAFEJGAK@?5Type?5Descriptor?8?$AA@ 04030574     LIBCMT:undname.obj
 0002:00001588       ??_C@_0BM@PMGGMLDN@?$GAlocal?5static?5thread?5guard?8?$AA@ 04030588     LIBCMT:undname.obj
 0002:000015a4       ??_C@_0CL@FGIJHLCE@?$GAmanaged?5vector?5copy?5constructor@ 040305a4     LIBCMT:undname.obj
 0002:000015d0       ??_C@_0CJ@GJELGAMM@?$GAvector?5vbase?5copy?5constructor?5i@ 040305d0     LIBCMT:undname.obj
 0002:000015fc       ??_C@_0CD@CGAJBKEJ@?$GAvector?5copy?5constructor?5iterato@ 040305fc     LIBCMT:undname.obj
 0002:00001620       ??_C@_0CB@PDBIFEP@?$GAdynamic?5atexit?5destructor?5for?5?8@ 04030620     LIBCMT:undname.obj
 0002:00001644       ??_C@_0BL@CLIPGLGB@?$GAdynamic?5initializer?5for?5?8?$AA@ 04030644     LIBCMT:undname.obj
 0002:00001660       ??_C@_0CM@FCBBDIGB@?$GAeh?5vector?5vbase?5copy?5constructo@ 04030660     LIBCMT:undname.obj
 0002:0000168c       ??_C@_0CG@HLDDJMAG@?$GAeh?5vector?5copy?5constructor?5iter@ 0403068c     LIBCMT:undname.obj
 0002:000016b4       ??_C@_0CF@IMGKMJNO@?$GAmanaged?5vector?5destructor?5itera@ 040306b4     LIBCMT:undname.obj
 0002:000016dc       ??_C@_0CG@CFDHKGGD@?$GAmanaged?5vector?5constructor?5iter@ 040306dc     LIBCMT:undname.obj
 0002:00001704       ??_C@_0BN@CKNJLHMB@?$GAplacement?5delete?$FL?$FN?5closure?8?$AA@ 04030704     LIBCMT:undname.obj
 0002:00001724       ??_C@_0BL@CNOONJFP@?$GAplacement?5delete?5closure?8?$AA@ 04030724     LIBCMT:undname.obj
 0002:00001740       ??_C@_0P@HJKNJFNN@?$GAomni?5callsig?8?$AA@ 04030740     LIBCMT:undname.obj
 0002:00001750       ??_C@_09LBNFPBCA@?5delete?$FL?$FN?$AA@ 04030750     LIBCMT:undname.obj
 0002:0000175c       ??_C@_06FHBGPFGH@?5new?$FL?$FN?$AA@ 0403075c     LIBCMT:undname.obj
 0002:00001764       ??_C@_0CE@IIHCMGGL@?$GAlocal?5vftable?5constructor?5closu@ 04030764     LIBCMT:undname.obj
 0002:00001788       ??_C@_0BA@KKLDJDLB@?$GAlocal?5vftable?8?$AA@ 04030788     LIBCMT:undname.obj
 0002:00001798       ??_C@_05KHLCHHI@?$GARTTI?$AA@ 04030798     LIBCMT:undname.obj
 0002:000017a0       ??_C@_03KLGMFNMG@?$GAEH?$AA@ 040307a0     LIBCMT:undname.obj
 0002:000017a4       ??_C@_0BA@KBCDOMBN@?$GAudt?5returning?8?$AA@ 040307a4     LIBCMT:undname.obj
 0002:000017b4       ??_C@_0BL@LLKPOHJI@?$GAcopy?5constructor?5closure?8?$AA@ 040307b4     LIBCMT:undname.obj
 0002:000017d0       ??_C@_0CH@OOJPLCPH@?$GAeh?5vector?5vbase?5constructor?5ite@ 040307d0     LIBCMT:undname.obj
 0002:000017f8       ??_C@_0CA@GCEOPDGL@?$GAeh?5vector?5destructor?5iterator?8?$AA@ 040307f8     LIBCMT:undname.obj
 0002:00001818       ??_C@_0CB@JONCMFFK@?$GAeh?5vector?5constructor?5iterator?8@ 04030818     LIBCMT:undname.obj
 0002:0000183c       ??_C@_0BL@NILFHHPC@?$GAvirtual?5displacement?5map?8?$AA@ 0403083c     LIBCMT:undname.obj
 0002:00001858       ??_C@_0CE@IKBNEHA@?$GAvector?5vbase?5constructor?5iterat@ 04030858     LIBCMT:undname.obj
 0002:0000187c       ??_C@_0BN@LFPFMEDL@?$GAvector?5destructor?5iterator?8?$AA@ 0403087c     LIBCMT:undname.obj
 0002:0000189c       ??_C@_0BO@PFGOCPJJ@?$GAvector?5constructor?5iterator?8?$AA@ 0403089c     LIBCMT:undname.obj
 0002:000018bc       ??_C@_0BN@IMDCHIKM@?$GAscalar?5deleting?5destructor?8?$AA@ 040308bc     LIBCMT:undname.obj
 0002:000018dc       ??_C@_0BO@OBMKPJIG@?$GAdefault?5constructor?5closure?8?$AA@ 040308dc     LIBCMT:undname.obj
 0002:000018fc       ??_C@_0BN@DEGPLNFK@?$GAvector?5deleting?5destructor?8?$AA@ 040308fc     LIBCMT:undname.obj
 0002:0000191c       ??_C@_0BD@JDLKDPAB@?$GAvbase?5destructor?8?$AA@ 0403091c     LIBCMT:undname.obj
 0002:00001930       ??_C@_08OBABFOLI@?$GAstring?8?$AA@ 04030930     LIBCMT:undname.obj
 0002:0000193c       ??_C@_0BF@KDPPACIK@?$GAlocal?5static?5guard?8?$AA@ 0403093c     LIBCMT:undname.obj
 0002:00001954       ??_C@_08LLFFHHDJ@?$GAtypeof?8?$AA@ 04030954     LIBCMT:undname.obj
 0002:00001960       ??_C@_07FEEIOKP@?$GAvcall?8?$AA@ 04030960     LIBCMT:undname.obj
 0002:00001968       ??_C@_09BLBHBJP@?$GAvbtable?8?$AA@ 04030968     LIBCMT:undname.obj
 0002:00001974       ??_C@_09IFPLHPGF@?$GAvftable?8?$AA@ 04030974     LIBCMT:undname.obj
 0002:00001980       ??_C@_02MHEGNOJ@?$FO?$DN?$AA@ 04030980     LIBCMT:undname.obj
 0002:00001984       ??_C@_02DHLNPPGH@?$HM?$DN?$AA@ 04030984     LIBCMT:undname.obj
 0002:00001988       ??_C@_02FGJGFEAB@?$CG?$DN?$AA@ 04030988     LIBCMT:undname.obj
 0002:0000198c       ??_C@_03CDNPDDLA@?$DM?$DM?$DN?$AA@ 0403098c     LIBCMT:undname.obj
 0002:00001990       ??_C@_03IKFCCPFF@?$DO?$DO?$DN?$AA@ 04030990     LIBCMT:undname.obj
 0002:00001994       ??_C@_02FENAOKFI@?$CF?$DN?$AA@ 04030994     LIBCMT:undname.obj
 0002:00001998       ??_C@_02FJEHGPIO@?1?$DN?$AA@ 04030998     LIBCMT:undname.obj
 0002:0000199c       ??_C@_02FKMDLLOA@?9?$DN?$AA@ 0403099c     LIBCMT:undname.obj
 0002:000019a0       ??_C@_02FOEOMHFC@?$CL?$DN?$AA@ 040309a0     LIBCMT:undname.obj
 0002:000019a4       ??_C@_02FPIMKNGF@?$CK?$DN?$AA@ 040309a4     LIBCMT:undname.obj
 0002:000019a8       ??_C@_02NONPIBCD@?$HM?$HM?$AA@ 040309a8     LIBCMT:undname.obj
 0002:000019ac       ??_C@_02PPKAJPJL@?$CG?$CG?$AA@ 040309ac     LIBCMT:undname.obj
 0002:000019b0       ??_C@_01DNKMNLPK@?$HM?$AA@ 040309b0     LIBCMT:undname.obj
 0002:000019b4       ??_C@_01JKBOJNNK@?$FO?$AA@ 040309b4     LIBCMT:undname.obj
 0002:000019b8       ??_C@_01PJKLJHI@?$HO?$AA@  040309b8     LIBCMT:undname.obj
 0002:000019bc       ??_C@_02HCKGKOFO@?$CI?$CJ?$AA@ 040309bc     LIBCMT:undname.obj
 0002:000019c0       ??_C@_01IHBHIGKO@?0?$AA@   040309c0     LIBCMT:undname.obj
 0002:000019c4       ??_C@_02EEKDKGMJ@?$DO?$DN?$AA@ 040309c4     LIBCMT:undname.obj
 0002:000019c8       ??_C@_01PPODPGHN@?$DO?$AA@ 040309c8     LIBCMT:undname.obj
 0002:000019cc       ??_C@_02EHCHHCKH@?$DM?$DN?$AA@ 040309cc     LIBCMT:undname.obj
 0002:000019d0       ??_C@_01MNNFJEPP@?$DM?$AA@ 040309d0     LIBCMT:undname.obj
 0002:000019d4       ??_C@_01FGNFDNOH@?$CF?$AA@ 040309d4     LIBCMT:undname.obj
 0002:000019d8       ??_C@_01KMDKNFGN@?1?$AA@   040309d8     LIBCMT:undname.obj
 0002:000019dc       ??_C@_03MNHNFDLC@?9?$DO?$CK?$AA@ 040309dc     LIBCMT:undname.obj
 0002:000019e0       ??_C@_01HNPIGOCE@?$CG?$AA@ 040309e0     LIBCMT:undname.obj
 0002:000019e4       ??_C@_01MIFGBAGJ@?$CL?$AA@ 040309e4     LIBCMT:undname.obj
 0002:000019e8       ??_C@_01JOAMLHOP@?9?$AA@   040309e8     LIBCMT:undname.obj
 0002:000019ec       ??_C@_02BAABKJLB@?9?9?$AA@ 040309ec     LIBCMT:undname.obj
 0002:000019f0       ??_C@_02ECNGHCIF@?$CL?$CL?$AA@ 040309f0     LIBCMT:undname.obj
 0002:000019f4       ??_C@_01NBENCBCI@?$CK?$AA@ 040309f4     LIBCMT:undname.obj
 0002:000019f8       ??_C@_02HBOOOICD@?9?$DO?$AA@ 040309f8     LIBCMT:undname.obj
 0002:000019fc       ??_C@_08LHJFAFGD@operator?$AA@ 040309fc     LIBCMT:undname.obj
 0002:00001a08       ??_C@_02GPECMEKF@?$FL?$FN?$AA@ 04030a08     LIBCMT:undname.obj
 0002:00001a0c       ??_C@_02FDNJECIE@?$CB?$DN?$AA@ 04030a0c     LIBCMT:undname.obj
 0002:00001a10       ??_C@_02EGOFBIJA@?$DN?$DN?$AA@ 04030a10     LIBCMT:undname.obj
 0002:00001a14       ??_C@_01DCLJPIOD@?$CB?$AA@ 04030a14     LIBCMT:undname.obj
 0002:00001a18       ??_C@_02FODMEDOG@?$DM?$DM?$AA@ 04030a18     LIBCMT:undname.obj
 0002:00001a1c       ??_C@_02GPIOPFAK@?$DO?$DO?$AA@ 04030a1c     LIBCMT:undname.obj
 0002:00001a20       ??_C@_07FPCDHGMM@?5delete?$AA@ 04030a20     LIBCMT:undname.obj
 0002:00001a28       ??_C@_04NIHEBCM@?5new?$AA@ 04030a28     LIBCMT:undname.obj
 0002:00001a30       ??_C@_0M@GFIIJFMG@__unaligned?$AA@ 04030a30     LIBCMT:undname.obj
 0002:00001a3c       ??_C@_0L@PILCLIHE@__restrict?$AA@ 04030a3c     LIBCMT:undname.obj
 0002:00001a48       ??_C@_07JOMMBBKO@__ptr64?$AA@ 04030a48     LIBCMT:undname.obj
 0002:00001a50       ??_C@_09HIJEGCPM@__clrcall?$AA@ 04030a50     LIBCMT:undname.obj
 0002:00001a5c       ??_C@_0L@JMKHOMEK@__fastcall?$AA@ 04030a5c     LIBCMT:undname.obj
 0002:00001a68       ??_C@_0L@NPHFGOKO@__thiscall?$AA@ 04030a68     LIBCMT:undname.obj
 0002:00001a74       ??_C@_09IFJBGAPI@__stdcall?$AA@ 04030a74     LIBCMT:undname.obj
 0002:00001a80       ??_C@_08GHMPAG@__pascal?$AA@ 04030a80     LIBCMT:undname.obj
 0002:00001a8c       ??_C@_07KOLFKCDI@__cdecl?$AA@ 04030a8c     LIBCMT:undname.obj
 0002:00001a94       ??_C@_08EHJDFFNH@__based?$CI?$AA@ 04030a94     LIBCMT:undname.obj
 0002:00001c20       ??_7DNameNode@@6B@         04030c20     LIBCMT:undname.obj
 0002:00001c2c       ??_7charNode@@6B@          04030c2c     LIBCMT:undname.obj
 0002:00001c38       ??_7pDNameNode@@6B@        04030c38     LIBCMT:undname.obj
 0002:00001c44       ??_7DNameStatusNode@@6B@   04030c44     LIBCMT:undname.obj
 0002:00001c50       ??_7pairNode@@6B@          04030c50     LIBCMT:undname.obj
 0002:00001c5c       ??_7pcharNode@@6B@         04030c5c     LIBCMT:undname.obj
 0002:00001c68       ??_C@_04OKOHEJBO@?5?$DP?$DP?5?$AA@ 04030c68     LIBCMT:undname.obj
 0002:00001c70       ??_C@_06EEGAIFAK@?$HLflat?$HN?$AA@ 04030c70     LIBCMT:undname.obj
 0002:00001c78       ??_C@_05JIBOFOHK@?$HLfor?5?$AA@ 04030c78     LIBCMT:undname.obj
 0002:00001c80       ??_C@_0BN@IBLMMFAP@?$GAnon?9type?9template?9parameter?$AA@ 04030c80     LIBCMT:undname.obj
 0002:00001ca0       ??_C@_09EBBEKKIH@unsigned?5?$AA@ 04030ca0     LIBCMT:undname.obj
 0002:00001cac       ??_C@_05CJIMAING@long?5?$AA@ 04030cac     LIBCMT:undname.obj
 0002:00001cb4       ??_C@_04LAHKHJMA@int?5?$AA@ 04030cb4     LIBCMT:undname.obj
 0002:00001cbc       ??_C@_06EHJMALKF@short?5?$AA@ 04030cbc     LIBCMT:undname.obj
 0002:00001cc4       ??_C@_05CIHEBHNO@char?5?$AA@ 04030cc4     LIBCMT:undname.obj
 0002:00001ccc       ??_C@_04GKJNKENE@void?$AA@ 04030ccc     LIBCMT:undname.obj
 0002:00001cd4       ??_C@_0L@EGPHHEKN@?$DMellipsis?$DO?$AA@ 04030cd4     LIBCMT:undname.obj
 0002:00001ce0       ??_C@_0M@ELJOJFFH@?0?$DMellipsis?$DO?$AA@ 04030ce0     LIBCMT:undname.obj
 0002:00001cec       ??_C@_04EENFHACM@?0?4?4?4?$AA@ 04030cec     LIBCMT:undname.obj
 0002:00001cf4       ??_C@_07HDJPLPEK@?5throw?$CI?$AA@ 04030cf4     LIBCMT:undname.obj
 0002:00001cfc       ??_C@_02GOGNNPBN@?$CJ?$FL?$AA@ 04030cfc     LIBCMT:undname.obj
 0002:00001d00       ??_C@_02MDINNEEG@s?5?$AA@  04030d00     LIBCMT:undname.obj
 0002:00001d04       ??_C@_0BE@EODMJLIF@?$GAtemplate?9parameter?$AA@ 04030d04     LIBCMT:undname.obj
 0002:00001d18       ??_C@_01GEODFPGF@?8?$AA@   04030d18     LIBCMT:undname.obj
 0002:00001d1c       ??_C@_0O@GKABPPIF@cli?3?3pin_ptr?$DM?$AA@ 04030d1c     LIBCMT:undname.obj
 0002:00001d2c       ??_C@_0M@EALIELKG@cli?3?3array?$DM?$AA@ 04030d2c     LIBCMT:undname.obj
 0002:00001d38       ??_C@_05BEFAKPML@void?5?$AA@ 04030d38     LIBCMT:undname.obj
 0002:00001d40       ??_C@_02OHHJMEON@?8?8?$AA@ 04030d40     LIBCMT:undname.obj
 0002:00001d44       ??_C@_0BG@JNJLAMPM@?$GAanonymous?5namespace?8?$AA@ 04030d44     LIBCMT:undname.obj
 0002:00001d5c       ??_C@_01NLNLIGKH@?$GA?$AA@ 04030d5c     LIBCMT:undname.obj
 0002:00001d60       ??_C@_0O@KHGCOMHP@generic?9type?9?$AA@ 04030d60     LIBCMT:undname.obj
 0002:00001d70       ??_C@_0BE@JAEOCHPE@template?9parameter?9?$AA@ 04030d70     LIBCMT:undname.obj
 0002:00001d84       ??_C@_02MOLJINC@?3?3?$AA@  04030d84     LIBCMT:undname.obj
 0002:00001d88       ??_C@_0P@GCIFDJCJ@?$GAunknown?5ecsu?8?$AA@ 04030d88     LIBCMT:undname.obj
 0002:00001d98       ??_C@_06MOJHIBMG@union?5?$AA@ 04030d98     LIBCMT:undname.obj
 0002:00001da0       ??_C@_07DIBCDNGL@struct?5?$AA@ 04030da0     LIBCMT:undname.obj
 0002:00001da8       ??_C@_06LJBABKPM@class?5?$AA@ 04030da8     LIBCMT:undname.obj
 0002:00001db0       ??_C@_05LJGMCFOG@enum?5?$AA@ 04030db0     LIBCMT:undname.obj
 0002:00001db8       ??_C@_08KOFANOFK@coclass?5?$AA@ 04030db8     LIBCMT:undname.obj
 0002:00001dc4       ??_C@_0N@DLIEFKNA@cointerface?5?$AA@ 04030dc4     LIBCMT:undname.obj
 0002:00001dd4       ??_C@_02KCKGHPCA@?$CJ?5?$AA@ 04030dd4     LIBCMT:undname.obj
 0002:00001dd8       ??_C@_0M@DHNBOJMP@extern?5?$CCC?$CC?5?$AA@ 04030dd8     LIBCMT:undname.obj
 0002:00001de4       ??_C@_08KJLFOPNE@?$FLthunk?$FN?3?$AA@ 04030de4     LIBCMT:undname.obj
 0002:00001df0       ??_C@_08GPDDCMKI@public?3?5?$AA@ 04030df0     LIBCMT:undname.obj
 0002:00001dfc       ??_C@_0M@GAIFPFIP@protected?3?5?$AA@ 04030dfc     LIBCMT:undname.obj
 0002:00001e08       ??_C@_09LAPHOOG@private?3?5?$AA@ 04030e08     LIBCMT:undname.obj
 0002:00001e14       ??_C@_08NIEOINHE@virtual?5?$AA@ 04030e14     LIBCMT:undname.obj
 0002:00001e20       ??_C@_07PGOEDBHP@static?5?$AA@ 04030e20     LIBCMT:undname.obj
 0002:00001e28       ??_C@_0DA@HGFJFBBE@?$GAtemplate?5static?5data?5member?5des@ 04030e28     LIBCMT:undname.obj
 0002:00001e58       ??_C@_0DB@ILEFOCIJ@?$GAtemplate?5static?5data?5member?5con@ 04030e58     LIBCMT:undname.obj
 0002:00001e8c       ??_C@_0CB@KJDOOODE@?$GAlocal?5static?5destructor?5helper?8@ 04030e8c     LIBCMT:undname.obj
 0002:00001eb0       ??_C@_0L@HNGCOGAE@?$GAadjustor?$HL?$AA@ 04030eb0     LIBCMT:undname.obj
 0002:00001ebc       ??_C@_0L@GHPFDFH@?$GAvtordisp?$HL?$AA@ 04030ebc     LIBCMT:undname.obj
 0002:00001ec8       ??_C@_0N@CBHHHENL@?$GAvtordispex?$HL?$AA@ 04030ec8     LIBCMT:undname.obj
 0002:00001ed8       ??_C@_02IGFCGPIL@?$HN?8?$AA@ 04030ed8     LIBCMT:undname.obj
 0002:00001edc       ??_C@_03OPGICMGF@?$HN?8?5?$AA@ 04030edc     LIBCMT:undname.obj
 0002:00001ee0       ??_C@_06LIJLOJAG@const?5?$AA@ 04030ee0     LIBCMT:undname.obj
 0002:00001ee8       ??_C@_09GAIEOBLP@volatile?5?$AA@ 04030ee8     LIBCMT:undname.obj
 0002:00001ef4       ??_C@_04HEJADOOB@CV?3?5?$AA@ 04030ef4     LIBCMT:undname.obj
 0002:00001efc       ??_C@_08PABEKFH@volatile?$AA@ 04030efc     LIBCMT:undname.obj
 0002:00001f08       ??_C@_09EFNPDFFP@?5volatile?$AA@ 04030f08     LIBCMT:undname.obj
 0002:00001f14       ??_C@_05BNCCCJPP@const?$AA@ 04030f14     LIBCMT:undname.obj
 0002:00001f1c       ??_C@_07EDHNAJHC@signed?5?$AA@ 04030f1c     LIBCMT:undname.obj
 0002:00001f24       ??_C@_06BNJCAIGJ@double?$AA@ 04030f24     LIBCMT:undname.obj
 0002:00001f2c       ??_C@_08GAHOLHEO@__int128?$AA@ 04030f2c     LIBCMT:undname.obj
 0002:00001f38       ??_C@_04DDKJGDCM@bool?$AA@ 04030f38     LIBCMT:undname.obj
 0002:00001f40       ??_C@_07CLGGIAMF@wchar_t?$AA@ 04030f40     LIBCMT:undname.obj
 0002:00001f48       ??_C@_07LFCOJCAC@__int64?$AA@ 04030f48     LIBCMT:undname.obj
 0002:00001f50       ??_C@_07ICFHOGAF@__int16?$AA@ 04030f50     LIBCMT:undname.obj
 0002:00001f58       ??_C@_07OFLPPHGP@__int32?$AA@ 04030f58     LIBCMT:undname.obj
 0002:00001f60       ??_C@_06EBGKOKIG@__int8?$AA@ 04030f60     LIBCMT:undname.obj
 0002:00001f68       ??_C@_06GCICPBLB@__w64?5?$AA@ 04030f68     LIBCMT:undname.obj
 0002:00001f70       ??_C@_05KNFBNCOH@float?$AA@ 04030f70     LIBCMT:undname.obj
 0002:00001f78       ??_C@_04GOKPGOLB@long?$AA@ 04030f78     LIBCMT:undname.obj
 0002:00001f80       ??_C@_03JBIPMCLC@int?$AA@  04030f80     LIBCMT:undname.obj
 0002:00001f84       ??_C@_05BFKKPKCG@short?$AA@ 04030f84     LIBCMT:undname.obj
 0002:00001f8c       ??_C@_04ENMBGAPA@char?$AA@ 04030f8c     LIBCMT:undname.obj
 0002:00001f98       ___newctype                04030f98     LIBCMT:ctype.obj
 0002:00002298       __wctype                   04031298     LIBCMT:ctype.obj
 0002:000024a0       ___newclmap                040314a0     LIBCMT:ctype.obj
 0002:00002620       ___newcumap                04031620     LIBCMT:ctype.obj
 0002:000027a0       ??_C@_08JCCMCCIL@HH?3mm?3ss?$AA@ 040317a0     LIBCMT:strftime.obj
 0002:000027ac       ??_C@_0BE@CKGJFCPC@dddd?0?5MMMM?5dd?0?5yyyy?$AA@ 040317ac     LIBCMT:strftime.obj
 0002:000027c0       ??_C@_08BPBNCDIB@MM?1dd?1yy?$AA@ 040317c0     LIBCMT:strftime.obj
 0002:000027cc       ??_C@_02CJNFDJBF@PM?$AA@   040317cc     LIBCMT:strftime.obj
 0002:000027d0       ??_C@_02DEDBPAFC@AM?$AA@   040317d0     LIBCMT:strftime.obj
 0002:000027d4       ??_C@_08EDHMEBNP@December?$AA@ 040317d4     LIBCMT:strftime.obj
 0002:000027e0       ??_C@_08HCHEGEOA@November?$AA@ 040317e0     LIBCMT:strftime.obj
 0002:000027ec       ??_C@_07JJNFCEND@October?$AA@ 040317ec     LIBCMT:strftime.obj
 0002:000027f4       ??_C@_09BHHEALKD@September?$AA@ 040317f4     LIBCMT:strftime.obj
 0002:00002800       ??_C@_06LBBHFDDG@August?$AA@ 04031800     LIBCMT:strftime.obj
 0002:00002808       ??_C@_04MIEPOIFP@July?$AA@ 04031808     LIBCMT:strftime.obj
 0002:00002810       ??_C@_04CNLMGBGM@June?$AA@ 04031810     LIBCMT:strftime.obj
 0002:00002818       ??_C@_05DMJDNLEJ@April?$AA@ 04031818     LIBCMT:strftime.obj
 0002:00002820       ??_C@_05HPCKOFNC@March?$AA@ 04031820     LIBCMT:strftime.obj
 0002:00002828       ??_C@_08GNJGEPFN@February?$AA@ 04031828     LIBCMT:strftime.obj
 0002:00002834       ??_C@_07CGJPFGJA@January?$AA@ 04031834     LIBCMT:strftime.obj
 0002:0000283c       ??_C@_03MKABNOCG@Dec?$AA@  0403183c     LIBCMT:strftime.obj
 0002:00002840       ??_C@_03JPJOFNIA@Nov?$AA@  04031840     LIBCMT:strftime.obj
 0002:00002844       ??_C@_03BMAOKBAD@Oct?$AA@  04031844     LIBCMT:strftime.obj
 0002:00002848       ??_C@_03GGCAPAJC@Sep?$AA@  04031848     LIBCMT:strftime.obj
 0002:0000284c       ??_C@_03IFJFEIGA@Aug?$AA@  0403184c     LIBCMT:strftime.obj
 0002:00002850       ??_C@_03LBGABGKK@Jul?$AA@  04031850     LIBCMT:strftime.obj
 0002:00002854       ??_C@_03IDFGHECI@Jun?$AA@  04031854     LIBCMT:strftime.obj
 0002:00002858       ??_C@_03CNMDKL@May?$AA@    04031858     LIBCMT:strftime.obj
 0002:0000285c       ??_C@_03LEOLGMJP@Apr?$AA@  0403185c     LIBCMT:strftime.obj
 0002:00002860       ??_C@_03ODNJBKGA@Mar?$AA@  04031860     LIBCMT:strftime.obj
 0002:00002864       ??_C@_03HJBDCHOM@Feb?$AA@  04031864     LIBCMT:strftime.obj
 0002:00002868       ??_C@_03JIHJHPIE@Jan?$AA@  04031868     LIBCMT:strftime.obj
 0002:0000286c       ??_C@_08INBOOONO@Saturday?$AA@ 0403186c     LIBCMT:strftime.obj
 0002:00002878       ??_C@_06JECMNKMI@Friday?$AA@ 04031878     LIBCMT:strftime.obj
 0002:00002880       ??_C@_08HACCIKIA@Thursday?$AA@ 04031880     LIBCMT:strftime.obj
 0002:0000288c       ??_C@_09DLIGFAKA@Wednesday?$AA@ 0403188c     LIBCMT:strftime.obj
 0002:00002898       ??_C@_07BAAGCFCM@Tuesday?$AA@ 04031898     LIBCMT:strftime.obj
 0002:000028a0       ??_C@_06JLEDEDGH@Monday?$AA@ 040318a0     LIBCMT:strftime.obj
 0002:000028a8       ??_C@_06OOPIFAJ@Sunday?$AA@ 040318a8     LIBCMT:strftime.obj
 0002:000028b0       ??_C@_03FEFJNEK@Sat?$AA@   040318b0     LIBCMT:strftime.obj
 0002:000028b4       ??_C@_03IDIOELNC@Fri?$AA@  040318b4     LIBCMT:strftime.obj
 0002:000028b8       ??_C@_03IOFIKPDN@Thu?$AA@  040318b8     LIBCMT:strftime.obj
 0002:000028bc       ??_C@_03MHOMLAJA@Wed?$AA@  040318bc     LIBCMT:strftime.obj
 0002:000028c0       ??_C@_03NAGEINEP@Tue?$AA@  040318c0     LIBCMT:strftime.obj
 0002:000028c4       ??_C@_03PDAGKDH@Mon?$AA@   040318c4     LIBCMT:strftime.obj
 0002:000028c8       ??_C@_03KOEHGMDN@Sun?$AA@  040318c8     LIBCMT:strftime.obj
 0002:000028cc       ??_C@_03EBAPMIKO@a?1p?$AA@ 040318cc     LIBCMT:strftime.obj
 0002:000028d0       ??_C@_05JAMEPDIN@am?1pm?$AA@ 040318d0     LIBCMT:strftime.obj
 0002:000028d8       ??_C@_0O@FMJNFNKE@united?9states?$AA@ 040318d8     LIBCMT:getqloc.obj
 0002:000028e8       ??_C@_0P@NDHFFKCA@united?9kingdom?$AA@ 040318e8     LIBCMT:getqloc.obj
 0002:000028f8       ??_C@_0BC@HHDADLGF@trinidad?5?$CG?5tobago?$AA@ 040318f8     LIBCMT:getqloc.obj
 0002:0000290c       ??_C@_0M@IOAEBDAC@south?9korea?$AA@ 0403190c     LIBCMT:getqloc.obj
 0002:00002918       ??_C@_0N@FIELFKIJ@south?9africa?$AA@ 04031918     LIBCMT:getqloc.obj
 0002:00002928       ??_C@_0M@OPNDHCMC@south?5korea?$AA@ 04031928     LIBCMT:getqloc.obj
 0002:00002934       ??_C@_0N@MDEOEPFI@south?5africa?$AA@ 04031934     LIBCMT:getqloc.obj
 0002:00002944       ??_C@_06FKAPCJLB@slovak?$AA@ 04031944     LIBCMT:getqloc.obj
 0002:0000294c       ??_C@_0M@EFJANOAL@puerto?9rico?$AA@ 0403194c     LIBCMT:getqloc.obj
 0002:00002958       ??_C@_08PGOJKDAI@pr?9china?$AA@ 04031958     LIBCMT:getqloc.obj
 0002:00002964       ??_C@_08JHDOMCMI@pr?5china?$AA@ 04031964     LIBCMT:getqloc.obj
 0002:00002970       ??_C@_02JHCHFBLL@nz?$AA@   04031970     LIBCMT:getqloc.obj
 0002:00002974       ??_C@_0M@LINHDHKP@new?9zealand?$AA@ 04031974     LIBCMT:getqloc.obj
 0002:00002980       ??_C@_09IIIPPBDB@hong?9kong?$AA@ 04031980     LIBCMT:getqloc.obj
 0002:0000298c       ??_C@_07HJLCKBG@holland?$AA@ 0403198c     LIBCMT:getqloc.obj
 0002:00002994       ??_C@_0O@LEHGMHAG@great?5britain?$AA@ 04031994     LIBCMT:getqloc.obj
 0002:000029a4       ??_C@_07FACOMELA@england?$AA@ 040319a4     LIBCMT:getqloc.obj
 0002:000029ac       ??_C@_05JIHCEICB@czech?$AA@ 040319ac     LIBCMT:getqloc.obj
 0002:000029b4       ??_C@_05BBJOBLGB@china?$AA@ 040319b4     LIBCMT:getqloc.obj
 0002:000029bc       ??_C@_07GPKPHICP@britain?$AA@ 040319bc     LIBCMT:getqloc.obj
 0002:000029c4       ??_C@_07MHIPBHMG@america?$AA@ 040319c4     LIBCMT:getqloc.obj
 0002:000029cc       ??_C@_03KIALPMKC@usa?$AA@  040319cc     LIBCMT:getqloc.obj
 0002:000029d0       ??_C@_02FGJGKGGD@us?$AA@   040319d0     LIBCMT:getqloc.obj
 0002:000029d4       ??_C@_02NEINDODK@uk?$AA@   040319d4     LIBCMT:getqloc.obj
 0002:000029d8       ??_C@_05JMPCFJFJ@swiss?$AA@ 040319d8     LIBCMT:getqloc.obj
 0002:000029e0       ??_C@_0BA@HLOCPIOD@swedish?9finland?$AA@ 040319e0     LIBCMT:getqloc.obj
 0002:000029f0       ??_C@_0BC@PKCNIABK@spanish?9venezuela?$AA@ 040319f0     LIBCMT:getqloc.obj
 0002:00002a04       ??_C@_0BA@GBHHMIJI@spanish?9uruguay?$AA@ 04031a04     LIBCMT:getqloc.obj
 0002:00002a14       ??_C@_0BE@BHDOHPMC@spanish?9puerto?5rico?$AA@ 04031a14     LIBCMT:getqloc.obj
 0002:00002a28       ??_C@_0N@KMOIDGGN@spanish?9peru?$AA@ 04031a28     LIBCMT:getqloc.obj
 0002:00002a38       ??_C@_0BB@HMHLPGPH@spanish?9paraguay?$AA@ 04031a38     LIBCMT:getqloc.obj
 0002:00002a4c       ??_C@_0P@MCPKNGFD@spanish?9panama?$AA@ 04031a4c     LIBCMT:getqloc.obj
 0002:00002a5c       ??_C@_0BC@IHOHGAIL@spanish?9nicaragua?$AA@ 04031a5c     LIBCMT:getqloc.obj
 0002:00002a70       ??_C@_0P@KLMJDNFJ@spanish?9modern?$AA@ 04031a70     LIBCMT:getqloc.obj
 0002:00002a80       ??_C@_0BA@BPAPGBCM@spanish?9mexican?$AA@ 04031a80     LIBCMT:getqloc.obj
 0002:00002a90       ??_C@_0BB@PDECHHHE@spanish?9honduras?$AA@ 04031a90     LIBCMT:getqloc.obj
 0002:00002aa4       ??_C@_0BC@KLHKFGDB@spanish?9guatemala?$AA@ 04031aa4     LIBCMT:getqloc.obj
 0002:00002ab8       ??_C@_0BE@MFOOKJAI@spanish?9el?5salvador?$AA@ 04031ab8     LIBCMT:getqloc.obj
 0002:00002acc       ??_C@_0BA@FCOKFPFC@spanish?9ecuador?$AA@ 04031acc     LIBCMT:getqloc.obj
 0002:00002adc       ??_C@_0BL@PLMGIMOO@spanish?9dominican?5republic?$AA@ 04031adc     LIBCMT:getqloc.obj
 0002:00002af8       ??_C@_0BD@HLGDNMHB@spanish?9costa?5rica?$AA@ 04031af8     LIBCMT:getqloc.obj
 0002:00002b0c       ??_C@_0BB@PKCBKCPE@spanish?9colombia?$AA@ 04031b0c     LIBCMT:getqloc.obj
 0002:00002b20       ??_C@_0O@MCBIJGNE@spanish?9chile?$AA@ 04031b20     LIBCMT:getqloc.obj
 0002:00002b30       ??_C@_0BA@BEFEIGJJ@spanish?9bolivia?$AA@ 04031b30     LIBCMT:getqloc.obj
 0002:00002b40       ??_C@_0BC@EMECMPD@spanish?9argentina?$AA@ 04031b40     LIBCMT:getqloc.obj
 0002:00002b54       ??_C@_0BF@EALFLENP@portuguese?9brazilian?$AA@ 04031b54     LIBCMT:getqloc.obj
 0002:00002b6c       ??_C@_0BC@HBLEBLNN@norwegian?9nynorsk?$AA@ 04031b6c     LIBCMT:getqloc.obj
 0002:00002b80       ??_C@_0BB@HMACDDCK@norwegian?9bokmal?$AA@ 04031b80     LIBCMT:getqloc.obj
 0002:00002b94       ??_C@_09BAFFPPHE@norwegian?$AA@ 04031b94     LIBCMT:getqloc.obj
 0002:00002ba0       ??_C@_0O@EAJFJDFG@italian?9swiss?$AA@ 04031ba0     LIBCMT:getqloc.obj
 0002:00002bb0       ??_C@_0O@CNOMPGD@irish?9english?$AA@ 04031bb0     LIBCMT:getqloc.obj
 0002:00002bc0       ??_C@_0N@EDHBGCKG@german?9swiss?$AA@ 04031bc0     LIBCMT:getqloc.obj
 0002:00002bd0       ??_C@_0BC@JACMHNBP@german?9luxembourg?$AA@ 04031bd0     LIBCMT:getqloc.obj
 0002:00002be4       ??_C@_0BE@HBGMGFEG@german?9lichtenstein?$AA@ 04031be4     LIBCMT:getqloc.obj
 0002:00002bf8       ??_C@_0BA@HKKBIBKL@german?9austrian?$AA@ 04031bf8     LIBCMT:getqloc.obj
 0002:00002c08       ??_C@_0N@GCAEPEBK@french?9swiss?$AA@ 04031c08     LIBCMT:getqloc.obj
 0002:00002c18       ??_C@_0BC@DJFJJCK@french?9luxembourg?$AA@ 04031c18     LIBCMT:getqloc.obj
 0002:00002c2c       ??_C@_0BA@NNCEDFIC@french?9canadian?$AA@ 04031c2c     LIBCMT:getqloc.obj
 0002:00002c3c       ??_C@_0P@CMPOCLM@french?9belgian?$AA@ 04031c3c     LIBCMT:getqloc.obj
 0002:00002c4c       ??_C@_0M@GHHDJOK@english?9usa?$AA@ 04031c4c     LIBCMT:getqloc.obj
 0002:00002c58       ??_C@_0L@PLDJKEIL@english?9us?$AA@ 04031c58     LIBCMT:getqloc.obj
 0002:00002c64       ??_C@_0L@HJCCDMNC@english?9uk?$AA@ 04031c64     LIBCMT:getqloc.obj
 0002:00002c70       ??_C@_0BK@CKLIAGJB@english?9trinidad?5y?5tobago?$AA@ 04031c70     LIBCMT:getqloc.obj
 0002:00002c8c       ??_C@_0BF@JMJMGNNF@english?9south?5africa?$AA@ 04031c8c     LIBCMT:getqloc.obj
 0002:00002ca4       ??_C@_0L@DKIIFDFD@english?9nz?$AA@ 04031ca4     LIBCMT:getqloc.obj
 0002:00002cb0       ??_C@_0BA@ONHGJCLH@english?9jamaica?$AA@ 04031cb0     LIBCMT:getqloc.obj
 0002:00002cc0       ??_C@_0M@HJBGHOPO@english?9ire?$AA@ 04031cc0     LIBCMT:getqloc.obj
 0002:00002ccc       ??_C@_0BC@LFEKMIFB@english?9caribbean?$AA@ 04031ccc     LIBCMT:getqloc.obj
 0002:00002ce0       ??_C@_0M@OLDPFKHI@english?9can?$AA@ 04031ce0     LIBCMT:getqloc.obj
 0002:00002cec       ??_C@_0P@OMDEHBMP@english?9belize?$AA@ 04031cec     LIBCMT:getqloc.obj
 0002:00002cfc       ??_C@_0M@KFHFPFED@english?9aus?$AA@ 04031cfc     LIBCMT:getqloc.obj
 0002:00002d08       ??_C@_0BB@MNMBKDFE@english?9american?$AA@ 04031d08     LIBCMT:getqloc.obj
 0002:00002d1c       ??_C@_0O@KIDLNNBA@dutch?9belgian?$AA@ 04031d1c     LIBCMT:getqloc.obj
 0002:00002d2c       ??_C@_0BE@JBKABBMH@chinese?9traditional?$AA@ 04031d2c     LIBCMT:getqloc.obj
 0002:00002d40       ??_C@_0BC@MJJMPKCG@chinese?9singapore?$AA@ 04031d40     LIBCMT:getqloc.obj
 0002:00002d54       ??_C@_0BD@FDKADDCP@chinese?9simplified?$AA@ 04031d54     LIBCMT:getqloc.obj
 0002:00002d68       ??_C@_0BB@DBEFDDME@chinese?9hongkong?$AA@ 04031d68     LIBCMT:getqloc.obj
 0002:00002d7c       ??_C@_07DHNMFMCI@chinese?$AA@ 04031d7c     LIBCMT:getqloc.obj
 0002:00002d84       ??_C@_03FNDDCHI@chi?$AA@   04031d84     LIBCMT:getqloc.obj
 0002:00002d88       ??_C@_03BMMIADDJ@chh?$AA@  04031d88     LIBCMT:getqloc.obj
 0002:00002d8c       ??_C@_08OAIPJDGI@canadian?$AA@ 04031d8c     LIBCMT:getqloc.obj
 0002:00002d98       ??_C@_07HBPMNPNJ@belgian?$AA@ 04031d98     LIBCMT:getqloc.obj
 0002:00002da0       ??_C@_0L@OEKOPBEL@australian?$AA@ 04031da0     LIBCMT:getqloc.obj
 0002:00002dac       ??_C@_0BB@MEIMBEDG@american?9english?$AA@ 04031dac     LIBCMT:getqloc.obj
 0002:00002dc0       ??_C@_0BB@DFMDPDGB@american?5english?$AA@ 04031dc0     LIBCMT:getqloc.obj
 0002:00002dd4       ??_C@_08IJLOKOLL@american?$AA@ 04031dd4     LIBCMT:getqloc.obj
 0002:00002de0       ___rg_language             04031de0     LIBCMT:getqloc.obj
 0002:00002fe8       ___rg_country              04031fe8     LIBCMT:getqloc.obj
 0002:000030a0       ___rglangidNotDefault      040320a0     LIBCMT:getqloc.obj
 0002:000030b4       ??_C@_03NFKLAGEF@OCP?$AA@  040320b4     LIBCMT:getqloc.obj
 0002:000030b8       ??_C@_03DFHEHBHG@ACP?$AA@  040320b8     LIBCMT:getqloc.obj
 0002:000030bc       ??_C@_0BC@NFIEMBLL@Norwegian?9Nynorsk?$AA@ 040320bc     LIBCMT:getqloc.obj
 0002:000030d0       ??_C@_0BC@JEAENNKH@SystemFunction036?$AA@ 040320d0     LIBCMT:rand_s.obj
 0002:000030e4       ??_C@_0N@JJPEKNFO@ADVAPI32?4DLL?$AA@ 040320e4     LIBCMT:rand_s.obj
 0002:000030f4       ??_C@_0BI@DFKBFLJE@GetProcessWindowStation?$AA@ 040320f4     LIBCMT:crtmbox.obj
 0002:0000310c       ??_C@_0BK@CIDNPOGP@GetUserObjectInformationA?$AA@ 0403210c     LIBCMT:crtmbox.obj
 0002:00003128       ??_C@_0BD@HHGDFDBJ@GetLastActivePopup?$AA@ 04032128     LIBCMT:crtmbox.obj
 0002:0000313c       ??_C@_0BA@HNOPNCHB@GetActiveWindow?$AA@ 0403213c     LIBCMT:crtmbox.obj
 0002:0000314c       ??_C@_0M@CHKKJDAI@MessageBoxA?$AA@ 0403214c     LIBCMT:crtmbox.obj
 0002:00003158       ??_C@_0L@NDEGIDAG@USER32?4DLL?$AA@ 04032158     LIBCMT:crtmbox.obj
 0002:00003168       ___lookuptable_s           04032168     LIBCMT:outputs.obj
 0002:000031c4       ___dnames                  040321c4     LIBCMT:timeset.obj
 0002:000031dc       ___mnames                  040321dc     LIBCMT:timeset.obj
 0002:00003204       ??_C@_02CLFPBFFP@TZ?$AA@   04032204     LIBCMT:tzset.obj
 0002:00003208       ??_C@_06IMKFLFPG@1?$CDQNAN?$AA@ 04032208     LIBCMT:_x10fout_.obj
 0002:00003210       ??_C@_05DNEBIAHO@1?$CDINF?$AA@ 04032210     LIBCMT:_x10fout_.obj
 0002:00003218       ??_C@_05PHHOCPM@1?$CDIND?$AA@ 04032218     LIBCMT:_x10fout_.obj
 0002:00003220       ??_C@_06PGGFOGJG@1?$CDSNAN?$AA@ 04032220     LIBCMT:_x10fout_.obj
 0002:00003228       ??_C@_06GDENEHCP@CONIN$?$AA@ 04032228     LIBCMT:initcon.obj
 0002:00003230       ??_C@_07GPDNMNG@CONOUT$?$AA@ 04032230     LIBCMT:initcon.obj
 0002:00003238       __load_config_used         04032238     LIBCMT:loadcfg.obj
 0002:000032ec       ??_R4bad_alloc@std@@6B@    040322ec     MQ2NetBots.obj
 0002:00003300       ??_R3bad_alloc@std@@8      04032300     MQ2NetBots.obj
 0002:00003310       ??_R2bad_alloc@std@@8      04032310     MQ2NetBots.obj
 0002:0000331c       ??_R1A@?0A@EA@bad_alloc@std@@8 0403231c     MQ2NetBots.obj
 0002:00003338       ??_R1A@?0A@EA@exception@std@@8 04032338     MQ2NetBots.obj
 0002:00003354       ??_R3exception@std@@8      04032354     MQ2NetBots.obj
 0002:00003364       ??_R2exception@std@@8      04032364     MQ2NetBots.obj
 0002:0000336c       ??_R4logic_error@std@@6B@  0403236c     MQ2NetBots.obj
 0002:00003380       ??_R3logic_error@std@@8    04032380     MQ2NetBots.obj
 0002:00003390       ??_R2logic_error@std@@8    04032390     MQ2NetBots.obj
 0002:0000339c       ??_R1A@?0A@EA@logic_error@std@@8 0403239c     MQ2NetBots.obj
 0002:000033b8       ??_R4length_error@std@@6B@ 040323b8     MQ2NetBots.obj
 0002:000033cc       ??_R3length_error@std@@8   040323cc     MQ2NetBots.obj
 0002:000033dc       ??_R2length_error@std@@8   040323dc     MQ2NetBots.obj
 0002:000033ec       ??_R1A@?0A@EA@length_error@std@@8 040323ec     MQ2NetBots.obj
 0002:00003408       ??_R4out_of_range@std@@6B@ 04032408     MQ2NetBots.obj
 0002:0000341c       ??_R3out_of_range@std@@8   0403241c     MQ2NetBots.obj
 0002:0000342c       ??_R2out_of_range@std@@8   0403242c     MQ2NetBots.obj
 0002:0000343c       ??_R1A@?0A@EA@out_of_range@std@@8 0403243c     MQ2NetBots.obj
 0002:00003458       ??_R4MQ2Type@MQ2Internal@@6B@ 04032458     MQ2NetBots.obj
 0002:0000346c       ??_R3MQ2Type@MQ2Internal@@8 0403246c     MQ2NetBots.obj
 0002:0000347c       ??_R2MQ2Type@MQ2Internal@@8 0403247c     MQ2NetBots.obj
 0002:00003484       ??_R1A@?0A@EA@MQ2Type@MQ2Internal@@8 04032484     MQ2NetBots.obj
 0002:000034a0       ??_R4MQ2NetBotsType@@6B@   040324a0     MQ2NetBots.obj
 0002:000034b4       ??_R3MQ2NetBotsType@@8     040324b4     MQ2NetBots.obj
 0002:000034c4       ??_R2MQ2NetBotsType@@8     040324c4     MQ2NetBots.obj
 0002:000034d0       ??_R1A@?0A@EA@MQ2NetBotsType@@8 040324d0     MQ2NetBots.obj
 0002:000034ec       ??_R4invalid_argument@std@@6B@ 040324ec     libcpmt:string.obj
 0002:00003500       ??_R3invalid_argument@std@@8 04032500     libcpmt:string.obj
 0002:00003510       ??_R2invalid_argument@std@@8 04032510     libcpmt:string.obj
 0002:00003520       ??_R1A@?0A@EA@invalid_argument@std@@8 04032520     libcpmt:string.obj
 0002:0000353c       ??_R4exception@std@@6B@    0403253c     LIBCMT:stdexcpt.obj
 0002:00003550       ??_R4bad_cast@std@@6B@     04032550     LIBCMT:stdexcpt.obj
 0002:00003564       ??_R3bad_cast@std@@8       04032564     LIBCMT:stdexcpt.obj
 0002:00003574       ??_R2bad_cast@std@@8       04032574     LIBCMT:stdexcpt.obj
 0002:00003580       ??_R1A@?0A@EA@bad_cast@std@@8 04032580     LIBCMT:stdexcpt.obj
 0002:0000359c       ??_R4bad_typeid@std@@6B@   0403259c     LIBCMT:stdexcpt.obj
 0002:000035b0       ??_R3bad_typeid@std@@8     040325b0     LIBCMT:stdexcpt.obj
 0002:000035c0       ??_R2bad_typeid@std@@8     040325c0     LIBCMT:stdexcpt.obj
 0002:000035cc       ??_R1A@?0A@EA@bad_typeid@std@@8 040325cc     LIBCMT:stdexcpt.obj
 0002:000035e8       ??_R4__non_rtti_object@std@@6B@ 040325e8     LIBCMT:stdexcpt.obj
 0002:000035fc       ??_R3__non_rtti_object@std@@8 040325fc     LIBCMT:stdexcpt.obj
 0002:0000360c       ??_R2__non_rtti_object@std@@8 0403260c     LIBCMT:stdexcpt.obj
 0002:0000361c       ??_R1A@?0A@EA@__non_rtti_object@std@@8 0403261c     LIBCMT:stdexcpt.obj
 0002:00003638       ??_R4type_info@@6B@        04032638     LIBCMT:typinfo.obj
 0002:0000364c       ??_R3type_info@@8          0403264c     LIBCMT:typinfo.obj
 0002:0000365c       ??_R2type_info@@8          0403265c     LIBCMT:typinfo.obj
 0002:00003664       ??_R1A@?0A@EA@type_info@@8 04032664     LIBCMT:typinfo.obj
 0002:00003680       ??_R4bad_exception@std@@6B@ 04032680     LIBCMT:frame.obj
 0002:00003694       ??_R3bad_exception@std@@8  04032694     LIBCMT:frame.obj
 0002:000036a4       ??_R2bad_exception@std@@8  040326a4     LIBCMT:frame.obj
 0002:000036b0       ??_R1A@?0A@EA@bad_exception@std@@8 040326b0     LIBCMT:frame.obj
 0002:000036d0       ___safe_se_handler_table   040326d0     <linker-defined>
 0002:00003764       ___rtc_iaa                 04032764     LIBCMT:_initsect_.obj
 0002:00003768       ___rtc_izz                 04032768     LIBCMT:_initsect_.obj
 0002:0000376c       ___rtc_taa                 0403276c     LIBCMT:_initsect_.obj
 0002:00003770       ___rtc_tzz                 04032770     LIBCMT:_initsect_.obj
 0002:00003778       __TI2?AVbad_alloc@std@@    04032778     MQ2NetBots.obj
 0002:00003788       __CTA2?AVbad_alloc@std@@   04032788     MQ2NetBots.obj
 0002:00003794       __CT??_R0?AVbad_alloc@std@@@8??0bad_alloc@std@@QAE@ABV01@@Z12 04032794     MQ2NetBots.obj
 0002:000037b0       __CT??_R0?AVexception@std@@@8??0exception@std@@QAE@ABV01@@Z12 040327b0     MQ2NetBots.obj
 0002:00003884       __TI3?AVout_of_range@std@@ 04032884     MQ2NetBots.obj
 0002:000038c0       __CTA3?AVout_of_range@std@@ 040328c0     MQ2NetBots.obj
 0002:000038d0       __CT??_R0?AVout_of_range@std@@@8??0out_of_range@std@@QAE@ABV01@@Z40 040328d0     MQ2NetBots.obj
 0002:000038ec       __CT??_R0?AVlogic_error@std@@@8??0logic_error@std@@QAE@ABV01@@Z40 040328ec     MQ2NetBots.obj
 0002:00003934       __TI3?AVlength_error@std@@ 04032934     MQ2NetBots.obj
 0002:00003970       __CTA3?AVlength_error@std@@ 04032970     MQ2NetBots.obj
 0002:00003980       __CT??_R0?AVlength_error@std@@@8??0length_error@std@@QAE@ABV01@@Z40 04032980     MQ2NetBots.obj
 0002:00003e70       __TI3?AVinvalid_argument@std@@ 04032e70     libcpmt:string.obj
 0002:00003eac       __CTA3?AVinvalid_argument@std@@ 04032eac     libcpmt:string.obj
 0002:00003ebc       __CT??_R0?AVinvalid_argument@std@@@8??0invalid_argument@std@@QAE@ABV01@@Z40 04032ebc     libcpmt:string.obj
 0002:00004314       __TI2?AVbad_exception@std@@ 04033314     LIBCMT:frame.obj
 0002:00004324       __CTA2?AVbad_exception@std@@ 04033324     LIBCMT:frame.obj
 0002:00004330       __CT??_R0?AVbad_exception@std@@@8??0bad_exception@std@@QAE@ABV01@@Z12 04033330     LIBCMT:frame.obj
 0002:000047dc       __IMPORT_DESCRIPTOR_KERNEL32 040337dc     kernel32:KERNEL32.dll
 0002:000047f0       __IMPORT_DESCRIPTOR_MQ2Main 040337f0     MQ2Main:MQ2Main.dll
 0002:00004804       __NULL_IMPORT_DESCRIPTOR   04033804     kernel32:KERNEL32.dll
 0003:00000004       ?MQ2Version@@3MA           04035004     MQ2NetBots.obj
 0003:00000118       ??_R0?AVbad_alloc@std@@@8  04035118     MQ2NetBots.obj
 0003:00000134       ??_R0?AVexception@std@@@8  04035134     MQ2NetBots.obj
 0003:00000150       ??_R0?AVlogic_error@std@@@8 04035150     MQ2NetBots.obj
 0003:00000170       ??_R0?AVlength_error@std@@@8 04035170     MQ2NetBots.obj
 0003:00000190       ??_R0?AVout_of_range@std@@@8 04035190     MQ2NetBots.obj
 0003:000001b0       ??_R0?AVMQ2Type@MQ2Internal@@@8 040351b0     MQ2NetBots.obj
 0003:000001d4       ??_R0?AVMQ2NetBotsType@@@8 040351d4     MQ2NetBots.obj
 0003:000001f8       ??_R0?AVinvalid_argument@std@@@8 040351f8     libcpmt:string.obj
 0003:00000220       ??_R0?AVbad_cast@std@@@8   04035220     LIBCMT:stdexcpt.obj
 0003:0000023c       ??_R0?AVbad_typeid@std@@@8 0403523c     LIBCMT:stdexcpt.obj
 0003:0000025c       ??_R0?AV__non_rtti_object@std@@@8 0403525c     LIBCMT:stdexcpt.obj
 0003:00000284       ??_R0?AVtype_info@@@8      04035284     LIBCMT:typinfo.obj
 0003:000002b0       __fltused                  040352b0     LIBCMT:_fpinit_.obj
 0003:000002b4       __ldused                   040352b4     LIBCMT:_fpinit_.obj
 0003:00000440       __amblksiz                 04035440     LIBCMT:heapinit.obj
 0003:00000568       ___initialmbcinfo          04035568     LIBCMT:mbctype.obj
 0003:00000788       __mbctype                  04035788     LIBCMT:mbctype.obj
 0003:00000890       __mbcasemap                04035890     LIBCMT:mbctype.obj
 0003:00000990       ___ptmbcinfo               04035990     LIBCMT:mbctype.obj
 0003:00000a8c       ___globallocalestatus      04035a8c     LIBCMT:glstatus.obj
 0003:00000a90       ___clocalestr              04035a90     LIBCMT:nlsdata2.obj
 0003:00000a98       ___initiallocinfo          04035a98     LIBCMT:nlsdata2.obj
 0003:00000b70       ___ptlocinfo               04035b70     LIBCMT:nlsdata2.obj
 0003:00000b74       ___lc_clike                04035b74     LIBCMT:nlsdata2.obj
 0003:00000b78       ___initiallocalestructinfo 04035b78     LIBCMT:nlsdata2.obj
 0003:00000b80       ___flsindex                04035b80     LIBCMT:tidtable.obj
 0003:00000b84       ___getvalueindex           04035b84     LIBCMT:tidtable.obj
 0003:00000b88       __aexit_rtn                04035b88     LIBCMT:crt0dat.obj
 0003:00000c48       ___nullstring              04035c48     LIBCMT:output.obj
 0003:00000c4c       ___wnullstring             04035c4c     LIBCMT:output.obj
 0003:00000c50       __cfltcvt_tab              04035c50     LIBCMT:cmiscdat.obj
 0003:00000c78       ___security_cookie         04035c78     LIBCMT:gs_cookie.obj
 0003:00000c7c       ___security_cookie_complement 04035c7c     LIBCMT:gs_cookie.obj
 0003:00000c84       ??_R0?AVbad_exception@std@@@8 04035c84     LIBCMT:frame.obj
 0003:00000cb0       ___abort_behavior          04035cb0     LIBCMT:abort.obj
 0003:00000cb8       ___badioinfo               04035cb8     LIBCMT:ioinit.obj
 0003:00000cf8       __First_FPE_Indx           04035cf8     LIBCMT:winxfltr.obj
 0003:00000cfc       __Num_FPE                  04035cfc     LIBCMT:winxfltr.obj
 0003:00000d00       __XcptActTabSize           04035d00     LIBCMT:winxfltr.obj
 0003:00000d04       __XcptActTabCount          04035d04     LIBCMT:winxfltr.obj
 0003:00000d08       __pctype                   04035d08     LIBCMT:ctype.obj
 0003:00000d0c       __pwctype                  04035d0c     LIBCMT:ctype.obj
 0003:00000d10       ___lc_time_c               04035d10     LIBCMT:strftime.obj
 0003:00000dc8       ___lc_time_curr            04035dc8     LIBCMT:strftime.obj
 0003:00000dcc       ___lconv_static_decimal    04035dcc     LIBCMT:lconv.obj
 0003:00000dd0       ___lconv_c                 04035dd0     LIBCMT:lconv.obj
 0003:00000e00       ___lconv                   04035e00     LIBCMT:lconv.obj
 0003:00000e04       ___mb_cur_max              04035e04     LIBCMT:nlsdata1.obj
 0003:00000e08       ___decimal_point           04035e08     LIBCMT:nlsdata1.obj
 0003:00000e0c       ___decimal_point_length    04035e0c     LIBCMT:nlsdata1.obj
 0003:00000e10       __iob                      04035e10     LIBCMT:_file.obj
 0003:000010c0       __pow10pos                 040360c0     LIBCMT:_constpow_.obj
 0003:00001220       __pow10neg                 04036220     LIBCMT:_constpow_.obj
 0003:00001380       __NLG_Destination          04036380     LIBCMT:exsup.obj
 0003:00001390       __timezone                 04036390     LIBCMT:timeset.obj
 0003:00001394       __daylight                 04036394     LIBCMT:timeset.obj
 0003:00001398       __dstbias                  04036398     LIBCMT:timeset.obj
 0003:00001420       __tzname                   04036420     LIBCMT:timeset.obj
 0003:00001444       __lpdays                   04036444     LIBCMT:days.obj
 0003:00001478       __days                     04036478     LIBCMT:days.obj
 0003:000014b0       __coninpfh                 040364b0     LIBCMT:initcon.obj
 0003:000014b4       __confh                    040364b4     LIBCMT:initcon.obj
 0003:000014e0       ?sBuffer@@3PAY0BAA@DA      040364e0     MQ2NetBots.obj
 0003:000023e0       ?wUpdate@@3PA_NA           040373e0     MQ2NetBots.obj
 0003:000023f0       ?wChange@@3PA_NA           040373f0     MQ2NetBots.obj
 0003:00002400       ?sTimers@@3PAJA            04037400     MQ2NetBots.obj
 0003:00002440       ?wBuffer@@3PAY0BAA@DA      04037440     MQ2NetBots.obj
 0003:00003340       ?INIFileName@@3PADA        04038340     MQ2NetBots.obj
 0003:00003444       ?NetInit@@3JA              04038444     MQ2NetBots.obj
 0003:00003448       ?NetStat@@3JA              04038448     MQ2NetBots.obj
 0003:0000344c       ?NetGrab@@3JA              0403844c     MQ2NetBots.obj
 0003:00003450       ?NetSend@@3JA              04038450     MQ2NetBots.obj
 0003:00003454       ?NetLast@@3JA              04038454     MQ2NetBots.obj
 0003:00003458       ?CurBot@@3PAVBotInfo@@A    04038458     MQ2NetBots.obj
 0003:0000345c       ?pNetBotsType@@3PAVMQ2NetBotsType@@A 0403845c     MQ2NetBots.obj
 0003:00003460       ?Packet@@3VBlech@@A        04038460     MQ2NetBots.obj
 0003:000038ac       ?NetMap@@3V?$map@V?$basic_string@DU?$char_traits@D@std@@V?$allocator@D@2@@std@@VBotInfo@@U?$less@V?$basic_string@DU?$char_traits@D@std@@V?$allocator@D@2@@std@@@2@V?$allocator@U?$pair@$$CBV?$basic_string@DU?$char_traits@D@std@@V?$allocator@D@2@@std@@VBotInfo@@@std@@@2@@std@@A 040388ac     MQ2NetBots.obj
 0003:000038d0       ?ToUpper@?3??stristr@Blech@@SAPBDPBD0@Z@4PADA 040388d0     MQ2NetBots.obj
 0003:000039d0       ?bInitialized@?3??stristr@Blech@@SAPBDPBD0@Z@4_NA 040389d0     MQ2NetBots.obj
 0003:000039e4       ___fastflag                040389e4     LIBCMT:_fpinit_.obj
 0003:000039e8       __adjust_fdiv              040389e8     LIBCMT:_fpinit_.obj
 0003:000039ec       ___pInvalidArgHandler      040389ec     LIBCMT:invarg.obj
 0003:000039fc       __aenvptr                  040389fc     LIBCMT:dllcrt0.obj
 0003:00003a00       __wenvptr                  04038a00     LIBCMT:dllcrt0.obj
 0003:00003a04       ___error_mode              04038a04     LIBCMT:dllcrt0.obj
 0003:00003a08       ___app_type                04038a08     LIBCMT:dllcrt0.obj
 0003:00003a14       __crtheap                  04038a14     LIBCMT:heapinit.obj
 0003:00003b68       ___sbh_pHeaderDefer        04038b68     LIBCMT:sbheap.obj
 0003:00003b6c       ?_pnhHeap@@3P6AHI@ZA       04038b6c     LIBCMT:handler.obj
 0003:00003b74       ___mbulinfo                04038b74     LIBCMT:mbctype.obj
 0003:00003b80       ___mbcodepage              04038b80     LIBCMT:mbctype.obj
 0003:00003b84       ___ismbcodepage            04038b84     LIBCMT:mbctype.obj
 0003:00003b88       ___mblcid                  04038b88     LIBCMT:mbctype.obj
 0003:00003b8c       ___locale_changed          04038b8c     LIBCMT:setlocal.obj
 0003:00003b90       ___lc_handle               04038b90     LIBCMT:nlsdata2.obj
 0003:00003ba8       ___lc_codepage             04038ba8     LIBCMT:nlsdata2.obj
 0003:00003bac       ___lc_collate_cp           04038bac     LIBCMT:nlsdata2.obj
 0003:00003bb0       _gpFlsAlloc                04038bb0     LIBCMT:tidtable.obj
 0003:00003bb4       _gpFlsGetValue             04038bb4     LIBCMT:tidtable.obj
 0003:00003bb8       _gpFlsSetValue             04038bb8     LIBCMT:tidtable.obj
 0003:00003bbc       _gpFlsFree                 04038bbc     LIBCMT:tidtable.obj
 0003:00003bc4       __umaskval                 04038bc4     LIBCMT:crt0dat.obj
 0003:00003bc8       ___argc                    04038bc8     LIBCMT:crt0dat.obj
 0003:00003bcc       ___argv                    04038bcc     LIBCMT:crt0dat.obj
 0003:00003bd0       ___wargv                   04038bd0     LIBCMT:crt0dat.obj
 0003:00003bd4       __environ                  04038bd4     LIBCMT:crt0dat.obj
 0003:00003bd8       ___initenv                 04038bd8     LIBCMT:crt0dat.obj
 0003:00003bdc       __wenviron                 04038bdc     LIBCMT:crt0dat.obj
 0003:00003be0       ___winitenv                04038be0     LIBCMT:crt0dat.obj
 0003:00003be4       __pgmptr                   04038be4     LIBCMT:crt0dat.obj
 0003:00003be8       __wpgmptr                  04038be8     LIBCMT:crt0dat.obj
 0003:00003bec       __exitflag                 04038bec     LIBCMT:crt0dat.obj
 0003:00003bf0       __C_Termination_Done       04038bf0     LIBCMT:crt0dat.obj
 0003:00003bf4       __C_Exit_Done              04038bf4     LIBCMT:crt0dat.obj
 0003:00003f0c       __newmode                  04038f0c     LIBCMT:_newmode.obj
 0003:00003f10       ?__pInconsistency@@3P6AXXZA 04038f10     LIBCMT:hooks.obj
 0003:00003f1c       ___pPurecall               04038f1c     LIBCMT:inithelp.obj
 0003:00003f20       __maxwait                  04038f20     LIBCMT:crtheap.obj
 0003:00004370       ?pArgList@UnDecorator@@0PAVReplicator@@A 04039370     LIBCMT:undname.obj
 0003:00004374       ?pZNameList@UnDecorator@@0PAVReplicator@@A 04039374     LIBCMT:undname.obj
 0003:00004378       ?pTemplateArgList@UnDecorator@@0PAVReplicator@@A 04039378     LIBCMT:undname.obj
 0003:0000437c       ?gName@UnDecorator@@0PBDB  0403937c     LIBCMT:undname.obj
 0003:00004380       ?name@UnDecorator@@0PBDB   04039380     LIBCMT:undname.obj
 0003:00004384       ?outputString@UnDecorator@@0PADA 04039384     LIBCMT:undname.obj
 0003:00004388       ?maxStringLength@UnDecorator@@0HA 04039388     LIBCMT:undname.obj
 0003:0000438c       ?disableFlags@UnDecorator@@0KA 0403938c     LIBCMT:undname.obj
 0003:00004390       ?m_pGetParameter@UnDecorator@@0P6APADJ@ZA 04039390     LIBCMT:undname.obj
 0003:00004394       ?fExplicitTemplateParams@UnDecorator@@0_NA 04039394     LIBCMT:undname.obj
 0003:00004395       ?fGetTemplateArgumentList@UnDecorator@@0_NA 04039395     LIBCMT:undname.obj
 0003:00004398       ?nodes@?1??make@DNameStatusNode@@SAPAV2@W4DNameStatus@@@Z@4PAV2@A 04039398     LIBCMT:undname.obj
 0003:000043c8       ??_B?1??make@DNameStatusNode@@SAPAV1@W4DNameStatus@@@Z@51 040393c8     LIBCMT:undname.obj
 0003:000043d4       ___lconv_static_null       040393d4     LIBCMT:lconv.obj
 0003:00004404       __cflush                   04039404     LIBCMT:_file.obj
 0003:0000440c       __outputformat             0403940c     LIBCMT:outputformat.obj
 0003:000044d0       __stdbuf                   040394d0     LIBCMT:_sftbuf.obj
 0003:000044dc       ___piob                    040394dc     <common>
 0003:000044e0       __bufin                    040394e0     <common>
 0003:000054e0       __nstream                  0403a4e0     <common>
 0003:000054e4       __nhandle                  0403a4e4     <common>
 0003:00005500       ___pioinfo                 0403a500     <common>
 0003:00005600       __debugger_hook_dummy      0403a600     <common>
 0003:00005604       ___env_initialized         0403a604     <common>
 0003:00005608       ___onexitend               0403a608     <common>
 0003:0000560c       ___onexitbegin             0403a60c     <common>
 0003:00005610       ___mbctype_initialized     0403a610     <common>
 0003:00005614       ___dyn_tls_init_callback   0403a614     <common>
 0003:00005618       ___setlc_active            0403a618     <common>
 0003:0000561c       ___unguarded_readlc_active 0403a61c     <common>
 0003:00005620       ___sse2_available          0403a620     <common>
 0003:00005624       ___sbh_initialized         0403a624     <common>
 0003:00005628       ___sbh_cntHeaderList       0403a628     <common>
 0003:0000562c       ___sbh_pHeaderList         0403a62c     <common>
 0003:00005630       ___sbh_threshold           0403a630     <common>
 0003:00005634       ___sbh_pHeaderScan         0403a634     <common>
 0003:00005638       ___sbh_sizeHeaderList      0403a638     <common>
 0003:0000563c       ___sbh_indGroupDefer       0403a63c     <common>
 0003:00005640       ___active_heap             0403a640     <common>
 0003:00005644       __acmdln                   0403a644     <common>

 entry point at        0001:0000c24b

 Static symbols

 0001:fffff000       __unwindfunclet$??0logic_error@std@@QAE@ABV?$basic_string@DU?$char_traits@D@std@@V?$allocator@D@2@@1@@Z$0 04000000 f   libcpmt:string.obj
 0001:fffff000       __unwindfunclet$??0logic_error@std@@QAE@ABV01@@Z$0 04000000 f   libcpmt:string.obj
 0001:fffff000       __ehhandler$?_Copy@?$basic_string@DU?$char_traits@D@std@@V?$allocator@D@2@@std@@IAEXII@Z 04000000 f   libcpmt:string.obj
 0001:fffff008       __ehhandler$??0logic_error@std@@QAE@ABV?$basic_string@DU?$char_traits@D@std@@V?$allocator@D@2@@1@@Z 04000008 f   libcpmt:string.obj
 0001:fffff008       __ehhandler$??0logic_error@std@@QAE@ABV01@@Z 04000008 f   libcpmt:string.obj
 0001:fffff059       __catch$?_Copy@?$basic_string@DU?$char_traits@D@std@@V?$allocator@D@2@@std@@IAEXII@Z$0 04000059 f   libcpmt:string.obj
 0001:fffff0ca       __catch$?_Copy@?$basic_string@DU?$char_traits@D@std@@V?$allocator@D@2@@std@@IAEXII@Z$1 040000ca f   libcpmt:string.obj
 0001:00000230       ?Equalness@@YAIPBD0@Z      04001230 f   MQ2NetBots.obj
 0001:00001320       ?GetCharInfo@@YAPAU_CHARINFO@EQData@@XZ 04002320 f   MQ2NetBots.obj
 0001:00001330       ?GetCharInfo2@@YAPAU_CHARINFO2@EQData@@XZ 04002330 f   MQ2NetBots.obj
 0001:00001350       ?GetSpawnByID@@YAPAVEQPlayer@EQClasses@@K@Z 04002350 f   MQ2NetBots.obj
 0001:00001370       ?GetSpawnByName@@YAPAVEQPlayer@EQClasses@@PAD@Z 04002370 f   MQ2NetBots.obj
 0001:00001390       ?GetGroupMember@@YAPAU_SPAWNINFO@EQData@@K@Z 04002390 f   MQ2NetBots.obj
 0001:00003f43       __catch$?_Copy@?$basic_string@DU?$char_traits@D@std@@V?$allocator@D@2@@std@@IAEXII@Z$0 04004f43 f i MQ2NetBots.obj
 0001:00003fd3       __catch$?_Copy@?$basic_string@DU?$char_traits@D@std@@V?$allocator@D@2@@std@@IAEXII@Z$1 04004fd3 f i MQ2NetBots.obj
 0001:000060a5       __catch$?_Buynode@?$_Tree@V?$_Tmap_traits@V?$basic_string@DU?$char_traits@D@std@@V?$allocator@D@2@@std@@VBotInfo@@U?$less@V?$basic_string@DU?$char_traits@D@std@@V?$allocator@D@2@@std@@@2@V?$allocator@U?$pair@$$CBV?$basic_string@DU?$char_traits@D@std@@V?$allocator@D@2@@std@@VBotInfo@@@std@@@2@$0A@@std@@@std@@IAEPAU_Node@?$_Tree_nod@V?$_Tmap_traits@V?$basic_string@DU?$char_traits@D@std@@V?$allocator@D@2@@std@@VBotInfo@@U?$less@V?$basic_string@DU?$char_traits@D@std@@V?$allocator@D@2@@std@@@2@V?$allocator@U?$pair@$$CBV?$basic_string@DU?$char_traits@D@std@@V?$allocator@D@2@@std@@VBotInfo@@@std@@@2@$0A@@std@@@2@PAU342@00ABU?$pair@$$CBV?$basic_string@DU?$char_traits@D@std@@V?$allocator@D@2@@std@@VBotInfo@@@2@D@Z$0 040070a5 f i MQ2NetBots.obj
 0001:00006412       __catch$?_Buynode@?$_Tree@V?$_Tmap_traits@V?$basic_string@DU?$char_traits@D@std@@V?$allocator@D@2@@std@@KU?$less@V?$basic_string@DU?$char_traits@D@std@@V?$allocator@D@2@@std@@@2@V?$allocator@U?$pair@$$CBV?$basic_string@DU?$char_traits@D@std@@V?$allocator@D@2@@std@@K@std@@@2@$0A@@std@@@std@@IAEPAU_Node@?$_Tree_nod@V?$_Tmap_traits@V?$basic_string@DU?$char_traits@D@std@@V?$allocator@D@2@@std@@KU?$less@V?$basic_string@DU?$char_traits@D@std@@V?$allocator@D@2@@std@@@2@V?$allocator@U?$pair@$$CBV?$basic_string@DU?$char_traits@D@std@@V?$allocator@D@2@@std@@K@std@@@2@$0A@@std@@@2@PAU342@00ABU?$pair@$$CBV?$basic_string@DU?$char_traits@D@std@@V?$allocator@D@2@@std@@K@2@D@Z$0 04007412 f i MQ2NetBots.obj
 0001:00008a60       ?GetSpellByID@@YAPAU_SPELL@EQData@@K@Z 04009a60 f   MQ2NetBots.obj
 0001:00008a80       ?IsNumber@@YAHPAD@Z        04009a80 f   MQ2NetBots.obj
 0001:0000b8f1       ?CatchGuardHandler@@YA?AW4_EXCEPTION_DISPOSITION@@PAUEHExceptionRecord@@PAUCatchGuardRN@@PAX2@Z 0400c8f1 f   LIBCMT:_trnsctrl_.obj
 0001:0000b9fb       ?TranslatorGuardHandler@@YA?AW4_EXCEPTION_DISPOSITION@@PAUEHExceptionRecord@@PAUTranslatorGuardRN@@PAX2@Z 0400c9fb f   LIBCMT:_trnsctrl_.obj
 0001:0000bee2       __onexit_nolock            0400cee2 f   LIBCMT:onexit.obj
 0001:0000c155       ___DllMainCRTStartup       0400d155 f   LIBCMT:dllcrt0.obj
 0001:0000dcc0       _ValidateLocalCookies      0400ecc0 f   LIBCMT:chandler4.obj
 0001:0000de7c       _fastcopy_I                0400ee7c f   LIBCMT:p4_memcpy.obj
 0001:0000dfe6       _has_osfxsr_set            0400efe6 f   LIBCMT:cpu_disp.obj
 0001:0000e128       ?CPtoLCID@@YAHH@Z          0400f128 f   LIBCMT:mbctype.obj
 0001:0000e157       ?setSBCS@@YAXPAUthreadmbcinfostruct@@@Z 0400f157 f   LIBCMT:mbctype.obj
 0001:0000e1bb       ?setSBUpLow@@YAXPAUthreadmbcinfostruct@@@Z 0400f1bb f   LIBCMT:mbctype.obj
 0001:0000e3f2       ?getSystemCP@@YAHH@Z       0400f3f2 f   LIBCMT:mbctype.obj
 0001:0000eac6       __copytlocinfo_nolock      0400fac6 f   LIBCMT:setlocal.obj
 0001:0000eaec       __updatetlocinfoEx_nolock  0400faec f   LIBCMT:setlocal.obj
 0001:0000ec0a       _sync_legacy_variables_lk  0400fc0a f   LIBCMT:setlocal.obj
 0001:0000efb7       __setlocale_get_all        0400ffb7 f   LIBCMT:setlocal.obj
 0001:0000f365       __setlocale_set_cat        04010365 f   LIBCMT:setlocal.obj
 0001:0000f667       __setlocale_nolock         04010667 f   LIBCMT:setlocal.obj
 0001:00010196       ?strncnt@@YAHPBDH@Z        04011196 f   LIBCMT:a_map.obj
 0001:000101b4       ?__crtLCMapStringA_stat@@YAHPAUlocaleinfo_struct@@KKPBDHPADHHH@Z 040111b4 f   LIBCMT:a_map.obj
 0001:00010a21       __initterm                 04011a21 f   LIBCMT:crt0dat.obj
 0001:00010b5f       _doexit                    04011b5f f   LIBCMT:crt0dat.obj
 0001:00010f2d       _fastzero_I                04011f2d f   LIBCMT:p4_memset.obj
 0001:00011177       _write_char                04012177 f   LIBCMT:output.obj
 0001:000111aa       _write_multi_char          040121aa f   LIBCMT:output.obj
 0001:000111d0       _write_string              040121d0 f   LIBCMT:output.obj
 0001:0001228e       ?strtoxl@@YAKPAUlocaleinfo_struct@@PBDPAPBDHH@Z 0401328e f   LIBCMT:strtol.obj
 0001:0001254e       ?strtoxq@@YA_KPAUlocaleinfo_struct@@PBDPAPBDHH@Z 0401354e f   LIBCMT:strtoq.obj
 0001:000137f1       __shift                    040147f1 f   LIBCMT:cvt.obj
 0001:00013836       __cftoe2_l                 04014836 f   LIBCMT:cvt.obj
 0001:00013e28       __cftof2_l                 04014e28 f   LIBCMT:cvt.obj
 0001:00014450       ?ExFilterRethrow@@YAHPAU_EXCEPTION_POINTERS@@@Z 04015450 f   LIBCMT:frame.obj
 0001:00014844       ?IsInExceptionSpec@@YAEPAUEHExceptionRecord@@PBU_s_ESTypeList@@@Z 04015844 f   LIBCMT:frame.obj
 0001:000148bf       ?CallUnexpected@@YAXPBU_s_ESTypeList@@@Z 040158bf f   LIBCMT:frame.obj
 0001:000148f0       __catch$?CallUnexpected@@YAXPBU_s_ESTypeList@@@Z$0 040158f0 f   LIBCMT:frame.obj
 0001:00014908       ?Is_bad_exception_allowed@@YAEPBU_s_ESTypeList@@@Z 04015908 f   LIBCMT:frame.obj
 0001:000149c0       ?CallCatchBlock@@YAPAXPAUEHExceptionRecord@@PAUEHRegistrationNode@@PAU_CONTEXT@@PBU_s_FuncInfo@@PAXHK@Z 040159c0 f   LIBCMT:frame.obj
 0001:00014eb2       ?CatchIt@@YAXPAUEHExceptionRecord@@PAUEHRegistrationNode@@PAU_CONTEXT@@PAXPBU_s_FuncInfo@@PBU_s_HandlerType@@PBU_s_CatchableType@@PBU_s_TryBlockMapEntry@@H1E@Z 04015eb2 f   LIBCMT:frame.obj
 0001:00014f20       ?FindHandlerForForeignException@@YAXPAUEHExceptionRecord@@PAUEHRegistrationNode@@PAU_CONTEXT@@PAXPBU_s_FuncInfo@@HH1@Z 04015f20 f   LIBCMT:frame.obj
 0001:00015014       ?FindHandler@@YAXPAUEHExceptionRecord@@PAUEHRegistrationNode@@PAU_CONTEXT@@PAXPBU_s_FuncInfo@@EH1@Z 04016014 f   LIBCMT:frame.obj
 0001:00015e58       _parse_cmdline             04016e58 f   LIBCMT:stdargv.obj
 0001:00016231       _xcptlookup                04017231 f   LIBCMT:winxfltr.obj
 0001:00016fec       ?und_strlen@@YAIPBD@Z      04017fec f   LIBCMT:undname.obj
 0001:00016ffa       ?und_memcpy@@YAXPADPBDI@Z  04017ffa f   LIBCMT:undname.obj
 0001:00017010       ?und_strncmp@@YAIPBD0I@Z   04018010 f   LIBCMT:undname.obj
 0001:0001b984       __unwind_handler4          0401c984 f   LIBCMT:exsup4.obj
 0001:0001bc0d       ?__crtGetStringTypeA_stat@@YAHPAUlocaleinfo_struct@@KPBDHPAGHHH@Z 0401cc0d f   LIBCMT:a_str.obj
 0001:0001be38       __get_lc_time              0401ce38 f   LIBCMT:inittime.obj
 0001:0001c461       _fix_grouping              0401d461 f   LIBCMT:initnum.obj
 0001:0001c6a3       _fix_grouping              0401d6a3 f   LIBCMT:initmon.obj
 0001:0001d3f8       ?_store_str@@YAXPADPAPADPAI@Z 0401e3f8 f   LIBCMT:strftime.obj
 0001:0001d418       ?_store_number@@YAXHPAPADPAI@Z 0401e418 f   LIBCMT:strftime.obj
 0001:0001d44e       ?_store_num@@YAXHHPAPADPAII@Z 0401e44e f   LIBCMT:strftime.obj
 0001:0001d4c9       ?_expandtime@@YAHPAUlocaleinfo_struct@@DPBUtm@@PAPADPAIPAU__lc_time_data@@I@Z 0401e4c9 f   LIBCMT:strftime.obj
 0001:0001d8b1       ?_store_winword@@YAHPAUlocaleinfo_struct@@HPBUtm@@PAPADPAIPAU__lc_time_data@@@Z 0401e8b1 f   LIBCMT:strftime.obj
 0001:0001e0ab       _TranslateName             0401f0ab f   LIBCMT:getqloc.obj
 0001:0001e10d       _GetLcidFromDefault        0401f10d f   LIBCMT:getqloc.obj
 0001:0001e121       _ProcessCodePage           0401f121 f   LIBCMT:getqloc.obj
 0001:0001e1c5       _TestDefaultCountry        0401f1c5 f   LIBCMT:getqloc.obj
 0001:0001e1e9       _LcidFromHexString         0401f1e9 f   LIBCMT:getqloc.obj
 0001:0001e21d       _GetPrimaryLen             0401f21d f   LIBCMT:getqloc.obj
 0001:0001e238       _CountryEnumProc@4         0401f238 f   LIBCMT:getqloc.obj
 0001:0001e2d0       _TestDefaultLanguage       0401f2d0 f   LIBCMT:getqloc.obj
 0001:0001e344       _LangCountryEnumProc@4     0401f344 f   LIBCMT:getqloc.obj
 0001:0001e516       _LanguageEnumProc@4        0401f516 f   LIBCMT:getqloc.obj
 0001:0001e5d7       _GetLcidFromCountry        0401f5d7 f   LIBCMT:getqloc.obj
 0001:0001e603       _GetLcidFromLangCountry    0401f603 f   LIBCMT:getqloc.obj
 0001:0001e66a       _GetLcidFromLanguage       0401f66a f   LIBCMT:getqloc.obj
 0001:0001e897       _cmpResult                 0401f897 f   LIBCMT:memcmp.obj
 0001:0001e8a9       _cmpBYTE                   0401f8a9 f   LIBCMT:memcmp.obj
 0001:0001e8c1       _cmpWORD                   0401f8c1 f   LIBCMT:memcmp.obj
 0001:0001e901       _cmpDWORD                  0401f901 f   LIBCMT:memcmp.obj
 0001:0001e979       _unaligned_memcmp          0401f979 f   LIBCMT:memcmp.obj
 0001:00021825       _ctrlevent_capture@4       04022825 f   LIBCMT:winsig.obj
 0001:000218c0       _siglookup                 040228c0 f   LIBCMT:winsig.obj
 0001:00023160       _write_char                04024160 f   LIBCMT:outputp.obj
 0001:00023193       _write_multi_char          04024193 f   LIBCMT:outputp.obj
 0001:000231b9       _write_string              040241b9 f   LIBCMT:outputp.obj
 0001:000244db       _write_char                040254db f   LIBCMT:outputs.obj
 0001:0002450e       _write_multi_char          0402550e f   LIBCMT:outputs.obj
 0001:00024534       _write_string              04025534 f   LIBCMT:outputs.obj
 0001:000274bc       __unwind_handler           040284bc f   LIBCMT:exsup.obj
 0001:000275d3       ?__crtGetLocaleInfoW_stat@@YAHPAUlocaleinfo_struct@@KKPA_WHH@Z 040285d3 f   LIBCMT:w_loc.obj
 0001:00027620       ?__crtGetLocaleInfoA_stat@@YAHPAUlocaleinfo_struct@@KKPADHH@Z 04028620 f   LIBCMT:a_loc.obj
 0001:00027b50       ?x_ismbbtype_l@@YAHPAUlocaleinfo_struct@@IHH@Z 04028b50 f   LIBCMT:ismbbyte.obj
 0001:00027fa7       __tzset_nolock             04028fa7 f   LIBCMT:tzset.obj
 0001:000282ed       _cvtdate                   040292ed f   LIBCMT:tzset.obj
 0001:000284e4       __isindst_nolock           040294e4 f   LIBCMT:tzset.obj
 0001:00028a34       _xtoa_s@20                 04029a34 f   LIBCMT:xtoas.obj
 0001:00028b7c       @x64toa_s@24               04029b7c f   LIBCMT:xtoas.obj
 0001:00028cc8       ?__crtGetStringTypeW_stat@@YAHPAUlocaleinfo_struct@@KPB_WHPAGHH@Z 04029cc8 f   LIBCMT:w_str.obj
 0001:00029648       _flsall                    0402a648 f   LIBCMT:fflush.obj
 0001:0002a322       __abstract_cw              0402b322 f   LIBCMT:_ieee87_.obj
 0001:0002a3c1       __hw_cw                    0402b3c1 f   LIBCMT:_ieee87_.obj
 0001:0002a44f       __abstract_sw              0402b44f f   LIBCMT:_ieee87_.obj
 0001:0002a492       ___abstract_cw_sse2        0402b492 f   LIBCMT:_ieee87_.obj
 0001:0002a532       ___hw_cw_sse2              0402b532 f   LIBCMT:_ieee87_.obj
 0001:0002a5d2       ___abstract_sw_sse2        0402b5d2 f   LIBCMT:_ieee87_.obj
 0001:0002a615       ___fpreset_sse2            0402b615 f   LIBCMT:_ieee87_.obj
 0001:0002a6eb       ___statusfp_sse2           0402b6eb f   LIBCMT:_ieee87_.obj
 0001:0002a726       ___clearfp_sse2            0402b726 f   LIBCMT:_ieee87_.obj
 0001:0002a776       ___control87_sse2          0402b776 f   LIBCMT:_ieee87_.obj
 0001:0002b3db       __getenv_s_helper          0402c3db f   LIBCMT:getenv.obj
 0001:0002b470       __dupenv_s_helper          0402c470 f   LIBCMT:getenv.obj
 0001:0002bf7c       ?strncnt@@YAHPBDH@Z        0402cf7c f   LIBCMT:a_cmp.obj
 0001:0002bf9a       ?__crtCompareStringA_stat@@YAHPAUlocaleinfo_struct@@KKPBDH1HH@Z 0402cf9a f   LIBCMT:a_cmp.obj
 0001:0002c46f       _findenv                   0402d46f f   LIBCMT:setenv.obj
 0001:0002c4c1       _copy_environ              0402d4c1 f   LIBCMT:setenv.obj
 0001:0002cb44       _xtoa@16                   0402db44 f   LIBCMT:xtoa.obj
 0001:0002cbf3       @x64toa@20                 0402dbf3 f   LIBCMT:xtoa.obj
 0001:0002ccc0       __ehhandler$?_Copy@?$basic_string@DU?$char_traits@D@std@@V?$allocator@D@2@@std@@IAEXII@Z 0402dcc0 f   MQ2NetBots.obj
 0001:0002ccd0       __unwindfunclet$??0logic_error@std@@QAE@ABV?$basic_string@DU?$char_traits@D@std@@V?$allocator@D@2@@1@@Z$0 0402dcd0 f   MQ2NetBots.obj
 0001:0002ccd8       __ehhandler$??0logic_error@std@@QAE@ABV?$basic_string@DU?$char_traits@D@std@@V?$allocator@D@2@@1@@Z 0402dcd8 f   MQ2NetBots.obj
 0001:0002ccf0       __unwindfunclet$?erase@?$_Tree@V?$_Tmap_traits@IPAU_BLECHEVENT@@U?$less@I@std@@V?$allocator@U?$pair@$$CBIPAU_BLECHEVENT@@@std@@@3@$0A@@std@@@std@@QAE?AViterator@12@Vconst_iterator@12@@Z$0 0402dcf0 f   MQ2NetBots.obj
 0001:0002ccf8       __ehhandler$?erase@?$_Tree@V?$_Tmap_traits@IPAU_BLECHEVENT@@U?$less@I@std@@V?$allocator@U?$pair@$$CBIPAU_BLECHEVENT@@@std@@@3@$0A@@std@@@std@@QAE?AViterator@12@Vconst_iterator@12@@Z 0402dcf8 f   MQ2NetBots.obj
 0001:0002cd10       __unwindfunclet$??0logic_error@std@@QAE@ABV01@@Z$0 0402dd10 f   MQ2NetBots.obj
 0001:0002cd18       __ehhandler$??0logic_error@std@@QAE@ABV01@@Z 0402dd18 f   MQ2NetBots.obj
 0001:0002cd30       __unwindfunclet$?_Insert@?$_Tree@V?$_Tmap_traits@IPAU_BLECHEVENT@@U?$less@I@std@@V?$allocator@U?$pair@$$CBIPAU_BLECHEVENT@@@std@@@3@$0A@@std@@@std@@IAE?AViterator@12@_NPAU_Node@?$_Tree_nod@V?$_Tmap_traits@IPAU_BLECHEVENT@@U?$less@I@std@@V?$allocator@U?$pair@$$CBIPAU_BLECHEVENT@@@std@@@3@$0A@@std@@@2@ABU?$pair@$$CBIPAU_BLECHEVENT@@@2@@Z$0 0402dd30 f   MQ2NetBots.obj
 0001:0002cd38       __ehhandler$?_Insert@?$_Tree@V?$_Tmap_traits@IPAU_BLECHEVENT@@U?$less@I@std@@V?$allocator@U?$pair@$$CBIPAU_BLECHEVENT@@@std@@@3@$0A@@std@@@std@@IAE?AViterator@12@_NPAU_Node@?$_Tree_nod@V?$_Tmap_traits@IPAU_BLECHEVENT@@U?$less@I@std@@V?$allocator@U?$pair@$$CBIPAU_BLECHEVENT@@@std@@@3@$0A@@std@@@2@ABU?$pair@$$CBIPAU_BLECHEVENT@@@2@@Z 0402dd38 f   MQ2NetBots.obj
 0001:0002cd50       __unwindfunclet$?BotFind@@YAPAVBotInfo@@PAD@Z$0 0402dd50 f   MQ2NetBots.obj
 0001:0002cd58       __ehhandler$?BotFind@@YAPAVBotInfo@@PAD@Z 0402dd58 f   MQ2NetBots.obj
 0001:0002cd70       __unwindfunclet$??0?$_Tree@V?$_Tmap_traits@IPAU_BLECHEVENT@@U?$less@I@std@@V?$allocator@U?$pair@$$CBIPAU_BLECHEVENT@@@std@@@3@$0A@@std@@@std@@QAE@ABU?$less@I@1@ABV?$allocator@U?$pair@$$CBIPAU_BLECHEVENT@@@std@@@1@@Z$0 0402dd70 f   MQ2NetBots.obj
 0001:0002cd78       __ehhandler$??0?$_Tree@V?$_Tmap_traits@IPAU_BLECHEVENT@@U?$less@I@std@@V?$allocator@U?$pair@$$CBIPAU_BLECHEVENT@@@std@@@3@$0A@@std@@@std@@QAE@ABU?$less@I@1@ABV?$allocator@U?$pair@$$CBIPAU_BLECHEVENT@@@std@@@1@@Z 0402dd78 f   MQ2NetBots.obj
 0001:0002cd90       __unwindfunclet$??0?$_Tree@V?$_Tmap_traits@V?$basic_string@DU?$char_traits@D@std@@V?$allocator@D@2@@std@@KU?$less@V?$basic_string@DU?$char_traits@D@std@@V?$allocator@D@2@@std@@@2@V?$allocator@U?$pair@$$CBV?$basic_string@DU?$char_traits@D@std@@V?$allocator@D@2@@std@@K@std@@@2@$0A@@std@@@std@@QAE@ABU?$less@V?$basic_string@DU?$char_traits@D@std@@V?$allocator@D@2@@std@@@1@ABV?$allocator@U?$pair@$$CBV?$basic_string@DU?$char_traits@D@std@@V?$allocator@D@2@@std@@K@std@@@1@@Z$0 0402dd90 f   MQ2NetBots.obj
 0001:0002cd98       __ehhandler$??0?$_Tree@V?$_Tmap_traits@V?$basic_string@DU?$char_traits@D@std@@V?$allocator@D@2@@std@@KU?$less@V?$basic_string@DU?$char_traits@D@std@@V?$allocator@D@2@@std@@@2@V?$allocator@U?$pair@$$CBV?$basic_string@DU?$char_traits@D@std@@V?$allocator@D@2@@std@@K@std@@@2@$0A@@std@@@std@@QAE@ABU?$less@V?$basic_string@DU?$char_traits@D@std@@V?$allocator@D@2@@std@@@1@ABV?$allocator@U?$pair@$$CBV?$basic_string@DU?$char_traits@D@std@@V?$allocator@D@2@@std@@K@std@@@1@@Z 0402dd98 f   MQ2NetBots.obj
 0001:0002cdb0       __unwindfunclet$??0?$_Tree@V?$_Tmap_traits@V?$basic_string@DU?$char_traits@D@std@@V?$allocator@D@2@@std@@VBotInfo@@U?$less@V?$basic_string@DU?$char_traits@D@std@@V?$allocator@D@2@@std@@@2@V?$allocator@U?$pair@$$CBV?$basic_string@DU?$char_traits@D@std@@V?$allocator@D@2@@std@@VBotInfo@@@std@@@2@$0A@@std@@@std@@QAE@ABU?$less@V?$basic_string@DU?$char_traits@D@std@@V?$allocator@D@2@@std@@@1@ABV?$allocator@U?$pair@$$CBV?$basic_string@DU?$char_traits@D@std@@V?$allocator@D@2@@std@@VBotInfo@@@std@@@1@@Z$0 0402ddb0 f   MQ2NetBots.obj
 0001:0002cdb8       __ehhandler$??0?$_Tree@V?$_Tmap_traits@V?$basic_string@DU?$char_traits@D@std@@V?$allocator@D@2@@std@@VBotInfo@@U?$less@V?$basic_string@DU?$char_traits@D@std@@V?$allocator@D@2@@std@@@2@V?$allocator@U?$pair@$$CBV?$basic_string@DU?$char_traits@D@std@@V?$allocator@D@2@@std@@VBotInfo@@@std@@@2@$0A@@std@@@std@@QAE@ABU?$less@V?$basic_string@DU?$char_traits@D@std@@V?$allocator@D@2@@std@@@1@ABV?$allocator@U?$pair@$$CBV?$basic_string@DU?$char_traits@D@std@@V?$allocator@D@2@@std@@VBotInfo@@@std@@@1@@Z 0402ddb8 f   MQ2NetBots.obj
 0001:0002cdd0       __unwindfunclet$?_Buynode@?$_Tree@V?$_Tmap_traits@V?$basic_string@DU?$char_traits@D@std@@V?$allocator@D@2@@std@@VBotInfo@@U?$less@V?$basic_string@DU?$char_traits@D@std@@V?$allocator@D@2@@std@@@2@V?$allocator@U?$pair@$$CBV?$basic_string@DU?$char_traits@D@std@@V?$allocator@D@2@@std@@VBotInfo@@@std@@@2@$0A@@std@@@std@@IAEPAU_Node@?$_Tree_nod@V?$_Tmap_traits@V?$basic_string@DU?$char_traits@D@std@@V?$allocator@D@2@@std@@VBotInfo@@U?$less@V?$basic_string@DU?$char_traits@D@std@@V?$allocator@D@2@@std@@@2@V?$allocator@U?$pair@$$CBV?$basic_string@DU?$char_traits@D@std@@V?$allocator@D@2@@std@@VBotInfo@@@std@@@2@$0A@@std@@@2@PAU342@00ABU?$pair@$$CBV?$basic_string@DU?$char_traits@D@std@@V?$allocator@D@2@@std@@VBotInfo@@@2@D@Z$2 0402ddd0 f   MQ2NetBots.obj
 0001:0002cde1       __ehhandler$?_Buynode@?$_Tree@V?$_Tmap_traits@V?$basic_string@DU?$char_traits@D@std@@V?$allocator@D@2@@std@@VBotInfo@@U?$less@V?$basic_string@DU?$char_traits@D@std@@V?$allocator@D@2@@std@@@2@V?$allocator@U?$pair@$$CBV?$basic_string@DU?$char_traits@D@std@@V?$allocator@D@2@@std@@VBotInfo@@@std@@@2@$0A@@std@@@std@@IAEPAU_Node@?$_Tree_nod@V?$_Tmap_traits@V?$basic_string@DU?$char_traits@D@std@@V?$allocator@D@2@@std@@VBotInfo@@U?$less@V?$basic_string@DU?$char_traits@D@std@@V?$allocator@D@2@@std@@@2@V?$allocator@U?$pair@$$CBV?$basic_string@DU?$char_traits@D@std@@V?$allocator@D@2@@std@@VBotInfo@@@std@@@2@$0A@@std@@@2@PAU342@00ABU?$pair@$$CBV?$basic_string@DU?$char_traits@D@std@@V?$allocator@D@2@@std@@VBotInfo@@@2@D@Z 0402dde1 f   MQ2NetBots.obj
 0001:0002cdf0       __unwindfunclet$?erase@?$_Tree@V?$_Tmap_traits@V?$basic_string@DU?$char_traits@D@std@@V?$allocator@D@2@@std@@KU?$less@V?$basic_string@DU?$char_traits@D@std@@V?$allocator@D@2@@std@@@2@V?$allocator@U?$pair@$$CBV?$basic_string@DU?$char_traits@D@std@@V?$allocator@D@2@@std@@K@std@@@2@$0A@@std@@@std@@QAE?AViterator@12@Vconst_iterator@12@@Z$0 0402ddf0 f   MQ2NetBots.obj
 0001:0002cdf8       __ehhandler$?erase@?$_Tree@V?$_Tmap_traits@V?$basic_string@DU?$char_traits@D@std@@V?$allocator@D@2@@std@@KU?$less@V?$basic_string@DU?$char_traits@D@std@@V?$allocator@D@2@@std@@@2@V?$allocator@U?$pair@$$CBV?$basic_string@DU?$char_traits@D@std@@V?$allocator@D@2@@std@@K@std@@@2@$0A@@std@@@std@@QAE?AViterator@12@Vconst_iterator@12@@Z 0402ddf8 f   MQ2NetBots.obj
 0001:0002ce10       __unwindfunclet$?_Buynode@?$_Tree@V?$_Tmap_traits@V?$basic_string@DU?$char_traits@D@std@@V?$allocator@D@2@@std@@KU?$less@V?$basic_string@DU?$char_traits@D@std@@V?$allocator@D@2@@std@@@2@V?$allocator@U?$pair@$$CBV?$basic_string@DU?$char_traits@D@std@@V?$allocator@D@2@@std@@K@std@@@2@$0A@@std@@@std@@IAEPAU_Node@?$_Tree_nod@V?$_Tmap_traits@V?$basic_string@DU?$char_traits@D@std@@V?$allocator@D@2@@std@@KU?$less@V?$basic_string@DU?$char_traits@D@std@@V?$allocator@D@2@@std@@@2@V?$allocator@U?$pair@$$CBV?$basic_string@DU?$char_traits@D@std@@V?$allocator@D@2@@std@@K@std@@@2@$0A@@std@@@2@PAU342@00ABU?$pair@$$CBV?$basic_string@DU?$char_traits@D@std@@V?$allocator@D@2@@std@@K@2@D@Z$2 0402de10 f   MQ2NetBots.obj
 0001:0002ce21       __ehhandler$?_Buynode@?$_Tree@V?$_Tmap_traits@V?$basic_string@DU?$char_traits@D@std@@V?$allocator@D@2@@std@@KU?$less@V?$basic_string@DU?$char_traits@D@std@@V?$allocator@D@2@@std@@@2@V?$allocator@U?$pair@$$CBV?$basic_string@DU?$char_traits@D@std@@V?$allocator@D@2@@std@@K@std@@@2@$0A@@std@@@std@@IAEPAU_Node@?$_Tree_nod@V?$_Tmap_traits@V?$basic_string@DU?$char_traits@D@std@@V?$allocator@D@2@@std@@KU?$less@V?$basic_string@DU?$char_traits@D@std@@V?$allocator@D@2@@std@@@2@V?$allocator@U?$pair@$$CBV?$basic_string@DU?$char_traits@D@std@@V?$allocator@D@2@@std@@K@std@@@2@$0A@@std@@@2@PAU342@00ABU?$pair@$$CBV?$basic_string@DU?$char_traits@D@std@@V?$allocator@D@2@@std@@K@2@D@Z 0402de21 f   MQ2NetBots.obj
 0001:0002ce30       __unwindfunclet$??1?$_Tree@V?$_Tmap_traits@IPAU_BLECHEVENT@@U?$less@I@std@@V?$allocator@U?$pair@$$CBIPAU_BLECHEVENT@@@std@@@3@$0A@@std@@@std@@QAE@XZ$0 0402de30 f   MQ2NetBots.obj
 0001:0002ce38       __ehhandler$??1?$_Tree@V?$_Tmap_traits@IPAU_BLECHEVENT@@U?$less@I@std@@V?$allocator@U?$pair@$$CBIPAU_BLECHEVENT@@@std@@@3@$0A@@std@@@std@@QAE@XZ 0402de38 f   MQ2NetBots.obj
 0001:0002ce50       __unwindfunclet$?erase@?$_Tree@V?$_Tmap_traits@V?$basic_string@DU?$char_traits@D@std@@V?$allocator@D@2@@std@@VBotInfo@@U?$less@V?$basic_string@DU?$char_traits@D@std@@V?$allocator@D@2@@std@@@2@V?$allocator@U?$pair@$$CBV?$basic_string@DU?$char_traits@D@std@@V?$allocator@D@2@@std@@VBotInfo@@@std@@@2@$0A@@std@@@std@@QAE?AViterator@12@Vconst_iterator@12@@Z$0 0402de50 f   MQ2NetBots.obj
 0001:0002ce58       __ehhandler$?erase@?$_Tree@V?$_Tmap_traits@V?$basic_string@DU?$char_traits@D@std@@V?$allocator@D@2@@std@@VBotInfo@@U?$less@V?$basic_string@DU?$char_traits@D@std@@V?$allocator@D@2@@std@@@2@V?$allocator@U?$pair@$$CBV?$basic_string@DU?$char_traits@D@std@@V?$allocator@D@2@@std@@VBotInfo@@@std@@@2@$0A@@std@@@std@@QAE?AViterator@12@Vconst_iterator@12@@Z 0402de58 f   MQ2NetBots.obj
 0001:0002ce70       __unwindfunclet$?_Insert@?$_Tree@V?$_Tmap_traits@V?$basic_string@DU?$char_traits@D@std@@V?$allocator@D@2@@std@@VBotInfo@@U?$less@V?$basic_string@DU?$char_traits@D@std@@V?$allocator@D@2@@std@@@2@V?$allocator@U?$pair@$$CBV?$basic_string@DU?$char_traits@D@std@@V?$allocator@D@2@@std@@VBotInfo@@@std@@@2@$0A@@std@@@std@@IAE?AViterator@12@_NPAU_Node@?$_Tree_nod@V?$_Tmap_traits@V?$basic_string@DU?$char_traits@D@std@@V?$allocator@D@2@@std@@VBotInfo@@U?$less@V?$basic_string@DU?$char_traits@D@std@@V?$allocator@D@2@@std@@@2@V?$allocator@U?$pair@$$CBV?$basic_string@DU?$char_traits@D@std@@V?$allocator@D@2@@std@@VBotInfo@@@std@@@2@$0A@@std@@@2@ABU?$pair@$$CBV?$basic_string@DU?$char_traits@D@std@@V?$allocator@D@2@@std@@VBotInfo@@@2@@Z$0 0402de70 f   MQ2NetBots.obj
 0001:0002ce78       __ehhandler$?_Insert@?$_Tree@V?$_Tmap_traits@V?$basic_string@DU?$char_traits@D@std@@V?$allocator@D@2@@std@@VBotInfo@@U?$less@V?$basic_string@DU?$char_traits@D@std@@V?$allocator@D@2@@std@@@2@V?$allocator@U?$pair@$$CBV?$basic_string@DU?$char_traits@D@std@@V?$allocator@D@2@@std@@VBotInfo@@@std@@@2@$0A@@std@@@std@@IAE?AViterator@12@_NPAU_Node@?$_Tree_nod@V?$_Tmap_traits@V?$basic_string@DU?$char_traits@D@std@@V?$allocator@D@2@@std@@VBotInfo@@U?$less@V?$basic_string@DU?$char_traits@D@std@@V?$allocator@D@2@@std@@@2@V?$allocator@U?$pair@$$CBV?$basic_string@DU?$char_traits@D@std@@V?$allocator@D@2@@std@@VBotInfo@@@std@@@2@$0A@@std@@@2@ABU?$pair@$$CBV?$basic_string@DU?$char_traits@D@std@@V?$allocator@D@2@@std@@VBotInfo@@@2@@Z 0402de78 f   MQ2NetBots.obj
 0001:0002ce90       __unwindfunclet$?_Insert@?$_Tree@V?$_Tmap_traits@V?$basic_string@DU?$char_traits@D@std@@V?$allocator@D@2@@std@@KU?$less@V?$basic_string@DU?$char_traits@D@std@@V?$allocator@D@2@@std@@@2@V?$allocator@U?$pair@$$CBV?$basic_string@DU?$char_traits@D@std@@V?$allocator@D@2@@std@@K@std@@@2@$0A@@std@@@std@@IAE?AViterator@12@_NPAU_Node@?$_Tree_nod@V?$_Tmap_traits@V?$basic_string@DU?$char_traits@D@std@@V?$allocator@D@2@@std@@KU?$less@V?$basic_string@DU?$char_traits@D@std@@V?$allocator@D@2@@std@@@2@V?$allocator@U?$pair@$$CBV?$basic_string@DU?$char_traits@D@std@@V?$allocator@D@2@@std@@K@std@@@2@$0A@@std@@@2@ABU?$pair@$$CBV?$basic_string@DU?$char_traits@D@std@@V?$allocator@D@2@@std@@K@2@@Z$0 0402de90 f   MQ2NetBots.obj
 0001:0002ce98       __ehhandler$?_Insert@?$_Tree@V?$_Tmap_traits@V?$basic_string@DU?$char_traits@D@std@@V?$allocator@D@2@@std@@KU?$less@V?$basic_string@DU?$char_traits@D@std@@V?$allocator@D@2@@std@@@2@V?$allocator@U?$pair@$$CBV?$basic_string@DU?$char_traits@D@std@@V?$allocator@D@2@@std@@K@std@@@2@$0A@@std@@@std@@IAE?AViterator@12@_NPAU_Node@?$_Tree_nod@V?$_Tmap_traits@V?$basic_string@DU?$char_traits@D@std@@V?$allocator@D@2@@std@@KU?$less@V?$basic_string@DU?$char_traits@D@std@@V?$allocator@D@2@@std@@@2@V?$allocator@U?$pair@$$CBV?$basic_string@DU?$char_traits@D@std@@V?$allocator@D@2@@std@@K@std@@@2@$0A@@std@@@2@ABU?$pair@$$CBV?$basic_string@DU?$char_traits@D@std@@V?$allocator@D@2@@std@@K@2@@Z 0402de98 f   MQ2NetBots.obj
 0001:0002ceb0       __unwindfunclet$?BotQuit@@YAXPAD@Z$0 0402deb0 f   MQ2NetBots.obj
 0001:0002ceb8       __ehhandler$?BotQuit@@YAXPAD@Z 0402deb8 f   MQ2NetBots.obj
 0001:0002ced0       __unwindfunclet$??1Blech@@QAE@XZ$0 0402ded0 f   MQ2NetBots.obj
 0001:0002cede       __ehhandler$??1Blech@@QAE@XZ 0402dede f   MQ2NetBots.obj
 0001:0002cef0       __unwindfunclet$?BotLoad@@YAPAVBotInfo@@PAD@Z$0 0402def0 f   MQ2NetBots.obj
 0001:0002cefb       __unwindfunclet$?BotLoad@@YAPAVBotInfo@@PAD@Z$1 0402defb f   MQ2NetBots.obj
 0001:0002cf06       __unwindfunclet$?BotLoad@@YAPAVBotInfo@@PAD@Z$2 0402df06 f   MQ2NetBots.obj
 0001:0002cf11       __unwindfunclet$?BotLoad@@YAPAVBotInfo@@PAD@Z$3 0402df11 f   MQ2NetBots.obj
 0001:0002cf1c       __ehhandler$?BotLoad@@YAPAVBotInfo@@PAD@Z 0402df1c f   MQ2NetBots.obj
 0001:0002cf30       __unwindfunclet$??A?$map@V?$basic_string@DU?$char_traits@D@std@@V?$allocator@D@2@@std@@KU?$less@V?$basic_string@DU?$char_traits@D@std@@V?$allocator@D@2@@std@@@2@V?$allocator@U?$pair@$$CBV?$basic_string@DU?$char_traits@D@std@@V?$allocator@D@2@@std@@K@std@@@2@@std@@QAEAAKABV?$basic_string@DU?$char_traits@D@std@@V?$allocator@D@2@@1@@Z$0 0402df30 f   MQ2NetBots.obj
 0001:0002cf38       __ehhandler$??A?$map@V?$basic_string@DU?$char_traits@D@std@@V?$allocator@D@2@@std@@KU?$less@V?$basic_string@DU?$char_traits@D@std@@V?$allocator@D@2@@std@@@2@V?$allocator@U?$pair@$$CBV?$basic_string@DU?$char_traits@D@std@@V?$allocator@D@2@@std@@K@std@@@2@@std@@QAEAAKABV?$basic_string@DU?$char_traits@D@std@@V?$allocator@D@2@@1@@Z 0402df38 f   MQ2NetBots.obj
 0001:0002cf50       __unwindfunclet$??1?$_Tree@V?$_Tmap_traits@V?$basic_string@DU?$char_traits@D@std@@V?$allocator@D@2@@std@@KU?$less@V?$basic_string@DU?$char_traits@D@std@@V?$allocator@D@2@@std@@@2@V?$allocator@U?$pair@$$CBV?$basic_string@DU?$char_traits@D@std@@V?$allocator@D@2@@std@@K@std@@@2@$0A@@std@@@std@@QAE@XZ$0 0402df50 f   MQ2NetBots.obj
 0001:0002cf58       __ehhandler$??1?$_Tree@V?$_Tmap_traits@V?$basic_string@DU?$char_traits@D@std@@V?$allocator@D@2@@std@@KU?$less@V?$basic_string@DU?$char_traits@D@std@@V?$allocator@D@2@@std@@@2@V?$allocator@U?$pair@$$CBV?$basic_string@DU?$char_traits@D@std@@V?$allocator@D@2@@std@@K@std@@@2@$0A@@std@@@std@@QAE@XZ 0402df58 f   MQ2NetBots.obj
 0001:0002cf70       __unwindfunclet$??1?$_Tree@V?$_Tmap_traits@V?$basic_string@DU?$char_traits@D@std@@V?$allocator@D@2@@std@@VBotInfo@@U?$less@V?$basic_string@DU?$char_traits@D@std@@V?$allocator@D@2@@std@@@2@V?$allocator@U?$pair@$$CBV?$basic_string@DU?$char_traits@D@std@@V?$allocator@D@2@@std@@VBotInfo@@@std@@@2@$0A@@std@@@std@@QAE@XZ$0 0402df70 f   MQ2NetBots.obj
 0001:0002cf78       __ehhandler$??1?$_Tree@V?$_Tmap_traits@V?$basic_string@DU?$char_traits@D@std@@V?$allocator@D@2@@std@@VBotInfo@@U?$less@V?$basic_string@DU?$char_traits@D@std@@V?$allocator@D@2@@std@@@2@V?$allocator@U?$pair@$$CBV?$basic_string@DU?$char_traits@D@std@@V?$allocator@D@2@@std@@VBotInfo@@@std@@@2@$0A@@std@@@std@@QAE@XZ 0402df78 f   MQ2NetBots.obj
 0001:0002cf90       __unwindfunclet$?AddMember@MQ2Type@MQ2Internal@@IAEHKPAD@Z$0 0402df90 f   MQ2NetBots.obj
 0001:0002cf98       __unwindfunclet$?AddMember@MQ2Type@MQ2Internal@@IAEHKPAD@Z$1 0402df98 f   MQ2NetBots.obj
 0001:0002cfa0       __ehhandler$?AddMember@MQ2Type@MQ2Internal@@IAEHKPAD@Z 0402dfa0 f   MQ2NetBots.obj
 0001:0002cfb0       __unwindfunclet$??0MQ2Type@MQ2Internal@@QAE@PAD@Z$0 0402dfb0 f   MQ2NetBots.obj
 0001:0002cfbb       __ehhandler$??0MQ2Type@MQ2Internal@@QAE@PAD@Z 0402dfbb f   MQ2NetBots.obj
 0001:0002cfd0       __unwindfunclet$??1MQ2Type@MQ2Internal@@QAE@XZ$0 0402dfd0 f   MQ2NetBots.obj
 0001:0002cfdb       __ehhandler$??1MQ2Type@MQ2Internal@@QAE@XZ 0402dfdb f   MQ2NetBots.obj
 0001:0002cff0       __unwindfunclet$??0MQ2NetBotsType@@QAE@XZ$0 0402dff0 f   MQ2NetBots.obj
 0001:0002cff8       __ehhandler$??0MQ2NetBotsType@@QAE@XZ 0402dff8 f   MQ2NetBots.obj
 0001:0002d010       __unwindfunclet$?FindMember@MQ2Type@MQ2Internal@@QAEPAU_MQ2TypeMember@2@PAD@Z$0 0402e010 f   MQ2NetBots.obj
 0001:0002d018       __ehhandler$?FindMember@MQ2Type@MQ2Internal@@QAEPAU_MQ2TypeMember@2@PAD@Z 0402e018 f   MQ2NetBots.obj
 0001:0002d030       __unwindfunclet$??__FPacket@@YAXXZ$0 0402e030 f   MQ2NetBots.obj
 0001:0002d03a       __ehhandler$??__FPacket@@YAXXZ 0402e03a f   MQ2NetBots.obj
 0001:0002d044       __unwindfunclet$?_Xlen@_String_base@std@@SAXXZ$0 0402e044 f   libcpmt:string.obj
 0001:0002d04c       __ehhandler$?_Xlen@_String_base@std@@SAXXZ 0402e04c f   libcpmt:string.obj
 0001:0002d067       __unwindfunclet$?_Xran@_String_base@std@@SAXXZ$0 0402e067 f   libcpmt:string.obj
 0001:0002d06f       __ehhandler$?_Xran@_String_base@std@@SAXXZ 0402e06f f   libcpmt:string.obj
 0001:0002d08a       __unwindfunclet$?_Xinvarg@_String_base@std@@SAXXZ$0 0402e08a f   libcpmt:string.obj
 0001:0002d092       __ehhandler$?_Xinvarg@_String_base@std@@SAXXZ 0402e092 f   libcpmt:string.obj
 0001:0002d0ad       __ehhandler$?CallUnexpected@@YAXPBU_s_ESTypeList@@@Z 0402e0ad f   LIBCMT:frame.obj
 0001:0002d0d0       ??__ENetMap@@YAXXZ         0402e0d0 f   MQ2NetBots.obj
 0001:0002d100       ??__EPacket@@YAXXZ         0402e100 f   MQ2NetBots.obj
 0001:0002d180       ??__FPacket@@YAXXZ         0402e180 f   MQ2NetBots.obj
 0001:0002d1d0       ??__FNetMap@@YAXXZ         0402e1d0 f   MQ2NetBots.obj
 0001:0002d1da       ??__Fnomem@?5???2@YAPAXI@Z@YAXXZ 0402e1da f   LIBCMT:new.obj

 Exports

  ordinal    name

        1    ?MQ2Version@@3MA (float MQ2Version)
        2    _GetLowestHPBot
               exported name: GetLowestHPBot
        3    _InitializePlugin
               exported name: InitializePlugin
        4    _OnBeginZone
               exported name: OnBeginZone
        5    _OnNetBotEVENT
               exported name: OnNetBotEVENT
        6    _OnNetBotMSG
               exported name: OnNetBotMSG
        7    _OnPulse
               exported name: OnPulse
        8    _SetGameState
               exported name: SetGameState
        9    _ShutdownPlugin
               exported name: ShutdownPlugin
