 MQ2EQBC

 Timestamp is 4d435c39 (Fri Jan 28 19:15:53 2011)

 Preferred load address is 04000000

 Start         Length     Name                   Class
 0001:00000000 00036727H .text                   CODE
 0001:00036730 00000dceH .text$x                 CODE
 0001:00037500 000000d1H .text$yc                CODE
 0001:000375e0 000000a6H .text$yd                CODE
 0002:00000000 00000290H .idata$5                DATA
 0002:00000290 00000004H .CRT$XCA                DATA
 0002:00000294 0000000cH .CRT$XCC                DATA
 0002:000002a0 00000014H .CRT$XCU                DATA
 0002:000002b4 00000004H .CRT$XCZ                DATA
 0002:000002b8 00000004H .CRT$XIA                DATA
 0002:000002bc 00000014H .CRT$XIC                DATA
 0002:000002d0 00000004H .CRT$XID                DATA
 0002:000002d4 00000004H .CRT$XIZ                DATA
 0002:000002d8 00000004H .CRT$XPA                DATA
 0002:000002dc 00000004H .CRT$XPX                DATA
 0002:000002e0 00000004H .CRT$XPXA               DATA
 0002:000002e4 00000004H .CRT$XPZ                DATA
 0002:000002e8 00000004H .CRT$XTA                DATA
 0002:000002ec 00000004H .CRT$XTZ                DATA
 0002:000002f0 00004788H .rdata                  DATA
 0002:00004a78 00000066H .rdata$debug            DATA
 0002:00004ae0 00000910H .rdata$r                DATA
 0002:000053f0 00000194H .rdata$sxdata           DATA
 0002:00005584 00000004H .rtc$IAA                DATA
 0002:00005588 00000004H .rtc$IZZ                DATA
 0002:0000558c 00000004H .rtc$TAA                DATA
 0002:00005590 00000004H .rtc$TZZ                DATA
 0002:00005598 00001f9cH .xdata$x                DATA
 0002:00007534 0000003cH .idata$2                DATA
 0002:00007570 00000014H .idata$3                DATA
 0002:00007584 00000290H .idata$4                DATA
 0002:00007814 00000d7aH .idata$6                DATA
 0002:00008590 00000119H .edata                  DATA
 0003:00000000 00001a30H .data                   DATA
 0003:00001a40 00004a28H .bss                    DATA

  Address         Publics by Value              Rva+Base       Lib:Object

 0000:00000000       __except_list              00000000     <absolute>
 0000:00000065       ___safe_se_handler_count   00000065     <absolute>
 0000:00000000       ___ImageBase               04000000     <linker-defined>
 0001:00000000       ?strchr@@YAPADPADH@Z       04001000 f i MQ2EQBC.obj
 0001:00000010       ??0bad_alloc@std@@QAE@PBD@Z 04001010 f i MQ2EQBC.obj
 0001:00000030       ??1bad_alloc@std@@UAE@XZ   04001030 f i MQ2EQBC.obj
 0001:00000040       ??_Ebad_alloc@std@@UAEPAXI@Z 04001040 f i MQ2EQBC.obj
 0001:00000040       ??_Gbad_alloc@std@@UAEPAXI@Z 04001040 f i MQ2EQBC.obj
 0001:00000070       ??2@YAPAXIPAX@Z            04001070 f i MQ2EQBC.obj
 0001:00000080       ??3@YAXPAX0@Z              04001080 f i MQ2EQBC.obj
 0001:00000090       ?assign@?$char_traits@D@std@@SAXAADABD@Z 04001090 f i MQ2EQBC.obj
 0001:000000a0       ?compare@?$char_traits@D@std@@SAHPBD0I@Z 040010a0 f i MQ2EQBC.obj
 0001:00000120       ?length@?$char_traits@D@std@@SAIPBD@Z 04001120 f i MQ2EQBC.obj
 0001:00000140       ?_Copy_s@?$char_traits@D@std@@SAPADPADIPBDI@Z 04001140 f i MQ2EQBC.obj
 0001:00000170       ?find@?$char_traits@D@std@@SAPBDPBDIABD@Z 04001170 f i MQ2EQBC.obj
 0001:00000190       ?_Move_s@?$char_traits@D@std@@SAPADPADIPBDI@Z 04001190 f i MQ2EQBC.obj
 0001:000001c0       ?assign@?$char_traits@D@std@@SAPADPADID@Z 040011c0 f i MQ2EQBC.obj
 0001:000001e0       ?to_char_type@?$char_traits@D@std@@SADABH@Z 040011e0 f i MQ2EQBC.obj
 0001:000001f0       ?to_int_type@?$char_traits@D@std@@SAHABD@Z 040011f0 f i MQ2EQBC.obj
 0001:00000200       ?eq_int_type@?$char_traits@D@std@@SA_NABH0@Z 04001200 f i MQ2EQBC.obj
 0001:00000220       ?eof@?$char_traits@D@std@@SAHXZ 04001220 f i MQ2EQBC.obj
 0001:00000230       ??0_Aux_cont@std@@QAE@QBV_Container_base_aux@1@@Z 04001230 f i MQ2EQBC.obj
 0001:00000240       ?_Getcont@_Aux_cont@std@@QBEPBV_Container_base_aux@2@XZ 04001240 f i MQ2EQBC.obj
 0001:00000250       ??0_Container_base_aux@std@@QAE@XZ 04001250 f i MQ2EQBC.obj
 0001:00000260       ??1_Container_base_aux@std@@QAE@XZ 04001260 f i MQ2EQBC.obj
 0001:00000270       ??0_Iterator_base_aux@std@@QAE@XZ 04001270 f i MQ2EQBC.obj
 0001:00000280       ?_Set_container@_Iterator_base_aux@std@@QAEXQBV_Container_base_aux@2@@Z 04001280 f i MQ2EQBC.obj
 0001:00000290       ?_Getmycont@_Iterator_base_aux@std@@QBEPBV_Container_base_aux@2@XZ 04001290 f i MQ2EQBC.obj
 0001:000002a0       ?_Same_container@_Iterator_base_aux@std@@QBE_NABV12@@Z 040012a0 f i MQ2EQBC.obj
 0001:000002c0       ?_Has_container@_Iterator_base_aux@std@@QBE_NXZ 040012c0 f i MQ2EQBC.obj
 0001:000002d0       ?_Getctype@_Locinfo@std@@QBE?AU_Ctypevec@@XZ 040012d0 f i MQ2EQBC.obj
 0001:00000300       ?_Getcvt@_Locinfo@std@@QBE?AU_Cvtvec@@XZ 04001300 f i MQ2EQBC.obj
 0001:00000320       ??0id@locale@std@@QAE@I@Z  04001320 f i MQ2EQBC.obj
 0001:00000330       ??Bid@locale@std@@QAEIXZ   04001330 f i MQ2EQBC.obj
 0001:00000370       ?_Incref@facet@locale@std@@QAEXXZ 04001370 f i MQ2EQBC.obj
 0001:000003a0       ?_Decref@facet@locale@std@@QAEPAV123@XZ 040013a0 f i MQ2EQBC.obj
 0001:000003e0       ?_Register@facet@locale@std@@QAEXXZ 040013e0 f i MQ2EQBC.obj
 0001:000003f0       ??1facet@locale@std@@UAE@XZ 040013f0 f i MQ2EQBC.obj
 0001:00000400       ??0facet@locale@std@@IAE@I@Z 04001400 f i MQ2EQBC.obj
 0001:00000420       ??0locale@std@@QAE@XZ      04001420 f i MQ2EQBC.obj
 0001:00000460       ??0locale@std@@QAE@ABV01@@Z 04001460 f i MQ2EQBC.obj
 0001:000004a0       ??1locale@std@@QAE@XZ      040014a0 f i MQ2EQBC.obj
 0001:000004f0       ?_Getfacet@locale@std@@QBEPBVfacet@12@I@Z 040014f0 f i MQ2EQBC.obj
 0001:00000530       ??_Gfacet@locale@std@@UAEPAXI@Z 04001530 f i MQ2EQBC.obj
 0001:00000530       ??_Efacet@locale@std@@UAEPAXI@Z 04001530 f i MQ2EQBC.obj
 0001:00000550       ??0ctype_base@std@@QAE@I@Z 04001550 f i MQ2EQBC.obj
 0001:00000570       ??1ctype_base@std@@UAE@XZ  04001570 f i MQ2EQBC.obj
 0001:00000580       ??_Gctype_base@std@@UAEPAXI@Z 04001580 f i MQ2EQBC.obj
 0001:00000580       ??_Ectype_base@std@@UAEPAXI@Z 04001580 f i MQ2EQBC.obj
 0001:000005a0       ?is@?$ctype@D@std@@QBE_NFD@Z 040015a0 f i MQ2EQBC.obj
 0001:000005c0       ?widen@?$ctype@D@std@@QBEDD@Z 040015c0 f i MQ2EQBC.obj
 0001:000005d0       ?_Init@?$ctype@D@std@@IAEXABV_Locinfo@2@@Z 040015d0 f i MQ2EQBC.obj
 0001:00000610       ?rdstate@ios_base@std@@QBEHXZ 04001610 f i MQ2EQBC.obj
 0001:00000620       ?good@ios_base@std@@QBE_NXZ 04001620 f i MQ2EQBC.obj
 0001:00000630       ?fail@ios_base@std@@QBE_NXZ 04001630 f i MQ2EQBC.obj
 0001:00000640       ?flags@ios_base@std@@QBEHXZ 04001640 f i MQ2EQBC.obj
 0001:00000650       ?getloc@ios_base@std@@QBE?AVlocale@2@XZ 04001650 f i MQ2EQBC.obj
 0001:00000690       ??1ios_base@std@@UAE@XZ    04001690 f i MQ2EQBC.obj
 0001:000006a0       ??0ios_base@std@@IAE@XZ    040016a0 f i MQ2EQBC.obj
 0001:000006b0       ??_Gios_base@std@@UAEPAXI@Z 040016b0 f i MQ2EQBC.obj
 0001:000006b0       ??_Eios_base@std@@UAEPAXI@Z 040016b0 f i MQ2EQBC.obj
 0001:000006e0       ?pXWnd@CSidlScreenWnd@EQClasses@@QAEPAVCXWnd@2@XZ 040016e0 f i MQ2EQBC.obj
 0001:000006f0       ?Lock@CAutoLock@MQ2Internal@@QAEXXZ 040016f0 f i MQ2EQBC.obj
 0001:00000710       ?Unlock@CAutoLock@MQ2Internal@@QAEXXZ 04001710 f i MQ2EQBC.obj
 0001:00000730       ??0CAutoLock@MQ2Internal@@QAE@PAU_RTL_CRITICAL_SECTION@@@Z 04001730 f i MQ2EQBC.obj
 0001:00000760       ??1CAutoLock@MQ2Internal@@QAE@XZ 04001760 f i MQ2EQBC.obj
 0001:00000780       ?ReplacevfTable@CCustomWnd@MQ2Internal@@QAEXXZ 04001780 f i MQ2EQBC.obj
 0001:000007b0       ?RemovevfTable@CCustomWnd@MQ2Internal@@QAEXXZ 040017b0 f i MQ2EQBC.obj
 0001:000007d0       ?SetvfTable@CCustomWnd@MQ2Internal@@QAEXKK@Z 040017d0 f i MQ2EQBC.obj
 0001:000008b0       _DllMain@12                040018b0 f   MQ2EQBC.obj
 0001:00000910       ?SetFontSize@CMQ2EqbcWnd@@QAEXI@Z 04001910 f i MQ2EQBC.obj
 0001:000009c0       ?dataEQBC@@YAHPADAAU_MQ2TypeVar@MQ2Internal@@@Z 040019c0 f   MQ2EQBC.obj
 0001:000009e0       ?EQBCConnectThread@@YGKPAX@Z 040019e0 f   MQ2EQBC.obj
 0001:00000b10       ?CheckSocket@@YAXPADH@Z    04001b10 f   MQ2EQBC.obj
 0001:00000b30       ?getCurPlayerName@@YAPADXZ 04001b30 f   MQ2EQBC.obj
 0001:00000b60       ?SetPlayer@@YAXXZ          04001b60 f   MQ2EQBC.obj
 0001:00000ba0       ?WriteOut@@YAXPAD@Z        04001ba0 f   MQ2EQBC.obj
 0001:00000d30       ?WriteStringGetCount@@YAHPAD0@Z 04001d30 f   MQ2EQBC.obj
 0001:00000d60       ?transmit@@YAX_NPAD@Z      04001d60 f   MQ2EQBC.obj
 0001:00000e00       ?echoTransmit@@YAX_NPAD@Z  04001e00 f   MQ2EQBC.obj
 0001:00000e50       ?HandleToggleRequest@@YAXPAHPAD1@Z 04001e50 f   MQ2EQBC.obj
 0001:00000ee0       ?HandleStatusRequest@@YAXXZ 04001ee0 f   MQ2EQBC.obj
 0001:00000fc0       ?HandleHelpRequest@@YAXXZ  04001fc0 f   MQ2EQBC.obj
 0001:00001100       ?HandleConnectRequest@@YAXPAD@Z 04002100 f   MQ2EQBC.obj
 0001:00001480       ?HandleVersionRequest@@YAXXZ 04002480 f   MQ2EQBC.obj
 0001:000014b0       ?HandleNamesRequest@@YAXXZ 040024b0 f   MQ2EQBC.obj
 0001:00001510       ?HandleChannels@@YAXPAD@Z  04002510 f   MQ2EQBC.obj
 0001:00001770       ?SendCmdLocalEcho@@YAXXZ   04002770 f   MQ2EQBC.obj
 0001:000017e0       ?BoxChatSay@@YAXPAU_SPAWNINFO@EQData@@PAD@Z 040027e0 f   MQ2EQBC.obj
 0001:000018a0       ?BoxChatTell@@YAXPAU_SPAWNINFO@EQData@@PAD@Z 040028a0 f   MQ2EQBC.obj
 0001:00001a90       ?BciTransmit@@YAXPAD0@Z    04002a90 f   MQ2EQBC.obj
 0001:00001bf0       ?BoxChatAllButMe@@YAXPAU_SPAWNINFO@EQData@@PAD@Z 04002bf0 f   MQ2EQBC.obj
 0001:00001d20       ?SendNetBotMsg@@YAXPAD@Z   04002d20 f   MQ2EQBC.obj
 0001:00001e00       ?SendNetBotEvent@@YAXPAD@Z 04002e00 f   MQ2EQBC.obj
 0001:00001e80       ?getColorCharFromCode@@YADPAD@Z 04002e80 f   MQ2EQBC.obj
 0001:00001ed0       ?strCleanEnd@@YAXPAD@Z     04002ed0 f   MQ2EQBC.obj
 0001:00001f20       ?HandleIncomingCommand@@YAXPAD@Z 04002f20 f   MQ2EQBC.obj
 0001:00002000       ?HandleBciMessage@@YAXPAD0@Z 04003000 f   MQ2EQBC.obj
 0001:00002160       ?HandleControlMessage@@YAXPAD@Z 04003160 f   MQ2EQBC.obj
 0001:00002250       ?GetCharacterSelectWindow@@YAPAU_CSIDLWND@EQUIStructs@@XZ 04003250 f   MQ2EQBC.obj
 0001:00002260       ?LoginReady@@YAHXZ         04003260 f   MQ2EQBC.obj
 0001:00002280       ?GetWindowItemForLogin@@YAHPAD0H@Z 04003280 f   MQ2EQBC.obj
 0001:000023f0       ?LoginCharacter@@YAHPAD@Z  040033f0 f   MQ2EQBC.obj
 0001:000024c0       ?EQBCFont@@YAXPAU_SPAWNINFO@EQData@@PAD@Z 040034c0 f   MQ2EQBC.obj
 0001:00002500       ?EQBCMin@@YAXPAU_SPAWNINFO@EQData@@PAD@Z 04003500 f   MQ2EQBC.obj
 0001:00002520       _OnIncomingChat            04003520 f   MQ2EQBC.obj
 0001:000027a0       ?ToString@EQBCType@@UAE_NU_MQ2VarPtr@MQ2Internal@@PAD@Z 040037a0 f   MQ2EQBC.obj
 0001:000027c0       ?FromData@EQBCType@@UAE_NAAU_MQ2VarPtr@MQ2Internal@@AAU_MQ2TypeVar@3@@Z 040037c0 f   MQ2EQBC.obj
 0001:000027d0       ?FromString@EQBCType@@UAE_NAAU_MQ2VarPtr@MQ2Internal@@PAD@Z 040037d0 f   MQ2EQBC.obj
 0001:000027e0       _NetBotSendMsg             040037e0 f   MQ2EQBC.obj
 0001:00002810       _NetBotRequest             04003810 f   MQ2EQBC.obj
 0001:00002860       _isConnected               04003860 f   MQ2EQBC.obj
 0001:00002870       ?length@?$basic_string@DU?$char_traits@D@std@@V?$allocator@D@2@@std@@QBEIXZ 04003870 f i MQ2EQBC.obj
 0001:00002880       ?size@?$basic_string@DU?$char_traits@D@std@@V?$allocator@D@2@@std@@QBEIXZ 04003880 f i MQ2EQBC.obj
 0001:00002890       ??1?$basic_ios@DU?$char_traits@D@std@@@std@@UAE@XZ 04003890 f i MQ2EQBC.obj
 0001:000028a0       ?rdbuf@?$basic_ios@DU?$char_traits@D@std@@@std@@QBEPAV?$basic_streambuf@DU?$char_traits@D@std@@@2@XZ 040038a0 f i MQ2EQBC.obj
 0001:000028b0       ??1?$basic_istream@DU?$char_traits@D@std@@@std@@UAE@XZ 040038b0 f i MQ2EQBC.obj
 0001:000028c0       ??Bsentry@?$basic_istream@DU?$char_traits@D@std@@@std@@QBE_NXZ 040038c0 f i MQ2EQBC.obj
 0001:000028d0       ??0?$CIndex@PAU_MQ2TypeMember@MQ2Internal@@@MQ2Internal@@QAE@XZ 040038d0 f i MQ2EQBC.obj
 0001:000028f0       ??1?$CIndex@PAU_MQ2TypeMember@MQ2Internal@@@MQ2Internal@@QAE@XZ 040038f0 f i MQ2EQBC.obj
 0001:00002930       ?Cleanup@?$CIndex@PAU_MQ2TypeMember@MQ2Internal@@@MQ2Internal@@QAEXXZ 04003930 f i MQ2EQBC.obj
 0001:00002970       ??A?$CIndex@PAU_MQ2TypeMember@MQ2Internal@@@MQ2Internal@@QAEAAPAU_MQ2TypeMember@1@K@Z 04003970 f i MQ2EQBC.obj
 0001:00002980       ?size@?$vector@V?$basic_string@DU?$char_traits@D@std@@V?$allocator@D@2@@std@@V?$allocator@V?$basic_string@DU?$char_traits@D@std@@V?$allocator@D@2@@std@@@2@@std@@QBEIXZ 04003980 f i MQ2EQBC.obj
 0001:000029a0       ?size@?$_Tree@V?$_Tmap_traits@V?$basic_string@DU?$char_traits@D@std@@V?$allocator@D@2@@std@@V12@U?$less@V?$basic_string@DU?$char_traits@D@std@@V?$allocator@D@2@@std@@@2@V?$allocator@U?$pair@$$CBV?$basic_string@DU?$char_traits@D@std@@V?$allocator@D@2@@std@@V12@@std@@@2@$0A@@std@@@std@@QBEIXZ 040039a0 f i MQ2EQBC.obj
 0001:000029b0       ??8const_iterator@?$_Tree@V?$_Tmap_traits@V?$basic_string@DU?$char_traits@D@std@@V?$allocator@D@2@@std@@V12@U?$less@V?$basic_string@DU?$char_traits@D@std@@V?$allocator@D@2@@std@@@2@V?$allocator@U?$pair@$$CBV?$basic_string@DU?$char_traits@D@std@@V?$allocator@D@2@@std@@V12@@std@@@2@$0A@@std@@@std@@QBE_NABV012@@Z 040039b0 f i MQ2EQBC.obj
 0001:000029e0       ??9const_iterator@?$_Tree@V?$_Tmap_traits@V?$basic_string@DU?$char_traits@D@std@@V?$allocator@D@2@@std@@V12@U?$less@V?$basic_string@DU?$char_traits@D@std@@V?$allocator@D@2@@std@@@2@V?$allocator@U?$pair@$$CBV?$basic_string@DU?$char_traits@D@std@@V?$allocator@D@2@@std@@V12@@std@@@2@$0A@@std@@@std@@QBE_NABV012@@Z 040039e0 f i MQ2EQBC.obj
 0001:00002a10       ??_Glocale@std@@QAEPAXI@Z  04003a10 f i MQ2EQBC.obj
 0001:00002a80       ??_D?$basic_istream@DU?$char_traits@D@std@@@std@@QAEXXZ 04003a80 f i MQ2EQBC.obj
 0001:00002aa0       ?_Myptr@?$basic_string@DU?$char_traits@D@std@@V?$allocator@D@2@@std@@IAEPADXZ 04003aa0 f i MQ2EQBC.obj
 0001:00002ab0       ?_Myptr@?$basic_string@DU?$char_traits@D@std@@V?$allocator@D@2@@std@@IBEPBDXZ 04003ab0 f i MQ2EQBC.obj
 0001:00002ac0       ??0?$allocator@D@std@@QAE@XZ 04003ac0 f i MQ2EQBC.obj
 0001:00002ad0       ?deallocate@?$allocator@D@std@@QAEXPADI@Z 04003ad0 f i MQ2EQBC.obj
 0001:00002ae0       ??0?$basic_ios@DU?$char_traits@D@std@@@std@@IAE@XZ 04003ae0 f i MQ2EQBC.obj
 0001:00002af0       ??_E?$basic_ios@DU?$char_traits@D@std@@@std@@UAEPAXI@Z 04003af0 f i MQ2EQBC.obj
 0001:00002af0       ??_G?$basic_ios@DU?$char_traits@D@std@@@std@@UAEPAXI@Z 04003af0 f i MQ2EQBC.obj
 0001:00002b20       ?pubsync@?$basic_streambuf@DU?$char_traits@D@std@@@std@@QAEHXZ 04003b20 f i MQ2EQBC.obj
 0001:00002b30       ?_Unlock@?$basic_streambuf@DU?$char_traits@D@std@@@std@@QAEXXZ 04003b30 f i MQ2EQBC.obj
 0001:00002b40       ?eback@?$basic_streambuf@DU?$char_traits@D@std@@@std@@IBEPADXZ 04003b40 f i MQ2EQBC.obj
 0001:00002b50       ?gptr@?$basic_streambuf@DU?$char_traits@D@std@@@std@@IBEPADXZ 04003b50 f i MQ2EQBC.obj
 0001:00002b60       ?pptr@?$basic_streambuf@DU?$char_traits@D@std@@@std@@IBEPADXZ 04003b60 f i MQ2EQBC.obj
 0001:00002b70       ?egptr@?$basic_streambuf@DU?$char_traits@D@std@@@std@@IBEPADXZ 04003b70 f i MQ2EQBC.obj
 0001:00002b80       ?setg@?$basic_streambuf@DU?$char_traits@D@std@@@std@@IAEXPAD00@Z 04003b80 f i MQ2EQBC.obj
 0001:00002ba0       ?epptr@?$basic_streambuf@DU?$char_traits@D@std@@@std@@IBEPADXZ 04003ba0 f i MQ2EQBC.obj
 0001:00002bb0       ?_Gninc@?$basic_streambuf@DU?$char_traits@D@std@@@std@@IAEPADXZ 04003bb0 f i MQ2EQBC.obj
 0001:00002bc0       ?_Gnpreinc@?$basic_streambuf@DU?$char_traits@D@std@@@std@@IAEPADXZ 04003bc0 f i MQ2EQBC.obj
 0001:00002bd0       ?_Gnavail@?$basic_streambuf@DU?$char_traits@D@std@@@std@@IBEHXZ 04003bd0 f i MQ2EQBC.obj
 0001:00002bf0       ?setp@?$basic_streambuf@DU?$char_traits@D@std@@@std@@IAEXPAD0@Z 04003bf0 f i MQ2EQBC.obj
 0001:00002c10       ?setp@?$basic_streambuf@DU?$char_traits@D@std@@@std@@IAEXPAD00@Z 04003c10 f i MQ2EQBC.obj
 0001:00002c30       ?Resize@?$CIndex@PAU_MQ2TypeMember@MQ2Internal@@@MQ2Internal@@QAEXK@Z 04003c30 f i MQ2EQBC.obj
 0001:00002ce0       ??0?$allocator@U?$pair@$$CBV?$basic_string@DU?$char_traits@D@std@@V?$allocator@D@2@@std@@K@std@@@std@@QAE@XZ 04003ce0 f i MQ2EQBC.obj
 0001:00002cf0       ??0?$allocator@V?$basic_string@DU?$char_traits@D@std@@V?$allocator@D@2@@std@@@std@@QAE@XZ 04003cf0 f i MQ2EQBC.obj
 0001:00002d00       ?empty@?$vector@V?$basic_string@DU?$char_traits@D@std@@V?$allocator@D@2@@std@@V?$allocator@V?$basic_string@DU?$char_traits@D@std@@V?$allocator@D@2@@std@@@2@@std@@QBE_NXZ 04003d00 f i MQ2EQBC.obj
 0001:00002d30       ??G?$_Vector_const_iterator@V?$basic_string@DU?$char_traits@D@std@@V?$allocator@D@2@@std@@V?$allocator@V?$basic_string@DU?$char_traits@D@std@@V?$allocator@D@2@@std@@@2@@std@@QBEHABV01@@Z 04003d30 f i MQ2EQBC.obj
 0001:00002d70       ?_Tidy@?$basic_stringbuf@DU?$char_traits@D@std@@V?$allocator@D@2@@std@@IAEXXZ 04003d70 f i MQ2EQBC.obj
 0001:00002dd0       ?_Color@?$_Tree@V?$_Tmap_traits@V?$basic_string@DU?$char_traits@D@std@@V?$allocator@D@2@@std@@V12@U?$less@V?$basic_string@DU?$char_traits@D@std@@V?$allocator@D@2@@std@@@2@V?$allocator@U?$pair@$$CBV?$basic_string@DU?$char_traits@D@std@@V?$allocator@D@2@@std@@V12@@std@@@2@$0A@@std@@@std@@KAAADPAU_Node@?$_Tree_nod@V?$_Tmap_traits@V?$basic_string@DU?$char_traits@D@std@@V?$allocator@D@2@@std@@V12@U?$less@V?$basic_string@DU?$char_traits@D@std@@V?$allocator@D@2@@std@@@2@V?$allocator@U?$pair@$$CBV?$basic_string@DU?$char_traits@D@std@@V?$allocator@D@2@@std@@V12@@std@@@2@$0A@@std@@@2@@Z 04003dd0 f i MQ2EQBC.obj
 0001:00002de0       ?_Isnil@?$_Tree@V?$_Tmap_traits@V?$basic_string@DU?$char_traits@D@std@@V?$allocator@D@2@@std@@V12@U?$less@V?$basic_string@DU?$char_traits@D@std@@V?$allocator@D@2@@std@@@2@V?$allocator@U?$pair@$$CBV?$basic_string@DU?$char_traits@D@std@@V?$allocator@D@2@@std@@V12@@std@@@2@$0A@@std@@@std@@KAAADPAU_Node@?$_Tree_nod@V?$_Tmap_traits@V?$basic_string@DU?$char_traits@D@std@@V?$allocator@D@2@@std@@V12@U?$less@V?$basic_string@DU?$char_traits@D@std@@V?$allocator@D@2@@std@@@2@V?$allocator@U?$pair@$$CBV?$basic_string@DU?$char_traits@D@std@@V?$allocator@D@2@@std@@V12@@std@@@2@$0A@@std@@@2@@Z 04003de0 f i MQ2EQBC.obj
 0001:00002df0       ?_Left@?$_Tree@V?$_Tmap_traits@V?$basic_string@DU?$char_traits@D@std@@V?$allocator@D@2@@std@@V12@U?$less@V?$basic_string@DU?$char_traits@D@std@@V?$allocator@D@2@@std@@@2@V?$allocator@U?$pair@$$CBV?$basic_string@DU?$char_traits@D@std@@V?$allocator@D@2@@std@@V12@@std@@@2@$0A@@std@@@std@@KAAAPAU_Node@?$_Tree_nod@V?$_Tmap_traits@V?$basic_string@DU?$char_traits@D@std@@V?$allocator@D@2@@std@@V12@U?$less@V?$basic_string@DU?$char_traits@D@std@@V?$allocator@D@2@@std@@@2@V?$allocator@U?$pair@$$CBV?$basic_string@DU?$char_traits@D@std@@V?$allocator@D@2@@std@@V12@@std@@@2@$0A@@std@@@2@PAU342@@Z 04003df0 f i MQ2EQBC.obj
 0001:00002e00       ?_Parent@?$_Tree@V?$_Tmap_traits@V?$basic_string@DU?$char_traits@D@std@@V?$allocator@D@2@@std@@V12@U?$less@V?$basic_string@DU?$char_traits@D@std@@V?$allocator@D@2@@std@@@2@V?$allocator@U?$pair@$$CBV?$basic_string@DU?$char_traits@D@std@@V?$allocator@D@2@@std@@V12@@std@@@2@$0A@@std@@@std@@KAAAPAU_Node@?$_Tree_nod@V?$_Tmap_traits@V?$basic_string@DU?$char_traits@D@std@@V?$allocator@D@2@@std@@V12@U?$less@V?$basic_string@DU?$char_traits@D@std@@V?$allocator@D@2@@std@@@2@V?$allocator@U?$pair@$$CBV?$basic_string@DU?$char_traits@D@std@@V?$allocator@D@2@@std@@V12@@std@@@2@$0A@@std@@@2@PAU342@@Z 04003e00 f i MQ2EQBC.obj
 0001:00002e10       ?_Right@?$_Tree@V?$_Tmap_traits@V?$basic_string@DU?$char_traits@D@std@@V?$allocator@D@2@@std@@V12@U?$less@V?$basic_string@DU?$char_traits@D@std@@V?$allocator@D@2@@std@@@2@V?$allocator@U?$pair@$$CBV?$basic_string@DU?$char_traits@D@std@@V?$allocator@D@2@@std@@V12@@std@@@2@$0A@@std@@@std@@KAAAPAU_Node@?$_Tree_nod@V?$_Tmap_traits@V?$basic_string@DU?$char_traits@D@std@@V?$allocator@D@2@@std@@V12@U?$less@V?$basic_string@DU?$char_traits@D@std@@V?$allocator@D@2@@std@@@2@V?$allocator@U?$pair@$$CBV?$basic_string@DU?$char_traits@D@std@@V?$allocator@D@2@@std@@V12@@std@@@2@$0A@@std@@@2@PAU342@@Z 04003e10 f i MQ2EQBC.obj
 0001:00002e20       ?_Lmost@?$_Tree@V?$_Tmap_traits@V?$basic_string@DU?$char_traits@D@std@@V?$allocator@D@2@@std@@V12@U?$less@V?$basic_string@DU?$char_traits@D@std@@V?$allocator@D@2@@std@@@2@V?$allocator@U?$pair@$$CBV?$basic_string@DU?$char_traits@D@std@@V?$allocator@D@2@@std@@V12@@std@@@2@$0A@@std@@@std@@IBEAAPAU_Node@?$_Tree_nod@V?$_Tmap_traits@V?$basic_string@DU?$char_traits@D@std@@V?$allocator@D@2@@std@@V12@U?$less@V?$basic_string@DU?$char_traits@D@std@@V?$allocator@D@2@@std@@@2@V?$allocator@U?$pair@$$CBV?$basic_string@DU?$char_traits@D@std@@V?$allocator@D@2@@std@@V12@@std@@@2@$0A@@std@@@2@XZ 04003e20 f i MQ2EQBC.obj
 0001:00002e30       ?_Max@?$_Tree@V?$_Tmap_traits@V?$basic_string@DU?$char_traits@D@std@@V?$allocator@D@2@@std@@V12@U?$less@V?$basic_string@DU?$char_traits@D@std@@V?$allocator@D@2@@std@@@2@V?$allocator@U?$pair@$$CBV?$basic_string@DU?$char_traits@D@std@@V?$allocator@D@2@@std@@V12@@std@@@2@$0A@@std@@@std@@KAPAU_Node@?$_Tree_nod@V?$_Tmap_traits@V?$basic_string@DU?$char_traits@D@std@@V?$allocator@D@2@@std@@V12@U?$less@V?$basic_string@DU?$char_traits@D@std@@V?$allocator@D@2@@std@@@2@V?$allocator@U?$pair@$$CBV?$basic_string@DU?$char_traits@D@std@@V?$allocator@D@2@@std@@V12@@std@@@2@$0A@@std@@@2@PAU342@@Z 04003e30 f i MQ2EQBC.obj
 0001:00002e50       ?_Min@?$_Tree@V?$_Tmap_traits@V?$basic_string@DU?$char_traits@D@std@@V?$allocator@D@2@@std@@V12@U?$less@V?$basic_string@DU?$char_traits@D@std@@V?$allocator@D@2@@std@@@2@V?$allocator@U?$pair@$$CBV?$basic_string@DU?$char_traits@D@std@@V?$allocator@D@2@@std@@V12@@std@@@2@$0A@@std@@@std@@KAPAU_Node@?$_Tree_nod@V?$_Tmap_traits@V?$basic_string@DU?$char_traits@D@std@@V?$allocator@D@2@@std@@V12@U?$less@V?$basic_string@DU?$char_traits@D@std@@V?$allocator@D@2@@std@@@2@V?$allocator@U?$pair@$$CBV?$basic_string@DU?$char_traits@D@std@@V?$allocator@D@2@@std@@V12@@std@@@2@$0A@@std@@@2@PAU342@@Z 04003e50 f i MQ2EQBC.obj
 0001:00002e70       ?_Rmost@?$_Tree@V?$_Tmap_traits@V?$basic_string@DU?$char_traits@D@std@@V?$allocator@D@2@@std@@V12@U?$less@V?$basic_string@DU?$char_traits@D@std@@V?$allocator@D@2@@std@@@2@V?$allocator@U?$pair@$$CBV?$basic_string@DU?$char_traits@D@std@@V?$allocator@D@2@@std@@V12@@std@@@2@$0A@@std@@@std@@IBEAAPAU_Node@?$_Tree_nod@V?$_Tmap_traits@V?$basic_string@DU?$char_traits@D@std@@V?$allocator@D@2@@std@@V12@U?$less@V?$basic_string@DU?$char_traits@D@std@@V?$allocator@D@2@@std@@@2@V?$allocator@U?$pair@$$CBV?$basic_string@DU?$char_traits@D@std@@V?$allocator@D@2@@std@@V12@@std@@@2@$0A@@std@@@2@XZ 04003e70 f i MQ2EQBC.obj
 0001:00002e80       ?_Root@?$_Tree@V?$_Tmap_traits@V?$basic_string@DU?$char_traits@D@std@@V?$allocator@D@2@@std@@V12@U?$less@V?$basic_string@DU?$char_traits@D@std@@V?$allocator@D@2@@std@@@2@V?$allocator@U?$pair@$$CBV?$basic_string@DU?$char_traits@D@std@@V?$allocator@D@2@@std@@V12@@std@@@2@$0A@@std@@@std@@IBEAAPAU_Node@?$_Tree_nod@V?$_Tmap_traits@V?$basic_string@DU?$char_traits@D@std@@V?$allocator@D@2@@std@@V12@U?$less@V?$basic_string@DU?$char_traits@D@std@@V?$allocator@D@2@@std@@@2@V?$allocator@U?$pair@$$CBV?$basic_string@DU?$char_traits@D@std@@V?$allocator@D@2@@std@@V12@@std@@@2@$0A@@std@@@2@XZ 04003e80 f i MQ2EQBC.obj
 0001:00002e90       ?_Rrotate@?$_Tree@V?$_Tmap_traits@V?$basic_string@DU?$char_traits@D@std@@V?$allocator@D@2@@std@@V12@U?$less@V?$basic_string@DU?$char_traits@D@std@@V?$allocator@D@2@@std@@@2@V?$allocator@U?$pair@$$CBV?$basic_string@DU?$char_traits@D@std@@V?$allocator@D@2@@std@@V12@@std@@@2@$0A@@std@@@std@@IAEXPAU_Node@?$_Tree_nod@V?$_Tmap_traits@V?$basic_string@DU?$char_traits@D@std@@V?$allocator@D@2@@std@@V12@U?$less@V?$basic_string@DU?$char_traits@D@std@@V?$allocator@D@2@@std@@@2@V?$allocator@U?$pair@$$CBV?$basic_string@DU?$char_traits@D@std@@V?$allocator@D@2@@std@@V12@@std@@@2@$0A@@std@@@2@@Z 04003e90 f i MQ2EQBC.obj
 0001:00002ef0       ?_Kfn@?$_Tmap_traits@V?$basic_string@DU?$char_traits@D@std@@V?$allocator@D@2@@std@@V12@U?$less@V?$basic_string@DU?$char_traits@D@std@@V?$allocator@D@2@@std@@@2@V?$allocator@U?$pair@$$CBV?$basic_string@DU?$char_traits@D@std@@V?$allocator@D@2@@std@@V12@@std@@@2@$0A@@std@@SAABV?$basic_string@DU?$char_traits@D@std@@V?$allocator@D@2@@2@ABU?$pair@$$CBV?$basic_string@DU?$char_traits@D@std@@V?$allocator@D@2@@std@@V12@@2@@Z 04003ef0 f i MQ2EQBC.obj
 0001:00002f00       ??0?$allocator@U?$pair@$$CBV?$basic_string@DU?$char_traits@D@std@@V?$allocator@D@2@@std@@V12@@std@@@std@@QAE@XZ 04003f00 f i MQ2EQBC.obj
 0001:00002f10       ?deallocate@?$allocator@U_Node@?$_Tree_nod@V?$_Tmap_traits@V?$basic_string@DU?$char_traits@D@std@@V?$allocator@D@2@@std@@V12@U?$less@V?$basic_string@DU?$char_traits@D@std@@V?$allocator@D@2@@std@@@2@V?$allocator@U?$pair@$$CBV?$basic_string@DU?$char_traits@D@std@@V?$allocator@D@2@@std@@V12@@std@@@2@$0A@@std@@@std@@@std@@QAEXPAU_Node@?$_Tree_nod@V?$_Tmap_traits@V?$basic_string@DU?$char_traits@D@std@@V?$allocator@D@2@@std@@V12@U?$less@V?$basic_string@DU?$char_traits@D@std@@V?$allocator@D@2@@std@@@2@V?$allocator@U?$pair@$$CBV?$basic_string@DU?$char_traits@D@std@@V?$allocator@D@2@@std@@V12@@std@@@2@$0A@@std@@@2@I@Z 04003f10 f i MQ2EQBC.obj
 0001:00002f20       ?_Mynode@const_iterator@?$_Tree@V?$_Tmap_traits@V?$basic_string@DU?$char_traits@D@std@@V?$allocator@D@2@@std@@V12@U?$less@V?$basic_string@DU?$char_traits@D@std@@V?$allocator@D@2@@std@@@2@V?$allocator@U?$pair@$$CBV?$basic_string@DU?$char_traits@D@std@@V?$allocator@D@2@@std@@V12@@std@@@2@$0A@@std@@@std@@QBEPAU_Node@?$_Tree_nod@V?$_Tmap_traits@V?$basic_string@DU?$char_traits@D@std@@V?$allocator@D@2@@std@@V12@U?$less@V?$basic_string@DU?$char_traits@D@std@@V?$allocator@D@2@@std@@@2@V?$allocator@U?$pair@$$CBV?$basic_string@DU?$char_traits@D@std@@V?$allocator@D@2@@std@@V12@@std@@@2@$0A@@std@@@3@XZ 04003f20 f i MQ2EQBC.obj
 0001:00002f30       ??0?$pair@Viterator@?$_Tree@V?$_Tmap_traits@V?$basic_string@DU?$char_traits@D@std@@V?$allocator@D@2@@std@@V12@U?$less@V?$basic_string@DU?$char_traits@D@std@@V?$allocator@D@2@@std@@@2@V?$allocator@U?$pair@$$CBV?$basic_string@DU?$char_traits@D@std@@V?$allocator@D@2@@std@@V12@@std@@@2@$0A@@std@@@std@@_N@std@@QAE@ABViterator@?$_Tree@V?$_Tmap_traits@V?$basic_string@DU?$char_traits@D@std@@V?$allocator@D@2@@std@@V12@U?$less@V?$basic_string@DU?$char_traits@D@std@@V?$allocator@D@2@@std@@@2@V?$allocator@U?$pair@$$CBV?$basic_string@DU?$char_traits@D@std@@V?$allocator@D@2@@std@@V12@@std@@@2@$0A@@std@@@1@AB_N@Z 04003f30 f i MQ2EQBC.obj
 0001:00002f50       ?get@?$num_get@DV?$istreambuf_iterator@DU?$char_traits@D@std@@@std@@@std@@QBE?AV?$istreambuf_iterator@DU?$char_traits@D@std@@@2@V32@0AAVios_base@2@AAHAAJ@Z 04003f50 f i MQ2EQBC.obj
 0001:00002f90       ?get@?$num_get@DV?$istreambuf_iterator@DU?$char_traits@D@std@@@std@@@std@@QBE?AV?$istreambuf_iterator@DU?$char_traits@D@std@@@2@V32@0AAVios_base@2@AAHAAM@Z 04003f90 f i MQ2EQBC.obj
 0001:00002fd0       ??0?$istreambuf_iterator@DU?$char_traits@D@std@@@std@@QAE@PAV?$basic_streambuf@DU?$char_traits@D@std@@@1@@Z 04003fd0 f i MQ2EQBC.obj
 0001:00002ff0       ??8const_iterator@?$_Tree@V?$_Tmap_traits@V?$basic_string@DU?$char_traits@D@std@@V?$allocator@D@2@@std@@KU?$less@V?$basic_string@DU?$char_traits@D@std@@V?$allocator@D@2@@std@@@2@V?$allocator@U?$pair@$$CBV?$basic_string@DU?$char_traits@D@std@@V?$allocator@D@2@@std@@K@std@@@2@$0A@@std@@@std@@QBE_NABV012@@Z 04003ff0 f i MQ2EQBC.obj
 0001:00003020       ?_Mynode@const_iterator@?$_Tree@V?$_Tmap_traits@V?$basic_string@DU?$char_traits@D@std@@V?$allocator@D@2@@std@@KU?$less@V?$basic_string@DU?$char_traits@D@std@@V?$allocator@D@2@@std@@@2@V?$allocator@U?$pair@$$CBV?$basic_string@DU?$char_traits@D@std@@V?$allocator@D@2@@std@@K@std@@@2@$0A@@std@@@std@@QBEPAU_Node@?$_Tree_nod@V?$_Tmap_traits@V?$basic_string@DU?$char_traits@D@std@@V?$allocator@D@2@@std@@KU?$less@V?$basic_string@DU?$char_traits@D@std@@V?$allocator@D@2@@std@@@2@V?$allocator@U?$pair@$$CBV?$basic_string@DU?$char_traits@D@std@@V?$allocator@D@2@@std@@K@std@@@2@$0A@@std@@@3@XZ 04004020 f i MQ2EQBC.obj
 0001:00003030       ??0?$_Iterator_with_base@Ubidirectional_iterator_tag@std@@U?$pair@$$CBV?$basic_string@DU?$char_traits@D@std@@V?$allocator@D@2@@std@@V12@@2@HPBU32@ABU32@V_Iterator_base_aux@2@@std@@QAE@XZ 04004030 f i MQ2EQBC.obj
 0001:00003040       ?_Chassign@?$basic_string@DU?$char_traits@D@std@@V?$allocator@D@2@@std@@IAEXIID@Z 04004040 f i MQ2EQBC.obj
 0001:000030a0       ?_Eos@?$basic_string@DU?$char_traits@D@std@@V?$allocator@D@2@@std@@IAEXI@Z 040040a0 f i MQ2EQBC.obj
 0001:000030c0       ??0?$allocator@D@std@@QAE@ABV01@@Z 040040c0 f i MQ2EQBC.obj
 0001:000030d0       ?tie@?$basic_ios@DU?$char_traits@D@std@@@std@@QBEPAV?$basic_ostream@DU?$char_traits@D@std@@@2@XZ 040040d0 f i MQ2EQBC.obj
 0001:000030e0       ?_Lock@?$basic_streambuf@DU?$char_traits@D@std@@@std@@QAEXXZ 040040e0 f i MQ2EQBC.obj
 0001:000030f0       ?deallocate@?$allocator@V_Aux_cont@std@@@std@@QAEXPAV_Aux_cont@2@I@Z 040040f0 f i MQ2EQBC.obj
 0001:00003100       ?_Isnil@?$_Tree@V?$_Tmap_traits@V?$basic_string@DU?$char_traits@D@std@@V?$allocator@D@2@@std@@KU?$less@V?$basic_string@DU?$char_traits@D@std@@V?$allocator@D@2@@std@@@2@V?$allocator@U?$pair@$$CBV?$basic_string@DU?$char_traits@D@std@@V?$allocator@D@2@@std@@K@std@@@2@$0A@@std@@@std@@KAAADPAU_Node@?$_Tree_nod@V?$_Tmap_traits@V?$basic_string@DU?$char_traits@D@std@@V?$allocator@D@2@@std@@KU?$less@V?$basic_string@DU?$char_traits@D@std@@V?$allocator@D@2@@std@@@2@V?$allocator@U?$pair@$$CBV?$basic_string@DU?$char_traits@D@std@@V?$allocator@D@2@@std@@K@std@@@2@$0A@@std@@@2@@Z 04004100 f i MQ2EQBC.obj
 0001:00003110       ?_Left@?$_Tree@V?$_Tmap_traits@V?$basic_string@DU?$char_traits@D@std@@V?$allocator@D@2@@std@@KU?$less@V?$basic_string@DU?$char_traits@D@std@@V?$allocator@D@2@@std@@@2@V?$allocator@U?$pair@$$CBV?$basic_string@DU?$char_traits@D@std@@V?$allocator@D@2@@std@@K@std@@@2@$0A@@std@@@std@@KAAAPAU_Node@?$_Tree_nod@V?$_Tmap_traits@V?$basic_string@DU?$char_traits@D@std@@V?$allocator@D@2@@std@@KU?$less@V?$basic_string@DU?$char_traits@D@std@@V?$allocator@D@2@@std@@@2@V?$allocator@U?$pair@$$CBV?$basic_string@DU?$char_traits@D@std@@V?$allocator@D@2@@std@@K@std@@@2@$0A@@std@@@2@PAU342@@Z 04004110 f i MQ2EQBC.obj
 0001:00003120       ?_Parent@?$_Tree@V?$_Tmap_traits@V?$basic_string@DU?$char_traits@D@std@@V?$allocator@D@2@@std@@KU?$less@V?$basic_string@DU?$char_traits@D@std@@V?$allocator@D@2@@std@@@2@V?$allocator@U?$pair@$$CBV?$basic_string@DU?$char_traits@D@std@@V?$allocator@D@2@@std@@K@std@@@2@$0A@@std@@@std@@KAAAPAU_Node@?$_Tree_nod@V?$_Tmap_traits@V?$basic_string@DU?$char_traits@D@std@@V?$allocator@D@2@@std@@KU?$less@V?$basic_string@DU?$char_traits@D@std@@V?$allocator@D@2@@std@@@2@V?$allocator@U?$pair@$$CBV?$basic_string@DU?$char_traits@D@std@@V?$allocator@D@2@@std@@K@std@@@2@$0A@@std@@@2@PAU342@@Z 04004120 f i MQ2EQBC.obj
 0001:00003130       ?_Right@?$_Tree@V?$_Tmap_traits@V?$basic_string@DU?$char_traits@D@std@@V?$allocator@D@2@@std@@KU?$less@V?$basic_string@DU?$char_traits@D@std@@V?$allocator@D@2@@std@@@2@V?$allocator@U?$pair@$$CBV?$basic_string@DU?$char_traits@D@std@@V?$allocator@D@2@@std@@K@std@@@2@$0A@@std@@@std@@KAAAPAU_Node@?$_Tree_nod@V?$_Tmap_traits@V?$basic_string@DU?$char_traits@D@std@@V?$allocator@D@2@@std@@KU?$less@V?$basic_string@DU?$char_traits@D@std@@V?$allocator@D@2@@std@@@2@V?$allocator@U?$pair@$$CBV?$basic_string@DU?$char_traits@D@std@@V?$allocator@D@2@@std@@K@std@@@2@$0A@@std@@@2@PAU342@@Z 04004130 f i MQ2EQBC.obj
 0001:00003140       ?_Myval@?$_Tree@V?$_Tmap_traits@V?$basic_string@DU?$char_traits@D@std@@V?$allocator@D@2@@std@@KU?$less@V?$basic_string@DU?$char_traits@D@std@@V?$allocator@D@2@@std@@@2@V?$allocator@U?$pair@$$CBV?$basic_string@DU?$char_traits@D@std@@V?$allocator@D@2@@std@@K@std@@@2@$0A@@std@@@std@@KAAAU?$pair@$$CBV?$basic_string@DU?$char_traits@D@std@@V?$allocator@D@2@@std@@K@2@PAU_Node@?$_Tree_nod@V?$_Tmap_traits@V?$basic_string@DU?$char_traits@D@std@@V?$allocator@D@2@@std@@KU?$less@V?$basic_string@DU?$char_traits@D@std@@V?$allocator@D@2@@std@@@2@V?$allocator@U?$pair@$$CBV?$basic_string@DU?$char_traits@D@std@@V?$allocator@D@2@@std@@K@std@@@2@$0A@@std@@@2@@Z 04004140 f i MQ2EQBC.obj
 0001:00003150       ?size@?$_Tree@V?$_Tmap_traits@V?$basic_string@DU?$char_traits@D@std@@V?$allocator@D@2@@std@@KU?$less@V?$basic_string@DU?$char_traits@D@std@@V?$allocator@D@2@@std@@@2@V?$allocator@U?$pair@$$CBV?$basic_string@DU?$char_traits@D@std@@V?$allocator@D@2@@std@@K@std@@@2@$0A@@std@@@std@@QBEIXZ 04004150 f i MQ2EQBC.obj
 0001:00003160       ?_Rmost@?$_Tree@V?$_Tmap_traits@V?$basic_string@DU?$char_traits@D@std@@V?$allocator@D@2@@std@@KU?$less@V?$basic_string@DU?$char_traits@D@std@@V?$allocator@D@2@@std@@@2@V?$allocator@U?$pair@$$CBV?$basic_string@DU?$char_traits@D@std@@V?$allocator@D@2@@std@@K@std@@@2@$0A@@std@@@std@@IBEAAPAU_Node@?$_Tree_nod@V?$_Tmap_traits@V?$basic_string@DU?$char_traits@D@std@@V?$allocator@D@2@@std@@KU?$less@V?$basic_string@DU?$char_traits@D@std@@V?$allocator@D@2@@std@@@2@V?$allocator@U?$pair@$$CBV?$basic_string@DU?$char_traits@D@std@@V?$allocator@D@2@@std@@K@std@@@2@$0A@@std@@@2@XZ 04004160 f i MQ2EQBC.obj
 0001:00003170       ?_Kfn@?$_Tmap_traits@V?$basic_string@DU?$char_traits@D@std@@V?$allocator@D@2@@std@@KU?$less@V?$basic_string@DU?$char_traits@D@std@@V?$allocator@D@2@@std@@@2@V?$allocator@U?$pair@$$CBV?$basic_string@DU?$char_traits@D@std@@V?$allocator@D@2@@std@@K@std@@@2@$0A@@std@@SAABV?$basic_string@DU?$char_traits@D@std@@V?$allocator@D@2@@2@ABU?$pair@$$CBV?$basic_string@DU?$char_traits@D@std@@V?$allocator@D@2@@std@@K@2@@Z 04004170 f i MQ2EQBC.obj
 0001:00003180       ??0?$allocator@U?$pair@$$CBV?$basic_string@DU?$char_traits@D@std@@V?$allocator@D@2@@std@@K@std@@@std@@QAE@ABV01@@Z 04004180 f i MQ2EQBC.obj
 0001:00003190       ?deallocate@?$allocator@U_Node@?$_Tree_nod@V?$_Tmap_traits@V?$basic_string@DU?$char_traits@D@std@@V?$allocator@D@2@@std@@KU?$less@V?$basic_string@DU?$char_traits@D@std@@V?$allocator@D@2@@std@@@2@V?$allocator@U?$pair@$$CBV?$basic_string@DU?$char_traits@D@std@@V?$allocator@D@2@@std@@K@std@@@2@$0A@@std@@@std@@@std@@QAEXPAU_Node@?$_Tree_nod@V?$_Tmap_traits@V?$basic_string@DU?$char_traits@D@std@@V?$allocator@D@2@@std@@KU?$less@V?$basic_string@DU?$char_traits@D@std@@V?$allocator@D@2@@std@@@2@V?$allocator@U?$pair@$$CBV?$basic_string@DU?$char_traits@D@std@@V?$allocator@D@2@@std@@K@std@@@2@$0A@@std@@@2@I@Z 04004190 f i MQ2EQBC.obj
 0001:000031a0       ??0?$allocator@V?$basic_string@DU?$char_traits@D@std@@V?$allocator@D@2@@std@@@std@@QAE@ABV01@@Z 040041a0 f i MQ2EQBC.obj
 0001:000031b0       ?deallocate@?$allocator@V?$basic_string@DU?$char_traits@D@std@@V?$allocator@D@2@@std@@@std@@QAEXPAV?$basic_string@DU?$char_traits@D@std@@V?$allocator@D@2@@2@I@Z 040041b0 f i MQ2EQBC.obj
 0001:000031c0       ?capacity@?$vector@V?$basic_string@DU?$char_traits@D@std@@V?$allocator@D@2@@std@@V?$allocator@V?$basic_string@DU?$char_traits@D@std@@V?$allocator@D@2@@std@@@2@@std@@QBEIXZ 040041c0 f i MQ2EQBC.obj
 0001:000031f0       ??D?$_Vector_const_iterator@V?$basic_string@DU?$char_traits@D@std@@V?$allocator@D@2@@std@@V?$allocator@V?$basic_string@DU?$char_traits@D@std@@V?$allocator@D@2@@std@@@2@@std@@QBEABV?$basic_string@DU?$char_traits@D@std@@V?$allocator@D@2@@1@XZ 040041f0 f i MQ2EQBC.obj
 0001:00003220       ?_Getstate@?$basic_stringbuf@DU?$char_traits@D@std@@V?$allocator@D@2@@std@@AAEHH@Z 04004220 f i MQ2EQBC.obj
 0001:00003250       ?_Myval@?$_Tree@V?$_Tmap_traits@V?$basic_string@DU?$char_traits@D@std@@V?$allocator@D@2@@std@@V12@U?$less@V?$basic_string@DU?$char_traits@D@std@@V?$allocator@D@2@@std@@@2@V?$allocator@U?$pair@$$CBV?$basic_string@DU?$char_traits@D@std@@V?$allocator@D@2@@std@@V12@@std@@@2@$0A@@std@@@std@@KAAAU?$pair@$$CBV?$basic_string@DU?$char_traits@D@std@@V?$allocator@D@2@@std@@V12@@2@PAU_Node@?$_Tree_nod@V?$_Tmap_traits@V?$basic_string@DU?$char_traits@D@std@@V?$allocator@D@2@@std@@V12@U?$less@V?$basic_string@DU?$char_traits@D@std@@V?$allocator@D@2@@std@@@2@V?$allocator@U?$pair@$$CBV?$basic_string@DU?$char_traits@D@std@@V?$allocator@D@2@@std@@V12@@std@@@2@$0A@@std@@@2@@Z 04004250 f i MQ2EQBC.obj
 0001:00003260       ??0?$allocator@U?$pair@$$CBV?$basic_string@DU?$char_traits@D@std@@V?$allocator@D@2@@std@@V12@@std@@@std@@QAE@ABV01@@Z 04004260 f i MQ2EQBC.obj
 0001:00003270       ??Dconst_iterator@?$_Tree@V?$_Tmap_traits@V?$basic_string@DU?$char_traits@D@std@@V?$allocator@D@2@@std@@V12@U?$less@V?$basic_string@DU?$char_traits@D@std@@V?$allocator@D@2@@std@@@2@V?$allocator@U?$pair@$$CBV?$basic_string@DU?$char_traits@D@std@@V?$allocator@D@2@@std@@V12@@std@@@2@$0A@@std@@@std@@QBEABU?$pair@$$CBV?$basic_string@DU?$char_traits@D@std@@V?$allocator@D@2@@std@@V12@@2@XZ 04004270 f i MQ2EQBC.obj
 0001:000032a0       ?_Inc@const_iterator@?$_Tree@V?$_Tmap_traits@V?$basic_string@DU?$char_traits@D@std@@V?$allocator@D@2@@std@@V12@U?$less@V?$basic_string@DU?$char_traits@D@std@@V?$allocator@D@2@@std@@@2@V?$allocator@U?$pair@$$CBV?$basic_string@DU?$char_traits@D@std@@V?$allocator@D@2@@std@@V12@@std@@@2@$0A@@std@@@std@@QAEXXZ 040042a0 f i MQ2EQBC.obj
 0001:00003310       ??Dconst_iterator@?$_Tree@V?$_Tmap_traits@V?$basic_string@DU?$char_traits@D@std@@V?$allocator@D@2@@std@@KU?$less@V?$basic_string@DU?$char_traits@D@std@@V?$allocator@D@2@@std@@@2@V?$allocator@U?$pair@$$CBV?$basic_string@DU?$char_traits@D@std@@V?$allocator@D@2@@std@@K@std@@@2@$0A@@std@@@std@@QBEABU?$pair@$$CBV?$basic_string@DU?$char_traits@D@std@@V?$allocator@D@2@@std@@K@2@XZ 04004310 f i MQ2EQBC.obj
 0001:00003340       ??0?$_Iterator_with_base@Urandom_access_iterator_tag@std@@V?$basic_string@DU?$char_traits@D@std@@V?$allocator@D@2@@2@HPBV32@ABV32@V_Iterator_base_aux@2@@std@@QAE@XZ 04004340 f i MQ2EQBC.obj
 0001:00003350       ??0?$_Iterator_with_base@Ubidirectional_iterator_tag@std@@U?$pair@$$CBV?$basic_string@DU?$char_traits@D@std@@V?$allocator@D@2@@std@@K@2@HPBU32@ABU32@V_Iterator_base_aux@2@@std@@QAE@XZ 04004350 f i MQ2EQBC.obj
 0001:00003360       ?_Inside@?$basic_string@DU?$char_traits@D@std@@V?$allocator@D@2@@std@@IAE_NPBD@Z 04004360 f i MQ2EQBC.obj
 0001:000033a0       ?_Init@?$basic_streambuf@DU?$char_traits@D@std@@@std@@IAEXXZ 040043a0 f i MQ2EQBC.obj
 0001:00003400       ?_Color@?$_Tree@V?$_Tmap_traits@V?$basic_string@DU?$char_traits@D@std@@V?$allocator@D@2@@std@@KU?$less@V?$basic_string@DU?$char_traits@D@std@@V?$allocator@D@2@@std@@@2@V?$allocator@U?$pair@$$CBV?$basic_string@DU?$char_traits@D@std@@V?$allocator@D@2@@std@@K@std@@@2@$0A@@std@@@std@@KAAADPAU_Node@?$_Tree_nod@V?$_Tmap_traits@V?$basic_string@DU?$char_traits@D@std@@V?$allocator@D@2@@std@@KU?$less@V?$basic_string@DU?$char_traits@D@std@@V?$allocator@D@2@@std@@@2@V?$allocator@U?$pair@$$CBV?$basic_string@DU?$char_traits@D@std@@V?$allocator@D@2@@std@@K@std@@@2@$0A@@std@@@2@@Z 04004400 f i MQ2EQBC.obj
 0001:00003410       ?_Lmost@?$_Tree@V?$_Tmap_traits@V?$basic_string@DU?$char_traits@D@std@@V?$allocator@D@2@@std@@KU?$less@V?$basic_string@DU?$char_traits@D@std@@V?$allocator@D@2@@std@@@2@V?$allocator@U?$pair@$$CBV?$basic_string@DU?$char_traits@D@std@@V?$allocator@D@2@@std@@K@std@@@2@$0A@@std@@@std@@IBEAAPAU_Node@?$_Tree_nod@V?$_Tmap_traits@V?$basic_string@DU?$char_traits@D@std@@V?$allocator@D@2@@std@@KU?$less@V?$basic_string@DU?$char_traits@D@std@@V?$allocator@D@2@@std@@@2@V?$allocator@U?$pair@$$CBV?$basic_string@DU?$char_traits@D@std@@V?$allocator@D@2@@std@@K@std@@@2@$0A@@std@@@2@XZ 04004410 f i MQ2EQBC.obj
 0001:00003420       ?_Root@?$_Tree@V?$_Tmap_traits@V?$basic_string@DU?$char_traits@D@std@@V?$allocator@D@2@@std@@KU?$less@V?$basic_string@DU?$char_traits@D@std@@V?$allocator@D@2@@std@@@2@V?$allocator@U?$pair@$$CBV?$basic_string@DU?$char_traits@D@std@@V?$allocator@D@2@@std@@K@std@@@2@$0A@@std@@@std@@IBEAAPAU_Node@?$_Tree_nod@V?$_Tmap_traits@V?$basic_string@DU?$char_traits@D@std@@V?$allocator@D@2@@std@@KU?$less@V?$basic_string@DU?$char_traits@D@std@@V?$allocator@D@2@@std@@@2@V?$allocator@U?$pair@$$CBV?$basic_string@DU?$char_traits@D@std@@V?$allocator@D@2@@std@@K@std@@@2@$0A@@std@@@2@XZ 04004420 f i MQ2EQBC.obj
 0001:00003430       ?_Rrotate@?$_Tree@V?$_Tmap_traits@V?$basic_string@DU?$char_traits@D@std@@V?$allocator@D@2@@std@@KU?$less@V?$basic_string@DU?$char_traits@D@std@@V?$allocator@D@2@@std@@@2@V?$allocator@U?$pair@$$CBV?$basic_string@DU?$char_traits@D@std@@V?$allocator@D@2@@std@@K@std@@@2@$0A@@std@@@std@@IAEXPAU_Node@?$_Tree_nod@V?$_Tmap_traits@V?$basic_string@DU?$char_traits@D@std@@V?$allocator@D@2@@std@@KU?$less@V?$basic_string@DU?$char_traits@D@std@@V?$allocator@D@2@@std@@@2@V?$allocator@U?$pair@$$CBV?$basic_string@DU?$char_traits@D@std@@V?$allocator@D@2@@std@@K@std@@@2@$0A@@std@@@2@@Z 04004430 f i MQ2EQBC.obj
 0001:00003490       ?max_size@?$allocator@V?$basic_string@DU?$char_traits@D@std@@V?$allocator@D@2@@std@@@std@@QBEIXZ 04004490 f i MQ2EQBC.obj
 0001:000034a0       ??Y?$_Vector_const_iterator@V?$basic_string@DU?$char_traits@D@std@@V?$allocator@D@2@@std@@V?$allocator@V?$basic_string@DU?$char_traits@D@std@@V?$allocator@D@2@@std@@@2@@std@@QAEAAV01@H@Z 040044a0 f i MQ2EQBC.obj
 0001:00003500       ?max_size@?$allocator@U?$pair@$$CBV?$basic_string@DU?$char_traits@D@std@@V?$allocator@D@2@@std@@V12@@std@@@std@@QBEIXZ 04004500 f i MQ2EQBC.obj
 0001:00003510       ?_Dec@const_iterator@?$_Tree@V?$_Tmap_traits@V?$basic_string@DU?$char_traits@D@std@@V?$allocator@D@2@@std@@V12@U?$less@V?$basic_string@DU?$char_traits@D@std@@V?$allocator@D@2@@std@@@2@V?$allocator@U?$pair@$$CBV?$basic_string@DU?$char_traits@D@std@@V?$allocator@D@2@@std@@V12@@std@@@2@$0A@@std@@@std@@QAEXXZ 04004510 f i MQ2EQBC.obj
 0001:000035a0       ??9const_iterator@?$_Tree@V?$_Tmap_traits@V?$basic_string@DU?$char_traits@D@std@@V?$allocator@D@2@@std@@KU?$less@V?$basic_string@DU?$char_traits@D@std@@V?$allocator@D@2@@std@@@2@V?$allocator@U?$pair@$$CBV?$basic_string@DU?$char_traits@D@std@@V?$allocator@D@2@@std@@K@std@@@2@$0A@@std@@@std@@QBE_NABV012@@Z 040045a0 f i MQ2EQBC.obj
 0001:000035d0       ??0?$pair@Viterator@?$_Tree@V?$_Tmap_traits@V?$basic_string@DU?$char_traits@D@std@@V?$allocator@D@2@@std@@KU?$less@V?$basic_string@DU?$char_traits@D@std@@V?$allocator@D@2@@std@@@2@V?$allocator@U?$pair@$$CBV?$basic_string@DU?$char_traits@D@std@@V?$allocator@D@2@@std@@K@std@@@2@$0A@@std@@@std@@_N@std@@QAE@ABViterator@?$_Tree@V?$_Tmap_traits@V?$basic_string@DU?$char_traits@D@std@@V?$allocator@D@2@@std@@KU?$less@V?$basic_string@DU?$char_traits@D@std@@V?$allocator@D@2@@std@@@2@V?$allocator@U?$pair@$$CBV?$basic_string@DU?$char_traits@D@std@@V?$allocator@D@2@@std@@K@std@@@2@$0A@@std@@@1@AB_N@Z 040045d0 f i MQ2EQBC.obj
 0001:000035f0       ?max_size@?$allocator@D@std@@QBEIXZ 040045f0 f i MQ2EQBC.obj
 0001:00003600       ?_Max@?$_Tree@V?$_Tmap_traits@V?$basic_string@DU?$char_traits@D@std@@V?$allocator@D@2@@std@@KU?$less@V?$basic_string@DU?$char_traits@D@std@@V?$allocator@D@2@@std@@@2@V?$allocator@U?$pair@$$CBV?$basic_string@DU?$char_traits@D@std@@V?$allocator@D@2@@std@@K@std@@@2@$0A@@std@@@std@@KAPAU_Node@?$_Tree_nod@V?$_Tmap_traits@V?$basic_string@DU?$char_traits@D@std@@V?$allocator@D@2@@std@@KU?$less@V?$basic_string@DU?$char_traits@D@std@@V?$allocator@D@2@@std@@@2@V?$allocator@U?$pair@$$CBV?$basic_string@DU?$char_traits@D@std@@V?$allocator@D@2@@std@@K@std@@@2@$0A@@std@@@2@PAU342@@Z 04004600 f i MQ2EQBC.obj
 0001:00003620       ?_Min@?$_Tree@V?$_Tmap_traits@V?$basic_string@DU?$char_traits@D@std@@V?$allocator@D@2@@std@@KU?$less@V?$basic_string@DU?$char_traits@D@std@@V?$allocator@D@2@@std@@@2@V?$allocator@U?$pair@$$CBV?$basic_string@DU?$char_traits@D@std@@V?$allocator@D@2@@std@@K@std@@@2@$0A@@std@@@std@@KAPAU_Node@?$_Tree_nod@V?$_Tmap_traits@V?$basic_string@DU?$char_traits@D@std@@V?$allocator@D@2@@std@@KU?$less@V?$basic_string@DU?$char_traits@D@std@@V?$allocator@D@2@@std@@@2@V?$allocator@U?$pair@$$CBV?$basic_string@DU?$char_traits@D@std@@V?$allocator@D@2@@std@@K@std@@@2@$0A@@std@@@2@PAU342@@Z 04004620 f i MQ2EQBC.obj
 0001:00003640       ?max_size@?$allocator@U?$pair@$$CBV?$basic_string@DU?$char_traits@D@std@@V?$allocator@D@2@@std@@K@std@@@std@@QBEIXZ 04004640 f i MQ2EQBC.obj
 0001:00003650       ??$swap@D@std@@YAXAAD0@Z   04004650 f i MQ2EQBC.obj
 0001:00003670       ??$_Allocate@D@std@@YAPADIPAD@Z 04004670 f i MQ2EQBC.obj
 0001:000036d0       ??$_Destroy@PAU_Node@?$_Tree_nod@V?$_Tmap_traits@V?$basic_string@DU?$char_traits@D@std@@V?$allocator@D@2@@std@@KU?$less@V?$basic_string@DU?$char_traits@D@std@@V?$allocator@D@2@@std@@@2@V?$allocator@U?$pair@$$CBV?$basic_string@DU?$char_traits@D@std@@V?$allocator@D@2@@std@@K@std@@@2@$0A@@std@@@std@@@std@@YAXPAPAU_Node@?$_Tree_nod@V?$_Tmap_traits@V?$basic_string@DU?$char_traits@D@std@@V?$allocator@D@2@@std@@KU?$less@V?$basic_string@DU?$char_traits@D@std@@V?$allocator@D@2@@std@@@2@V?$allocator@U?$pair@$$CBV?$basic_string@DU?$char_traits@D@std@@V?$allocator@D@2@@std@@K@std@@@2@$0A@@std@@@0@@Z 040046d0 f i MQ2EQBC.obj
 0001:000036e0       ??$_Allocate@V?$basic_string@DU?$char_traits@D@std@@V?$allocator@D@2@@std@@@std@@YAPAV?$basic_string@DU?$char_traits@D@std@@V?$allocator@D@2@@0@IPAV10@@Z 040046e0 f i MQ2EQBC.obj
 0001:00003750       ??$?0V?$basic_string@DU?$char_traits@D@std@@V?$allocator@D@2@@std@@@?$allocator@V_Aux_cont@std@@@std@@QAE@ABV?$allocator@V?$basic_string@DU?$char_traits@D@std@@V?$allocator@D@2@@std@@@1@@Z 04004750 f i MQ2EQBC.obj
 0001:00003760       ??$_Destroy@PAU_Node@?$_Tree_nod@V?$_Tmap_traits@V?$basic_string@DU?$char_traits@D@std@@V?$allocator@D@2@@std@@V12@U?$less@V?$basic_string@DU?$char_traits@D@std@@V?$allocator@D@2@@std@@@2@V?$allocator@U?$pair@$$CBV?$basic_string@DU?$char_traits@D@std@@V?$allocator@D@2@@std@@V12@@std@@@2@$0A@@std@@@std@@@std@@YAXPAPAU_Node@?$_Tree_nod@V?$_Tmap_traits@V?$basic_string@DU?$char_traits@D@std@@V?$allocator@D@2@@std@@V12@U?$less@V?$basic_string@DU?$char_traits@D@std@@V?$allocator@D@2@@std@@@2@V?$allocator@U?$pair@$$CBV?$basic_string@DU?$char_traits@D@std@@V?$allocator@D@2@@std@@V12@@std@@@2@$0A@@std@@@0@@Z 04004760 f i MQ2EQBC.obj
 0001:00003770       ??$_Allocate@V_Aux_cont@std@@@std@@YAPAV_Aux_cont@0@IPAV10@@Z 04004770 f i MQ2EQBC.obj
 0001:000037d0       ??$?0U?$pair@$$CBV?$basic_string@DU?$char_traits@D@std@@V?$allocator@D@2@@std@@K@std@@@?$allocator@PAU_Node@?$_Tree_nod@V?$_Tmap_traits@V?$basic_string@DU?$char_traits@D@std@@V?$allocator@D@2@@std@@KU?$less@V?$basic_string@DU?$char_traits@D@std@@V?$allocator@D@2@@std@@@2@V?$allocator@U?$pair@$$CBV?$basic_string@DU?$char_traits@D@std@@V?$allocator@D@2@@std@@K@std@@@2@$0A@@std@@@std@@@std@@QAE@ABV?$allocator@U?$pair@$$CBV?$basic_string@DU?$char_traits@D@std@@V?$allocator@D@2@@std@@K@std@@@1@@Z 040047d0 f i MQ2EQBC.obj
 0001:000037e0       ??$?0U?$pair@$$CBV?$basic_string@DU?$char_traits@D@std@@V?$allocator@D@2@@std@@V12@@std@@@?$allocator@PAU_Node@?$_Tree_nod@V?$_Tmap_traits@V?$basic_string@DU?$char_traits@D@std@@V?$allocator@D@2@@std@@V12@U?$less@V?$basic_string@DU?$char_traits@D@std@@V?$allocator@D@2@@std@@@2@V?$allocator@U?$pair@$$CBV?$basic_string@DU?$char_traits@D@std@@V?$allocator@D@2@@std@@V12@@std@@@2@$0A@@std@@@std@@@std@@QAE@ABV?$allocator@U?$pair@$$CBV?$basic_string@DU?$char_traits@D@std@@V?$allocator@D@2@@std@@V12@@std@@@1@@Z 040047e0 f i MQ2EQBC.obj
 0001:000037f0       ??$_Allocate@U_Node@?$_Tree_nod@V?$_Tmap_traits@V?$basic_string@DU?$char_traits@D@std@@V?$allocator@D@2@@std@@V12@U?$less@V?$basic_string@DU?$char_traits@D@std@@V?$allocator@D@2@@std@@@2@V?$allocator@U?$pair@$$CBV?$basic_string@DU?$char_traits@D@std@@V?$allocator@D@2@@std@@V12@@std@@@2@$0A@@std@@@std@@@std@@YAPAU_Node@?$_Tree_nod@V?$_Tmap_traits@V?$basic_string@DU?$char_traits@D@std@@V?$allocator@D@2@@std@@V12@U?$less@V?$basic_string@DU?$char_traits@D@std@@V?$allocator@D@2@@std@@@2@V?$allocator@U?$pair@$$CBV?$basic_string@DU?$char_traits@D@std@@V?$allocator@D@2@@std@@V12@@std@@@2@$0A@@std@@@0@IPAU120@@Z 040047f0 f i MQ2EQBC.obj
 0001:00003850       ??$?0U?$pair@$$CBV?$basic_string@DU?$char_traits@D@std@@V?$allocator@D@2@@std@@K@std@@@?$allocator@U_Node@?$_Tree_nod@V?$_Tmap_traits@V?$basic_string@DU?$char_traits@D@std@@V?$allocator@D@2@@std@@KU?$less@V?$basic_string@DU?$char_traits@D@std@@V?$allocator@D@2@@std@@@2@V?$allocator@U?$pair@$$CBV?$basic_string@DU?$char_traits@D@std@@V?$allocator@D@2@@std@@K@std@@@2@$0A@@std@@@std@@@std@@QAE@ABV?$allocator@U?$pair@$$CBV?$basic_string@DU?$char_traits@D@std@@V?$allocator@D@2@@std@@K@std@@@1@@Z 04004850 f i MQ2EQBC.obj
 0001:00003860       ??$_Allocate@U_Node@?$_Tree_nod@V?$_Tmap_traits@V?$basic_string@DU?$char_traits@D@std@@V?$allocator@D@2@@std@@KU?$less@V?$basic_string@DU?$char_traits@D@std@@V?$allocator@D@2@@std@@@2@V?$allocator@U?$pair@$$CBV?$basic_string@DU?$char_traits@D@std@@V?$allocator@D@2@@std@@K@std@@@2@$0A@@std@@@std@@@std@@YAPAU_Node@?$_Tree_nod@V?$_Tmap_traits@V?$basic_string@DU?$char_traits@D@std@@V?$allocator@D@2@@std@@KU?$less@V?$basic_string@DU?$char_traits@D@std@@V?$allocator@D@2@@std@@@2@V?$allocator@U?$pair@$$CBV?$basic_string@DU?$char_traits@D@std@@V?$allocator@D@2@@std@@K@std@@@2@$0A@@std@@@0@IPAU120@@Z 04004860 f i MQ2EQBC.obj
 0001:000038c0       ??$_Construct@PAU_Node@?$_Tree_nod@V?$_Tmap_traits@V?$basic_string@DU?$char_traits@D@std@@V?$allocator@D@2@@std@@KU?$less@V?$basic_string@DU?$char_traits@D@std@@V?$allocator@D@2@@std@@@2@V?$allocator@U?$pair@$$CBV?$basic_string@DU?$char_traits@D@std@@V?$allocator@D@2@@std@@K@std@@@2@$0A@@std@@@std@@PAU123@@std@@YAXPAPAU_Node@?$_Tree_nod@V?$_Tmap_traits@V?$basic_string@DU?$char_traits@D@std@@V?$allocator@D@2@@std@@KU?$less@V?$basic_string@DU?$char_traits@D@std@@V?$allocator@D@2@@std@@@2@V?$allocator@U?$pair@$$CBV?$basic_string@DU?$char_traits@D@std@@V?$allocator@D@2@@std@@K@std@@@2@$0A@@std@@@0@ABQAU120@@Z 040048c0 f i MQ2EQBC.obj
 0001:000038e0       ??$?0U?$pair@$$CBV?$basic_string@DU?$char_traits@D@std@@V?$allocator@D@2@@std@@V12@@std@@@?$allocator@U_Node@?$_Tree_nod@V?$_Tmap_traits@V?$basic_string@DU?$char_traits@D@std@@V?$allocator@D@2@@std@@V12@U?$less@V?$basic_string@DU?$char_traits@D@std@@V?$allocator@D@2@@std@@@2@V?$allocator@U?$pair@$$CBV?$basic_string@DU?$char_traits@D@std@@V?$allocator@D@2@@std@@V12@@std@@@2@$0A@@std@@@std@@@std@@QAE@ABV?$allocator@U?$pair@$$CBV?$basic_string@DU?$char_traits@D@std@@V?$allocator@D@2@@std@@V12@@std@@@1@@Z 040048e0 f i MQ2EQBC.obj
 0001:000038f0       ??$_Construct@PAU_Node@?$_Tree_nod@V?$_Tmap_traits@V?$basic_string@DU?$char_traits@D@std@@V?$allocator@D@2@@std@@V12@U?$less@V?$basic_string@DU?$char_traits@D@std@@V?$allocator@D@2@@std@@@2@V?$allocator@U?$pair@$$CBV?$basic_string@DU?$char_traits@D@std@@V?$allocator@D@2@@std@@V12@@std@@@2@$0A@@std@@@std@@PAU123@@std@@YAXPAPAU_Node@?$_Tree_nod@V?$_Tmap_traits@V?$basic_string@DU?$char_traits@D@std@@V?$allocator@D@2@@std@@V12@U?$less@V?$basic_string@DU?$char_traits@D@std@@V?$allocator@D@2@@std@@@2@V?$allocator@U?$pair@$$CBV?$basic_string@DU?$char_traits@D@std@@V?$allocator@D@2@@std@@V12@@std@@@2@$0A@@std@@@0@ABQAU120@@Z 040048f0 f i MQ2EQBC.obj
 0001:00003910       ??$?0U?$pair@$$CBV?$basic_string@DU?$char_traits@D@std@@V?$allocator@D@2@@std@@K@std@@@?$allocator@V_Aux_cont@std@@@std@@QAE@ABV?$allocator@U?$pair@$$CBV?$basic_string@DU?$char_traits@D@std@@V?$allocator@D@2@@std@@K@std@@@1@@Z 04004910 f i MQ2EQBC.obj
 0001:00003920       ??$?0U?$pair@$$CBV?$basic_string@DU?$char_traits@D@std@@V?$allocator@D@2@@std@@V12@@std@@@?$allocator@V_Aux_cont@std@@@std@@QAE@ABV?$allocator@U?$pair@$$CBV?$basic_string@DU?$char_traits@D@std@@V?$allocator@D@2@@std@@V12@@std@@@1@@Z 04004920 f i MQ2EQBC.obj
 0001:00003930       ??0bad_alloc@std@@QAE@ABV01@@Z 04004930 f i MQ2EQBC.obj
 0001:00003950       ?_Init@?$num_get@DV?$istreambuf_iterator@DU?$char_traits@D@std@@@std@@@std@@IAEXABV_Locinfo@2@@Z 04004950 f i MQ2EQBC.obj
 0001:00003970       ??$_Char_traits_cat@U?$char_traits@D@std@@@std@@YA?AU_Secure_char_traits_tag@0@XZ 04004970 f i MQ2EQBC.obj
 0001:00003980       ??$copy_s@U?$char_traits@D@std@@@_Traits_helper@std@@YAPADPADIPBDIU_Secure_char_traits_tag@1@@Z 04004980 f i MQ2EQBC.obj
 0001:000039b0       ??$_Ptr_cat@PAV?$basic_string@DU?$char_traits@D@std@@V?$allocator@D@2@@std@@PAV12@@std@@YA?AU_Nonscalar_ptr_iterator_tag@0@AAPAV?$basic_string@DU?$char_traits@D@std@@V?$allocator@D@2@@0@0@Z 040049b0 f i MQ2EQBC.obj
 0001:000039c0       ??$_Iter_random@PAV?$basic_string@DU?$char_traits@D@std@@V?$allocator@D@2@@std@@PAV12@@std@@YA?AUrandom_access_iterator_tag@0@ABQAV?$basic_string@DU?$char_traits@D@std@@V?$allocator@D@2@@0@0@Z 040049c0 f i MQ2EQBC.obj
 0001:000039d0       ??$_Move_cat@PAV?$basic_string@DU?$char_traits@D@std@@V?$allocator@D@2@@std@@@std@@YA?AU_Swap_move_tag@0@ABQAV?$basic_string@DU?$char_traits@D@std@@V?$allocator@D@2@@0@@Z 040049d0 f i MQ2EQBC.obj
 0001:000039e0       ??$move_s@U?$char_traits@D@std@@@_Traits_helper@std@@YAPADPADIPBDIU_Secure_char_traits_tag@1@@Z 040049e0 f i MQ2EQBC.obj
 0001:00003a10       ??$_Checked_base@PAV?$basic_string@DU?$char_traits@D@std@@V?$allocator@D@2@@std@@@std@@YAPAV?$basic_string@DU?$char_traits@D@std@@V?$allocator@D@2@@0@AAPAV10@U_Unchanged_checked_iterator_base_type_tag@0@@Z 04004a10 f i MQ2EQBC.obj
 0001:00003a20       ??$?8DD@std@@YA_NABV?$allocator@D@0@0@Z 04004a20 f i MQ2EQBC.obj
 0001:00003a30       ??0?$ctype@D@std@@QAE@ABV_Locinfo@1@I@Z 04004a30 f i MQ2EQBC.obj
 0001:00003a70       ?_Tidy@?$ctype@D@std@@IAEXXZ 04004a70 f i MQ2EQBC.obj
 0001:00003aa0       ?do_tolower@?$ctype@D@std@@MBEDD@Z 04004aa0 f i MQ2EQBC.obj
 0001:00003ac0       ?do_tolower@?$ctype@D@std@@MBEPBDPADPBD@Z 04004ac0 f i MQ2EQBC.obj
 0001:00003af0       ?do_toupper@?$ctype@D@std@@MBEDD@Z 04004af0 f i MQ2EQBC.obj
 0001:00003b10       ?do_toupper@?$ctype@D@std@@MBEPBDPADPBD@Z 04004b10 f i MQ2EQBC.obj
 0001:00003b40       ?do_widen@?$ctype@D@std@@MBEDD@Z 04004b40 f i MQ2EQBC.obj
 0001:00003b50       ?do_widen@?$ctype@D@std@@MBEPBDPBD0PAD@Z 04004b50 f i MQ2EQBC.obj
 0001:00003b80       ?_Do_widen_s@?$ctype@D@std@@MBEPBDPBD0PADI@Z 04004b80 f i MQ2EQBC.obj
 0001:00003bc0       ?do_narrow@?$ctype@D@std@@MBEDDD@Z 04004bc0 f i MQ2EQBC.obj
 0001:00003bd0       ?do_narrow@?$ctype@D@std@@MBEPBDPBD0DPAD@Z 04004bd0 f i MQ2EQBC.obj
 0001:00003c00       ?_Do_narrow_s@?$ctype@D@std@@MBEPBDPBD0DPADI@Z 04004c00 f i MQ2EQBC.obj
 0001:00003c40       ??1?$ctype@D@std@@MAE@XZ   04004c40 f i MQ2EQBC.obj
 0001:00003c80       ??_G?$ctype@D@std@@MAEPAXI@Z 04004c80 f i MQ2EQBC.obj
 0001:00003c80       ??_E?$ctype@D@std@@MAEPAXI@Z 04004c80 f i MQ2EQBC.obj
 0001:00003cd0       ??7ios_base@std@@QBE_NXZ   04004cd0 f i MQ2EQBC.obj
 0001:00003ce0       ??0CCustomWnd@MQ2Internal@@QAE@PAVCXStr@EQClasses@@@Z 04004ce0 f i MQ2EQBC.obj
 0001:00003d80       ??1CCustomWnd@MQ2Internal@@QAE@XZ 04004d80 f i MQ2EQBC.obj
 0001:00003da0       ?HandleDisconnect@@YAX_N@Z 04004da0 f   MQ2EQBC.obj
 0001:00003e20       ?HandleReconnectRequest@@YAXXZ 04004e20 f   MQ2EQBC.obj
 0001:00003e40       ?TryRelogin@@YAXXZ         04004e40 f   MQ2EQBC.obj
 0001:00003f20       ??A?$basic_string@DU?$char_traits@D@std@@V?$allocator@D@2@@std@@QAEAADI@Z 04004f20 f i MQ2EQBC.obj
 0001:00003f50       ?c_str@?$basic_string@DU?$char_traits@D@std@@V?$allocator@D@2@@std@@QBEPBDXZ 04004f50 f i MQ2EQBC.obj
 0001:00003f60       ??1_Sentry_base@?$basic_istream@DU?$char_traits@D@std@@@std@@QAE@XZ 04004f60 f i MQ2EQBC.obj
 0001:00003f80       ??1?$basic_streambuf@DU?$char_traits@D@std@@@std@@UAE@XZ 04004f80 f i MQ2EQBC.obj
 0001:00003ff0       ?overflow@?$basic_streambuf@DU?$char_traits@D@std@@@std@@MAEHH@Z 04004ff0 f i MQ2EQBC.obj
 0001:00004000       ?pbackfail@?$basic_streambuf@DU?$char_traits@D@std@@@std@@MAEHH@Z 04005000 f i MQ2EQBC.obj
 0001:00004010       ?showmanyc@?$basic_streambuf@DU?$char_traits@D@std@@@std@@MAEHXZ 04005010 f i MQ2EQBC.obj
 0001:00004020       ?underflow@?$basic_streambuf@DU?$char_traits@D@std@@@std@@MAEHXZ 04005020 f i MQ2EQBC.obj
 0001:00004030       ?xsgetn@?$basic_streambuf@DU?$char_traits@D@std@@@std@@MAEHPADH@Z 04005030 f i MQ2EQBC.obj
 0001:00004050       ?setbuf@?$basic_streambuf@DU?$char_traits@D@std@@@std@@MAEPAV12@PADH@Z 04005050 f i MQ2EQBC.obj
 0001:00004060       ?sync@?$basic_streambuf@DU?$char_traits@D@std@@@std@@MAEHXZ 04005060 f i MQ2EQBC.obj
 0001:00004070       ?imbue@?$basic_streambuf@DU?$char_traits@D@std@@@std@@MAEXABVlocale@2@@Z 04005070 f i MQ2EQBC.obj
 0001:00004080       ?gbump@?$basic_streambuf@DU?$char_traits@D@std@@@std@@IAEXH@Z 04005080 f i MQ2EQBC.obj
 0001:000040a0       ?pbump@?$basic_streambuf@DU?$char_traits@D@std@@@std@@IAEXH@Z 040050a0 f i MQ2EQBC.obj
 0001:000040c0       ?_Pnavail@?$basic_streambuf@DU?$char_traits@D@std@@@std@@IBEHXZ 040050c0 f i MQ2EQBC.obj
 0001:000040e0       ??0?$fpos@H@std@@QAE@J@Z   040050e0 f i MQ2EQBC.obj
 0001:00004100       ?sgetc@?$basic_streambuf@DU?$char_traits@D@std@@@std@@QAEHXZ 04005100 f i MQ2EQBC.obj
 0001:00004120       ?uflow@?$basic_streambuf@DU?$char_traits@D@std@@@std@@MAEHXZ 04005120 f i MQ2EQBC.obj
 0001:00004150       ?seekoff@?$basic_streambuf@DU?$char_traits@D@std@@@std@@MAE?AV?$fpos@H@2@JHH@Z 04005150 f i MQ2EQBC.obj
 0001:00004170       ?seekpos@?$basic_streambuf@DU?$char_traits@D@std@@@std@@MAE?AV?$fpos@H@2@V32@H@Z 04005170 f i MQ2EQBC.obj
 0001:00004190       ?GetUnused@?$CIndex@PAU_MQ2TypeMember@MQ2Internal@@@MQ2Internal@@QAEKXZ 04005190 f i MQ2EQBC.obj
 0001:000041e0       ??1?$basic_stringbuf@DU?$char_traits@D@std@@V?$allocator@D@2@@std@@UAE@XZ 040051e0 f i MQ2EQBC.obj
 0001:00004200       ?eq@?$char_traits@D@std@@SA_NABD0@Z 04005200 f i MQ2EQBC.obj
 0001:00004220       ?not_eof@?$char_traits@D@std@@SAHABH@Z 04005220 f i MQ2EQBC.obj
 0001:00004230       ?pbase@?$basic_streambuf@DU?$char_traits@D@std@@@std@@IBEPADXZ 04005230 f i MQ2EQBC.obj
 0001:00004240       ?_Pninc@?$basic_streambuf@DU?$char_traits@D@std@@@std@@IAEPADXZ 04005240 f i MQ2EQBC.obj
 0001:00004250       ??B?$fpos@H@std@@QBEJXZ    04005250 f i MQ2EQBC.obj
 0001:00004260       ?pbackfail@?$basic_stringbuf@DU?$char_traits@D@std@@V?$allocator@D@2@@std@@MAEHH@Z 04005260 f i MQ2EQBC.obj
 0001:000042b0       ?underflow@?$basic_stringbuf@DU?$char_traits@D@std@@V?$allocator@D@2@@std@@MAEHXZ 040052b0 f i MQ2EQBC.obj
 0001:00004320       ?seekoff@?$basic_stringbuf@DU?$char_traits@D@std@@V?$allocator@D@2@@std@@MAE?AV?$fpos@H@2@JHH@Z 04005320 f i MQ2EQBC.obj
 0001:00004480       ?seekpos@?$basic_stringbuf@DU?$char_traits@D@std@@V?$allocator@D@2@@std@@MAE?AV?$fpos@H@2@V32@H@Z 04005480 f i MQ2EQBC.obj
 0001:00004550       ??_G?$basic_istream@DU?$char_traits@D@std@@@std@@UAEPAXI@Z 04005550 f i MQ2EQBC.obj
 0001:00004550       ??_E?$basic_istream@DU?$char_traits@D@std@@@std@@UAEPAXI@Z 04005550 f i MQ2EQBC.obj
 0001:00004590       ??_E?$basic_streambuf@DU?$char_traits@D@std@@@std@@UAEPAXI@Z 04005590 f i MQ2EQBC.obj
 0001:00004590       ??_G?$basic_streambuf@DU?$char_traits@D@std@@@std@@UAEPAXI@Z 04005590 f i MQ2EQBC.obj
 0001:000045b0       ??_G?$basic_stringbuf@DU?$char_traits@D@std@@V?$allocator@D@2@@std@@UAEPAXI@Z 040055b0 f i MQ2EQBC.obj
 0001:000045b0       ??_E?$basic_stringbuf@DU?$char_traits@D@std@@V?$allocator@D@2@@std@@UAEPAXI@Z 040055b0 f i MQ2EQBC.obj
 0001:000045e0       ?find@?$basic_string@DU?$char_traits@D@std@@V?$allocator@D@2@@std@@QBEIPBDII@Z 040055e0 f i MQ2EQBC.obj
 0001:000046a0       ?compare@?$basic_string@DU?$char_traits@D@std@@V?$allocator@D@2@@std@@QBEHIIPBDI@Z 040056a0 f i MQ2EQBC.obj
 0001:00004710       ??0?$_String_val@DV?$allocator@D@std@@@std@@IAE@V?$allocator@D@1@@Z 04005710 f i MQ2EQBC.obj
 0001:00004720       ??0?$_String_val@DV?$allocator@D@std@@@std@@QAE@ABV01@@Z 04005720 f i MQ2EQBC.obj
 0001:00004730       ?allocate@?$allocator@D@std@@QAEPADI@Z 04005730 f i MQ2EQBC.obj
 0001:00004750       ??0_Sentry_base@?$basic_istream@DU?$char_traits@D@std@@@std@@QAE@AAV12@@Z 04005750 f i MQ2EQBC.obj
 0001:00004780       ?sbumpc@?$basic_streambuf@DU?$char_traits@D@std@@@std@@QAEHXZ 04005780 f i MQ2EQBC.obj
 0001:000047b0       ?_Key@?$_Tree@V?$_Tmap_traits@V?$basic_string@DU?$char_traits@D@std@@V?$allocator@D@2@@std@@KU?$less@V?$basic_string@DU?$char_traits@D@std@@V?$allocator@D@2@@std@@@2@V?$allocator@U?$pair@$$CBV?$basic_string@DU?$char_traits@D@std@@V?$allocator@D@2@@std@@K@std@@@2@$0A@@std@@@std@@KAABV?$basic_string@DU?$char_traits@D@std@@V?$allocator@D@2@@2@PAU_Node@?$_Tree_nod@V?$_Tmap_traits@V?$basic_string@DU?$char_traits@D@std@@V?$allocator@D@2@@std@@KU?$less@V?$basic_string@DU?$char_traits@D@std@@V?$allocator@D@2@@std@@@2@V?$allocator@U?$pair@$$CBV?$basic_string@DU?$char_traits@D@std@@V?$allocator@D@2@@std@@K@std@@@2@$0A@@std@@@2@@Z 040057b0 f i MQ2EQBC.obj
 0001:000047c0       ??1?$_Container_base_aux_alloc_real@V?$allocator@U?$pair@$$CBV?$basic_string@DU?$char_traits@D@std@@V?$allocator@D@2@@std@@K@std@@@std@@@std@@IAE@XZ 040057c0 f i MQ2EQBC.obj
 0001:000047d0       ??1?$_Container_base_aux_alloc_real@V?$allocator@V?$basic_string@DU?$char_traits@D@std@@V?$allocator@D@2@@std@@@std@@@std@@IAE@XZ 040057d0 f i MQ2EQBC.obj
 0001:000047e0       ??D?$_Vector_iterator@V?$basic_string@DU?$char_traits@D@std@@V?$allocator@D@2@@std@@V?$allocator@V?$basic_string@DU?$char_traits@D@std@@V?$allocator@D@2@@std@@@2@@std@@QBEAAV?$basic_string@DU?$char_traits@D@std@@V?$allocator@D@2@@1@XZ 040057e0 f i MQ2EQBC.obj
 0001:00004810       ?_Key@?$_Tree@V?$_Tmap_traits@V?$basic_string@DU?$char_traits@D@std@@V?$allocator@D@2@@std@@V12@U?$less@V?$basic_string@DU?$char_traits@D@std@@V?$allocator@D@2@@std@@@2@V?$allocator@U?$pair@$$CBV?$basic_string@DU?$char_traits@D@std@@V?$allocator@D@2@@std@@V12@@std@@@2@$0A@@std@@@std@@KAABV?$basic_string@DU?$char_traits@D@std@@V?$allocator@D@2@@2@PAU_Node@?$_Tree_nod@V?$_Tmap_traits@V?$basic_string@DU?$char_traits@D@std@@V?$allocator@D@2@@std@@V12@U?$less@V?$basic_string@DU?$char_traits@D@std@@V?$allocator@D@2@@std@@@2@V?$allocator@U?$pair@$$CBV?$basic_string@DU?$char_traits@D@std@@V?$allocator@D@2@@std@@V12@@std@@@2@$0A@@std@@@2@@Z 04005810 f i MQ2EQBC.obj
 0001:00004820       ?_Lrotate@?$_Tree@V?$_Tmap_traits@V?$basic_string@DU?$char_traits@D@std@@V?$allocator@D@2@@std@@V12@U?$less@V?$basic_string@DU?$char_traits@D@std@@V?$allocator@D@2@@std@@@2@V?$allocator@U?$pair@$$CBV?$basic_string@DU?$char_traits@D@std@@V?$allocator@D@2@@std@@V12@@std@@@2@$0A@@std@@@std@@IAEXPAU_Node@?$_Tree_nod@V?$_Tmap_traits@V?$basic_string@DU?$char_traits@D@std@@V?$allocator@D@2@@std@@V12@U?$less@V?$basic_string@DU?$char_traits@D@std@@V?$allocator@D@2@@std@@@2@V?$allocator@U?$pair@$$CBV?$basic_string@DU?$char_traits@D@std@@V?$allocator@D@2@@std@@V12@@std@@@2@$0A@@std@@@2@@Z 04005820 f i MQ2EQBC.obj
 0001:00004870       ??1?$_Container_base_aux_alloc_real@V?$allocator@U?$pair@$$CBV?$basic_string@DU?$char_traits@D@std@@V?$allocator@D@2@@std@@V12@@std@@@std@@@std@@IAE@XZ 04005870 f i MQ2EQBC.obj
 0001:00004880       ??Diterator@?$_Tree@V?$_Tmap_traits@V?$basic_string@DU?$char_traits@D@std@@V?$allocator@D@2@@std@@V12@U?$less@V?$basic_string@DU?$char_traits@D@std@@V?$allocator@D@2@@std@@@2@V?$allocator@U?$pair@$$CBV?$basic_string@DU?$char_traits@D@std@@V?$allocator@D@2@@std@@V12@@std@@@2@$0A@@std@@@std@@QBEAAU?$pair@$$CBV?$basic_string@DU?$char_traits@D@std@@V?$allocator@D@2@@std@@V12@@2@XZ 04005880 f i MQ2EQBC.obj
 0001:000048b0       ??Econst_iterator@?$_Tree@V?$_Tmap_traits@V?$basic_string@DU?$char_traits@D@std@@V?$allocator@D@2@@std@@V12@U?$less@V?$basic_string@DU?$char_traits@D@std@@V?$allocator@D@2@@std@@@2@V?$allocator@U?$pair@$$CBV?$basic_string@DU?$char_traits@D@std@@V?$allocator@D@2@@std@@V12@@std@@@2@$0A@@std@@@std@@QAEAAV012@XZ 040058b0 f i MQ2EQBC.obj
 0001:000048c0       ??Diterator@?$_Tree@V?$_Tmap_traits@V?$basic_string@DU?$char_traits@D@std@@V?$allocator@D@2@@std@@KU?$less@V?$basic_string@DU?$char_traits@D@std@@V?$allocator@D@2@@std@@@2@V?$allocator@U?$pair@$$CBV?$basic_string@DU?$char_traits@D@std@@V?$allocator@D@2@@std@@K@std@@@2@$0A@@std@@@std@@QBEAAU?$pair@$$CBV?$basic_string@DU?$char_traits@D@std@@V?$allocator@D@2@@std@@K@2@XZ 040058c0 f i MQ2EQBC.obj
 0001:000048f0       ??0?$_Bidit@U?$pair@$$CBV?$basic_string@DU?$char_traits@D@std@@V?$allocator@D@2@@std@@V12@@std@@HPBU12@ABU12@@std@@QAE@XZ 040058f0 f i MQ2EQBC.obj
 0001:00004900       ??0?$basic_streambuf@DU?$char_traits@D@std@@@std@@IAE@XZ 04005900 f i MQ2EQBC.obj
 0001:000049a0       ?destroy@?$allocator@PAU_Node@?$_Tree_nod@V?$_Tmap_traits@V?$basic_string@DU?$char_traits@D@std@@V?$allocator@D@2@@std@@KU?$less@V?$basic_string@DU?$char_traits@D@std@@V?$allocator@D@2@@std@@@2@V?$allocator@U?$pair@$$CBV?$basic_string@DU?$char_traits@D@std@@V?$allocator@D@2@@std@@K@std@@@2@$0A@@std@@@std@@@std@@QAEXPAPAU_Node@?$_Tree_nod@V?$_Tmap_traits@V?$basic_string@DU?$char_traits@D@std@@V?$allocator@D@2@@std@@KU?$less@V?$basic_string@DU?$char_traits@D@std@@V?$allocator@D@2@@std@@@2@V?$allocator@U?$pair@$$CBV?$basic_string@DU?$char_traits@D@std@@V?$allocator@D@2@@std@@K@std@@@2@$0A@@std@@@2@@Z 040059a0 f i MQ2EQBC.obj
 0001:000049b0       ?allocate@?$allocator@V?$basic_string@DU?$char_traits@D@std@@V?$allocator@D@2@@std@@@std@@QAEPAV?$basic_string@DU?$char_traits@D@std@@V?$allocator@D@2@@2@I@Z 040059b0 f i MQ2EQBC.obj
 0001:000049d0       ?max_size@?$vector@V?$basic_string@DU?$char_traits@D@std@@V?$allocator@D@2@@std@@V?$allocator@V?$basic_string@DU?$char_traits@D@std@@V?$allocator@D@2@@std@@@2@@std@@QBEIXZ 040059d0 f i MQ2EQBC.obj
 0001:000049e0       ??Y?$_Vector_iterator@V?$basic_string@DU?$char_traits@D@std@@V?$allocator@D@2@@std@@V?$allocator@V?$basic_string@DU?$char_traits@D@std@@V?$allocator@D@2@@std@@@2@@std@@QAEAAV01@H@Z 040059e0 f i MQ2EQBC.obj
 0001:00004a00       ?max_size@?$_Tree@V?$_Tmap_traits@V?$basic_string@DU?$char_traits@D@std@@V?$allocator@D@2@@std@@V12@U?$less@V?$basic_string@DU?$char_traits@D@std@@V?$allocator@D@2@@std@@@2@V?$allocator@U?$pair@$$CBV?$basic_string@DU?$char_traits@D@std@@V?$allocator@D@2@@std@@V12@@std@@@2@$0A@@std@@@std@@QBEIXZ 04005a00 f i MQ2EQBC.obj
 0001:00004a10       ?destroy@?$allocator@PAU_Node@?$_Tree_nod@V?$_Tmap_traits@V?$basic_string@DU?$char_traits@D@std@@V?$allocator@D@2@@std@@V12@U?$less@V?$basic_string@DU?$char_traits@D@std@@V?$allocator@D@2@@std@@@2@V?$allocator@U?$pair@$$CBV?$basic_string@DU?$char_traits@D@std@@V?$allocator@D@2@@std@@V12@@std@@@2@$0A@@std@@@std@@@std@@QAEXPAPAU_Node@?$_Tree_nod@V?$_Tmap_traits@V?$basic_string@DU?$char_traits@D@std@@V?$allocator@D@2@@std@@V12@U?$less@V?$basic_string@DU?$char_traits@D@std@@V?$allocator@D@2@@std@@@2@V?$allocator@U?$pair@$$CBV?$basic_string@DU?$char_traits@D@std@@V?$allocator@D@2@@std@@V12@@std@@@2@$0A@@std@@@2@@Z 04005a10 f i MQ2EQBC.obj
 0001:00004a20       ??0const_iterator@?$_Tree@V?$_Tmap_traits@V?$basic_string@DU?$char_traits@D@std@@V?$allocator@D@2@@std@@V12@U?$less@V?$basic_string@DU?$char_traits@D@std@@V?$allocator@D@2@@std@@@2@V?$allocator@U?$pair@$$CBV?$basic_string@DU?$char_traits@D@std@@V?$allocator@D@2@@std@@V12@@std@@@2@$0A@@std@@@std@@QAE@PAU_Node@?$_Tree_nod@V?$_Tmap_traits@V?$basic_string@DU?$char_traits@D@std@@V?$allocator@D@2@@std@@V12@U?$less@V?$basic_string@DU?$char_traits@D@std@@V?$allocator@D@2@@std@@@2@V?$allocator@U?$pair@$$CBV?$basic_string@DU?$char_traits@D@std@@V?$allocator@D@2@@std@@V12@@std@@@2@$0A@@std@@@2@PBV12@@Z 04005a20 f i MQ2EQBC.obj
 0001:00004a50       ??Fconst_iterator@?$_Tree@V?$_Tmap_traits@V?$basic_string@DU?$char_traits@D@std@@V?$allocator@D@2@@std@@V12@U?$less@V?$basic_string@DU?$char_traits@D@std@@V?$allocator@D@2@@std@@@2@V?$allocator@U?$pair@$$CBV?$basic_string@DU?$char_traits@D@std@@V?$allocator@D@2@@std@@V12@@std@@@2@$0A@@std@@@std@@QAEAAV012@XZ 04005a50 f i MQ2EQBC.obj
 0001:00004a60       ??0?$_Ranit@V?$basic_string@DU?$char_traits@D@std@@V?$allocator@D@2@@std@@HPBV12@ABV12@@std@@QAE@XZ 04005a60 f i MQ2EQBC.obj
 0001:00004a70       ??0?$_Bidit@U?$pair@$$CBV?$basic_string@DU?$char_traits@D@std@@V?$allocator@D@2@@std@@K@std@@HPBU12@ABU12@@std@@QAE@XZ 04005a70 f i MQ2EQBC.obj
 0001:00004a80       ?max_size@?$basic_string@DU?$char_traits@D@std@@V?$allocator@D@2@@std@@QBEIXZ 04005a80 f i MQ2EQBC.obj
 0001:00004a90       ?allocate@?$allocator@V_Aux_cont@std@@@std@@QAEPAV_Aux_cont@2@I@Z 04005a90 f i MQ2EQBC.obj
 0001:00004ab0       ?max_size@?$_Tree@V?$_Tmap_traits@V?$basic_string@DU?$char_traits@D@std@@V?$allocator@D@2@@std@@KU?$less@V?$basic_string@DU?$char_traits@D@std@@V?$allocator@D@2@@std@@@2@V?$allocator@U?$pair@$$CBV?$basic_string@DU?$char_traits@D@std@@V?$allocator@D@2@@std@@K@std@@@2@$0A@@std@@@std@@QBEIXZ 04005ab0 f i MQ2EQBC.obj
 0001:00004ac0       ?_Lrotate@?$_Tree@V?$_Tmap_traits@V?$basic_string@DU?$char_traits@D@std@@V?$allocator@D@2@@std@@KU?$less@V?$basic_string@DU?$char_traits@D@std@@V?$allocator@D@2@@std@@@2@V?$allocator@U?$pair@$$CBV?$basic_string@DU?$char_traits@D@std@@V?$allocator@D@2@@std@@K@std@@@2@$0A@@std@@@std@@IAEXPAU_Node@?$_Tree_nod@V?$_Tmap_traits@V?$basic_string@DU?$char_traits@D@std@@V?$allocator@D@2@@std@@KU?$less@V?$basic_string@DU?$char_traits@D@std@@V?$allocator@D@2@@std@@@2@V?$allocator@U?$pair@$$CBV?$basic_string@DU?$char_traits@D@std@@V?$allocator@D@2@@std@@K@std@@@2@$0A@@std@@@2@@Z 04005ac0 f i MQ2EQBC.obj
 0001:00004b10       ?allocate@?$allocator@U_Node@?$_Tree_nod@V?$_Tmap_traits@V?$basic_string@DU?$char_traits@D@std@@V?$allocator@D@2@@std@@V12@U?$less@V?$basic_string@DU?$char_traits@D@std@@V?$allocator@D@2@@std@@@2@V?$allocator@U?$pair@$$CBV?$basic_string@DU?$char_traits@D@std@@V?$allocator@D@2@@std@@V12@@std@@@2@$0A@@std@@@std@@@std@@QAEPAU_Node@?$_Tree_nod@V?$_Tmap_traits@V?$basic_string@DU?$char_traits@D@std@@V?$allocator@D@2@@std@@V12@U?$less@V?$basic_string@DU?$char_traits@D@std@@V?$allocator@D@2@@std@@@2@V?$allocator@U?$pair@$$CBV?$basic_string@DU?$char_traits@D@std@@V?$allocator@D@2@@std@@V12@@std@@@2@$0A@@std@@@2@I@Z 04005b10 f i MQ2EQBC.obj
 0001:00004b30       ??Econst_iterator@?$_Tree@V?$_Tmap_traits@V?$basic_string@DU?$char_traits@D@std@@V?$allocator@D@2@@std@@V12@U?$less@V?$basic_string@DU?$char_traits@D@std@@V?$allocator@D@2@@std@@@2@V?$allocator@U?$pair@$$CBV?$basic_string@DU?$char_traits@D@std@@V?$allocator@D@2@@std@@V12@@std@@@2@$0A@@std@@@std@@QAE?AV012@H@Z 04005b30 f i MQ2EQBC.obj
 0001:00004b50       ??0const_iterator@?$_Tree@V?$_Tmap_traits@V?$basic_string@DU?$char_traits@D@std@@V?$allocator@D@2@@std@@KU?$less@V?$basic_string@DU?$char_traits@D@std@@V?$allocator@D@2@@std@@@2@V?$allocator@U?$pair@$$CBV?$basic_string@DU?$char_traits@D@std@@V?$allocator@D@2@@std@@K@std@@@2@$0A@@std@@@std@@QAE@PAU_Node@?$_Tree_nod@V?$_Tmap_traits@V?$basic_string@DU?$char_traits@D@std@@V?$allocator@D@2@@std@@KU?$less@V?$basic_string@DU?$char_traits@D@std@@V?$allocator@D@2@@std@@@2@V?$allocator@U?$pair@$$CBV?$basic_string@DU?$char_traits@D@std@@V?$allocator@D@2@@std@@K@std@@@2@$0A@@std@@@2@PBV12@@Z 04005b50 f i MQ2EQBC.obj
 0001:00004b80       ?_Dec@const_iterator@?$_Tree@V?$_Tmap_traits@V?$basic_string@DU?$char_traits@D@std@@V?$allocator@D@2@@std@@KU?$less@V?$basic_string@DU?$char_traits@D@std@@V?$allocator@D@2@@std@@@2@V?$allocator@U?$pair@$$CBV?$basic_string@DU?$char_traits@D@std@@V?$allocator@D@2@@std@@K@std@@@2@$0A@@std@@@std@@QAEXXZ 04005b80 f i MQ2EQBC.obj
 0001:00004c10       ?_Inc@const_iterator@?$_Tree@V?$_Tmap_traits@V?$basic_string@DU?$char_traits@D@std@@V?$allocator@D@2@@std@@KU?$less@V?$basic_string@DU?$char_traits@D@std@@V?$allocator@D@2@@std@@@2@V?$allocator@U?$pair@$$CBV?$basic_string@DU?$char_traits@D@std@@V?$allocator@D@2@@std@@K@std@@@2@$0A@@std@@@std@@QAEXXZ 04005c10 f i MQ2EQBC.obj
 0001:00004c80       ?allocate@?$allocator@U_Node@?$_Tree_nod@V?$_Tmap_traits@V?$basic_string@DU?$char_traits@D@std@@V?$allocator@D@2@@std@@KU?$less@V?$basic_string@DU?$char_traits@D@std@@V?$allocator@D@2@@std@@@2@V?$allocator@U?$pair@$$CBV?$basic_string@DU?$char_traits@D@std@@V?$allocator@D@2@@std@@K@std@@@2@$0A@@std@@@std@@@std@@QAEPAU_Node@?$_Tree_nod@V?$_Tmap_traits@V?$basic_string@DU?$char_traits@D@std@@V?$allocator@D@2@@std@@KU?$less@V?$basic_string@DU?$char_traits@D@std@@V?$allocator@D@2@@std@@@2@V?$allocator@U?$pair@$$CBV?$basic_string@DU?$char_traits@D@std@@V?$allocator@D@2@@std@@K@std@@@2@$0A@@std@@@2@I@Z 04005c80 f i MQ2EQBC.obj
 0001:00004ca0       ?construct@?$allocator@PAU_Node@?$_Tree_nod@V?$_Tmap_traits@V?$basic_string@DU?$char_traits@D@std@@V?$allocator@D@2@@std@@KU?$less@V?$basic_string@DU?$char_traits@D@std@@V?$allocator@D@2@@std@@@2@V?$allocator@U?$pair@$$CBV?$basic_string@DU?$char_traits@D@std@@V?$allocator@D@2@@std@@K@std@@@2@$0A@@std@@@std@@@std@@QAEXPAPAU_Node@?$_Tree_nod@V?$_Tmap_traits@V?$basic_string@DU?$char_traits@D@std@@V?$allocator@D@2@@std@@KU?$less@V?$basic_string@DU?$char_traits@D@std@@V?$allocator@D@2@@std@@@2@V?$allocator@U?$pair@$$CBV?$basic_string@DU?$char_traits@D@std@@V?$allocator@D@2@@std@@K@std@@@2@$0A@@std@@@2@ABQAU342@@Z 04005ca0 f i MQ2EQBC.obj
 0001:00004cc0       ?construct@?$allocator@PAU_Node@?$_Tree_nod@V?$_Tmap_traits@V?$basic_string@DU?$char_traits@D@std@@V?$allocator@D@2@@std@@V12@U?$less@V?$basic_string@DU?$char_traits@D@std@@V?$allocator@D@2@@std@@@2@V?$allocator@U?$pair@$$CBV?$basic_string@DU?$char_traits@D@std@@V?$allocator@D@2@@std@@V12@@std@@@2@$0A@@std@@@std@@@std@@QAEXPAPAU_Node@?$_Tree_nod@V?$_Tmap_traits@V?$basic_string@DU?$char_traits@D@std@@V?$allocator@D@2@@std@@V12@U?$less@V?$basic_string@DU?$char_traits@D@std@@V?$allocator@D@2@@std@@@2@V?$allocator@U?$pair@$$CBV?$basic_string@DU?$char_traits@D@std@@V?$allocator@D@2@@std@@V12@@std@@@2@$0A@@std@@@2@ABQAU342@@Z 04005cc0 f i MQ2EQBC.obj
 0001:00004ce0       ??0?$_Container_base_aux_alloc_real@V?$allocator@U?$pair@$$CBV?$basic_string@DU?$char_traits@D@std@@V?$allocator@D@2@@std@@K@std@@@std@@@std@@IAE@V?$allocator@U?$pair@$$CBV?$basic_string@DU?$char_traits@D@std@@V?$allocator@D@2@@std@@K@std@@@1@@Z 04005ce0 f i MQ2EQBC.obj
 0001:00004d10       ??0?$_Container_base_aux_alloc_real@V?$allocator@U?$pair@$$CBV?$basic_string@DU?$char_traits@D@std@@V?$allocator@D@2@@std@@V12@@std@@@std@@@std@@IAE@V?$allocator@U?$pair@$$CBV?$basic_string@DU?$char_traits@D@std@@V?$allocator@D@2@@std@@V12@@std@@@1@@Z 04005d10 f i MQ2EQBC.obj
 0001:00004d40       ??$copy_s@U?$char_traits@D@std@@@_Traits_helper@std@@YAPADPADIPBDI@Z 04005d40 f i MQ2EQBC.obj
 0001:00004d70       ??$move_s@U?$char_traits@D@std@@@_Traits_helper@std@@YAPADPADIPBDI@Z 04005d70 f i MQ2EQBC.obj
 0001:00004da0       ??0?$num_get@DV?$istreambuf_iterator@DU?$char_traits@D@std@@@std@@@std@@QAE@ABV_Locinfo@1@I@Z 04005da0 f i MQ2EQBC.obj
 0001:00004dd0       ?_Getlconv@_Locinfo@std@@QBEPBUlconv@@XZ 04005dd0 f i MQ2EQBC.obj
 0001:00004de0       ?_Getfalse@_Locinfo@std@@QBEPBDXZ 04005de0 f i MQ2EQBC.obj
 0001:00004df0       ?_Gettrue@_Locinfo@std@@QBEPBDXZ 04005df0 f i MQ2EQBC.obj
 0001:00004e00       ??1?$num_get@DV?$istreambuf_iterator@DU?$char_traits@D@std@@@std@@@std@@MAE@XZ 04005e00 f i MQ2EQBC.obj
 0001:00004e10       ??_E?$num_get@DV?$istreambuf_iterator@DU?$char_traits@D@std@@@std@@@std@@MAEPAXI@Z 04005e10 f i MQ2EQBC.obj
 0001:00004e10       ??_G?$num_get@DV?$istreambuf_iterator@DU?$char_traits@D@std@@@std@@@std@@MAEPAXI@Z 04005e10 f i MQ2EQBC.obj
 0001:00004e30       ?decimal_point@?$numpunct@D@std@@QBEDXZ 04005e30 f i MQ2EQBC.obj
 0001:00004e40       ?thousands_sep@?$numpunct@D@std@@QBEDXZ 04005e40 f i MQ2EQBC.obj
 0001:00004e50       ?_Tidy@?$numpunct@D@std@@AAEXXZ 04005e50 f i MQ2EQBC.obj
 0001:00004e80       ??$_Maklocchr@D@std@@YADDPADABU_Cvtvec@@@Z 04005e80 f i MQ2EQBC.obj
 0001:00004e90       ??$_Maklocbyte@D@std@@YADDABU_Cvtvec@@@Z 04005e90 f i MQ2EQBC.obj
 0001:00004ea0       ??$_Maklocstr@D@std@@YAPADPBDPADABU_Cvtvec@@@Z 04005ea0 f i MQ2EQBC.obj
 0001:00004ee0       ?_Inc@?$istreambuf_iterator@DU?$char_traits@D@std@@@std@@AAEXXZ 04005ee0 f i MQ2EQBC.obj
 0001:00004f30       ?_Peek@?$istreambuf_iterator@DU?$char_traits@D@std@@@std@@AAEDXZ 04005f30 f i MQ2EQBC.obj
 0001:00004f80       ?equal@?$istreambuf_iterator@DU?$char_traits@D@std@@@std@@QBE_NABV12@@Z 04005f80 f i MQ2EQBC.obj
 0001:00004fc0       ?_Init@?$numpunct@D@std@@IAEXABV_Locinfo@2@_N@Z 04005fc0 f i MQ2EQBC.obj
 0001:00005130       ??$_Checked_base@PAV?$basic_string@DU?$char_traits@D@std@@V?$allocator@D@2@@std@@@std@@YAPAV?$basic_string@DU?$char_traits@D@std@@V?$allocator@D@2@@0@AAPAV10@@Z 04006130 f i MQ2EQBC.obj
 0001:00005140       ??1sentry@?$basic_istream@DU?$char_traits@D@std@@@std@@QAE@XZ 04006140 f i MQ2EQBC.obj
 0001:00005160       ?find@?$basic_string@DU?$char_traits@D@std@@V?$allocator@D@2@@std@@QBEIPBDI@Z 04006160 f i MQ2EQBC.obj
 0001:00005190       ?compare@?$basic_string@DU?$char_traits@D@std@@V?$allocator@D@2@@std@@QBEHABV12@@Z 04006190 f i MQ2EQBC.obj
 0001:000051d0       ?compare@?$basic_string@DU?$char_traits@D@std@@V?$allocator@D@2@@std@@QBEHPBD@Z 040061d0 f i MQ2EQBC.obj
 0001:00005200       ?snextc@?$basic_streambuf@DU?$char_traits@D@std@@@std@@QAEHXZ 04006200 f i MQ2EQBC.obj
 0001:00005280       ?_Xsgetn_s@?$basic_streambuf@DU?$char_traits@D@std@@@std@@MAEHPADIH@Z 04006280 f i MQ2EQBC.obj
 0001:00005310       ?xsputn@?$basic_streambuf@DU?$char_traits@D@std@@@std@@MAEHPBDH@Z 04006310 f i MQ2EQBC.obj
 0001:000053a0       ??1?$basic_istringstream@DU?$char_traits@D@std@@V?$allocator@D@2@@std@@UAE@XZ 040063a0 f i MQ2EQBC.obj
 0001:00005410       ?overflow@?$basic_stringbuf@DU?$char_traits@D@std@@V?$allocator@D@2@@std@@MAEHH@Z 04006410 f i MQ2EQBC.obj
 0001:000055e0       ??Citerator@?$_Tree@V?$_Tmap_traits@V?$basic_string@DU?$char_traits@D@std@@V?$allocator@D@2@@std@@V12@U?$less@V?$basic_string@DU?$char_traits@D@std@@V?$allocator@D@2@@std@@@2@V?$allocator@U?$pair@$$CBV?$basic_string@DU?$char_traits@D@std@@V?$allocator@D@2@@std@@V12@@std@@@2@$0A@@std@@@std@@QBEPAU?$pair@$$CBV?$basic_string@DU?$char_traits@D@std@@V?$allocator@D@2@@std@@V12@@2@XZ 040065e0 f i MQ2EQBC.obj
 0001:00005610       ??Eiterator@?$_Tree@V?$_Tmap_traits@V?$basic_string@DU?$char_traits@D@std@@V?$allocator@D@2@@std@@V12@U?$less@V?$basic_string@DU?$char_traits@D@std@@V?$allocator@D@2@@std@@@2@V?$allocator@U?$pair@$$CBV?$basic_string@DU?$char_traits@D@std@@V?$allocator@D@2@@std@@V12@@std@@@2@$0A@@std@@@std@@QAEAAV012@XZ 04006610 f i MQ2EQBC.obj
 0001:00005620       ??1?$_Vector_val@V?$basic_string@DU?$char_traits@D@std@@V?$allocator@D@2@@std@@V?$allocator@V?$basic_string@DU?$char_traits@D@std@@V?$allocator@D@2@@std@@@2@@std@@QAE@XZ 04006620 f i MQ2EQBC.obj
 0001:00005630       ??1?$_Tmap_traits@V?$basic_string@DU?$char_traits@D@std@@V?$allocator@D@2@@std@@KU?$less@V?$basic_string@DU?$char_traits@D@std@@V?$allocator@D@2@@std@@@2@V?$allocator@U?$pair@$$CBV?$basic_string@DU?$char_traits@D@std@@V?$allocator@D@2@@std@@K@std@@@2@$0A@@std@@QAE@XZ 04006630 f i MQ2EQBC.obj
 0001:00005640       ??1?$_Tmap_traits@V?$basic_string@DU?$char_traits@D@std@@V?$allocator@D@2@@std@@V12@U?$less@V?$basic_string@DU?$char_traits@D@std@@V?$allocator@D@2@@std@@@2@V?$allocator@U?$pair@$$CBV?$basic_string@DU?$char_traits@D@std@@V?$allocator@D@2@@std@@V12@@std@@@2@$0A@@std@@QAE@XZ 04006640 f i MQ2EQBC.obj
 0001:00005650       ?_Tidy@?$basic_string@DU?$char_traits@D@std@@V?$allocator@D@2@@std@@IAEX_NI@Z 04006650 f i MQ2EQBC.obj
 0001:000056a0       ??H?$_Vector_iterator@V?$basic_string@DU?$char_traits@D@std@@V?$allocator@D@2@@std@@V?$allocator@V?$basic_string@DU?$char_traits@D@std@@V?$allocator@D@2@@std@@@2@@std@@QBE?AV01@H@Z 040066a0 f i MQ2EQBC.obj
 0001:000056e0       ??0iterator@?$_Tree@V?$_Tmap_traits@V?$basic_string@DU?$char_traits@D@std@@V?$allocator@D@2@@std@@V12@U?$less@V?$basic_string@DU?$char_traits@D@std@@V?$allocator@D@2@@std@@@2@V?$allocator@U?$pair@$$CBV?$basic_string@DU?$char_traits@D@std@@V?$allocator@D@2@@std@@V12@@std@@@2@$0A@@std@@@std@@QAE@PAU_Node@?$_Tree_nod@V?$_Tmap_traits@V?$basic_string@DU?$char_traits@D@std@@V?$allocator@D@2@@std@@V12@U?$less@V?$basic_string@DU?$char_traits@D@std@@V?$allocator@D@2@@std@@@2@V?$allocator@U?$pair@$$CBV?$basic_string@DU?$char_traits@D@std@@V?$allocator@D@2@@std@@V12@@std@@@2@$0A@@std@@@2@PBV12@@Z 040066e0 f i MQ2EQBC.obj
 0001:00005710       ??Fiterator@?$_Tree@V?$_Tmap_traits@V?$basic_string@DU?$char_traits@D@std@@V?$allocator@D@2@@std@@V12@U?$less@V?$basic_string@DU?$char_traits@D@std@@V?$allocator@D@2@@std@@@2@V?$allocator@U?$pair@$$CBV?$basic_string@DU?$char_traits@D@std@@V?$allocator@D@2@@std@@V12@@std@@@2@$0A@@std@@@std@@QAEAAV012@XZ 04006710 f i MQ2EQBC.obj
 0001:00005720       ??0const_iterator@?$_Tree@V?$_Tmap_traits@V?$basic_string@DU?$char_traits@D@std@@V?$allocator@D@2@@std@@V12@U?$less@V?$basic_string@DU?$char_traits@D@std@@V?$allocator@D@2@@std@@@2@V?$allocator@U?$pair@$$CBV?$basic_string@DU?$char_traits@D@std@@V?$allocator@D@2@@std@@V12@@std@@@2@$0A@@std@@@std@@QAE@XZ 04006720 f i MQ2EQBC.obj
 0001:00005730       ?erase@?$basic_string@DU?$char_traits@D@std@@V?$allocator@D@2@@std@@QAEAAV12@II@Z 04006730 f i MQ2EQBC.obj
 0001:000057c0       ??0?$_Container_base_aux_alloc_real@V?$allocator@V?$basic_string@DU?$char_traits@D@std@@V?$allocator@D@2@@std@@@std@@@std@@IAE@V?$allocator@V?$basic_string@DU?$char_traits@D@std@@V?$allocator@D@2@@std@@@1@@Z 040067c0 f i MQ2EQBC.obj
 0001:000057f0       ??0?$_Vector_const_iterator@V?$basic_string@DU?$char_traits@D@std@@V?$allocator@D@2@@std@@V?$allocator@V?$basic_string@DU?$char_traits@D@std@@V?$allocator@D@2@@std@@@2@@std@@QAE@PAV?$basic_string@DU?$char_traits@D@std@@V?$allocator@D@2@@1@PBV_Container_base_aux@1@@Z 040067f0 f i MQ2EQBC.obj
 0001:00005830       ?_Init@?$basic_stringbuf@DU?$char_traits@D@std@@V?$allocator@D@2@@std@@IAEXPBDIH@Z 04006830 f i MQ2EQBC.obj
 0001:000058e0       ??0iterator@?$_Tree@V?$_Tmap_traits@V?$basic_string@DU?$char_traits@D@std@@V?$allocator@D@2@@std@@KU?$less@V?$basic_string@DU?$char_traits@D@std@@V?$allocator@D@2@@std@@@2@V?$allocator@U?$pair@$$CBV?$basic_string@DU?$char_traits@D@std@@V?$allocator@D@2@@std@@K@std@@@2@$0A@@std@@@std@@QAE@PAU_Node@?$_Tree_nod@V?$_Tmap_traits@V?$basic_string@DU?$char_traits@D@std@@V?$allocator@D@2@@std@@KU?$less@V?$basic_string@DU?$char_traits@D@std@@V?$allocator@D@2@@std@@@2@V?$allocator@U?$pair@$$CBV?$basic_string@DU?$char_traits@D@std@@V?$allocator@D@2@@std@@K@std@@@2@$0A@@std@@@2@PBV12@@Z 040068e0 f i MQ2EQBC.obj
 0001:00005910       ??0const_iterator@?$_Tree@V?$_Tmap_traits@V?$basic_string@DU?$char_traits@D@std@@V?$allocator@D@2@@std@@KU?$less@V?$basic_string@DU?$char_traits@D@std@@V?$allocator@D@2@@std@@@2@V?$allocator@U?$pair@$$CBV?$basic_string@DU?$char_traits@D@std@@V?$allocator@D@2@@std@@K@std@@@2@$0A@@std@@@std@@QAE@XZ 04006910 f i MQ2EQBC.obj
 0001:00005920       ??Econst_iterator@?$_Tree@V?$_Tmap_traits@V?$basic_string@DU?$char_traits@D@std@@V?$allocator@D@2@@std@@KU?$less@V?$basic_string@DU?$char_traits@D@std@@V?$allocator@D@2@@std@@@2@V?$allocator@U?$pair@$$CBV?$basic_string@DU?$char_traits@D@std@@V?$allocator@D@2@@std@@K@std@@@2@$0A@@std@@@std@@QAEAAV012@XZ 04006920 f i MQ2EQBC.obj
 0001:00005930       ??Fconst_iterator@?$_Tree@V?$_Tmap_traits@V?$basic_string@DU?$char_traits@D@std@@V?$allocator@D@2@@std@@KU?$less@V?$basic_string@DU?$char_traits@D@std@@V?$allocator@D@2@@std@@@2@V?$allocator@U?$pair@$$CBV?$basic_string@DU?$char_traits@D@std@@V?$allocator@D@2@@std@@K@std@@@2@$0A@@std@@@std@@QAEAAV012@XZ 04006930 f i MQ2EQBC.obj
 0001:00005940       ?_Copy@?$basic_string@DU?$char_traits@D@std@@V?$allocator@D@2@@std@@IAEXII@Z 04006940 f i MQ2EQBC.obj
 0001:00005a80       ?_Make_iter@?$_Tree@V?$_Tmap_traits@V?$basic_string@DU?$char_traits@D@std@@V?$allocator@D@2@@std@@KU?$less@V?$basic_string@DU?$char_traits@D@std@@V?$allocator@D@2@@std@@@2@V?$allocator@U?$pair@$$CBV?$basic_string@DU?$char_traits@D@std@@V?$allocator@D@2@@std@@K@std@@@2@$0A@@std@@@std@@QBE?AViterator@12@Vconst_iterator@12@@Z 04006a80 f i MQ2EQBC.obj
 0001:00005ab0       ?_Buynode@?$_Tree@V?$_Tmap_traits@V?$basic_string@DU?$char_traits@D@std@@V?$allocator@D@2@@std@@KU?$less@V?$basic_string@DU?$char_traits@D@std@@V?$allocator@D@2@@std@@@2@V?$allocator@U?$pair@$$CBV?$basic_string@DU?$char_traits@D@std@@V?$allocator@D@2@@std@@K@std@@@2@$0A@@std@@@std@@IAEPAU_Node@?$_Tree_nod@V?$_Tmap_traits@V?$basic_string@DU?$char_traits@D@std@@V?$allocator@D@2@@std@@KU?$less@V?$basic_string@DU?$char_traits@D@std@@V?$allocator@D@2@@std@@@2@V?$allocator@U?$pair@$$CBV?$basic_string@DU?$char_traits@D@std@@V?$allocator@D@2@@std@@K@std@@@2@$0A@@std@@@2@XZ 04006ab0 f i MQ2EQBC.obj
 0001:00005af0       ?_Buynode@?$_Tree@V?$_Tmap_traits@V?$basic_string@DU?$char_traits@D@std@@V?$allocator@D@2@@std@@V12@U?$less@V?$basic_string@DU?$char_traits@D@std@@V?$allocator@D@2@@std@@@2@V?$allocator@U?$pair@$$CBV?$basic_string@DU?$char_traits@D@std@@V?$allocator@D@2@@std@@V12@@std@@@2@$0A@@std@@@std@@IAEPAU_Node@?$_Tree_nod@V?$_Tmap_traits@V?$basic_string@DU?$char_traits@D@std@@V?$allocator@D@2@@std@@V12@U?$less@V?$basic_string@DU?$char_traits@D@std@@V?$allocator@D@2@@std@@@2@V?$allocator@U?$pair@$$CBV?$basic_string@DU?$char_traits@D@std@@V?$allocator@D@2@@std@@V12@@std@@@2@$0A@@std@@@2@XZ 04006af0 f i MQ2EQBC.obj
 0001:00005b30       ??D?$istreambuf_iterator@DU?$char_traits@D@std@@@std@@QBEDXZ 04006b30 f i MQ2EQBC.obj
 0001:00005b50       ??E?$istreambuf_iterator@DU?$char_traits@D@std@@@std@@QAEAAV01@XZ 04006b50 f i MQ2EQBC.obj
 0001:00005ba0       ??Fiterator@?$_Tree@V?$_Tmap_traits@V?$basic_string@DU?$char_traits@D@std@@V?$allocator@D@2@@std@@KU?$less@V?$basic_string@DU?$char_traits@D@std@@V?$allocator@D@2@@std@@@2@V?$allocator@U?$pair@$$CBV?$basic_string@DU?$char_traits@D@std@@V?$allocator@D@2@@std@@K@std@@@2@$0A@@std@@@std@@QAEAAV012@XZ 04006ba0 f i MQ2EQBC.obj
 0001:00005bb0       ??Econst_iterator@?$_Tree@V?$_Tmap_traits@V?$basic_string@DU?$char_traits@D@std@@V?$allocator@D@2@@std@@KU?$less@V?$basic_string@DU?$char_traits@D@std@@V?$allocator@D@2@@std@@@2@V?$allocator@U?$pair@$$CBV?$basic_string@DU?$char_traits@D@std@@V?$allocator@D@2@@std@@K@std@@@2@$0A@@std@@@std@@QAE?AV012@H@Z 04006bb0 f i MQ2EQBC.obj
 0001:00005bd0       ??0?$_Tmap_traits@V?$basic_string@DU?$char_traits@D@std@@V?$allocator@D@2@@std@@KU?$less@V?$basic_string@DU?$char_traits@D@std@@V?$allocator@D@2@@std@@@2@V?$allocator@U?$pair@$$CBV?$basic_string@DU?$char_traits@D@std@@V?$allocator@D@2@@std@@K@std@@@2@$0A@@std@@QAE@U?$less@V?$basic_string@DU?$char_traits@D@std@@V?$allocator@D@2@@std@@@1@V?$allocator@U?$pair@$$CBV?$basic_string@DU?$char_traits@D@std@@V?$allocator@D@2@@std@@K@std@@@1@@Z 04006bd0 f i MQ2EQBC.obj
 0001:00005c00       ??0?$_Tmap_traits@V?$basic_string@DU?$char_traits@D@std@@V?$allocator@D@2@@std@@V12@U?$less@V?$basic_string@DU?$char_traits@D@std@@V?$allocator@D@2@@std@@@2@V?$allocator@U?$pair@$$CBV?$basic_string@DU?$char_traits@D@std@@V?$allocator@D@2@@std@@V12@@std@@@2@$0A@@std@@QAE@U?$less@V?$basic_string@DU?$char_traits@D@std@@V?$allocator@D@2@@std@@@1@V?$allocator@U?$pair@$$CBV?$basic_string@DU?$char_traits@D@std@@V?$allocator@D@2@@std@@V12@@std@@@1@@Z 04006c00 f i MQ2EQBC.obj
 0001:00005c30       ??$?8DU?$char_traits@D@std@@V?$allocator@D@1@@std@@YA_NABV?$basic_string@DU?$char_traits@D@std@@V?$allocator@D@2@@0@PBD@Z 04006c30 f i MQ2EQBC.obj
 0001:00005c70       ??$?8DU?$char_traits@D@std@@V?$allocator@D@1@@std@@YA_NABV?$basic_string@DU?$char_traits@D@std@@V?$allocator@D@2@@0@0@Z 04006c70 f i MQ2EQBC.obj
 0001:00005ca0       ??$?MDU?$char_traits@D@std@@V?$allocator@D@1@@std@@YA_NABV?$basic_string@DU?$char_traits@D@std@@V?$allocator@D@2@@0@0@Z 04006ca0 f i MQ2EQBC.obj
 0001:00005cd0       ??$?8DU?$char_traits@D@std@@@std@@YA_NABV?$istreambuf_iterator@DU?$char_traits@D@std@@@0@0@Z 04006cd0 f i MQ2EQBC.obj
 0001:00005d10       ??$?9DU?$char_traits@D@std@@@std@@YA_NABV?$istreambuf_iterator@DU?$char_traits@D@std@@@0@0@Z 04006d10 f i MQ2EQBC.obj
 0001:00005d70       ??0?$numpunct@D@std@@QAE@ABV_Locinfo@1@I_N@Z 04006d70 f i MQ2EQBC.obj
 0001:00005dd0       ?do_decimal_point@?$numpunct@D@std@@MBEDXZ 04006dd0 f i MQ2EQBC.obj
 0001:00005de0       ?do_thousands_sep@?$numpunct@D@std@@MBEDXZ 04006de0 f i MQ2EQBC.obj
 0001:00005df0       ??1?$numpunct@D@std@@MAE@XZ 04006df0 f i MQ2EQBC.obj
 0001:00005e20       ??_E?$numpunct@D@std@@MAEPAXI@Z 04006e20 f i MQ2EQBC.obj
 0001:00005e20       ??_G?$numpunct@D@std@@MAEPAXI@Z 04006e20 f i MQ2EQBC.obj
 0001:00005e70       ??_D?$basic_istringstream@DU?$char_traits@D@std@@V?$allocator@D@2@@std@@QAEXXZ 04006e70 f i MQ2EQBC.obj
 0001:00005e90       ??0?$basic_string@DU?$char_traits@D@std@@V?$allocator@D@2@@std@@QAE@XZ 04006e90 f i MQ2EQBC.obj
 0001:00005eb0       ??1?$basic_string@DU?$char_traits@D@std@@V?$allocator@D@2@@std@@QAE@XZ 04006eb0 f i MQ2EQBC.obj
 0001:00005ee0       ?begin@?$_Tree@V?$_Tmap_traits@V?$basic_string@DU?$char_traits@D@std@@V?$allocator@D@2@@std@@V12@U?$less@V?$basic_string@DU?$char_traits@D@std@@V?$allocator@D@2@@std@@@2@V?$allocator@U?$pair@$$CBV?$basic_string@DU?$char_traits@D@std@@V?$allocator@D@2@@std@@V12@@std@@@2@$0A@@std@@@std@@QAE?AViterator@12@XZ 04006ee0 f i MQ2EQBC.obj
 0001:00005f00       ?end@?$_Tree@V?$_Tmap_traits@V?$basic_string@DU?$char_traits@D@std@@V?$allocator@D@2@@std@@V12@U?$less@V?$basic_string@DU?$char_traits@D@std@@V?$allocator@D@2@@std@@@2@V?$allocator@U?$pair@$$CBV?$basic_string@DU?$char_traits@D@std@@V?$allocator@D@2@@std@@V12@@std@@@2@$0A@@std@@@std@@QAE?AViterator@12@XZ 04006f00 f i MQ2EQBC.obj
 0001:00005f20       ??0iterator@?$_Tree@V?$_Tmap_traits@V?$basic_string@DU?$char_traits@D@std@@V?$allocator@D@2@@std@@V12@U?$less@V?$basic_string@DU?$char_traits@D@std@@V?$allocator@D@2@@std@@@2@V?$allocator@U?$pair@$$CBV?$basic_string@DU?$char_traits@D@std@@V?$allocator@D@2@@std@@V12@@std@@@2@$0A@@std@@@std@@QAE@XZ 04006f20 f i MQ2EQBC.obj
 0001:00005f30       ??0?$pair@V?$basic_string@DU?$char_traits@D@std@@V?$allocator@D@2@@std@@V12@@std@@QAE@XZ 04006f30 f i MQ2EQBC.obj
 0001:00005f50       ??1?$pair@$$CBV?$basic_string@DU?$char_traits@D@std@@V?$allocator@D@2@@std@@K@std@@QAE@XZ 04006f50 f i MQ2EQBC.obj
 0001:00005f80       ??_G?$basic_istringstream@DU?$char_traits@D@std@@V?$allocator@D@2@@std@@UAEPAXI@Z 04006f80 f i MQ2EQBC.obj
 0001:00005f80       ??_E?$basic_istringstream@DU?$char_traits@D@std@@V?$allocator@D@2@@std@@UAEPAXI@Z 04006f80 f i MQ2EQBC.obj
 0001:00005fc0       ??1?$_Tree_nod@V?$_Tmap_traits@V?$basic_string@DU?$char_traits@D@std@@V?$allocator@D@2@@std@@KU?$less@V?$basic_string@DU?$char_traits@D@std@@V?$allocator@D@2@@std@@@2@V?$allocator@U?$pair@$$CBV?$basic_string@DU?$char_traits@D@std@@V?$allocator@D@2@@std@@K@std@@@2@$0A@@std@@@std@@QAE@XZ 04006fc0 f i MQ2EQBC.obj
 0001:00005fd0       ??1?$_Tree_nod@V?$_Tmap_traits@V?$basic_string@DU?$char_traits@D@std@@V?$allocator@D@2@@std@@V12@U?$less@V?$basic_string@DU?$char_traits@D@std@@V?$allocator@D@2@@std@@@2@V?$allocator@U?$pair@$$CBV?$basic_string@DU?$char_traits@D@std@@V?$allocator@D@2@@std@@V12@@std@@@2@$0A@@std@@@std@@QAE@XZ 04006fd0 f i MQ2EQBC.obj
 0001:00005fe0       ?end@?$_Tree@V?$_Tmap_traits@V?$basic_string@DU?$char_traits@D@std@@V?$allocator@D@2@@std@@KU?$less@V?$basic_string@DU?$char_traits@D@std@@V?$allocator@D@2@@std@@@2@V?$allocator@U?$pair@$$CBV?$basic_string@DU?$char_traits@D@std@@V?$allocator@D@2@@std@@K@std@@@2@$0A@@std@@@std@@QAE?AViterator@12@XZ 04006fe0 f i MQ2EQBC.obj
 0001:00006000       ??R?$less@V?$basic_string@DU?$char_traits@D@std@@V?$allocator@D@2@@std@@@std@@QBE_NABV?$basic_string@DU?$char_traits@D@std@@V?$allocator@D@2@@1@0@Z 04007000 f i MQ2EQBC.obj
 0001:00006040       ??0?$_Vector_val@V?$basic_string@DU?$char_traits@D@std@@V?$allocator@D@2@@std@@V?$allocator@V?$basic_string@DU?$char_traits@D@std@@V?$allocator@D@2@@std@@@2@@std@@IAE@V?$allocator@V?$basic_string@DU?$char_traits@D@std@@V?$allocator@D@2@@std@@@1@@Z 04007040 f i MQ2EQBC.obj
 0001:00006070       ??0?$_Vector_iterator@V?$basic_string@DU?$char_traits@D@std@@V?$allocator@D@2@@std@@V?$allocator@V?$basic_string@DU?$char_traits@D@std@@V?$allocator@D@2@@std@@@2@@std@@QAE@PAV?$basic_string@DU?$char_traits@D@std@@V?$allocator@D@2@@1@PBV_Container_base_aux@1@@Z 04007070 f i MQ2EQBC.obj
 0001:000060b0       ??0?$basic_stringbuf@DU?$char_traits@D@std@@V?$allocator@D@2@@std@@QAE@ABV?$basic_string@DU?$char_traits@D@std@@V?$allocator@D@2@@1@H@Z 040070b0 f i MQ2EQBC.obj
 0001:00006140       ?_Make_iter@?$_Tree@V?$_Tmap_traits@V?$basic_string@DU?$char_traits@D@std@@V?$allocator@D@2@@std@@V12@U?$less@V?$basic_string@DU?$char_traits@D@std@@V?$allocator@D@2@@std@@@2@V?$allocator@U?$pair@$$CBV?$basic_string@DU?$char_traits@D@std@@V?$allocator@D@2@@std@@V12@@std@@@2@$0A@@std@@@std@@QBE?AViterator@12@Vconst_iterator@12@@Z 04007140 f i MQ2EQBC.obj
 0001:00006170       ?_Grow@?$basic_string@DU?$char_traits@D@std@@V?$allocator@D@2@@std@@IAE_NI_N@Z 04007170 f i MQ2EQBC.obj
 0001:00006230       ?begin@?$_Tree@V?$_Tmap_traits@V?$basic_string@DU?$char_traits@D@std@@V?$allocator@D@2@@std@@KU?$less@V?$basic_string@DU?$char_traits@D@std@@V?$allocator@D@2@@std@@@2@V?$allocator@U?$pair@$$CBV?$basic_string@DU?$char_traits@D@std@@V?$allocator@D@2@@std@@K@std@@@2@$0A@@std@@@std@@QAE?AViterator@12@XZ 04007230 f i MQ2EQBC.obj
 0001:00006250       ?_Init@?$_Tree@V?$_Tmap_traits@V?$basic_string@DU?$char_traits@D@std@@V?$allocator@D@2@@std@@KU?$less@V?$basic_string@DU?$char_traits@D@std@@V?$allocator@D@2@@std@@@2@V?$allocator@U?$pair@$$CBV?$basic_string@DU?$char_traits@D@std@@V?$allocator@D@2@@std@@K@std@@@2@$0A@@std@@@std@@IAEXXZ 04007250 f i MQ2EQBC.obj
 0001:00006280       ?_Lbound@?$_Tree@V?$_Tmap_traits@V?$basic_string@DU?$char_traits@D@std@@V?$allocator@D@2@@std@@KU?$less@V?$basic_string@DU?$char_traits@D@std@@V?$allocator@D@2@@std@@@2@V?$allocator@U?$pair@$$CBV?$basic_string@DU?$char_traits@D@std@@V?$allocator@D@2@@std@@K@std@@@2@$0A@@std@@@std@@IBEPAU_Node@?$_Tree_nod@V?$_Tmap_traits@V?$basic_string@DU?$char_traits@D@std@@V?$allocator@D@2@@std@@KU?$less@V?$basic_string@DU?$char_traits@D@std@@V?$allocator@D@2@@std@@@2@V?$allocator@U?$pair@$$CBV?$basic_string@DU?$char_traits@D@std@@V?$allocator@D@2@@std@@K@std@@@2@$0A@@std@@@2@ABV?$basic_string@DU?$char_traits@D@std@@V?$allocator@D@2@@2@@Z 04007280 f i MQ2EQBC.obj
 0001:00006310       ?_Init@?$_Tree@V?$_Tmap_traits@V?$basic_string@DU?$char_traits@D@std@@V?$allocator@D@2@@std@@V12@U?$less@V?$basic_string@DU?$char_traits@D@std@@V?$allocator@D@2@@std@@@2@V?$allocator@U?$pair@$$CBV?$basic_string@DU?$char_traits@D@std@@V?$allocator@D@2@@std@@V12@@std@@@2@$0A@@std@@@std@@IAEXXZ 04007310 f i MQ2EQBC.obj
 0001:00006340       ?_Lbound@?$_Tree@V?$_Tmap_traits@V?$basic_string@DU?$char_traits@D@std@@V?$allocator@D@2@@std@@V12@U?$less@V?$basic_string@DU?$char_traits@D@std@@V?$allocator@D@2@@std@@@2@V?$allocator@U?$pair@$$CBV?$basic_string@DU?$char_traits@D@std@@V?$allocator@D@2@@std@@V12@@std@@@2@$0A@@std@@@std@@IBEPAU_Node@?$_Tree_nod@V?$_Tmap_traits@V?$basic_string@DU?$char_traits@D@std@@V?$allocator@D@2@@std@@V12@U?$less@V?$basic_string@DU?$char_traits@D@std@@V?$allocator@D@2@@std@@@2@V?$allocator@U?$pair@$$CBV?$basic_string@DU?$char_traits@D@std@@V?$allocator@D@2@@std@@V12@@std@@@2@$0A@@std@@@2@ABV?$basic_string@DU?$char_traits@D@std@@V?$allocator@D@2@@2@@Z 04007340 f i MQ2EQBC.obj
 0001:000063d0       ?falsename@?$numpunct@D@std@@QBE?AV?$basic_string@DU?$char_traits@D@std@@V?$allocator@D@2@@2@XZ 040073d0 f i MQ2EQBC.obj
 0001:000063f0       ?truename@?$numpunct@D@std@@QBE?AV?$basic_string@DU?$char_traits@D@std@@V?$allocator@D@2@@2@XZ 040073f0 f i MQ2EQBC.obj
 0001:00006410       ?assign@?$basic_string@DU?$char_traits@D@std@@V?$allocator@D@2@@std@@QAEAAV12@ID@Z 04007410 f i MQ2EQBC.obj
 0001:000064a0       ?grouping@?$numpunct@D@std@@QBE?AV?$basic_string@DU?$char_traits@D@std@@V?$allocator@D@2@@2@XZ 040074a0 f i MQ2EQBC.obj
 0001:000064c0       ?append@?$basic_string@DU?$char_traits@D@std@@V?$allocator@D@2@@std@@QAEAAV12@ABV12@II@Z 040074c0 f i MQ2EQBC.obj
 0001:000065c0       ??0?$_Tree_nod@V?$_Tmap_traits@V?$basic_string@DU?$char_traits@D@std@@V?$allocator@D@2@@std@@KU?$less@V?$basic_string@DU?$char_traits@D@std@@V?$allocator@D@2@@std@@@2@V?$allocator@U?$pair@$$CBV?$basic_string@DU?$char_traits@D@std@@V?$allocator@D@2@@std@@K@std@@@2@$0A@@std@@@std@@IAE@ABU?$less@V?$basic_string@DU?$char_traits@D@std@@V?$allocator@D@2@@std@@@1@V?$allocator@U?$pair@$$CBV?$basic_string@DU?$char_traits@D@std@@V?$allocator@D@2@@std@@K@std@@@1@@Z 040075c0 f i MQ2EQBC.obj
 0001:000065f0       ??0?$_Tree_nod@V?$_Tmap_traits@V?$basic_string@DU?$char_traits@D@std@@V?$allocator@D@2@@std@@V12@U?$less@V?$basic_string@DU?$char_traits@D@std@@V?$allocator@D@2@@std@@@2@V?$allocator@U?$pair@$$CBV?$basic_string@DU?$char_traits@D@std@@V?$allocator@D@2@@std@@V12@@std@@@2@$0A@@std@@@std@@IAE@ABU?$less@V?$basic_string@DU?$char_traits@D@std@@V?$allocator@D@2@@std@@@1@V?$allocator@U?$pair@$$CBV?$basic_string@DU?$char_traits@D@std@@V?$allocator@D@2@@std@@V12@@std@@@1@@Z 040075f0 f i MQ2EQBC.obj
 0001:00006620       ??1_Node@?$_Tree_nod@V?$_Tmap_traits@V?$basic_string@DU?$char_traits@D@std@@V?$allocator@D@2@@std@@KU?$less@V?$basic_string@DU?$char_traits@D@std@@V?$allocator@D@2@@std@@@2@V?$allocator@U?$pair@$$CBV?$basic_string@DU?$char_traits@D@std@@V?$allocator@D@2@@std@@K@std@@@2@$0A@@std@@@std@@QAE@XZ 04007620 f i MQ2EQBC.obj
 0001:00006650       ??_G?$basic_string@DU?$char_traits@D@std@@V?$allocator@D@2@@std@@QAEPAXI@Z 04007650 f i MQ2EQBC.obj
 0001:00006690       ??1logic_error@std@@UAE@XZ 04007690 f i MQ2EQBC.obj
 0001:000066d0       ?what@logic_error@std@@UBEPBDXZ 040076d0 f i MQ2EQBC.obj
 0001:000066e0       ??_Glogic_error@std@@UAEPAXI@Z 040076e0 f i MQ2EQBC.obj
 0001:000066e0       ??_Elogic_error@std@@UAEPAXI@Z 040076e0 f i MQ2EQBC.obj
 0001:00006730       ??1runtime_error@std@@UAE@XZ 04007730 f i MQ2EQBC.obj
 0001:00006770       ?what@runtime_error@std@@UBEPBDXZ 04007770 f i MQ2EQBC.obj
 0001:00006780       ??_Eruntime_error@std@@UAEPAXI@Z 04007780 f i MQ2EQBC.obj
 0001:00006780       ??_Gruntime_error@std@@UAEPAXI@Z 04007780 f i MQ2EQBC.obj
 0001:000067d0       ??0_Locinfo@std@@QAE@ABV?$basic_string@DU?$char_traits@D@std@@V?$allocator@D@2@@1@@Z 040077d0 f i MQ2EQBC.obj
 0001:00006850       ??1_Locinfo@std@@QAE@XZ    04007850 f i MQ2EQBC.obj
 0001:00006920       ?StringIsBool@@YA_NV?$basic_string@DU?$char_traits@D@std@@V?$allocator@D@2@@std@@@Z 04007920 f   MQ2EQBC.obj
 0001:00006a20       ?StringToBool@@YA_NV?$basic_string@DU?$char_traits@D@std@@V?$allocator@D@2@@std@@@Z 04007a20 f   MQ2EQBC.obj
 0001:00006ac0       ??1?$pair@V?$basic_string@DU?$char_traits@D@std@@V?$allocator@D@2@@std@@V12@@std@@QAE@XZ 04007ac0 f i MQ2EQBC.obj
 0001:00006b10       ??1?$pair@$$CBV?$basic_string@DU?$char_traits@D@std@@V?$allocator@D@2@@std@@V12@@std@@QAE@XZ 04007b10 f i MQ2EQBC.obj
 0001:00006b60       ?sendGlobalVarPacket@@YAXV?$basic_string@DU?$char_traits@D@std@@V?$allocator@D@2@@std@@00@Z 04007b60 f   MQ2EQBC.obj
 0001:00006da0       ?begin@?$vector@V?$basic_string@DU?$char_traits@D@std@@V?$allocator@D@2@@std@@V?$allocator@V?$basic_string@DU?$char_traits@D@std@@V?$allocator@D@2@@std@@@2@@std@@QAE?AV?$_Vector_iterator@V?$basic_string@DU?$char_traits@D@std@@V?$allocator@D@2@@std@@V?$allocator@V?$basic_string@DU?$char_traits@D@std@@V?$allocator@D@2@@std@@@2@@2@XZ 04007da0 f i MQ2EQBC.obj
 0001:00006dd0       ?front@?$vector@V?$basic_string@DU?$char_traits@D@std@@V?$allocator@D@2@@std@@V?$allocator@V?$basic_string@DU?$char_traits@D@std@@V?$allocator@D@2@@std@@@2@@std@@QAEAAV?$basic_string@DU?$char_traits@D@std@@V?$allocator@D@2@@2@XZ 04007dd0 f i MQ2EQBC.obj
 0001:00006e00       ??1?$_Tree_ptr@V?$_Tmap_traits@V?$basic_string@DU?$char_traits@D@std@@V?$allocator@D@2@@std@@KU?$less@V?$basic_string@DU?$char_traits@D@std@@V?$allocator@D@2@@std@@@2@V?$allocator@U?$pair@$$CBV?$basic_string@DU?$char_traits@D@std@@V?$allocator@D@2@@std@@K@std@@@2@$0A@@std@@@std@@QAE@XZ 04007e00 f i MQ2EQBC.obj
 0001:00006e10       ??1?$_Tree_ptr@V?$_Tmap_traits@V?$basic_string@DU?$char_traits@D@std@@V?$allocator@D@2@@std@@V12@U?$less@V?$basic_string@DU?$char_traits@D@std@@V?$allocator@D@2@@std@@@2@V?$allocator@U?$pair@$$CBV?$basic_string@DU?$char_traits@D@std@@V?$allocator@D@2@@std@@V12@@std@@@2@$0A@@std@@@std@@QAE@XZ 04007e10 f i MQ2EQBC.obj
 0001:00006e20       ?append@?$basic_string@DU?$char_traits@D@std@@V?$allocator@D@2@@std@@QAEAAV12@ID@Z 04007e20 f i MQ2EQBC.obj
 0001:00006ed0       ?assign@?$basic_string@DU?$char_traits@D@std@@V?$allocator@D@2@@std@@QAEAAV12@ABV12@II@Z 04007ed0 f i MQ2EQBC.obj
 0001:00006fb0       ?lower_bound@?$_Tree@V?$_Tmap_traits@V?$basic_string@DU?$char_traits@D@std@@V?$allocator@D@2@@std@@KU?$less@V?$basic_string@DU?$char_traits@D@std@@V?$allocator@D@2@@std@@@2@V?$allocator@U?$pair@$$CBV?$basic_string@DU?$char_traits@D@std@@V?$allocator@D@2@@std@@K@std@@@2@$0A@@std@@@std@@QAE?AViterator@12@ABV?$basic_string@DU?$char_traits@D@std@@V?$allocator@D@2@@2@@Z 04007fb0 f i MQ2EQBC.obj
 0001:00006fe0       ?lower_bound@?$_Tree@V?$_Tmap_traits@V?$basic_string@DU?$char_traits@D@std@@V?$allocator@D@2@@std@@V12@U?$less@V?$basic_string@DU?$char_traits@D@std@@V?$allocator@D@2@@std@@@2@V?$allocator@U?$pair@$$CBV?$basic_string@DU?$char_traits@D@std@@V?$allocator@D@2@@std@@V12@@std@@@2@$0A@@std@@@std@@QAE?AViterator@12@ABV?$basic_string@DU?$char_traits@D@std@@V?$allocator@D@2@@2@@Z 04007fe0 f i MQ2EQBC.obj
 0001:00007010       ??0?$basic_string@DU?$char_traits@D@std@@V?$allocator@D@2@@std@@QAE@ID@Z 04008010 f i MQ2EQBC.obj
 0001:00007040       ?assign@?$basic_string@DU?$char_traits@D@std@@V?$allocator@D@2@@std@@QAEAAV12@PBDI@Z 04008040 f i MQ2EQBC.obj
 0001:00007120       ?append@?$basic_string@DU?$char_traits@D@std@@V?$allocator@D@2@@std@@QAEAAV12@ABV12@@Z 04008120 f i MQ2EQBC.obj
 0001:00007140       ??0?$_Tree_ptr@V?$_Tmap_traits@V?$basic_string@DU?$char_traits@D@std@@V?$allocator@D@2@@std@@KU?$less@V?$basic_string@DU?$char_traits@D@std@@V?$allocator@D@2@@std@@@2@V?$allocator@U?$pair@$$CBV?$basic_string@DU?$char_traits@D@std@@V?$allocator@D@2@@std@@K@std@@@2@$0A@@std@@@std@@IAE@ABU?$less@V?$basic_string@DU?$char_traits@D@std@@V?$allocator@D@2@@std@@@1@V?$allocator@U?$pair@$$CBV?$basic_string@DU?$char_traits@D@std@@V?$allocator@D@2@@std@@K@std@@@1@@Z 04008140 f i MQ2EQBC.obj
 0001:00007170       ??0?$_Tree_ptr@V?$_Tmap_traits@V?$basic_string@DU?$char_traits@D@std@@V?$allocator@D@2@@std@@V12@U?$less@V?$basic_string@DU?$char_traits@D@std@@V?$allocator@D@2@@std@@@2@V?$allocator@U?$pair@$$CBV?$basic_string@DU?$char_traits@D@std@@V?$allocator@D@2@@std@@V12@@std@@@2@$0A@@std@@@std@@IAE@ABU?$less@V?$basic_string@DU?$char_traits@D@std@@V?$allocator@D@2@@std@@@1@V?$allocator@U?$pair@$$CBV?$basic_string@DU?$char_traits@D@std@@V?$allocator@D@2@@std@@V12@@std@@@1@@Z 04008170 f i MQ2EQBC.obj
 0001:000071a0       ??$_Getloctxt@DV?$istreambuf_iterator@DU?$char_traits@D@std@@@std@@@std@@YAHAAV?$istreambuf_iterator@DU?$char_traits@D@std@@@0@0IPBD@Z 040081a0 f i MQ2EQBC.obj
 0001:00007530       ??_G_Node@?$_Tree_nod@V?$_Tmap_traits@V?$basic_string@DU?$char_traits@D@std@@V?$allocator@D@2@@std@@KU?$less@V?$basic_string@DU?$char_traits@D@std@@V?$allocator@D@2@@std@@@2@V?$allocator@U?$pair@$$CBV?$basic_string@DU?$char_traits@D@std@@V?$allocator@D@2@@std@@K@std@@@2@$0A@@std@@@std@@QAEPAXI@Z 04008530 f i MQ2EQBC.obj
 0001:00007570       ??1_Node@?$_Tree_nod@V?$_Tmap_traits@V?$basic_string@DU?$char_traits@D@std@@V?$allocator@D@2@@std@@V12@U?$less@V?$basic_string@DU?$char_traits@D@std@@V?$allocator@D@2@@std@@@2@V?$allocator@U?$pair@$$CBV?$basic_string@DU?$char_traits@D@std@@V?$allocator@D@2@@std@@V12@@std@@@2@$0A@@std@@@std@@QAE@XZ 04008570 f i MQ2EQBC.obj
 0001:000075c0       ??$_Destroy@V?$basic_string@DU?$char_traits@D@std@@V?$allocator@D@2@@std@@@std@@YAXPAV?$basic_string@DU?$char_traits@D@std@@V?$allocator@D@2@@0@@Z 040085c0 f i MQ2EQBC.obj
 0001:000075f0       ??0?$basic_string@DU?$char_traits@D@std@@V?$allocator@D@2@@std@@QAE@ABV01@@Z 040085f0 f i MQ2EQBC.obj
 0001:00007620       ??Y?$basic_string@DU?$char_traits@D@std@@V?$allocator@D@2@@std@@QAEAAV01@D@Z 04008620 f i MQ2EQBC.obj
 0001:00007630       ?find@?$_Tree@V?$_Tmap_traits@V?$basic_string@DU?$char_traits@D@std@@V?$allocator@D@2@@std@@V12@U?$less@V?$basic_string@DU?$char_traits@D@std@@V?$allocator@D@2@@std@@@2@V?$allocator@U?$pair@$$CBV?$basic_string@DU?$char_traits@D@std@@V?$allocator@D@2@@std@@V12@@std@@@2@$0A@@std@@@std@@QAE?AViterator@12@ABV?$basic_string@DU?$char_traits@D@std@@V?$allocator@D@2@@2@@Z 04008630 f i MQ2EQBC.obj
 0001:000076c0       ??1?$_Tree_val@V?$_Tmap_traits@V?$basic_string@DU?$char_traits@D@std@@V?$allocator@D@2@@std@@KU?$less@V?$basic_string@DU?$char_traits@D@std@@V?$allocator@D@2@@std@@@2@V?$allocator@U?$pair@$$CBV?$basic_string@DU?$char_traits@D@std@@V?$allocator@D@2@@std@@K@std@@@2@$0A@@std@@@std@@QAE@XZ 040086c0 f i MQ2EQBC.obj
 0001:000076d0       ??1?$_Tree_val@V?$_Tmap_traits@V?$basic_string@DU?$char_traits@D@std@@V?$allocator@D@2@@std@@V12@U?$less@V?$basic_string@DU?$char_traits@D@std@@V?$allocator@D@2@@std@@@2@V?$allocator@U?$pair@$$CBV?$basic_string@DU?$char_traits@D@std@@V?$allocator@D@2@@std@@V12@@std@@@2@$0A@@std@@@std@@QAE@XZ 040086d0 f i MQ2EQBC.obj
 0001:000076e0       ?assign@?$basic_string@DU?$char_traits@D@std@@V?$allocator@D@2@@std@@QAEAAV12@ABV12@@Z 040086e0 f i MQ2EQBC.obj
 0001:00007700       ?assign@?$basic_string@DU?$char_traits@D@std@@V?$allocator@D@2@@std@@QAEAAV12@PBD@Z 04008700 f i MQ2EQBC.obj
 0001:00007730       ??0?$pair@$$CBV?$basic_string@DU?$char_traits@D@std@@V?$allocator@D@2@@std@@K@std@@QAE@ABV?$basic_string@DU?$char_traits@D@std@@V?$allocator@D@2@@1@ABK@Z 04008730 f i MQ2EQBC.obj
 0001:00007760       ??Y?$basic_string@DU?$char_traits@D@std@@V?$allocator@D@2@@std@@QAEAAV01@ABV01@@Z 04008760 f i MQ2EQBC.obj
 0001:00007780       ??0?$_Tree_val@V?$_Tmap_traits@V?$basic_string@DU?$char_traits@D@std@@V?$allocator@D@2@@std@@KU?$less@V?$basic_string@DU?$char_traits@D@std@@V?$allocator@D@2@@std@@@2@V?$allocator@U?$pair@$$CBV?$basic_string@DU?$char_traits@D@std@@V?$allocator@D@2@@std@@K@std@@@2@$0A@@std@@@std@@IAE@ABU?$less@V?$basic_string@DU?$char_traits@D@std@@V?$allocator@D@2@@std@@@1@V?$allocator@U?$pair@$$CBV?$basic_string@DU?$char_traits@D@std@@V?$allocator@D@2@@std@@K@std@@@1@@Z 04008780 f i MQ2EQBC.obj
 0001:000077b0       ??0?$_Tree_val@V?$_Tmap_traits@V?$basic_string@DU?$char_traits@D@std@@V?$allocator@D@2@@std@@V12@U?$less@V?$basic_string@DU?$char_traits@D@std@@V?$allocator@D@2@@std@@@2@V?$allocator@U?$pair@$$CBV?$basic_string@DU?$char_traits@D@std@@V?$allocator@D@2@@std@@V12@@std@@@2@$0A@@std@@@std@@IAE@ABU?$less@V?$basic_string@DU?$char_traits@D@std@@V?$allocator@D@2@@std@@@1@V?$allocator@U?$pair@$$CBV?$basic_string@DU?$char_traits@D@std@@V?$allocator@D@2@@std@@V12@@std@@@1@@Z 040087b0 f i MQ2EQBC.obj
 0001:000077e0       ??0?$pair@$$CBV?$basic_string@DU?$char_traits@D@std@@V?$allocator@D@2@@std@@V12@@std@@QAE@ABU01@@Z 040087e0 f i MQ2EQBC.obj
 0001:00007860       ??0?$pair@$$CBV?$basic_string@DU?$char_traits@D@std@@V?$allocator@D@2@@std@@K@std@@QAE@ABU01@@Z 04008860 f i MQ2EQBC.obj
 0001:00007890       ??$?0V?$basic_string@DU?$char_traits@D@std@@V?$allocator@D@2@@std@@V01@@?$pair@$$CBV?$basic_string@DU?$char_traits@D@std@@V?$allocator@D@2@@std@@V12@@std@@QAE@ABU?$pair@V?$basic_string@DU?$char_traits@D@std@@V?$allocator@D@2@@std@@V12@@1@@Z 04008890 f i MQ2EQBC.obj
 0001:00007910       ??$_Destroy@U_Node@?$_Tree_nod@V?$_Tmap_traits@V?$basic_string@DU?$char_traits@D@std@@V?$allocator@D@2@@std@@KU?$less@V?$basic_string@DU?$char_traits@D@std@@V?$allocator@D@2@@std@@@2@V?$allocator@U?$pair@$$CBV?$basic_string@DU?$char_traits@D@std@@V?$allocator@D@2@@std@@K@std@@@2@$0A@@std@@@std@@@std@@YAXPAU_Node@?$_Tree_nod@V?$_Tmap_traits@V?$basic_string@DU?$char_traits@D@std@@V?$allocator@D@2@@std@@KU?$less@V?$basic_string@DU?$char_traits@D@std@@V?$allocator@D@2@@std@@@2@V?$allocator@U?$pair@$$CBV?$basic_string@DU?$char_traits@D@std@@V?$allocator@D@2@@std@@K@std@@@2@$0A@@std@@@0@@Z 04008910 f i MQ2EQBC.obj
 0001:00007940       ??_G_Node@?$_Tree_nod@V?$_Tmap_traits@V?$basic_string@DU?$char_traits@D@std@@V?$allocator@D@2@@std@@V12@U?$less@V?$basic_string@DU?$char_traits@D@std@@V?$allocator@D@2@@std@@@2@V?$allocator@U?$pair@$$CBV?$basic_string@DU?$char_traits@D@std@@V?$allocator@D@2@@std@@V12@@std@@@2@$0A@@std@@@std@@QAEPAXI@Z 04008940 f i MQ2EQBC.obj
 0001:000079a0       ?destroy@?$allocator@V?$basic_string@DU?$char_traits@D@std@@V?$allocator@D@2@@std@@@std@@QAEXPAV?$basic_string@DU?$char_traits@D@std@@V?$allocator@D@2@@2@@Z 040089a0 f i MQ2EQBC.obj
 0001:000079d0       ??$_Construct@V?$basic_string@DU?$char_traits@D@std@@V?$allocator@D@2@@std@@V12@@std@@YAXPAV?$basic_string@DU?$char_traits@D@std@@V?$allocator@D@2@@0@ABV10@@Z 040089d0 f i MQ2EQBC.obj
 0001:00007a30       ??0logic_error@std@@QAE@ABV?$basic_string@DU?$char_traits@D@std@@V?$allocator@D@2@@1@@Z 04008a30 f i MQ2EQBC.obj
 0001:00007a90       ??0length_error@std@@QAE@ABV?$basic_string@DU?$char_traits@D@std@@V?$allocator@D@2@@1@@Z 04008a90 f i MQ2EQBC.obj
 0001:00007ab0       ??1length_error@std@@UAE@XZ 04008ab0 f i MQ2EQBC.obj
 0001:00007af0       ??_Glength_error@std@@UAEPAXI@Z 04008af0 f i MQ2EQBC.obj
 0001:00007af0       ??_Elength_error@std@@UAEPAXI@Z 04008af0 f i MQ2EQBC.obj
 0001:00007b40       ??0out_of_range@std@@QAE@ABV?$basic_string@DU?$char_traits@D@std@@V?$allocator@D@2@@1@@Z 04008b40 f i MQ2EQBC.obj
 0001:00007b60       ??1out_of_range@std@@UAE@XZ 04008b60 f i MQ2EQBC.obj
 0001:00007ba0       ??_Gout_of_range@std@@UAEPAXI@Z 04008ba0 f i MQ2EQBC.obj
 0001:00007ba0       ??_Eout_of_range@std@@UAEPAXI@Z 04008ba0 f i MQ2EQBC.obj
 0001:00007bf0       ??0runtime_error@std@@QAE@ABV?$basic_string@DU?$char_traits@D@std@@V?$allocator@D@2@@1@@Z 04008bf0 f i MQ2EQBC.obj
 0001:00007c50       ?name@locale@std@@QBE?AV?$basic_string@DU?$char_traits@D@std@@V?$allocator@D@2@@2@XZ 04008c50 f i MQ2EQBC.obj
 0001:00007c80       ?_Getcat@?$ctype@D@std@@SAIPAPBVfacet@locale@2@PBV42@@Z 04008c80 f i MQ2EQBC.obj
 0001:00007d70       ??0failure@ios_base@std@@QAE@ABV?$basic_string@DU?$char_traits@D@std@@V?$allocator@D@2@@2@@Z 04008d70 f i MQ2EQBC.obj
 0001:00007d90       ??1failure@ios_base@std@@UAE@XZ 04008d90 f i MQ2EQBC.obj
 0001:00007dd0       ??_Efailure@ios_base@std@@UAEPAXI@Z 04008dd0 f i MQ2EQBC.obj
 0001:00007dd0       ??_Gfailure@ios_base@std@@UAEPAXI@Z 04008dd0 f i MQ2EQBC.obj
 0001:00007e20       ??0?$basic_string@DU?$char_traits@D@std@@V?$allocator@D@2@@std@@QAE@PBD@Z 04008e20 f i MQ2EQBC.obj
 0001:00007e60       ??4?$basic_string@DU?$char_traits@D@std@@V?$allocator@D@2@@std@@QAEAAV01@ABV01@@Z 04008e60 f i MQ2EQBC.obj
 0001:00007e80       ??0?$_Tree@V?$_Tmap_traits@V?$basic_string@DU?$char_traits@D@std@@V?$allocator@D@2@@std@@KU?$less@V?$basic_string@DU?$char_traits@D@std@@V?$allocator@D@2@@std@@@2@V?$allocator@U?$pair@$$CBV?$basic_string@DU?$char_traits@D@std@@V?$allocator@D@2@@std@@K@std@@@2@$0A@@std@@@std@@QAE@ABU?$less@V?$basic_string@DU?$char_traits@D@std@@V?$allocator@D@2@@std@@@1@ABV?$allocator@U?$pair@$$CBV?$basic_string@DU?$char_traits@D@std@@V?$allocator@D@2@@std@@K@std@@@1@@Z 04008e80 f i MQ2EQBC.obj
 0001:00007f00       ?_Xran@?$vector@V?$basic_string@DU?$char_traits@D@std@@V?$allocator@D@2@@std@@V?$allocator@V?$basic_string@DU?$char_traits@D@std@@V?$allocator@D@2@@std@@@2@@std@@KAXXZ 04008f00 f i MQ2EQBC.obj
 0001:00007f70       ??0logic_error@std@@QAE@ABV01@@Z 04008f70 f i MQ2EQBC.obj
 0001:00007fe0       ??0?$_Tree@V?$_Tmap_traits@V?$basic_string@DU?$char_traits@D@std@@V?$allocator@D@2@@std@@V12@U?$less@V?$basic_string@DU?$char_traits@D@std@@V?$allocator@D@2@@std@@@2@V?$allocator@U?$pair@$$CBV?$basic_string@DU?$char_traits@D@std@@V?$allocator@D@2@@std@@V12@@std@@@2@$0A@@std@@@std@@QAE@ABU?$less@V?$basic_string@DU?$char_traits@D@std@@V?$allocator@D@2@@std@@@1@ABV?$allocator@U?$pair@$$CBV?$basic_string@DU?$char_traits@D@std@@V?$allocator@D@2@@std@@V12@@std@@@1@@Z 04008fe0 f i MQ2EQBC.obj
 0001:00008060       ?_Xlen@?$vector@V?$basic_string@DU?$char_traits@D@std@@V?$allocator@D@2@@std@@V?$allocator@V?$basic_string@DU?$char_traits@D@std@@V?$allocator@D@2@@std@@@2@@std@@KAXXZ 04009060 f i MQ2EQBC.obj
 0001:000080d0       ??0length_error@std@@QAE@ABV01@@Z 040090d0 f i MQ2EQBC.obj
 0001:000080f0       ?do_grouping@?$numpunct@D@std@@MBE?AV?$basic_string@DU?$char_traits@D@std@@V?$allocator@D@2@@2@XZ 040090f0 f i MQ2EQBC.obj
 0001:00008140       ?do_falsename@?$numpunct@D@std@@MBE?AV?$basic_string@DU?$char_traits@D@std@@V?$allocator@D@2@@2@XZ 04009140 f i MQ2EQBC.obj
 0001:00008190       ?do_truename@?$numpunct@D@std@@MBE?AV?$basic_string@DU?$char_traits@D@std@@V?$allocator@D@2@@2@XZ 04009190 f i MQ2EQBC.obj
 0001:000081e0       ??0_Node@?$_Tree_nod@V?$_Tmap_traits@V?$basic_string@DU?$char_traits@D@std@@V?$allocator@D@2@@std@@V12@U?$less@V?$basic_string@DU?$char_traits@D@std@@V?$allocator@D@2@@std@@@2@V?$allocator@U?$pair@$$CBV?$basic_string@DU?$char_traits@D@std@@V?$allocator@D@2@@std@@V12@@std@@@2@$0A@@std@@@std@@QAE@PAU012@00ABU?$pair@$$CBV?$basic_string@DU?$char_traits@D@std@@V?$allocator@D@2@@std@@V12@@2@D@Z 040091e0 f i MQ2EQBC.obj
 0001:00008220       ?destroy@?$allocator@U_Node@?$_Tree_nod@V?$_Tmap_traits@V?$basic_string@DU?$char_traits@D@std@@V?$allocator@D@2@@std@@KU?$less@V?$basic_string@DU?$char_traits@D@std@@V?$allocator@D@2@@std@@@2@V?$allocator@U?$pair@$$CBV?$basic_string@DU?$char_traits@D@std@@V?$allocator@D@2@@std@@K@std@@@2@$0A@@std@@@std@@@std@@QAEXPAU_Node@?$_Tree_nod@V?$_Tmap_traits@V?$basic_string@DU?$char_traits@D@std@@V?$allocator@D@2@@std@@KU?$less@V?$basic_string@DU?$char_traits@D@std@@V?$allocator@D@2@@std@@@2@V?$allocator@U?$pair@$$CBV?$basic_string@DU?$char_traits@D@std@@V?$allocator@D@2@@std@@K@std@@@2@$0A@@std@@@2@@Z 04009220 f i MQ2EQBC.obj
 0001:00008250       ??0_Node@?$_Tree_nod@V?$_Tmap_traits@V?$basic_string@DU?$char_traits@D@std@@V?$allocator@D@2@@std@@KU?$less@V?$basic_string@DU?$char_traits@D@std@@V?$allocator@D@2@@std@@@2@V?$allocator@U?$pair@$$CBV?$basic_string@DU?$char_traits@D@std@@V?$allocator@D@2@@std@@K@std@@@2@$0A@@std@@@std@@QAE@PAU012@00ABU?$pair@$$CBV?$basic_string@DU?$char_traits@D@std@@V?$allocator@D@2@@std@@K@2@D@Z 04009250 f i MQ2EQBC.obj
 0001:000082b0       ??$use_facet@V?$ctype@D@std@@@std@@YAABV?$ctype@D@0@ABVlocale@0@@Z 040092b0 f i MQ2EQBC.obj
 0001:000083f0       ??$_Destroy@U_Node@?$_Tree_nod@V?$_Tmap_traits@V?$basic_string@DU?$char_traits@D@std@@V?$allocator@D@2@@std@@V12@U?$less@V?$basic_string@DU?$char_traits@D@std@@V?$allocator@D@2@@std@@@2@V?$allocator@U?$pair@$$CBV?$basic_string@DU?$char_traits@D@std@@V?$allocator@D@2@@std@@V12@@std@@@2@$0A@@std@@@std@@@std@@YAXPAU_Node@?$_Tree_nod@V?$_Tmap_traits@V?$basic_string@DU?$char_traits@D@std@@V?$allocator@D@2@@std@@V12@U?$less@V?$basic_string@DU?$char_traits@D@std@@V?$allocator@D@2@@std@@@2@V?$allocator@U?$pair@$$CBV?$basic_string@DU?$char_traits@D@std@@V?$allocator@D@2@@std@@V12@@std@@@2@$0A@@std@@@0@@Z 040093f0 f i MQ2EQBC.obj
 0001:00008440       ?_Getcat@?$num_get@DV?$istreambuf_iterator@DU?$char_traits@D@std@@@std@@@std@@SAIPAPBVfacet@locale@2@PBV42@@Z 04009440 f i MQ2EQBC.obj
 0001:00008540       ?_Getcat@?$numpunct@D@std@@SAIPAPBVfacet@locale@2@PBV42@@Z 04009540 f i MQ2EQBC.obj
 0001:00008640       ??$_Destroy_range@V?$allocator@V?$basic_string@DU?$char_traits@D@std@@V?$allocator@D@2@@std@@@std@@@std@@YAXPAV?$basic_string@DU?$char_traits@D@std@@V?$allocator@D@2@@0@0AAV?$allocator@V?$basic_string@DU?$char_traits@D@std@@V?$allocator@D@2@@std@@@0@U_Nonscalar_ptr_iterator_tag@0@@Z 04009640 f i MQ2EQBC.obj
 0001:00008680       ??$_Fill@PAV?$basic_string@DU?$char_traits@D@std@@V?$allocator@D@2@@std@@V12@@std@@YAXPAV?$basic_string@DU?$char_traits@D@std@@V?$allocator@D@2@@0@0ABV10@@Z 04009680 f i MQ2EQBC.obj
 0001:000086b0       ?construct@?$allocator@V?$basic_string@DU?$char_traits@D@std@@V?$allocator@D@2@@std@@@std@@QAEXPAV?$basic_string@DU?$char_traits@D@std@@V?$allocator@D@2@@2@ABV32@@Z 040096b0 f i MQ2EQBC.obj
 0001:000086d0       ?swap@?$basic_string@DU?$char_traits@D@std@@V?$allocator@D@2@@std@@QAEXAAV12@@Z 040096d0 f i MQ2EQBC.obj
 0001:00008730       ??0out_of_range@std@@QAE@ABV01@@Z 04009730 f i MQ2EQBC.obj
 0001:00008750       ?clear@ios_base@std@@QAEXH_N@Z 04009750 f i MQ2EQBC.obj
 0001:00008870       ??0runtime_error@std@@QAE@ABV01@@Z 04009870 f i MQ2EQBC.obj
 0001:000088e0       ??0failure@ios_base@std@@QAE@ABV012@@Z 040098e0 f i MQ2EQBC.obj
 0001:00008900       ?clear@ios_base@std@@QAEXH@Z 04009900 f i MQ2EQBC.obj
 0001:00008910       ?_Init@ios_base@std@@IAEXXZ 04009910 f i MQ2EQBC.obj
 0001:00008990       ?getValByVarName@@YA?AV?$basic_string@DU?$char_traits@D@std@@V?$allocator@D@2@@std@@V12@@Z 04009990 f   MQ2EQBC.obj
 0001:00008a80       ?GlobalVarExists@@YA_NPAD@Z 04009a80 f   MQ2EQBC.obj
 0001:00008be0       ?setVar@MQ2GlobalVarType@@QAEXV?$basic_string@DU?$char_traits@D@std@@V?$allocator@D@2@@std@@@Z 04009be0 f i MQ2EQBC.obj
 0001:00008c40       ?setVal@MQ2GlobalVarType@@QAEXV?$basic_string@DU?$char_traits@D@std@@V?$allocator@D@2@@std@@@Z 04009c40 f i MQ2EQBC.obj
 0001:00008ca0       ?at@?$vector@V?$basic_string@DU?$char_traits@D@std@@V?$allocator@D@2@@std@@V?$allocator@V?$basic_string@DU?$char_traits@D@std@@V?$allocator@D@2@@std@@@2@@std@@QAEAAV?$basic_string@DU?$char_traits@D@std@@V?$allocator@D@2@@2@I@Z 04009ca0 f i MQ2EQBC.obj
 0001:00008d20       ?clear@?$basic_ios@DU?$char_traits@D@std@@@std@@QAEXH_N@Z 04009d20 f i MQ2EQBC.obj
 0001:00008d40       ?_Buy@?$vector@V?$basic_string@DU?$char_traits@D@std@@V?$allocator@D@2@@std@@V?$allocator@V?$basic_string@DU?$char_traits@D@std@@V?$allocator@D@2@@std@@@2@@std@@IAE_NI@Z 04009d40 f i MQ2EQBC.obj
 0001:00008da0       ?destroy@?$allocator@U_Node@?$_Tree_nod@V?$_Tmap_traits@V?$basic_string@DU?$char_traits@D@std@@V?$allocator@D@2@@std@@V12@U?$less@V?$basic_string@DU?$char_traits@D@std@@V?$allocator@D@2@@std@@@2@V?$allocator@U?$pair@$$CBV?$basic_string@DU?$char_traits@D@std@@V?$allocator@D@2@@std@@V12@@std@@@2@$0A@@std@@@std@@@std@@QAEXPAU_Node@?$_Tree_nod@V?$_Tmap_traits@V?$basic_string@DU?$char_traits@D@std@@V?$allocator@D@2@@std@@V12@U?$less@V?$basic_string@DU?$char_traits@D@std@@V?$allocator@D@2@@std@@@2@V?$allocator@U?$pair@$$CBV?$basic_string@DU?$char_traits@D@std@@V?$allocator@D@2@@std@@V12@@std@@@2@$0A@@std@@@2@@Z 04009da0 f i MQ2EQBC.obj
 0001:00008df0       ?_Buynode@?$_Tree@V?$_Tmap_traits@V?$basic_string@DU?$char_traits@D@std@@V?$allocator@D@2@@std@@V12@U?$less@V?$basic_string@DU?$char_traits@D@std@@V?$allocator@D@2@@std@@@2@V?$allocator@U?$pair@$$CBV?$basic_string@DU?$char_traits@D@std@@V?$allocator@D@2@@std@@V12@@std@@@2@$0A@@std@@@std@@IAEPAU_Node@?$_Tree_nod@V?$_Tmap_traits@V?$basic_string@DU?$char_traits@D@std@@V?$allocator@D@2@@std@@V12@U?$less@V?$basic_string@DU?$char_traits@D@std@@V?$allocator@D@2@@std@@@2@V?$allocator@U?$pair@$$CBV?$basic_string@DU?$char_traits@D@std@@V?$allocator@D@2@@std@@V12@@std@@@2@$0A@@std@@@2@PAU342@00ABU?$pair@$$CBV?$basic_string@DU?$char_traits@D@std@@V?$allocator@D@2@@std@@V12@@2@D@Z 04009df0 f i MQ2EQBC.obj
 0001:00008e90       ?widen@?$basic_ios@DU?$char_traits@D@std@@@std@@QBEDD@Z 04009e90 f i MQ2EQBC.obj
 0001:00008f40       ?erase@?$_Tree@V?$_Tmap_traits@V?$basic_string@DU?$char_traits@D@std@@V?$allocator@D@2@@std@@KU?$less@V?$basic_string@DU?$char_traits@D@std@@V?$allocator@D@2@@std@@@2@V?$allocator@U?$pair@$$CBV?$basic_string@DU?$char_traits@D@std@@V?$allocator@D@2@@std@@K@std@@@2@$0A@@std@@@std@@QAE?AViterator@12@Vconst_iterator@12@@Z 04009f40 f i MQ2EQBC.obj
 0001:00009220       ?_Buynode@?$_Tree@V?$_Tmap_traits@V?$basic_string@DU?$char_traits@D@std@@V?$allocator@D@2@@std@@KU?$less@V?$basic_string@DU?$char_traits@D@std@@V?$allocator@D@2@@std@@@2@V?$allocator@U?$pair@$$CBV?$basic_string@DU?$char_traits@D@std@@V?$allocator@D@2@@std@@K@std@@@2@$0A@@std@@@std@@IAEPAU_Node@?$_Tree_nod@V?$_Tmap_traits@V?$basic_string@DU?$char_traits@D@std@@V?$allocator@D@2@@std@@KU?$less@V?$basic_string@DU?$char_traits@D@std@@V?$allocator@D@2@@std@@@2@V?$allocator@U?$pair@$$CBV?$basic_string@DU?$char_traits@D@std@@V?$allocator@D@2@@std@@K@std@@@2@$0A@@std@@@2@PAU342@00ABU?$pair@$$CBV?$basic_string@DU?$char_traits@D@std@@V?$allocator@D@2@@std@@K@2@D@Z 0400a220 f i MQ2EQBC.obj
 0001:000092b0       ?_Erase@?$_Tree@V?$_Tmap_traits@V?$basic_string@DU?$char_traits@D@std@@V?$allocator@D@2@@std@@KU?$less@V?$basic_string@DU?$char_traits@D@std@@V?$allocator@D@2@@std@@@2@V?$allocator@U?$pair@$$CBV?$basic_string@DU?$char_traits@D@std@@V?$allocator@D@2@@std@@K@std@@@2@$0A@@std@@@std@@IAEXPAU_Node@?$_Tree_nod@V?$_Tmap_traits@V?$basic_string@DU?$char_traits@D@std@@V?$allocator@D@2@@std@@KU?$less@V?$basic_string@DU?$char_traits@D@std@@V?$allocator@D@2@@std@@@2@V?$allocator@U?$pair@$$CBV?$basic_string@DU?$char_traits@D@std@@V?$allocator@D@2@@std@@K@std@@@2@$0A@@std@@@2@@Z 0400a2b0 f i MQ2EQBC.obj
 0001:00009310       ??$use_facet@V?$num_get@DV?$istreambuf_iterator@DU?$char_traits@D@std@@@std@@@std@@@std@@YAABV?$num_get@DV?$istreambuf_iterator@DU?$char_traits@D@std@@@std@@@0@ABVlocale@0@@Z 0400a310 f i MQ2EQBC.obj
 0001:00009450       ??$_Destroy_range@V?$allocator@V?$basic_string@DU?$char_traits@D@std@@V?$allocator@D@2@@std@@@std@@@std@@YAXPAV?$basic_string@DU?$char_traits@D@std@@V?$allocator@D@2@@0@0AAV?$allocator@V?$basic_string@DU?$char_traits@D@std@@V?$allocator@D@2@@std@@@0@@Z 0400a450 f i MQ2EQBC.obj
 0001:00009470       ??$fill@PAV?$basic_string@DU?$char_traits@D@std@@V?$allocator@D@2@@std@@V12@@std@@YAXPAV?$basic_string@DU?$char_traits@D@std@@V?$allocator@D@2@@0@0ABV10@@Z 0400a470 f i MQ2EQBC.obj
 0001:000094a0       ??$use_facet@V?$numpunct@D@std@@@std@@YAABV?$numpunct@D@0@ABVlocale@0@@Z 0400a4a0 f i MQ2EQBC.obj
 0001:000095e0       ??$_Uninit_fill_n@PAV?$basic_string@DU?$char_traits@D@std@@V?$allocator@D@2@@std@@IV12@V?$allocator@V?$basic_string@DU?$char_traits@D@std@@V?$allocator@D@2@@std@@@2@@std@@YAXPAV?$basic_string@DU?$char_traits@D@std@@V?$allocator@D@2@@0@IABV10@AAV?$allocator@V?$basic_string@DU?$char_traits@D@std@@V?$allocator@D@2@@std@@@0@U_Nonscalar_ptr_iterator_tag@0@U_Range_checked_iterator_tag@0@@Z 0400a5e0 f i MQ2EQBC.obj
 0001:00009680       ??$swap@DU?$char_traits@D@std@@V?$allocator@D@2@@std@@YAXAAV?$basic_string@DU?$char_traits@D@std@@V?$allocator@D@2@@0@0@Z 0400a680 f i MQ2EQBC.obj
 0001:00009690       ?setstate@?$basic_ios@DU?$char_traits@D@std@@@std@@QAEXH_N@Z 0400a690 f i MQ2EQBC.obj
 0001:000096c0       ??0?$vector@V?$basic_string@DU?$char_traits@D@std@@V?$allocator@D@2@@std@@V?$allocator@V?$basic_string@DU?$char_traits@D@std@@V?$allocator@D@2@@std@@@2@@std@@QAE@XZ 0400a6c0 f i MQ2EQBC.obj
 0001:00009710       ?erase@?$_Tree@V?$_Tmap_traits@V?$basic_string@DU?$char_traits@D@std@@V?$allocator@D@2@@std@@V12@U?$less@V?$basic_string@DU?$char_traits@D@std@@V?$allocator@D@2@@std@@@2@V?$allocator@U?$pair@$$CBV?$basic_string@DU?$char_traits@D@std@@V?$allocator@D@2@@std@@V12@@std@@@2@$0A@@std@@@std@@QAE?AViterator@12@Vconst_iterator@12@@Z 0400a710 f i MQ2EQBC.obj
 0001:00009a10       ?_Destroy@?$vector@V?$basic_string@DU?$char_traits@D@std@@V?$allocator@D@2@@std@@V?$allocator@V?$basic_string@DU?$char_traits@D@std@@V?$allocator@D@2@@std@@@2@@std@@IAEXPAV?$basic_string@DU?$char_traits@D@std@@V?$allocator@D@2@@2@0@Z 0400aa10 f i MQ2EQBC.obj
 0001:00009a30       ?_Tidy@?$vector@V?$basic_string@DU?$char_traits@D@std@@V?$allocator@D@2@@std@@V?$allocator@V?$basic_string@DU?$char_traits@D@std@@V?$allocator@D@2@@std@@@2@@std@@IAEXXZ 0400aa30 f i MQ2EQBC.obj
 0001:00009a80       ?_Erase@?$_Tree@V?$_Tmap_traits@V?$basic_string@DU?$char_traits@D@std@@V?$allocator@D@2@@std@@V12@U?$less@V?$basic_string@DU?$char_traits@D@std@@V?$allocator@D@2@@std@@@2@V?$allocator@U?$pair@$$CBV?$basic_string@DU?$char_traits@D@std@@V?$allocator@D@2@@std@@V12@@std@@@2@$0A@@std@@@std@@IAEXPAU_Node@?$_Tree_nod@V?$_Tmap_traits@V?$basic_string@DU?$char_traits@D@std@@V?$allocator@D@2@@std@@V12@U?$less@V?$basic_string@DU?$char_traits@D@std@@V?$allocator@D@2@@std@@@2@V?$allocator@U?$pair@$$CBV?$basic_string@DU?$char_traits@D@std@@V?$allocator@D@2@@std@@V12@@std@@@2@$0A@@std@@@2@@Z 0400aa80 f i MQ2EQBC.obj
 0001:00009b00       ?_Insert@?$_Tree@V?$_Tmap_traits@V?$basic_string@DU?$char_traits@D@std@@V?$allocator@D@2@@std@@V12@U?$less@V?$basic_string@DU?$char_traits@D@std@@V?$allocator@D@2@@std@@@2@V?$allocator@U?$pair@$$CBV?$basic_string@DU?$char_traits@D@std@@V?$allocator@D@2@@std@@V12@@std@@@2@$0A@@std@@@std@@IAE?AViterator@12@_NPAU_Node@?$_Tree_nod@V?$_Tmap_traits@V?$basic_string@DU?$char_traits@D@std@@V?$allocator@D@2@@std@@V12@U?$less@V?$basic_string@DU?$char_traits@D@std@@V?$allocator@D@2@@std@@@2@V?$allocator@U?$pair@$$CBV?$basic_string@DU?$char_traits@D@std@@V?$allocator@D@2@@std@@V12@@std@@@2@$0A@@std@@@2@ABU?$pair@$$CBV?$basic_string@DU?$char_traits@D@std@@V?$allocator@D@2@@std@@V12@@2@@Z 0400ab00 f i MQ2EQBC.obj
 0001:00009cf0       ?init@?$basic_ios@DU?$char_traits@D@std@@@std@@IAEXPAV?$basic_streambuf@DU?$char_traits@D@std@@@2@_N@Z 0400acf0 f i MQ2EQBC.obj
 0001:00009d50       ?_Insert@?$_Tree@V?$_Tmap_traits@V?$basic_string@DU?$char_traits@D@std@@V?$allocator@D@2@@std@@KU?$less@V?$basic_string@DU?$char_traits@D@std@@V?$allocator@D@2@@std@@@2@V?$allocator@U?$pair@$$CBV?$basic_string@DU?$char_traits@D@std@@V?$allocator@D@2@@std@@K@std@@@2@$0A@@std@@@std@@IAE?AViterator@12@_NPAU_Node@?$_Tree_nod@V?$_Tmap_traits@V?$basic_string@DU?$char_traits@D@std@@V?$allocator@D@2@@std@@KU?$less@V?$basic_string@DU?$char_traits@D@std@@V?$allocator@D@2@@std@@@2@V?$allocator@U?$pair@$$CBV?$basic_string@DU?$char_traits@D@std@@V?$allocator@D@2@@std@@K@std@@@2@$0A@@std@@@2@ABU?$pair@$$CBV?$basic_string@DU?$char_traits@D@std@@V?$allocator@D@2@@std@@K@2@@Z 0400ad50 f i MQ2EQBC.obj
 0001:00009f40       ?_Getifld@?$num_get@DV?$istreambuf_iterator@DU?$char_traits@D@std@@@std@@@std@@ABAHPADAAV?$istreambuf_iterator@DU?$char_traits@D@std@@@2@1HABVlocale@2@@Z 0400af40 f i MQ2EQBC.obj
 0001:0000a470       ?_Getffld@?$num_get@DV?$istreambuf_iterator@DU?$char_traits@D@std@@@std@@@std@@ABAHPADAAV?$istreambuf_iterator@DU?$char_traits@D@std@@@2@1ABVlocale@2@@Z 0400b470 f i MQ2EQBC.obj
 0001:0000b3c0       ?clear@?$_Tree@V?$_Tmap_traits@V?$basic_string@DU?$char_traits@D@std@@V?$allocator@D@2@@std@@KU?$less@V?$basic_string@DU?$char_traits@D@std@@V?$allocator@D@2@@std@@@2@V?$allocator@U?$pair@$$CBV?$basic_string@DU?$char_traits@D@std@@V?$allocator@D@2@@std@@K@std@@@2@$0A@@std@@@std@@QAEXXZ 0400c3c0 f i MQ2EQBC.obj
 0001:0000b3f0       ??$unchecked_uninitialized_fill_n@PAV?$basic_string@DU?$char_traits@D@std@@V?$allocator@D@2@@std@@IV12@V?$allocator@V?$basic_string@DU?$char_traits@D@std@@V?$allocator@D@2@@std@@@2@@stdext@@YAXPAV?$basic_string@DU?$char_traits@D@std@@V?$allocator@D@2@@std@@IABV12@AAV?$allocator@V?$basic_string@DU?$char_traits@D@std@@V?$allocator@D@2@@std@@@2@@Z 0400c3f0 f i MQ2EQBC.obj
 0001:0000b420       ??$_Uninit_move@PAV?$basic_string@DU?$char_traits@D@std@@V?$allocator@D@2@@std@@PAV12@V?$allocator@V?$basic_string@DU?$char_traits@D@std@@V?$allocator@D@2@@std@@@2@@std@@YAPAV?$basic_string@DU?$char_traits@D@std@@V?$allocator@D@2@@0@PAV10@00AAV?$allocator@V?$basic_string@DU?$char_traits@D@std@@V?$allocator@D@2@@std@@@0@U_Swap_move_tag@0@U_Range_checked_iterator_tag@0@@Z 0400c420 f i MQ2EQBC.obj
 0001:0000b550       ??$_Move_backward_opt@PAV?$basic_string@DU?$char_traits@D@std@@V?$allocator@D@2@@std@@PAV12@Uforward_iterator_tag@2@@std@@YAPAV?$basic_string@DU?$char_traits@D@std@@V?$allocator@D@2@@0@PAV10@00Uforward_iterator_tag@0@U_Swap_move_tag@0@U_Range_checked_iterator_tag@0@@Z 0400c550 f i MQ2EQBC.obj
 0001:0000b5c0       ?deleteVarByName@@YA_NV?$basic_string@DU?$char_traits@D@std@@V?$allocator@D@2@@std@@_N@Z 0400c5c0 f   MQ2EQBC.obj
 0001:0000b830       ?flush@?$basic_ostream@DU?$char_traits@D@std@@@std@@QAEAAV12@XZ 0400c830 f i MQ2EQBC.obj
 0001:0000b880       ??1?$vector@V?$basic_string@DU?$char_traits@D@std@@V?$allocator@D@2@@std@@V?$allocator@V?$basic_string@DU?$char_traits@D@std@@V?$allocator@D@2@@std@@@2@@std@@QAE@XZ 0400c880 f i MQ2EQBC.obj
 0001:0000b8d0       ?pop_back@?$vector@V?$basic_string@DU?$char_traits@D@std@@V?$allocator@D@2@@std@@V?$allocator@V?$basic_string@DU?$char_traits@D@std@@V?$allocator@D@2@@std@@@2@@std@@QAEXXZ 0400c8d0 f i MQ2EQBC.obj
 0001:0000b910       ?insert@?$_Tree@V?$_Tmap_traits@V?$basic_string@DU?$char_traits@D@std@@V?$allocator@D@2@@std@@V12@U?$less@V?$basic_string@DU?$char_traits@D@std@@V?$allocator@D@2@@std@@@2@V?$allocator@U?$pair@$$CBV?$basic_string@DU?$char_traits@D@std@@V?$allocator@D@2@@std@@V12@@std@@@2@$0A@@std@@@std@@QAE?AU?$pair@Viterator@?$_Tree@V?$_Tmap_traits@V?$basic_string@DU?$char_traits@D@std@@V?$allocator@D@2@@std@@V12@U?$less@V?$basic_string@DU?$char_traits@D@std@@V?$allocator@D@2@@std@@@2@V?$allocator@U?$pair@$$CBV?$basic_string@DU?$char_traits@D@std@@V?$allocator@D@2@@std@@V12@@std@@@2@$0A@@std@@@std@@_N@2@ABU?$pair@$$CBV?$basic_string@DU?$char_traits@D@std@@V?$allocator@D@2@@std@@V12@@2@@Z 0400c910 f i MQ2EQBC.obj
 0001:0000ba70       ?clear@?$_Tree@V?$_Tmap_traits@V?$basic_string@DU?$char_traits@D@std@@V?$allocator@D@2@@std@@V12@U?$less@V?$basic_string@DU?$char_traits@D@std@@V?$allocator@D@2@@std@@@2@V?$allocator@U?$pair@$$CBV?$basic_string@DU?$char_traits@D@std@@V?$allocator@D@2@@std@@V12@@std@@@2@$0A@@std@@@std@@QAEXXZ 0400ca70 f i MQ2EQBC.obj
 0001:0000baa0       ??0?$basic_istream@DU?$char_traits@D@std@@@std@@QAE@PAV?$basic_streambuf@DU?$char_traits@D@std@@@1@_N@Z 0400caa0 f i MQ2EQBC.obj
 0001:0000bb20       ?_Ipfx@?$basic_istream@DU?$char_traits@D@std@@@std@@QAE_N_N@Z 0400cb20 f i MQ2EQBC.obj
 0001:0000bcb0       ?do_get@?$num_get@DV?$istreambuf_iterator@DU?$char_traits@D@std@@@std@@@std@@MBE?AV?$istreambuf_iterator@DU?$char_traits@D@std@@@2@V32@0AAVios_base@2@AAHAA_N@Z 0400ccb0 f i MQ2EQBC.obj
 0001:0000bf40       ?do_get@?$num_get@DV?$istreambuf_iterator@DU?$char_traits@D@std@@@std@@@std@@MBE?AV?$istreambuf_iterator@DU?$char_traits@D@std@@@2@V32@0AAVios_base@2@AAHAAG@Z 0400cf40 f i MQ2EQBC.obj
 0001:0000c100       ?do_get@?$num_get@DV?$istreambuf_iterator@DU?$char_traits@D@std@@@std@@@std@@MBE?AV?$istreambuf_iterator@DU?$char_traits@D@std@@@2@V32@0AAVios_base@2@AAHAAI@Z 0400d100 f i MQ2EQBC.obj
 0001:0000c2c0       ?do_get@?$num_get@DV?$istreambuf_iterator@DU?$char_traits@D@std@@@std@@@std@@MBE?AV?$istreambuf_iterator@DU?$char_traits@D@std@@@2@V32@0AAVios_base@2@AAHAAJ@Z 0400d2c0 f i MQ2EQBC.obj
 0001:0000c460       ?do_get@?$num_get@DV?$istreambuf_iterator@DU?$char_traits@D@std@@@std@@@std@@MBE?AV?$istreambuf_iterator@DU?$char_traits@D@std@@@2@V32@0AAVios_base@2@AAHAAK@Z 0400d460 f i MQ2EQBC.obj
 0001:0000c600       ?do_get@?$num_get@DV?$istreambuf_iterator@DU?$char_traits@D@std@@@std@@@std@@MBE?AV?$istreambuf_iterator@DU?$char_traits@D@std@@@2@V32@0AAVios_base@2@AAHAA_J@Z 0400d600 f i MQ2EQBC.obj
 0001:0000c7b0       ?do_get@?$num_get@DV?$istreambuf_iterator@DU?$char_traits@D@std@@@std@@@std@@MBE?AV?$istreambuf_iterator@DU?$char_traits@D@std@@@2@V32@0AAVios_base@2@AAHAA_K@Z 0400d7b0 f i MQ2EQBC.obj
 0001:0000c960       ?do_get@?$num_get@DV?$istreambuf_iterator@DU?$char_traits@D@std@@@std@@@std@@MBE?AV?$istreambuf_iterator@DU?$char_traits@D@std@@@2@V32@0AAVios_base@2@AAHAAM@Z 0400d960 f i MQ2EQBC.obj
 0001:0000cb00       ?do_get@?$num_get@DV?$istreambuf_iterator@DU?$char_traits@D@std@@@std@@@std@@MBE?AV?$istreambuf_iterator@DU?$char_traits@D@std@@@2@V32@0AAVios_base@2@AAHAAN@Z 0400db00 f i MQ2EQBC.obj
 0001:0000cca0       ?do_get@?$num_get@DV?$istreambuf_iterator@DU?$char_traits@D@std@@@std@@@std@@MBE?AV?$istreambuf_iterator@DU?$char_traits@D@std@@@2@V32@0AAVios_base@2@AAHAAO@Z 0400dca0 f i MQ2EQBC.obj
 0001:0000ce40       ?do_get@?$num_get@DV?$istreambuf_iterator@DU?$char_traits@D@std@@@std@@@std@@MBE?AV?$istreambuf_iterator@DU?$char_traits@D@std@@@2@V32@0AAVios_base@2@AAHAAPAX@Z 0400de40 f i MQ2EQBC.obj
 0001:0000cff0       ?insert@?$_Tree@V?$_Tmap_traits@V?$basic_string@DU?$char_traits@D@std@@V?$allocator@D@2@@std@@KU?$less@V?$basic_string@DU?$char_traits@D@std@@V?$allocator@D@2@@std@@@2@V?$allocator@U?$pair@$$CBV?$basic_string@DU?$char_traits@D@std@@V?$allocator@D@2@@std@@K@std@@@2@$0A@@std@@@std@@QAE?AU?$pair@Viterator@?$_Tree@V?$_Tmap_traits@V?$basic_string@DU?$char_traits@D@std@@V?$allocator@D@2@@std@@KU?$less@V?$basic_string@DU?$char_traits@D@std@@V?$allocator@D@2@@std@@@2@V?$allocator@U?$pair@$$CBV?$basic_string@DU?$char_traits@D@std@@V?$allocator@D@2@@std@@K@std@@@2@$0A@@std@@@std@@_N@2@ABU?$pair@$$CBV?$basic_string@DU?$char_traits@D@std@@V?$allocator@D@2@@std@@K@2@@Z 0400dff0 f i MQ2EQBC.obj
 0001:0000d150       ?erase@?$_Tree@V?$_Tmap_traits@V?$basic_string@DU?$char_traits@D@std@@V?$allocator@D@2@@std@@KU?$less@V?$basic_string@DU?$char_traits@D@std@@V?$allocator@D@2@@std@@@2@V?$allocator@U?$pair@$$CBV?$basic_string@DU?$char_traits@D@std@@V?$allocator@D@2@@std@@K@std@@@2@$0A@@std@@@std@@QAE?AViterator@12@Vconst_iterator@12@0@Z 0400e150 f i MQ2EQBC.obj
 0001:0000d230       ?_Ufill@?$vector@V?$basic_string@DU?$char_traits@D@std@@V?$allocator@D@2@@std@@V?$allocator@V?$basic_string@DU?$char_traits@D@std@@V?$allocator@D@2@@std@@@2@@std@@IAEPAV?$basic_string@DU?$char_traits@D@std@@V?$allocator@D@2@@2@PAV32@IABV32@@Z 0400e230 f i MQ2EQBC.obj
 0001:0000d270       ?erase@?$_Tree@V?$_Tmap_traits@V?$basic_string@DU?$char_traits@D@std@@V?$allocator@D@2@@std@@V12@U?$less@V?$basic_string@DU?$char_traits@D@std@@V?$allocator@D@2@@std@@@2@V?$allocator@U?$pair@$$CBV?$basic_string@DU?$char_traits@D@std@@V?$allocator@D@2@@std@@V12@@std@@@2@$0A@@std@@@std@@QAE?AViterator@12@Vconst_iterator@12@0@Z 0400e270 f i MQ2EQBC.obj
 0001:0000d350       ??$_Unchecked_uninitialized_move@PAV?$basic_string@DU?$char_traits@D@std@@V?$allocator@D@2@@std@@PAV12@V?$allocator@V?$basic_string@DU?$char_traits@D@std@@V?$allocator@D@2@@std@@@2@@stdext@@YAPAV?$basic_string@DU?$char_traits@D@std@@V?$allocator@D@2@@std@@PAV12@00AAV?$allocator@V?$basic_string@DU?$char_traits@D@std@@V?$allocator@D@2@@std@@@2@@Z 0400e350 f i MQ2EQBC.obj
 0001:0000d380       ??$_Move_backward_opt@PAV?$basic_string@DU?$char_traits@D@std@@V?$allocator@D@2@@std@@PAV12@@std@@YAPAV?$basic_string@DU?$char_traits@D@std@@V?$allocator@D@2@@0@PAV10@00Urandom_access_iterator_tag@0@U_Swap_move_tag@0@U_Range_checked_iterator_tag@0@@Z 0400e380 f i MQ2EQBC.obj
 0001:0000d3e0       ??1CMQ2EqbcWnd@@QAE@XZ     0400e3e0 f i MQ2EQBC.obj
 0001:0000d410       ??_GCMQ2EqbcWnd@@QAEPAXI@Z 0400e410 f i MQ2EQBC.obj
 0001:0000d450       ?setValByVarName@@YAXV?$basic_string@DU?$char_traits@D@std@@V?$allocator@D@2@@std@@0_N@Z 0400e450 f   MQ2EQBC.obj
 0001:0000d700       ?declareVar@@YAXV?$basic_string@DU?$char_traits@D@std@@V?$allocator@D@2@@std@@@Z 0400e700 f   MQ2EQBC.obj
 0001:0000d930       ?HandleGlobalVar@@YAXV?$basic_string@DU?$char_traits@D@std@@V?$allocator@D@2@@std@@@Z 0400e930 f   MQ2EQBC.obj
 0001:0000dd10       ?DeleteGlobalVars@@YAXXZ   0400ed10 f   MQ2EQBC.obj
 0001:0000dd50       ?dataGlobalVar@@YAHPADAAU_MQ2TypeVar@MQ2Internal@@@Z 0400ed50 f   MQ2EQBC.obj
 0001:0000de40       ??0sentry@?$basic_istream@DU?$char_traits@D@std@@@std@@QAE@AAV12@_N@Z 0400ee40 f i MQ2EQBC.obj
 0001:0000deb0       ??0?$basic_istringstream@DU?$char_traits@D@std@@V?$allocator@D@2@@std@@QAE@ABV?$basic_string@DU?$char_traits@D@std@@V?$allocator@D@2@@1@H@Z 0400eeb0 f i MQ2EQBC.obj
 0001:0000df90       ?insert@?$_Tree@V?$_Tmap_traits@V?$basic_string@DU?$char_traits@D@std@@V?$allocator@D@2@@std@@KU?$less@V?$basic_string@DU?$char_traits@D@std@@V?$allocator@D@2@@std@@@2@V?$allocator@U?$pair@$$CBV?$basic_string@DU?$char_traits@D@std@@V?$allocator@D@2@@std@@K@std@@@2@$0A@@std@@@std@@QAE?AViterator@12@Vconst_iterator@12@ABU?$pair@$$CBV?$basic_string@DU?$char_traits@D@std@@V?$allocator@D@2@@std@@K@2@@Z 0400ef90 f i MQ2EQBC.obj
 0001:0000e1c0       ?_Tidy@?$_Tree@V?$_Tmap_traits@V?$basic_string@DU?$char_traits@D@std@@V?$allocator@D@2@@std@@KU?$less@V?$basic_string@DU?$char_traits@D@std@@V?$allocator@D@2@@std@@@2@V?$allocator@U?$pair@$$CBV?$basic_string@DU?$char_traits@D@std@@V?$allocator@D@2@@std@@K@std@@@2@$0A@@std@@@std@@IAEXXZ 0400f1c0 f i MQ2EQBC.obj
 0001:0000e200       ?_Tidy@?$_Tree@V?$_Tmap_traits@V?$basic_string@DU?$char_traits@D@std@@V?$allocator@D@2@@std@@V12@U?$less@V?$basic_string@DU?$char_traits@D@std@@V?$allocator@D@2@@std@@@2@V?$allocator@U?$pair@$$CBV?$basic_string@DU?$char_traits@D@std@@V?$allocator@D@2@@std@@V12@@std@@@2@$0A@@std@@@std@@IAEXXZ 0400f200 f i MQ2EQBC.obj
 0001:0000e240       ??$_Umove@PAV?$basic_string@DU?$char_traits@D@std@@V?$allocator@D@2@@std@@@?$vector@V?$basic_string@DU?$char_traits@D@std@@V?$allocator@D@2@@std@@V?$allocator@V?$basic_string@DU?$char_traits@D@std@@V?$allocator@D@2@@std@@@2@@std@@IAEPAV?$basic_string@DU?$char_traits@D@std@@V?$allocator@D@2@@1@PAV21@00@Z 0400f240 f i MQ2EQBC.obj
 0001:0000e270       ??$_Unchecked_move_backward@PAV?$basic_string@DU?$char_traits@D@std@@V?$allocator@D@2@@std@@PAV12@@stdext@@YAPAV?$basic_string@DU?$char_traits@D@std@@V?$allocator@D@2@@std@@PAV12@00@Z 0400f270 f i MQ2EQBC.obj
 0001:0000e2a0       ?closeChatWindow@@YAXXZ    0400f2a0 f   MQ2EQBC.obj
 0001:0000e850       ?BoxChatCommand@@YAXPAU_SPAWNINFO@EQData@@PAD@Z 0400f850 f   MQ2EQBC.obj
 0001:0000f110       ?HandleIncomingString@@YAXPAD@Z 04010110 f   MQ2EQBC.obj
 0001:0000f640       _OnPulse                   04010640 f   MQ2EQBC.obj
 0001:0000f860       _OnCleanUI                 04010860 f   MQ2EQBC.obj
 0001:0000f880       ??5?$basic_istream@DU?$char_traits@D@std@@@std@@QAEAAV01@AAH@Z 04010880 f i MQ2EQBC.obj
 0001:0000f9f0       ??5?$basic_istream@DU?$char_traits@D@std@@@std@@QAEAAV01@AAM@Z 040109f0 f i MQ2EQBC.obj
 0001:0000fb40       ??A?$map@V?$basic_string@DU?$char_traits@D@std@@V?$allocator@D@2@@std@@KU?$less@V?$basic_string@DU?$char_traits@D@std@@V?$allocator@D@2@@std@@@2@V?$allocator@U?$pair@$$CBV?$basic_string@DU?$char_traits@D@std@@V?$allocator@D@2@@std@@K@std@@@2@@std@@QAEAAKABV?$basic_string@DU?$char_traits@D@std@@V?$allocator@D@2@@1@@Z 04010b40 f i MQ2EQBC.obj
 0001:0000fc60       ??1?$_Tree@V?$_Tmap_traits@V?$basic_string@DU?$char_traits@D@std@@V?$allocator@D@2@@std@@KU?$less@V?$basic_string@DU?$char_traits@D@std@@V?$allocator@D@2@@std@@@2@V?$allocator@U?$pair@$$CBV?$basic_string@DU?$char_traits@D@std@@V?$allocator@D@2@@std@@K@std@@@2@$0A@@std@@@std@@QAE@XZ 04010c60 f i MQ2EQBC.obj
 0001:0000fcd0       ??1?$_Tree@V?$_Tmap_traits@V?$basic_string@DU?$char_traits@D@std@@V?$allocator@D@2@@std@@V12@U?$less@V?$basic_string@DU?$char_traits@D@std@@V?$allocator@D@2@@std@@@2@V?$allocator@U?$pair@$$CBV?$basic_string@DU?$char_traits@D@std@@V?$allocator@D@2@@std@@V12@@std@@@2@$0A@@std@@@std@@QAE@XZ 04010cd0 f i MQ2EQBC.obj
 0001:0000fd40       ?_Insert_n@?$vector@V?$basic_string@DU?$char_traits@D@std@@V?$allocator@D@2@@std@@V?$allocator@V?$basic_string@DU?$char_traits@D@std@@V?$allocator@D@2@@std@@@2@@std@@IAEXV?$_Vector_const_iterator@V?$basic_string@DU?$char_traits@D@std@@V?$allocator@D@2@@std@@V?$allocator@V?$basic_string@DU?$char_traits@D@std@@V?$allocator@D@2@@std@@@2@@2@IABV?$basic_string@DU?$char_traits@D@std@@V?$allocator@D@2@@2@@Z 04010d40 f i MQ2EQBC.obj
 0001:00010040       ?FindMember@MQ2Type@MQ2Internal@@QAEPAU_MQ2TypeMember@2@PAD@Z 04011040 f i MQ2EQBC.obj
 0001:00010100       ?AddMember@MQ2Type@MQ2Internal@@IAEHKPAD@Z 04011100 f i MQ2EQBC.obj
 0001:00010260       ??1?$map@V?$basic_string@DU?$char_traits@D@std@@V?$allocator@D@2@@std@@KU?$less@V?$basic_string@DU?$char_traits@D@std@@V?$allocator@D@2@@std@@@2@V?$allocator@U?$pair@$$CBV?$basic_string@DU?$char_traits@D@std@@V?$allocator@D@2@@std@@K@std@@@2@@std@@QAE@XZ 04011260 f i MQ2EQBC.obj
 0001:00010270       ?BoxChatAll@@YAXPAU_SPAWNINFO@EQData@@PAD@Z 04011270 f   MQ2EQBC.obj
 0001:000102d0       ?StringIsInt@@YA_NV?$basic_string@DU?$char_traits@D@std@@V?$allocator@D@2@@std@@@Z 040112d0 f   MQ2EQBC.obj
 0001:000103d0       ?StringToInt@@YAHV?$basic_string@DU?$char_traits@D@std@@V?$allocator@D@2@@std@@@Z 040113d0 f   MQ2EQBC.obj
 0001:000104e0       ?StringIsFloat@@YA_NV?$basic_string@DU?$char_traits@D@std@@V?$allocator@D@2@@std@@@Z 040114e0 f   MQ2EQBC.obj
 0001:000105f0       ?StringToFloat@@YAMV?$basic_string@DU?$char_traits@D@std@@V?$allocator@D@2@@std@@@Z 040115f0 f   MQ2EQBC.obj
 0001:00010700       ??1?$map@V?$basic_string@DU?$char_traits@D@std@@V?$allocator@D@2@@std@@V12@U?$less@V?$basic_string@DU?$char_traits@D@std@@V?$allocator@D@2@@std@@@2@V?$allocator@U?$pair@$$CBV?$basic_string@DU?$char_traits@D@std@@V?$allocator@D@2@@std@@V12@@std@@@2@@std@@QAE@XZ 04011700 f i MQ2EQBC.obj
 0001:00010710       ?GetMember@EQBCType@@UAE_NU_MQ2VarPtr@MQ2Internal@@PAD1AAU_MQ2TypeVar@3@@Z 04011710 f   MQ2EQBC.obj
 0001:00010750       ??0?$map@V?$basic_string@DU?$char_traits@D@std@@V?$allocator@D@2@@std@@KU?$less@V?$basic_string@DU?$char_traits@D@std@@V?$allocator@D@2@@std@@@2@V?$allocator@U?$pair@$$CBV?$basic_string@DU?$char_traits@D@std@@V?$allocator@D@2@@std@@K@std@@@2@@std@@QAE@XZ 04011750 f i MQ2EQBC.obj
 0001:00010770       ?insert@?$vector@V?$basic_string@DU?$char_traits@D@std@@V?$allocator@D@2@@std@@V?$allocator@V?$basic_string@DU?$char_traits@D@std@@V?$allocator@D@2@@std@@@2@@std@@QAE?AV?$_Vector_iterator@V?$basic_string@DU?$char_traits@D@std@@V?$allocator@D@2@@std@@V?$allocator@V?$basic_string@DU?$char_traits@D@std@@V?$allocator@D@2@@std@@@2@@2@V?$_Vector_const_iterator@V?$basic_string@DU?$char_traits@D@std@@V?$allocator@D@2@@std@@V?$allocator@V?$basic_string@DU?$char_traits@D@std@@V?$allocator@D@2@@std@@@2@@2@ABV?$basic_string@DU?$char_traits@D@std@@V?$allocator@D@2@@2@@Z 04011770 f i MQ2EQBC.obj
 0001:00010830       ??0?$map@V?$basic_string@DU?$char_traits@D@std@@V?$allocator@D@2@@std@@V12@U?$less@V?$basic_string@DU?$char_traits@D@std@@V?$allocator@D@2@@std@@@2@V?$allocator@U?$pair@$$CBV?$basic_string@DU?$char_traits@D@std@@V?$allocator@D@2@@std@@V12@@std@@@2@@std@@QAE@XZ 04011830 f i MQ2EQBC.obj
 0001:00010850       ??0MQ2Type@MQ2Internal@@QAE@PAD@Z 04011850 f i MQ2EQBC.obj
 0001:000108e0       ?InitVariable@MQ2Type@MQ2Internal@@UAEXAAU_MQ2VarPtr@2@@Z 040118e0 f i MQ2EQBC.obj
 0001:000108f0       ?FreeVariable@MQ2Type@MQ2Internal@@UAEXAAU_MQ2VarPtr@2@@Z 040118f0 f i MQ2EQBC.obj
 0001:00010900       ?ToString@MQ2Type@MQ2Internal@@UAE_NU_MQ2VarPtr@2@PAD@Z 04011900 f i MQ2EQBC.obj
 0001:00010920       ??1MQ2Type@MQ2Internal@@QAE@XZ 04011920 f i MQ2EQBC.obj
 0001:000109c0       ?WndNotification@CMQ2EqbcWnd@@QAEHPAVCXWnd@EQClasses@@IPAX@Z 040119c0 f i MQ2EQBC.obj
 0001:00010f10       ??0MQ2GlobalVarType@@QAE@XZ 04011f10 f i MQ2EQBC.obj
 0001:00010fb0       ?FromData@MQ2GlobalVarType@@UAE_NAAU_MQ2VarPtr@MQ2Internal@@AAU_MQ2TypeVar@3@@Z 04011fb0 f i MQ2EQBC.obj
 0001:00010fc0       ?FromString@MQ2GlobalVarType@@UAE_NAAU_MQ2VarPtr@MQ2Internal@@PAD@Z 04011fc0 f i MQ2EQBC.obj
 0001:00010fd0       ?ToString@MQ2GlobalVarType@@UAE_NU_MQ2VarPtr@MQ2Internal@@PAD@Z 04011fd0 f i MQ2EQBC.obj
 0001:00011020       ??4?$basic_string@DU?$char_traits@D@std@@V?$allocator@D@2@@std@@QAEAAV01@PBD@Z 04012020 f i MQ2EQBC.obj
 0001:00011050       ?GetMember@MQ2GlobalVarType@@UAE_NU_MQ2VarPtr@MQ2Internal@@PAD1AAU_MQ2TypeVar@3@@Z 04012050 f i MQ2EQBC.obj
 0001:00011360       ??1MQ2GlobalVarType@@QAE@XZ 04012360 f i MQ2EQBC.obj
 0001:000113d0       ??_GMQ2GlobalVarType@@QAEPAXI@Z 040123d0 f i MQ2EQBC.obj
 0001:000113f0       ??0EQBCType@@QAE@XZ        040123f0 f   MQ2EQBC.obj
 0001:00011450       ??1EQBCType@@QAE@XZ        04012450 f   MQ2EQBC.obj
 0001:00011460       ??0CMQ2EqbcWnd@@QAE@PAVCXStr@EQClasses@@@Z 04012460 f i MQ2EQBC.obj
 0001:00011560       ?CreateChatWindowIfNeeded@@YAXXZ 04012560 f   MQ2EQBC.obj
 0001:00011ab0       _InitializePlugin          04012ab0 f   MQ2EQBC.obj
 0001:00011d90       ??_GEQBCType@@QAEPAXI@Z    04012d90 f i MQ2EQBC.obj
 0001:00011db0       _SetGameState              04012db0 f   MQ2EQBC.obj
 0001:00011e10       _OnReloadUI                04012e10 f   MQ2EQBC.obj
 0001:00011e30       _ShutdownPlugin            04012e30 f   MQ2EQBC.obj
 0001:00011f5a       _send@16                   04012f5a f   wsock32:WSOCK32.dll
 0001:00011f60       _ioctlsocket@12            04012f60 f   wsock32:WSOCK32.dll
 0001:00011f66       _connect@12                04012f66 f   wsock32:WSOCK32.dll
 0001:00011f6c       _WSASetLastError@4         04012f6c f   wsock32:WSOCK32.dll
 0001:00011f72       _WSAGetLastError@0         04012f72 f   wsock32:WSOCK32.dll
 0001:00011f78       _htons@4                   04012f78 f   wsock32:WSOCK32.dll
 0001:00011f7e       _socket@12                 04012f7e f   wsock32:WSOCK32.dll
 0001:00011f84       _WSACleanup@0              04012f84 f   wsock32:WSOCK32.dll
 0001:00011f8a       _gethostbyname@4           04012f8a f   wsock32:WSOCK32.dll
 0001:00011f90       _WSAStartup@8              04012f90 f   wsock32:WSOCK32.dll
 0001:00011f96       _closesocket@4             04012f96 f   wsock32:WSOCK32.dll
 0001:00011f9c       _recv@16                   04012f9c f   wsock32:WSOCK32.dll
 0001:00011fa2       _EnterCriticalSection@4    04012fa2 f   kernel32:KERNEL32.dll
 0001:00011fa8       _LeaveCriticalSection@4    04012fa8 f   kernel32:KERNEL32.dll
 0001:00011fae       _Sleep@4                   04012fae f   kernel32:KERNEL32.dll
 0001:00011fb4       _GetProcAddress@8          04012fb4 f   kernel32:KERNEL32.dll
 0001:00011fba       _WritePrivateProfileStringA@16 04012fba f   kernel32:KERNEL32.dll
 0001:00011fc0       _CreateThread@24           04012fc0 f   kernel32:KERNEL32.dll
 0001:00011fc6       _GetPrivateProfileStringA@24 04012fc6 f   kernel32:KERNEL32.dll
 0001:00011fcc       _InitializeCriticalSection@4 04012fcc f   kernel32:KERNEL32.dll
 0001:00011fd2       _DeleteCriticalSection@4   04012fd2 f   kernel32:KERNEL32.dll
 0001:00011fd8       _GetTickCount@0            04012fd8 f   kernel32:KERNEL32.dll
 0001:00011fde       _GetPrivateProfileIntA@16  04012fde f   kernel32:KERNEL32.dll
 0001:00011fe4       __Tolower                  04012fe4 f   libcpmt:_tolower.obj
 0001:000120f1       __Getctype                 040130f1 f   libcpmt:_tolower.obj
 0001:00012151       __Wcrtomb                  04013151 f   libcpmt:xwctomb.obj
 0001:000121d8       __Getcvt                   040131d8 f   libcpmt:xwctomb.obj
 0001:000121ee       ___Wcrtomb_lk              040131ee f   libcpmt:xwctomb.obj
 0001:000121f9       ??0_Init_locks@std@@QAE@XZ 040131f9 f   libcpmt:xlock.obj
 0001:0001222a       ??1_Init_locks@std@@QAE@XZ 0401322a f   libcpmt:xlock.obj
 0001:00012253       ?_Init_locks_ctor@_Init_locks@std@@CAXPAV12@@Z 04013253 f   libcpmt:xlock.obj
 0001:0001227c       ?_Init_locks_dtor@_Init_locks@std@@CAXPAV12@@Z 0401327c f   libcpmt:xlock.obj
 0001:000122a5       ??0_Lockit@std@@QAE@XZ     040132a5 f   libcpmt:xlock.obj
 0001:000122bc       ??0_Lockit@std@@QAE@H@Z    040132bc f   libcpmt:xlock.obj
 0001:000122e4       ??1_Lockit@std@@QAE@XZ     040132e4 f   libcpmt:xlock.obj
 0001:000122fb       ?_Lockit_ctor@_Lockit@std@@CAXPAV12@@Z 040132fb f   libcpmt:xlock.obj
 0001:00012307       ?_Lockit_ctor@_Lockit@std@@CAXPAV12@H@Z 04013307 f   libcpmt:xlock.obj
 0001:00012328       ?_Lockit_dtor@_Lockit@std@@CAXPAV12@@Z 04013328 f   libcpmt:xlock.obj
 0001:00012343       ?_Lockit_ctor@_Lockit@std@@SAXH@Z 04013343 f   libcpmt:xlock.obj
 0001:0001235f       ?_Lockit_dtor@_Lockit@std@@SAXH@Z 0401335f f   libcpmt:xlock.obj
 0001:0001237b       ??0locale@std@@QAE@W4_Uninitialized@1@@Z 0401337b f i libcpmt:locale0.obj
 0001:00012380       ??0locale@std@@AAE@PAV_Locimp@01@@Z 04013380 f i libcpmt:locale0.obj
 0001:00012390       ?_AtModuleExit@@YAXP6AXXZ@Z 04013390 f   libcpmt:locale0.obj
 0001:000123aa       ??0_Fac_node@std@@QAE@PAU01@PAVfacet@locale@1@@Z 040133aa f i libcpmt:locale0.obj
 0001:000123c0       ??1_Fac_node@std@@QAE@XZ   040133c0 f i libcpmt:locale0.obj
 0001:000123d5       ??_G_Fac_node@std@@QAEPAXI@Z 040133d5 f i libcpmt:locale0.obj
 0001:000123f6       __Deletegloballocale       040133f6 f   libcpmt:locale0.obj
 0001:00012443       ?_Getgloballocale@locale@std@@CAPAV_Locimp@12@XZ 04013443 f   libcpmt:locale0.obj
 0001:00012449       ?_Setgloballocale@locale@std@@CAXPAX@Z 04013449 f   libcpmt:locale0.obj
 0001:00012473       ?_Clocptr_func@_Locimp@locale@std@@CAAAPAV123@XZ 04013473 f   libcpmt:locale0.obj
 0001:00012479       ?_Id_cnt_func@id@locale@std@@CAAAHXZ 04013479 f   libcpmt:locale0.obj
 0001:0001247f       ?_Id_func@?$ctype@D@std@@SAAAVid@locale@2@XZ 0401347f f   libcpmt:locale0.obj
 0001:00012485       ?_Id_func@?$ctype@_W@std@@SAAAVid@locale@2@XZ 04013485 f   libcpmt:locale0.obj
 0001:0001248b       ?_Id_func@?$codecvt@_WDH@std@@SAAAVid@locale@2@XZ 0401348b f   libcpmt:locale0.obj
 0001:00012491       ?_Id_func@?$ctype@G@std@@SAAAVid@locale@2@XZ 04013491 f   libcpmt:locale0.obj
 0001:00012497       ?_Id_func@?$codecvt@GDH@std@@SAAAVid@locale@2@XZ 04013497 f   libcpmt:locale0.obj
 0001:0001249d       ?_Locimp_dtor@_Locimp@locale@std@@CAXPAV123@@Z 0401349d f   libcpmt:locale0.obj
 0001:000124fd       __Fac_tidy                 040134fd f   libcpmt:locale0.obj
 0001:00012532       ?facet_Register@facet@locale@std@@CAXPAV123@@Z 04013532 f   libcpmt:locale0.obj
 0001:00012570       ?_Locinfo_dtor@_Locinfo@std@@SAXPAV12@@Z 04013570 f   libcpmt:locale0.obj
 0001:00012598       ??0_Locimp@locale@std@@AAE@_N@Z 04013598 f i libcpmt:locale0.obj
 0001:000125e1       ??1_Locimp@locale@std@@MAE@XZ 040135e1 f i libcpmt:locale0.obj
 0001:0001261e       ??_G_Locimp@locale@std@@MAEPAXI@Z 0401361e f i libcpmt:locale0.obj
 0001:0001261e       ??_E_Locimp@locale@std@@MAEPAXI@Z 0401361e f i libcpmt:locale0.obj
 0001:0001263f       ?_Init@locale@std@@CAPAV_Locimp@12@XZ 0401363f f   libcpmt:locale0.obj
 0001:000126d9       ?_Locinfo_ctor@_Locinfo@std@@SAXPAV12@PBD@Z 040136d9 f   libcpmt:locale0.obj
 0001:00012726       ?_Locinfo_ctor@_Locinfo@std@@SAXPAV12@ABV?$basic_string@DU?$char_traits@D@std@@V?$allocator@D@2@@2@@Z 04013726 f   libcpmt:locale0.obj
 0001:00012782       ?classic@locale@std@@SAABV12@XZ 04013782 f   libcpmt:locale0.obj
 0001:0001278d       ?empty@locale@std@@SA?AV12@XZ 0401378d f   libcpmt:locale0.obj
 0001:000127cf       ?_Callfns@ios_base@std@@AAEXW4event@12@@Z 040137cf f i libcpmt:ios.obj
 0001:000127f6       ?_Tidy@ios_base@std@@AAAXXZ 040137f6 f i libcpmt:ios.obj
 0001:00012841       ?_Fpz_func@std@@YAAA_JXZ   04013841 f   libcpmt:ios.obj
 0001:00012847       ?_BADOFF_func@std@@YAABJXZ 04013847 f   libcpmt:ios.obj
 0001:0001284d       ?_Index_func@ios_base@std@@CAAAHXZ 0401384d f   libcpmt:ios.obj
 0001:00012853       ?_Sync_func@ios_base@std@@CAAA_NXZ 04013853 f   libcpmt:ios.obj
 0001:00012859       ?_Addstd@ios_base@std@@SAXPAV12@@Z 04013859 f   libcpmt:ios.obj
 0001:000128ab       ?_Ios_base_dtor@ios_base@std@@CAXPAV12@@Z 040138ab f   libcpmt:ios.obj
 0001:000128e7       ??0_Mutex@std@@QAE@XZ      040138e7 f   libcpmt:xmutex.obj
 0001:00012901       ??1_Mutex@std@@QAE@XZ      04013901 f   libcpmt:xmutex.obj
 0001:00012918       ?_Lock@_Mutex@std@@QAEXXZ  04013918 f   libcpmt:xmutex.obj
 0001:00012921       ?_Unlock@_Mutex@std@@QAEXXZ 04013921 f   libcpmt:xmutex.obj
 0001:0001292a       ?_Mutex_ctor@_Mutex@std@@CAXPAV12@@Z 0401392a f   libcpmt:xmutex.obj
 0001:00012945       ?_Mutex_dtor@_Mutex@std@@CAXPAV12@@Z 04013945 f   libcpmt:xmutex.obj
 0001:00012961       ?_Mutex_Lock@_Mutex@std@@CAXPAV12@@Z 04013961 f   libcpmt:xmutex.obj
 0001:00012973       ?_Mutex_Unlock@_Mutex@std@@CAXPAV12@@Z 04013973 f   libcpmt:xmutex.obj
 0001:00012985       __Toupper                  04013985 f   libcpmt:_toupper.obj
 0001:00012a97       ??0invalid_argument@std@@QAE@ABV?$basic_string@DU?$char_traits@D@std@@V?$allocator@D@2@@1@@Z 04013a97 f i libcpmt:string.obj
 0001:00012ab4       ??1invalid_argument@std@@UAE@XZ 04013ab4 f i libcpmt:string.obj
 0001:00012abf       ??_Ginvalid_argument@std@@UAEPAXI@Z 04013abf f i libcpmt:string.obj
 0001:00012abf       ??_Einvalid_argument@std@@UAEPAXI@Z 04013abf f i libcpmt:string.obj
 0001:00012ae6       ?_Xlen@_String_base@std@@SAXXZ 04013ae6 f   libcpmt:string.obj
 0001:00012b1e       ?_Xran@_String_base@std@@SAXXZ 04013b1e f   libcpmt:string.obj
 0001:00012b56       ?_Xinvarg@_String_base@std@@SAXXZ 04013b56 f   libcpmt:string.obj
 0001:00012b8e       ??0invalid_argument@std@@QAE@ABV01@@Z 04013b8e f i libcpmt:string.obj
 0001:00012bab       ??_U@YAPAXI@Z              04013bab f   libcpmt:newaop.obj
 0001:00012bb6       __Stoulx                   04013bb6 f   libcpmt:xstoul.obj
 0001:00012d4e       __Stoul                    04013d4e f   libcpmt:xstoul.obj
 0001:00012d68       __Stolx                    04013d68 f   libcpmt:xstol.obj
 0001:00012e0d       __Stollx                   04013e0d f   libcpmt:xstoll.obj
 0001:00012ed0       __Stoll                    04013ed0 f   libcpmt:xstoll.obj
 0001:00012eea       __Stoullx                  04013eea f   libcpmt:xstoull.obj
 0001:000130ec       __Stoull                   040140ec f   libcpmt:xstoull.obj
 0001:00013106       __Stofx                    04014106 f   libcpmt:xstof.obj
 0001:00013128       __Stof                     04014128 f   libcpmt:xstof.obj
 0001:00013147       __Stodx                    04014147 f   libcpmt:xstod.obj
 0001:000131b0       __Stod                     040141b0 f   libcpmt:xstod.obj
 0001:000131cd       __Stoldx                   040141cd f   libcpmt:xstold.obj
 0001:000131d8       __Stold                    040141d8 f   libcpmt:xstold.obj
 0001:00013232       __GetLocaleForCP           04014232 f   libcpmt:xmbtowc.obj
 0001:00013320       __Mbrtowc                  04014320 f   libcpmt:xmbtowc.obj
 0001:00013494       __Once                     04014494 f   libcpmt:xmtx.obj
 0001:000134cf       __Mtxinit                  040144cf f   libcpmt:xmtx.obj
 0001:000134df       __Mtxdst                   040144df f   libcpmt:xmtx.obj
 0001:000134ef       __Mtxlock                  040144ef f   libcpmt:xmtx.obj
 0001:000134ff       __Mtxunlock                040144ff f   libcpmt:xmtx.obj
 0001:0001350f       ?_Atexit@@YAXP6AXXZ@Z      0401450f f   libcpmt:iosptrs.obj
 0001:00013535       ??1_Init_atexit@@QAE@XZ    04014535 f i libcpmt:iosptrs.obj
 0001:0001355a       ?GetClassDesc@CEverQuest@EQClasses@@QAEPADH@Z 0401455a f   MQ2Main:MQ2Main.dll
 0001:00013560       _DebugSpewAlways           04014560 f   MQ2Main:MQ2Main.dll
 0001:00013566       ?SetVScrollPos@CXWnd@EQClasses@@QAEHH@Z 04014566 f   MQ2Main:MQ2Main.dll
 0001:0001356c       ?ForceParseNow@CStmlWnd@EQClasses@@QAEXXZ 0401456c f   MQ2Main:MQ2Main.dll
 0001:00013572       ?SetSTMLText@CStmlWnd@EQClasses@@QAEXAAVCXStr@2@_NPAVSLinkInfo@2@@Z 04014572 f   MQ2Main:MQ2Main.dll
 0001:00013578       ?SetFont@CXWnd@EQClasses@@QAEHPAX@Z 04014578 f   MQ2Main:MQ2Main.dll
 0001:0001357e       ?GetSTMLText@CStmlWnd@EQClasses@@QBEPAVCXStr@2@AAPAV32@@Z 0401457e f   MQ2Main:MQ2Main.dll
 0001:00013584       _WriteChatColor            04014584 f   MQ2Main:MQ2Main.dll
 0001:0001358a       ??1CXStr@EQClasses@@QAE@XZ 0401458a f   MQ2Main:MQ2Main.dll
 0001:00013590       ?AppendSTML@CStmlWnd@EQClasses@@QAEAAVCXSize@2@PAV32@VCXStr@2@@Z 04014590 f   MQ2Main:MQ2Main.dll
 0001:00013596       ??0CXStr@EQClasses@@QAE@ABV01@@Z 04014596 f   MQ2Main:MQ2Main.dll
 0001:0001359c       ??0CXStr@EQClasses@@QAE@PBD@Z 0401459c f   MQ2Main:MQ2Main.dll
 0001:000135a2       _MQToSTML                  040145a2 f   MQ2Main:MQ2Main.dll
 0001:000135a8       _CheckChatForEvent         040145a8 f   MQ2Main:MQ2Main.dll
 0001:000135ae       _StripMQChat               040145ae f   MQ2Main:MQ2Main.dll
 0001:000135b4       ?Show@CXWnd@EQClasses@@QAEH_N0@Z 040145b4 f   MQ2Main:MQ2Main.dll
 0001:000135ba       _SetCXStr                  040145ba f   MQ2Main:MQ2Main.dll
 0001:000135c0       _GetCXStr                  040145c0 f   MQ2Main:MQ2Main.dll
 0001:000135c6       _GetArg                    040145c6 f   MQ2Main:MQ2Main.dll
 0001:000135cc       _DebugSpew                 040145cc f   MQ2Main:MQ2Main.dll
 0001:000135d2       _HideDoCommand             040145d2 f   MQ2Main:MQ2Main.dll
 0001:000135d8       ?Cur_HP@EQ_Character1@EQClasses@@QAEHHE@Z 040145d8 f   MQ2Main:MQ2Main.dll
 0001:000135de       ?Max_HP@EQ_Character1@EQClasses@@QAEHHH@Z 040145de f   MQ2Main:MQ2Main.dll
 0001:000135e4       ?Max_Mana@EQ_Character1@EQClasses@@QAEHH@Z 040145e4 f   MQ2Main:MQ2Main.dll
 0001:000135ea       ?Max_Endurance@EQ_Character1@EQClasses@@QAEHH@Z 040145ea f   MQ2Main:MQ2Main.dll
 0001:000135f0       ?GetRaceDesc@CEverQuest@EQClasses@@QAEPADH@Z 040145f0 f   MQ2Main:MQ2Main.dll
 0001:000135f6       _GetGameState              040145f6 f   MQ2Main:MQ2Main.dll
 0001:000135fc       _FindMQ2Window             040145fc f   MQ2Main:MQ2Main.dll
 0001:00013602       ?GetXMLData@CXWnd@EQClasses@@QAEPAVCXMLData@2@XZ 04014602 f   MQ2Main:MQ2Main.dll
 0001:00013608       _WriteChatf                04014608 f   MQ2Main:MQ2Main.dll
 0001:0001360e       ?OnMinimizeBox@CXWnd@EQClasses@@QAEHXZ 0401460e f   MQ2Main:MQ2Main.dll
 0001:00013614       _GetNextArg                04014614 f   MQ2Main:MQ2Main.dll
 0001:0001361a       ??1CSidlScreenWnd@EQClasses@@QAE@XZ 0401461a f   MQ2Main:MQ2Main.dll
 0001:00013620       ?CreateChildrenFromSidl@CSidlScreenWnd@EQClasses@@QAEXXZ 04014620 f   MQ2Main:MQ2Main.dll
 0001:00013626       ??0CSidlScreenWnd@EQClasses@@QAE@PAVCXWnd@1@PAVCXStr@1@HHPAD@Z 04014626 f   MQ2Main:MQ2Main.dll
 0001:0001362c       _AddMQ2Type                0401462c f   MQ2Main:MQ2Main.dll
 0001:00013632       _RemoveMQ2Type             04014632 f   MQ2Main:MQ2Main.dll
 0001:00013638       ?WndNotification@CSidlScreenWnd@EQClasses@@QAEHPAVCXWnd@2@IPAX@Z 04014638 f   MQ2Main:MQ2Main.dll
 0001:0001363e       ?ClrFocus@CXWnd@EQClasses@@QAEXXZ 0401463e f   MQ2Main:MQ2Main.dll
 0001:00013644       ?SetMaxChars@CEditBaseWnd@EQClasses@@QAEXH@Z 04014644 f   MQ2Main:MQ2Main.dll
 0001:0001364a       ?GetChildItem@CSidlScreenWnd@EQClasses@@QAEPAVCXWnd@2@PAD@Z 0401464a f   MQ2Main:MQ2Main.dll
 0001:00013650       _AddMQ2Data                04014650 f   MQ2Main:MQ2Main.dll
 0001:00013656       _AddCommand                04014656 f   MQ2Main:MQ2Main.dll
 0001:0001365c       _RemoveMQ2Data             0401465c f   MQ2Main:MQ2Main.dll
 0001:00013662       _RemoveCommand             04014662 f   MQ2Main:MQ2Main.dll
 0001:00013680       _strchr                    04014680 f   LIBCMT:strchr.obj
 0001:00013686       ___from_strstr_to_strchr   04014686     LIBCMT:strchr.obj
 0001:0001373e       ??0exception@std@@QAE@XZ   0401473e f   LIBCMT:stdexcpt.obj
 0001:0001374f       ??0exception@std@@QAE@ABQBD@Z 0401474f f   LIBCMT:stdexcpt.obj
 0001:000137a2       ??0exception@std@@QAE@ABQBDH@Z 040147a2 f   LIBCMT:stdexcpt.obj
 0001:000137bf       ??0exception@std@@QAE@ABV01@@Z 040147bf f   LIBCMT:stdexcpt.obj
 0001:0001381c       ??4exception@std@@QAEAAV01@ABV01@@Z 0401481c f   LIBCMT:stdexcpt.obj
 0001:00013877       ??1exception@std@@UAE@XZ   04014877 f   LIBCMT:stdexcpt.obj
 0001:0001388d       ?what@exception@std@@UBEPBDXZ 0401488d f   LIBCMT:stdexcpt.obj
 0001:0001389a       ??0bad_cast@std@@QAE@PBD@Z 0401489a f   LIBCMT:stdexcpt.obj
 0001:000138b8       ??0bad_cast@std@@QAE@ABV01@@Z 040148b8 f   LIBCMT:stdexcpt.obj
 0001:000138d5       ??1bad_cast@std@@UAE@XZ    040148d5 f   LIBCMT:stdexcpt.obj
 0001:000138e0       ??0bad_typeid@std@@QAE@PBD@Z 040148e0 f   LIBCMT:stdexcpt.obj
 0001:000138fe       ??0bad_typeid@std@@QAE@ABV01@@Z 040148fe f   LIBCMT:stdexcpt.obj
 0001:0001391b       ??1bad_typeid@std@@UAE@XZ  0401491b f   LIBCMT:stdexcpt.obj
 0001:00013926       ??0__non_rtti_object@std@@QAE@PBD@Z 04014926 f   LIBCMT:stdexcpt.obj
 0001:00013943       ??0__non_rtti_object@std@@QAE@ABV01@@Z 04014943 f   LIBCMT:stdexcpt.obj
 0001:00013960       ??1__non_rtti_object@std@@UAE@XZ 04014960 f   LIBCMT:stdexcpt.obj
 0001:0001396b       ??_Gexception@std@@UAEPAXI@Z 0401496b f i LIBCMT:stdexcpt.obj
 0001:0001396b       ??_Eexception@std@@UAEPAXI@Z 0401496b f i LIBCMT:stdexcpt.obj
 0001:0001398c       ??_Ebad_cast@std@@UAEPAXI@Z 0401498c f i LIBCMT:stdexcpt.obj
 0001:0001398c       ??_Gbad_cast@std@@UAEPAXI@Z 0401498c f i LIBCMT:stdexcpt.obj
 0001:000139b3       ??_Ebad_typeid@std@@UAEPAXI@Z 040149b3 f i LIBCMT:stdexcpt.obj
 0001:000139b3       ??_Gbad_typeid@std@@UAEPAXI@Z 040149b3 f i LIBCMT:stdexcpt.obj
 0001:000139da       ??_G__non_rtti_object@std@@UAEPAXI@Z 040149da f i LIBCMT:stdexcpt.obj
 0001:000139da       ??_E__non_rtti_object@std@@UAEPAXI@Z 040149da f i LIBCMT:stdexcpt.obj
 0001:00013a01       ?name@type_info@@QBEPBDPAU__type_info_node@@@Z 04014a01 f   LIBCMT:typinfo.obj
 0001:00013a15       ??1type_info@@UAE@XZ       04014a15 f   LIBCMT:typinfo.obj
 0001:00013a25       ??_Gtype_info@@UAEPAXI@Z   04014a25 f i LIBCMT:typinfo.obj
 0001:00013a25       ??_Etype_info@@UAEPAXI@Z   04014a25 f i LIBCMT:typinfo.obj
 0001:00013a46       ?_name_internal_method@type_info@@QBEPBDPAU__type_info_node@@@Z 04014a46 f   LIBCMT:typinfo.obj
 0001:00013a5a       ?_type_info_dtor_internal_method@type_info@@QAEXXZ 04014a5a f   LIBCMT:typinfo.obj
 0001:00013a64       ??8type_info@@QBE_NABV0@@Z 04014a64 f   LIBCMT:typinfo.obj
 0001:00013a84       ??9type_info@@QBE_NABV0@@Z 04014a84 f   LIBCMT:typinfo.obj
 0001:00013aa5       ?before@type_info@@QBEHABV1@@Z 04014aa5 f   LIBCMT:typinfo.obj
 0001:00013ac9       ?raw_name@type_info@@QBEPBDXZ 04014ac9 f   LIBCMT:typinfo.obj
 0001:00013acd       ??0type_info@@AAE@ABV0@@Z  04014acd f   LIBCMT:typinfo.obj
 0001:00013ad8       ??4type_info@@AAEAAV0@ABV0@@Z 04014ad8 f   LIBCMT:typinfo.obj
 0001:00013add       ??3@YAXPAX@Z               04014add f   LIBCMT:delete.obj
 0001:00013ae8       _memcpy_s                  04014ae8 f   LIBCMT:memcpy_s.obj
 0001:00013b70       _memchr                    04014b70 f   LIBCMT:memchr.obj
 0001:00013c1d       _memmove_s                 04014c1d f   LIBCMT:memmove_s.obj
 0001:00013c80       _memset                    04014c80 f   LIBCMT:memset.obj
 0001:00013cfa       ??0bad_alloc@std@@QAE@XZ   04014cfa f i LIBCMT:new.obj
 0001:00013d15       ??2@YAPAXI@Z               04014d15 f   LIBCMT:new.obj
 0001:00013d7a       _sprintf                   04014d7a f   LIBCMT:sprintf.obj
 0001:00013df7       __sprintf_l                04014df7 f   LIBCMT:sprintf.obj
 0001:00013e13       _sprintf_s                 04014e13 f   LIBCMT:sprintf.obj
 0001:00013e31       __sprintf_s_l              04014e31 f   LIBCMT:sprintf.obj
 0001:00013e50       __snprintf_s               04014e50 f   LIBCMT:sprintf.obj
 0001:00013e71       __snprintf_s_l             04014e71 f   LIBCMT:sprintf.obj
 0001:00013e93       __sprintf_p                04014e93 f   LIBCMT:sprintf.obj
 0001:00013eb1       __sprintf_p_l              04014eb1 f   LIBCMT:sprintf.obj
 0001:00013ed0       __scprintf                 04014ed0 f   LIBCMT:sprintf.obj
 0001:00013ee5       __scprintf_p               04014ee5 f   LIBCMT:sprintf.obj
 0001:00013efa       __scprintf_l               04014efa f   LIBCMT:sprintf.obj
 0001:00013f13       __scprintf_p_l             04014f13 f   LIBCMT:sprintf.obj
 0001:00013f2c       ?_JumpToContinuation@@YGXPAXPAUEHRegistrationNode@@@Z 04014f2c f   LIBCMT:_trnsctrl_.obj
 0001:00013f5e       ?_CallMemberFunction0@@YGXPAX0@Z 04014f5e f   LIBCMT:_trnsctrl_.obj
 0001:00013f65       ?_CallMemberFunction1@@YGXPAX00@Z 04014f65 f   LIBCMT:_trnsctrl_.obj
 0001:00013f6c       ?_CallMemberFunction2@@YGXPAX00H@Z 04014f6c f   LIBCMT:_trnsctrl_.obj
 0001:00013f73       ?_UnwindNestedFrames@@YGXPAUEHRegistrationNode@@PAUEHExceptionRecord@@@Z 04014f73 f   LIBCMT:_trnsctrl_.obj
 0001:00013fc7       ___CxxFrameHandler         04014fc7 f   LIBCMT:_trnsctrl_.obj
 0001:00013ffd       ___CxxFrameHandler3        04014ffd f   LIBCMT:_trnsctrl_.obj
 0001:00014033       ___CxxFrameHandler2        04015033 f   LIBCMT:_trnsctrl_.obj
 0001:00014069       ___CxxLongjmpUnwind@4      04015069 f   LIBCMT:_trnsctrl_.obj
 0001:000140bb       ?_CallSETranslator@@YAHPAUEHExceptionRecord@@PAUEHRegistrationNode@@PAX2PBU_s_FuncInfo@@H1@Z 040150bb f   LIBCMT:_trnsctrl_.obj
 0001:00014231       ?_GetRangeOfTrysToCheck@@YAPBU_s_TryBlockMapEntry@@PBU_s_FuncInfo@@HHPAI1@Z 04015231 f   LIBCMT:_trnsctrl_.obj
 0001:000142a6       __CreateFrameInfo          040152a6 f   LIBCMT:_trnsctrl_.obj
 0001:000142d2       __IsExceptionObjectToBeDestroyed 040152d2 f   LIBCMT:_trnsctrl_.obj
 0001:000142f9       __FindAndUnlinkFrame       040152f9 f   LIBCMT:_trnsctrl_.obj
 0001:0001434b       ?_CallCatchBlock2@@YAPAXPAUEHRegistrationNode@@PBU_s_FuncInfo@@PAXHK@Z 0401534b f   LIBCMT:_trnsctrl_.obj
 0001:000143ab       _atol                      040153ab f   LIBCMT:atox.obj
 0001:000143c1       __atol_l                   040153c1 f   LIBCMT:atox.obj
 0001:000143da       _atoi                      040153da f   LIBCMT:atox.obj
 0001:000143e5       __atoi_l                   040153e5 f   LIBCMT:atox.obj
 0001:000143f0       __atoi64                   040153f0 f   LIBCMT:atox.obj
 0001:00014406       __atoi64_l                 04015406 f   LIBCMT:atox.obj
 0001:00014420       __chkstk                   04015420 f   LIBCMT:chkstk.obj
 0001:00014420       __alloca_probe             04015420     LIBCMT:chkstk.obj
 0001:00014450       _strncat                   04015450 f   LIBCMT:strncat.obj
 0001:00014585       _strtok                    04015585 f   LIBCMT:strtok.obj
 0001:00014650       _memcpy                    04015650 f   LIBCMT:memcpy.obj
 0001:000149b5       ??0_LocaleUpdate@@QAE@PAUlocaleinfo_struct@@@Z 040159b5 f i LIBCMT:tolower.obj
 0001:00014a3c       ??1_LocaleUpdate@@QAE@XZ   04015a3c f i LIBCMT:tolower.obj
 0001:00014a4a       ?GetLocaleT@_LocaleUpdate@@QAEPAUlocaleinfo_struct@@XZ 04015a4a f i LIBCMT:tolower.obj
 0001:00014a4d       __tolower                  04015a4d f   LIBCMT:tolower.obj
 0001:00014a5a       __tolower_l                04015a5a f   LIBCMT:tolower.obj
 0001:00014b6f       _tolower                   04015b6f f   LIBCMT:tolower.obj
 0001:00014b9b       _strncmp                   04015b9b f   LIBCMT:strncmp.obj
 0001:00014c5b       _clock                     04015c5b f   LIBCMT:clock.obj
 0001:00014ca0       ___inittime                04015ca0 f   LIBCMT:clock.obj
 0001:00014cd9       _free                      04015cd9 f   LIBCMT:free.obj
 0001:00014d67       __initp_misc_invarg        04015d67 f   LIBCMT:invarg.obj
 0001:00014d76       __invoke_watson            04015d76 f   LIBCMT:invarg.obj
 0001:00014e9e       __set_invalid_parameter_handler 04015e9e f   LIBCMT:invarg.obj
 0001:00014ec5       __get_invalid_parameter_handler 04015ec5 f   LIBCMT:invarg.obj
 0001:00014ed2       ?_invoke_watson@@YAXPBG00II@Z 04015ed2 f   LIBCMT:invarg.obj
 0001:00014edd       __invalid_parameter        04015edd f   LIBCMT:invarg.obj
 0001:00014f03       __invalid_parameter_noinfo 04015f03 f   LIBCMT:invarg.obj
 0001:00014f13       ?_invalid_parameter@@YAXPBG00II@Z 04015f13 f   LIBCMT:invarg.obj
 0001:00014f1e       _V6_HeapAlloc              04015f1e f   LIBCMT:malloc.obj
 0001:00014f6d       __heap_alloc               04015f6d f i LIBCMT:malloc.obj
 0001:00014fe7       _malloc                    04015fe7 f   LIBCMT:malloc.obj
 0001:000150b1       __CxxThrowException@8      040160b1 f   LIBCMT:throw.obj
 0001:000150fd       ??_V@YAXPAX@Z              040160fd f   LIBCMT:delete2.obj
 0001:00015108       _localeconv                04016108 f   LIBCMT:lconv.obj
 0001:0001512e       __fpclear                  0401612e f   LIBCMT:_fpinit_.obj
 0001:0001512f       __cfltcvt_init             0401612f f   LIBCMT:_fpinit_.obj
 0001:0001518f       ___setfflag                0401618f f   LIBCMT:_fpinit_.obj
 0001:000151a4       __fpmath                   040161a4 f   LIBCMT:_fpinit_.obj
 0001:000151c7       __toupper                  040161c7 f   LIBCMT:toupper.obj
 0001:000151d4       __toupper_l                040161d4 f   LIBCMT:toupper.obj
 0001:000152ea       _toupper                   040162ea f   LIBCMT:toupper.obj
 0001:00015316       __isalpha_l                04016316 f i LIBCMT:_ctype.obj
 0001:0001536c       _isalpha                   0401636c f i LIBCMT:_ctype.obj
 0001:0001539c       __isupper_l                0401639c f i LIBCMT:_ctype.obj
 0001:000153ed       _isupper                   040163ed f i LIBCMT:_ctype.obj
 0001:0001541b       __islower_l                0401641b f i LIBCMT:_ctype.obj
 0001:0001546c       _islower                   0401646c f i LIBCMT:_ctype.obj
 0001:0001549a       __isdigit_l                0401649a f i LIBCMT:_ctype.obj
 0001:000154eb       _isdigit                   040164eb f i LIBCMT:_ctype.obj
 0001:00015519       __isxdigit_l               04016519 f i LIBCMT:_ctype.obj
 0001:0001556f       _isxdigit                  0401656f f i LIBCMT:_ctype.obj
 0001:0001559f       __isspace_l                0401659f f i LIBCMT:_ctype.obj
 0001:000155f0       _isspace                   040165f0 f i LIBCMT:_ctype.obj
 0001:0001561e       __ispunct_l                0401661e f i LIBCMT:_ctype.obj
 0001:0001566f       _ispunct                   0401666f f i LIBCMT:_ctype.obj
 0001:0001569d       __isalnum_l                0401669d f i LIBCMT:_ctype.obj
 0001:000156f3       _isalnum                   040166f3 f i LIBCMT:_ctype.obj
 0001:00015723       __isprint_l                04016723 f i LIBCMT:_ctype.obj
 0001:00015779       _isprint                   04016779 f i LIBCMT:_ctype.obj
 0001:000157a9       __isgraph_l                040167a9 f i LIBCMT:_ctype.obj
 0001:000157ff       _isgraph                   040167ff f i LIBCMT:_ctype.obj
 0001:0001582f       __iscntrl_l                0401682f f i LIBCMT:_ctype.obj
 0001:00015880       _iscntrl                   04016880 f i LIBCMT:_ctype.obj
 0001:000158ae       ___isascii                 040168ae f i LIBCMT:_ctype.obj
 0001:000158c0       ___toascii                 040168c0 f i LIBCMT:_ctype.obj
 0001:000158cd       __iscsymf_l                040168cd f i LIBCMT:_ctype.obj
 0001:000158f0       ___iscsymf                 040168f0 f i LIBCMT:_ctype.obj
 0001:0001590f       __iscsym_l                 0401690f f i LIBCMT:_ctype.obj
 0001:00015932       ___iscsym                  04016932 f i LIBCMT:_ctype.obj
 0001:00015960       _strncpy                   04016960 f   LIBCMT:strncpy.obj
 0001:00015a84       __purecall                 04016a84 f   LIBCMT:purevirt.obj
 0001:00015aae       __set_purecall_handler     04016aae f   LIBCMT:purevirt.obj
 0001:00015ad5       __get_purecall_handler     04016ad5 f   LIBCMT:purevirt.obj
 0001:00015b9c       ___onexitinit              04016b9c f   LIBCMT:onexit.obj
 0001:00015bcd       __onexit                   04016bcd f   LIBCMT:onexit.obj
 0001:00015c09       _atexit                    04016c09 f   LIBCMT:onexit.obj
 0001:00015c20       __CRT_INIT@12              04016c20 f   LIBCMT:dllcrt0.obj
 0001:00015e4b       __DllMainCRTStartup@12     04016e4b f   LIBCMT:dllcrt0.obj
 0001:00015e6e       __MarkAllocaS              04016e6e f i LIBCMT:a_map.obj
 0001:00015e84       __freea                    04016e84 f i LIBCMT:a_map.obj
 0001:00016267       ___crtLCMapStringA         04017267 f   LIBCMT:a_map.obj
 0001:000162ac       ___pwctype_func            040172ac f   LIBCMT:ctype.obj
 0001:000162b2       ___pctype_func             040172b2 f   LIBCMT:ctype.obj
 0001:000162db       ___init_ctype              040172db f   LIBCMT:initctyp.obj
 0001:0001667d       ____mb_cur_max_func        0401767d f   LIBCMT:initctyp.obj
 0001:000166a6       ____mb_cur_max_l_func      040176a6 f   LIBCMT:initctyp.obj
 0001:000166c2       ____lc_codepage_func       040176c2 f   LIBCMT:initctyp.obj
 0001:000166e8       ____lc_collate_cp_func     040176e8 f   LIBCMT:initctyp.obj
 0001:0001670e       ____lc_handle_func         0401770e f   LIBCMT:initctyp.obj
 0001:00016734       _wait_a_bit                04017734 f i LIBCMT:crtheap.obj
 0001:0001675a       __set_malloc_crt_max_wait  0401775a f   LIBCMT:crtheap.obj
 0001:0001676f       __malloc_crt               0401776f f   LIBCMT:crtheap.obj
 0001:000167b4       __calloc_crt               040177b4 f   LIBCMT:crtheap.obj
 0001:00016800       __realloc_crt              04017800 f   LIBCMT:crtheap.obj
 0001:0001684e       __recalloc_crt             0401784e f   LIBCMT:crtheap.obj
 0001:000168a0       __get_errno_from_oserr     040178a0 f   LIBCMT:dosmap.obj
 0001:000168e2       __errno                    040178e2 f   LIBCMT:dosmap.obj
 0001:000168f5       ___doserrno                040178f5 f   LIBCMT:dosmap.obj
 0001:00016908       __dosmaperr                04017908 f   LIBCMT:dosmap.obj
 0001:0001692b       __set_errno                0401792b f   LIBCMT:dosmap.obj
 0001:0001694c       __get_errno                0401794c f   LIBCMT:dosmap.obj
 0001:0001697b       __set_doserrno             0401797b f   LIBCMT:dosmap.obj
 0001:0001699c       __get_doserrno             0401799c f   LIBCMT:dosmap.obj
 0001:000169d0       _strlen                    040179d0 f   LIBCMT:strlen.obj
 0001:00016a5b       _abort                     04017a5b f   LIBCMT:abort.obj
 0001:00016b72       __set_abort_behavior       04017b72 f   LIBCMT:abort.obj
 0001:00016b93       @__security_check_cookie@4 04017b93 f   LIBCMT:secchk.obj
 0001:00016ba2       __EH_prolog3               04017ba2 f   LIBCMT:ehprolg3.obj
 0001:00016bd5       __EH_prolog3_catch         04017bd5 f   LIBCMT:ehprolg3.obj
 0001:00016c0b       __EH_prolog3_GS            04017c0b f   LIBCMT:ehprolg3.obj
 0001:00016c41       __EH_prolog3_catch_GS      04017c41 f   LIBCMT:ehprolg3.obj
 0001:00016c7a       __EH_epilog3               04017c7a f   LIBCMT:ehprolg3.obj
 0001:00016c8e       __EH_epilog3_GS            04017c8e f   LIBCMT:ehprolg3.obj
 0001:00016c9d       __EH_epilog3_catch_GS      04017c9d f   LIBCMT:ehprolg3.obj
 0001:00016cac       __invoke_watson_if_error   04017cac f i LIBCMT:setlocal.obj
 0001:00016cd0       ____setlc_active_func      04017cd0 f   LIBCMT:setlocal.obj
 0001:00016cd6       ____unguarded_readlc_active_add_func 04017cd6 f   LIBCMT:setlocal.obj
 0001:00016cdc       ___freetlocinfo            04017cdc f   LIBCMT:setlocal.obj
 0001:00016e25       ___addlocaleref            04017e25 f   LIBCMT:setlocal.obj
 0001:00016eb4       ___removelocaleref         04017eb4 f   LIBCMT:setlocal.obj
 0001:00016fb1       ___updatetlocinfo          04017fb1 f   LIBCMT:setlocal.obj
 0001:00017027       __configthreadlocale       04018027 f   LIBCMT:setlocal.obj
 0001:000170e4       __free_locale              040180e4 f   LIBCMT:setlocal.obj
 0001:000171a6       ___free_locale             040181a6 f   LIBCMT:setlocal.obj
 0001:000171b1       __get_current_locale       040181b1 f   LIBCMT:setlocal.obj
 0001:00017260       ___get_current_locale      04018260 f   LIBCMT:setlocal.obj
 0001:00017265       ___init_dummy              04018265 f   LIBCMT:setlocal.obj
 0001:00017268       __strcats                  04018268 f   LIBCMT:setlocal.obj
 0001:000172a8       ___lc_strtolc              040182a8 f   LIBCMT:setlocal.obj
 0001:000173d1       ___lc_lctostr              040183d1 f   LIBCMT:setlocal.obj
 0001:000175bb       __expandlocale             040185bb f   LIBCMT:setlocal.obj
 0001:00017d09       __create_locale            04018d09 f   LIBCMT:setlocal.obj
 0001:00017dfe       ___create_locale           04018dfe f   LIBCMT:setlocal.obj
 0001:00017e09       _setlocale                 04018e09 f   LIBCMT:setlocal.obj
 0001:00017f80       __aulldiv                  04018f80 f   LIBCMT:ulldiv.obj
 0001:00017ff0       __allmul                   04018ff0 f   LIBCMT:llmul.obj
 0001:00018024       __strtod_l                 04019024 f   LIBCMT:strtod.obj
 0001:00018143       _strtod                    04019143 f   LIBCMT:strtod.obj
 0001:00018237       __itoa_s                   04019237 f   LIBCMT:xtoas.obj
 0001:00018261       __ltoa_s                   04019261 f   LIBCMT:xtoas.obj
 0001:00018288       __ultoa_s                  04019288 f   LIBCMT:xtoas.obj
 0001:0001839a       __i64toa_s                 0401939a f   LIBCMT:xtoas.obj
 0001:000183cf       __ui64toa_s                040193cf f   LIBCMT:xtoas.obj
 0001:000183ee       _strcpy_s                  040193ee f   LIBCMT:strcpy_s.obj
 0001:00018456       ?_Type_info_dtor@type_info@@CAXPAV1@@Z 04019456 f   LIBCMT:typname.obj
 0001:000184c6       ?_Name_base@type_info@@CAPBDPBV1@PAU__type_info_node@@@Z 040194c6 f   LIBCMT:typname.obj
 0001:000185bb       ?_Type_info_dtor_internal@type_info@@CAXPAV1@@Z 040195bb f   LIBCMT:typname.obj
 0001:0001862b       ___unDNameHelper           0401962b f   LIBCMT:typname.obj
 0001:0001865e       ?_Name_base_internal@type_info@@CAPBDPBV1@PAU__type_info_node@@@Z 0401965e f   LIBCMT:typname.obj
 0001:0001876d       ___clean_type_info_names_internal 0401976d f   LIBCMT:typname.obj
 0001:000187c0       _strcmp                    040197c0 f   LIBCMT:strcmp.obj
 0001:00018850       _memmove                   04019850 f   LIBCMT:memmove.obj
 0001:00018c0c       __VEC_memzero              04019c0c f   LIBCMT:p4_memset.obj
 0001:00018ceb       __get_sse2_info            04019ceb f   LIBCMT:cpu_disp.obj
 0001:00018d4d       ___sse2_available_init     04019d4d f   LIBCMT:cpu_disp.obj
 0001:00018d5a       __initp_heap_handler       04019d5a f   LIBCMT:handler.obj
 0001:00018d69       ?_set_new_handler@@YAP6AHI@ZP6AHI@Z@Z 04019d69 f   LIBCMT:handler.obj
 0001:00018d9f       ?_set_new_handler@@YAP6AHI@ZH@Z 04019d9f f   LIBCMT:handler.obj
 0001:00018da8       ?_query_new_handler@@YAP6AHI@ZXZ 04019da8 f   LIBCMT:handler.obj
 0001:00018db5       __callnewh                 04019db5 f   LIBCMT:handler.obj
 0001:00018ddd       __flsbuf                   04019ddd f   LIBCMT:_flsbuf.obj
 0001:00018fe7       _get_int_arg               04019fe7 f i LIBCMT:output.obj
 0001:00018ff9       _get_int64_arg             04019ff9 f i LIBCMT:output.obj
 0001:0001900e       _get_short_arg             0401a00e f i LIBCMT:output.obj
 0001:00019021       __output_l                 0401a021 f   LIBCMT:output.obj
 0001:00019bb9       __vsprintf_l               0401abb9 f   LIBCMT:vsprintf.obj
 0001:00019c37       _vsprintf                  0401ac37 f   LIBCMT:vsprintf.obj
 0001:00019c51       __vscprintf_helper         0401ac51 f   LIBCMT:vsprintf.obj
 0001:00019ca8       __vscprintf                0401aca8 f   LIBCMT:vsprintf.obj
 0001:00019cc4       __vscprintf_l              0401acc4 f   LIBCMT:vsprintf.obj
 0001:00019ce1       __vscprintf_p              0401ace1 f   LIBCMT:vsprintf.obj
 0001:00019cfd       __vscprintf_p_l            0401acfd f   LIBCMT:vsprintf.obj
 0001:00019d1a       __vsnprintf_helper         0401ad1a f   LIBCMT:vsnprnc.obj
 0001:00019de6       __vsnprintf_c              0401ade6 f   LIBCMT:vsnprnc.obj
 0001:00019e0f       __vsnprintf_c_l            0401ae0f f   LIBCMT:vsnprnc.obj
 0001:00019e39       __vsprintf_s_l             0401ae39 f   LIBCMT:vsnprnc.obj
 0001:00019ec1       _vsprintf_s                0401aec1 f   LIBCMT:vsnprnc.obj
 0001:00019ede       __vsnprintf_s_l            0401aede f   LIBCMT:vsnprnc.obj
 0001:00019fe5       __vsnprintf_s              0401afe5 f   LIBCMT:vsnprnc.obj
 0001:0001a005       __vsprintf_p               0401b005 f   LIBCMT:vsnprnc.obj
 0001:0001a02e       __vsprintf_p_l             0401b02e f   LIBCMT:vsnprnc.obj
 0001:0001a058       ??0bad_exception@std@@QAE@PBD@Z 0401b058 f i LIBCMT:frame.obj
 0001:0001a076       ??1bad_exception@std@@UAE@XZ 0401b076 f i LIBCMT:frame.obj
 0001:0001a081       ??_Ebad_exception@std@@UAEPAXI@Z 0401b081 f i LIBCMT:frame.obj
 0001:0001a081       ??_Gbad_exception@std@@UAEPAXI@Z 0401b081 f i LIBCMT:frame.obj
 0001:0001a0a8       ___TypeMatch               0401b0a8 f   LIBCMT:frame.obj
 0001:0001a107       ___FrameUnwindFilter       0401b107 f   LIBCMT:frame.obj
 0001:0001a150       ___FrameUnwindToState      0401b150 f   LIBCMT:frame.obj
 0001:0001a276       ___DestructExceptionObject 0401b276 f   LIBCMT:frame.obj
 0001:0001a2cb       ___AdjustPointer           0401b2cb f   LIBCMT:frame.obj
 0001:0001a2f4       ?__uncaught_exception@@YA_NXZ 0401b2f4 f   LIBCMT:frame.obj
 0001:0001a307       ___CxxRegisterExceptionObject 0401b307 f   LIBCMT:frame.obj
 0001:0001a3be       ___CxxDetectRethrow        0401b3be f   LIBCMT:frame.obj
 0001:0001a410       ___CxxUnregisterExceptionObject 0401b410 f   LIBCMT:frame.obj
 0001:0001a54f       ___CxxQueryExceptionSize   0401b54f f   LIBCMT:frame.obj
 0001:0001a553       ___CxxCallUnwindDtor       0401b553 f   LIBCMT:frame.obj
 0001:0001a585       ___CxxCallUnwindDelDtor    0401b585 f   LIBCMT:frame.obj
 0001:0001a5b8       ___CxxCallUnwindStdDelDtor 0401b5b8 f   LIBCMT:frame.obj
 0001:0001a5ea       ___CxxCallUnwindVecDtor    0401b5ea f   LIBCMT:frame.obj
 0001:0001a71b       ?_is_exception_typeof@@YAHABVtype_info@@PAU_EXCEPTION_POINTERS@@@Z 0401b71b f   LIBCMT:frame.obj
 0001:0001a93d       ___BuildCatchObjectHelper  0401b93d f   LIBCMT:frame.obj
 0001:0001aabc       ___BuildCatchObject        0401babc f   LIBCMT:frame.obj
 0001:0001ab4e       ___CxxExceptionFilter      0401bb4e f   LIBCMT:frame.obj
 0001:0001b13c       ??0bad_exception@std@@QAE@ABV01@@Z 0401c13c f i LIBCMT:frame.obj
 0001:0001b159       ___InternalCxxFrameHandler 0401c159 f   LIBCMT:frame.obj
 0001:0001b23f       __crt_wait_module_handle   0401c23f f i LIBCMT:tidtable.obj
 0001:0001b259       __encode_pointer           0401c259 f   LIBCMT:tidtable.obj
 0001:0001b2cb       __encoded_null             0401c2cb f   LIBCMT:tidtable.obj
 0001:0001b2d4       __decode_pointer           0401c2d4 f   LIBCMT:tidtable.obj
 0001:0001b346       ___crtTlsAlloc@4           0401c346 f   LIBCMT:tidtable.obj
 0001:0001b34f       ___fls_getvalue@4          0401c34f f   LIBCMT:tidtable.obj
 0001:0001b369       ___get_flsindex            0401c369 f   LIBCMT:tidtable.obj
 0001:0001b36f       ___set_flsgetvalue         0401c36f f   LIBCMT:tidtable.obj
 0001:0001b3a3       ___fls_setvalue@8          0401c3a3 f   LIBCMT:tidtable.obj
 0001:0001b3c0       __mtterm                   0401c3c0 f   LIBCMT:tidtable.obj
 0001:0001b3fd       __initptd                  0401c3fd f   LIBCMT:tidtable.obj
 0001:0001b4e4       __getptd_noexit            0401c4e4 f   LIBCMT:tidtable.obj
 0001:0001b55d       __getptd                   0401c55d f   LIBCMT:tidtable.obj
 0001:0001b577       __freefls@4                0401c577 f   LIBCMT:tidtable.obj
 0001:0001b6a6       __freeptd                  0401c6a6 f   LIBCMT:tidtable.obj
 0001:0001b714       ___threadid                0401c714 f   LIBCMT:tidtable.obj
 0001:0001b71a       ___threadhandle            0401c71a f   LIBCMT:tidtable.obj
 0001:0001b720       __mtinit                   0401c720 f   LIBCMT:tidtable.obj
 0001:0001b8ad       ?terminate@@YAXXZ          0401c8ad f   LIBCMT:hooks.obj
 0001:0001b8e6       ?unexpected@@YAXXZ         0401c8e6 f   LIBCMT:hooks.obj
 0001:0001b8f9       ?_inconsistency@@YAXXZ     0401c8f9 f   LIBCMT:hooks.obj
 0001:0001b931       __initp_eh_hooks           0401c931 f   LIBCMT:hooks.obj
 0001:0001b950       __CallSettingFrame@12      0401c950 f   LIBCMT:lowhelpr.obj
 0001:0001b977       __NLG_Return               0401c977     LIBCMT:lowhelpr.obj
 0001:0001bbcb       _strtol                    0401cbcb f   LIBCMT:strtol.obj
 0001:0001bbf6       __strtol_l                 0401cbf6 f   LIBCMT:strtol.obj
 0001:0001bc13       _strtoul                   0401cc13 f   LIBCMT:strtol.obj
 0001:0001bc3f       __strtoul_l                0401cc3f f   LIBCMT:strtol.obj
 0001:0001bef3       __strtoi64                 0401cef3 f   LIBCMT:strtoq.obj
 0001:0001bf1e       __strtoi64_l               0401cf1e f   LIBCMT:strtoq.obj
 0001:0001bf3b       __strtoui64                0401cf3b f   LIBCMT:strtoq.obj
 0001:0001bf67       __strtoui64_l              0401cf67 f   LIBCMT:strtoq.obj
 0001:0001c00b       __VEC_memcpy               0401d00b f   LIBCMT:p4_memcpy.obj
 0001:0001c314       ___updatetmbcinfo          0401d314 f   LIBCMT:mbctype.obj
 0001:0001c434       __setmbcp_nolock           0401d434 f   LIBCMT:mbctype.obj
 0001:0001c619       __getmbcp                  0401d619 f   LIBCMT:mbctype.obj
 0001:0001c657       __setmbcp                  0401d657 f   LIBCMT:mbctype.obj
 0001:0001c7f1       ___initmbctable            0401d7f1 f   LIBCMT:mbctype.obj
 0001:0001c80f       __isleadbyte_l             0401d80f f i LIBCMT:_wctype.obj
 0001:0001c847       _isleadbyte                0401d847 f i LIBCMT:_wctype.obj
 0001:0001c85a       __iswalpha_l               0401d85a f i LIBCMT:_wctype.obj
 0001:0001c874       _iswalpha                  0401d874 f i LIBCMT:_wctype.obj
 0001:0001c88a       __iswupper_l               0401d88a f i LIBCMT:_wctype.obj
 0001:0001c8a1       _iswupper                  0401d8a1 f i LIBCMT:_wctype.obj
 0001:0001c8b4       __iswlower_l               0401d8b4 f i LIBCMT:_wctype.obj
 0001:0001c8cb       _iswlower                  0401d8cb f i LIBCMT:_wctype.obj
 0001:0001c8de       __iswdigit_l               0401d8de f i LIBCMT:_wctype.obj
 0001:0001c8f5       _iswdigit                  0401d8f5 f i LIBCMT:_wctype.obj
 0001:0001c908       __iswxdigit_l              0401d908 f i LIBCMT:_wctype.obj
 0001:0001c922       _iswxdigit                 0401d922 f i LIBCMT:_wctype.obj
 0001:0001c938       __iswspace_l               0401d938 f i LIBCMT:_wctype.obj
 0001:0001c94f       _iswspace                  0401d94f f i LIBCMT:_wctype.obj
 0001:0001c962       __iswpunct_l               0401d962 f i LIBCMT:_wctype.obj
 0001:0001c979       _iswpunct                  0401d979 f i LIBCMT:_wctype.obj
 0001:0001c98c       __iswalnum_l               0401d98c f i LIBCMT:_wctype.obj
 0001:0001c9a6       _iswalnum                  0401d9a6 f i LIBCMT:_wctype.obj
 0001:0001c9bc       __iswprint_l               0401d9bc f i LIBCMT:_wctype.obj
 0001:0001c9d6       _iswprint                  0401d9d6 f i LIBCMT:_wctype.obj
 0001:0001c9ec       __iswgraph_l               0401d9ec f i LIBCMT:_wctype.obj
 0001:0001ca06       _iswgraph                  0401da06 f i LIBCMT:_wctype.obj
 0001:0001ca1c       __iswcntrl_l               0401da1c f i LIBCMT:_wctype.obj
 0001:0001ca33       _iswcntrl                  0401da33 f i LIBCMT:_wctype.obj
 0001:0001ca46       _iswascii                  0401da46 f i LIBCMT:_wctype.obj
 0001:0001ca5a       __iswcsym_l                0401da5a f i LIBCMT:_wctype.obj
 0001:0001ca84       ___iswcsym                 0401da84 f i LIBCMT:_wctype.obj
 0001:0001caaa       __iswcsymf_l               0401daaa f i LIBCMT:_wctype.obj
 0001:0001cad4       ___iswcsymf                0401dad4 f i LIBCMT:_wctype.obj
 0001:0001cafa       __isctype_l                0401dafa f   LIBCMT:isctype.obj
 0001:0001cbb2       __isctype                  0401dbb2 f   LIBCMT:isctype.obj
 0001:0001cbe4       ___heap_select             0401dbe4 f   LIBCMT:heapinit.obj
 0001:0001cbe8       __heap_init                0401dbe8 f   LIBCMT:heapinit.obj
 0001:0001cc18       __heap_term                0401dc18 f   LIBCMT:heapinit.obj
 0001:0001cc8c       __get_heap_handle          0401dc8c f   LIBCMT:heapinit.obj
 0001:0001cc92       __mtinitlocks              0401dc92 f   LIBCMT:mlock.obj
 0001:0001ccdd       __mtdeletelocks            0401dcdd f   LIBCMT:mlock.obj
 0001:0001cd34       __unlock                   0401dd34 f   LIBCMT:mlock.obj
 0001:0001cd4b       __lockerr_exit             0401dd4b f   LIBCMT:mlock.obj
 0001:0001cd63       __mtinitlocknum            0401dd63 f   LIBCMT:mlock.obj
 0001:0001ce26       __lock                     0401de26 f   LIBCMT:mlock.obj
 0001:0001ce59       __get_sbh_threshold        0401de59 f   LIBCMT:sbheap.obj
 0001:0001ce7a       __set_amblksiz             0401de7a f   LIBCMT:sbheap.obj
 0001:0001cec5       __get_amblksiz             0401dec5 f   LIBCMT:sbheap.obj
 0001:0001cf06       ___sbh_heap_init           0401df06 f   LIBCMT:sbheap.obj
 0001:0001cf54       ___sbh_find_block          0401df54 f   LIBCMT:sbheap.obj
 0001:0001cf84       ___sbh_free_block          0401df84 f   LIBCMT:sbheap.obj
 0001:0001d29a       ___sbh_alloc_new_region    0401e29a f   LIBCMT:sbheap.obj
 0001:0001d34a       ___sbh_alloc_new_group     0401e34a f   LIBCMT:sbheap.obj
 0001:0001d452       ___sbh_resize_block        0401e452 f   LIBCMT:sbheap.obj
 0001:0001d733       ___sbh_heapmin             0401e733 f   LIBCMT:sbheap.obj
 0001:0001d800       ___sbh_heap_check          0401e800 f   LIBCMT:sbheap.obj
 0001:0001dae4       __set_sbh_threshold        0401eae4 f   LIBCMT:sbheap.obj
 0001:0001db93       ___sbh_alloc_block         0401eb93 f   LIBCMT:sbheap.obj
 0001:0001de78       __SEH_prolog4              0401ee78 f   LIBCMT:sehprolg4.obj
 0001:0001debd       __SEH_epilog4              0401eebd f   LIBCMT:sehprolg4.obj
 0001:0001df10       __except_handler4          0401ef10 f   LIBCMT:chandler4.obj
 0001:0001e09c       __crt_debugger_hook        0401f09c f   LIBCMT:dbghook.obj
 0001:0001e0a4       __crt_waiting_on_module_handle 0401f0a4 f   LIBCMT:crt0dat.obj
 0001:0001e0d4       __amsg_exit                0401f0d4 f   LIBCMT:crt0dat.obj
 0001:0001e0fd       ___crtCorExitProcess       0401f0fd f   LIBCMT:crt0dat.obj
 0001:0001e128       ___crtExitProcess          0401f128 f   LIBCMT:crt0dat.obj
 0001:0001e140       __lockexit                 0401f140 f   LIBCMT:crt0dat.obj
 0001:0001e149       __unlockexit               0401f149 f   LIBCMT:crt0dat.obj
 0001:0001e16f       __initterm_e               0401f16f f   LIBCMT:crt0dat.obj
 0001:0001e193       __get_wpgmptr              0401f193 f   LIBCMT:crt0dat.obj
 0001:0001e1cf       __get_pgmptr               0401f1cf f   LIBCMT:crt0dat.obj
 0001:0001e20b       __cinit                    0401f20b f   LIBCMT:crt0dat.obj
 0001:0001e3bc       _exit                      0401f3bc f   LIBCMT:crt0dat.obj
 0001:0001e3d2       __exit                     0401f3d2 f   LIBCMT:crt0dat.obj
 0001:0001e3e8       __cexit                    0401f3e8 f   LIBCMT:crt0dat.obj
 0001:0001e3f7       __c_exit                   0401f3f7 f   LIBCMT:crt0dat.obj
 0001:0001e406       __init_pointers            0401f406 f   LIBCMT:crt0dat.obj
 0001:0001e454       __NMSG_WRITE               0401f454 f   LIBCMT:crt0msg.obj
 0001:0001e5ff       __GET_RTERRMSG             0401f5ff f   LIBCMT:crt0msg.obj
 0001:0001e625       __FF_MSGBANNER             0401f625 f   LIBCMT:crt0msg.obj
 0001:0001e65e       ?strrchr@@YAPADPADH@Z      0401f65e f i LIBCMT:cvt.obj
 0001:0001e669       __forcdecpt_l              0401f669 f   LIBCMT:cvt.obj
 0001:0001e6dc       __cropzeros_l              0401f6dc f   LIBCMT:cvt.obj
 0001:0001e75e       __positive                 0401f75e f   LIBCMT:cvt.obj
 0001:0001e77a       __fassign_l                0401f77a f   LIBCMT:cvt.obj
 0001:0001e7bc       __fassign                  0401f7bc f   LIBCMT:cvt.obj
 0001:0001e7f5       __forcdecpt                0401f7f5 f   LIBCMT:cvt.obj
 0001:0001e808       __cropzeros                0401f808 f   LIBCMT:cvt.obj
 0001:0001e98a       __cftoe_l                  0401f98a f   LIBCMT:cvt.obj
 0001:0001ea5a       __cftoe                    0401fa5a f   LIBCMT:cvt.obj
 0001:0001ea7a       __cftoa_l                  0401fa7a f   LIBCMT:cvt.obj
 0001:0001eded       __cftoa                    0401fded f   LIBCMT:cvt.obj
 0001:0001ef04       __cftof_l                  0401ff04 f   LIBCMT:cvt.obj
 0001:0001efbf       __cftof                    0401ffbf f   LIBCMT:cvt.obj
 0001:0001efdc       __cftog_l                  0401ffdc f   LIBCMT:cvt.obj
 0001:0001f0d6       __cftog                    040200d6 f   LIBCMT:cvt.obj
 0001:0001f0f6       __cfltcvt_l                040200f6 f   LIBCMT:cvt.obj
 0001:0001f17e       __cfltcvt                  0402017e f   LIBCMT:cvt.obj
 0001:0001f1a1       __initp_misc_cfltcvt_tab   040201a1 f   LIBCMT:cmiscdat.obj
 0001:0001f1c2       __setdefaultprecision      040201c2 f   LIBCMT:fp8.obj
 0001:0001f1ed       __ms_p5_test_fdiv          040201ed f   LIBCMT:_testfdiv_.obj
 0001:0001f22b       __ms_p5_mp_test_fdiv       0402022b f   LIBCMT:_testfdiv_.obj
 0001:0001f254       ___getlocaleinfo           04020254 f   LIBCMT:inithelp.obj
 0001:0001f3d3       __initp_misc_purevirt      040203d3 f   LIBCMT:inithelp.obj
 0001:0001f3e2       __msize                    040203e2 f   LIBCMT:msize.obj
 0001:0001f485       __ioinit                   04020485 f   LIBCMT:ioinit.obj
 0001:0001f6d9       __ioterm                   040206d9 f   LIBCMT:ioinit.obj
 0001:0001f727       __setenvp                  04020727 f   LIBCMT:stdenvp.obj
 0001:0001f805       __set_pgmptr               04020805 f i LIBCMT:stdargv.obj
 0001:0001f9ae       __setargv                  040209ae f   LIBCMT:stdargv.obj
 0001:0001fa69       ___crtGetEnvironmentStringsA 04020a69 f   LIBCMT:a_env.obj
 0001:0001fba0       __RTC_Initialize           04020ba0 f   LIBCMT:_initsect_.obj
 0001:0001fbc6       __RTC_Terminate            04020bc6 f   LIBCMT:_initsect_.obj
 0001:0001fbec       __initp_misc_winxfltr      04020bec f   LIBCMT:winxfltr.obj
 0001:0001fc22       __XcptFilter               04020c22 f   LIBCMT:winxfltr.obj
 0001:0001fd82       ___CppXcptFilter           04020d82 f   LIBCMT:winxfltr.obj
 0001:0001fda2       ___security_init_cookie    04020da2 f   LIBCMT:gs_support.obj
 0001:0001fe38       ___ansicp                  04020e38 f   LIBCMT:convrtcp.obj
 0001:0001fe81       ___convertcp               04020e81 f   LIBCMT:convrtcp.obj
 0001:00020040       __alloca_probe_16          04021040 f   LIBCMT:alloca16.obj
 0001:00020056       __alloca_probe_8           04021056     LIBCMT:alloca16.obj
 0001:00020226       ___crtGetStringTypeA       04021226 f   LIBCMT:a_str.obj
 0001:00020268       __calloc_impl              04021268 f   LIBCMT:calloc_impl.obj
 0001:00020386       _realloc                   04021386 f   LIBCMT:realloc.obj
 0001:000205a1       __recalloc                 040215a1 f   LIBCMT:recalloc.obj
 0001:0002061c       __initp_misc_winsig        0402161c f   LIBCMT:winsig.obj
 0001:0002070c       ___get_sigabrt             0402170c f   LIBCMT:winsig.obj
 0001:00020719       ___fpecode                 04021719 f   LIBCMT:winsig.obj
 0001:00020722       ___pxcptinfoptrs           04021722 f   LIBCMT:winsig.obj
 0001:0002072b       _signal                    0402172b f   LIBCMT:winsig.obj
 0001:00020968       _raise                     04021968 f   LIBCMT:winsig.obj
 0001:00020b18       ___report_gsfailure        04021b18 f   LIBCMT:gs_report.obj
 0001:00021039       ___free_lc_time            04022039 f   LIBCMT:inittime.obj
 0001:000211ce       ___init_time               040221ce f   LIBCMT:inittime.obj
 0001:0002127a       ___free_lconv_num          0402227a f   LIBCMT:initnum.obj
 0001:000212bf       ___init_numeric            040222bf f   LIBCMT:initnum.obj
 0001:000214bc       ___free_lconv_mon          040224bc f   LIBCMT:initmon.obj
 0001:0002154a       ___init_monetary           0402254a f   LIBCMT:initmon.obj
 0001:00021810       ___init_collate            04022810 f   LIBCMT:initcoll.obj
 0001:00021813       __Getdays_l                04022813 f   LIBCMT:strftime.obj
 0001:00021913       __Getdays                  04022913 f   LIBCMT:strftime.obj
 0001:0002191c       __Getmonths_l              0402291c f   LIBCMT:strftime.obj
 0001:00021a1c       __Getmonths                04022a1c f   LIBCMT:strftime.obj
 0001:00021a25       __Gettnames_l              04022a25 f   LIBCMT:strftime.obj
 0001:00021d7c       __Gettnames                04022d7c f   LIBCMT:strftime.obj
 0001:0002269f       __Strftime_l               0402369f f   LIBCMT:strftime.obj
 0001:00022843       __strftime_l               04023843 f   LIBCMT:strftime.obj
 0001:00022863       _strftime                  04023863 f   LIBCMT:strftime.obj
 0001:00022882       __Strftime                 04023882 f   LIBCMT:strftime.obj
 0001:000228a2       _strcat_s                  040238a2 f   LIBCMT:strcat_s.obj
 0001:00022920       _strcspn                   04023920 f   LIBCMT:strcspn.obj
 0001:00022966       _strncpy_s                 04023966 f   LIBCMT:strncpy_s.obj
 0001:00023016       ___get_qualified_locale    04024016 f   LIBCMT:getqloc.obj
 0001:0002477d       _memcmp                    0402577d f   LIBCMT:memcmp.obj
 0001:00025e00       _strpbrk                   04026e00 f   LIBCMT:strpbrk.obj
 0001:00025e40       __fltin2                   04026e40 f   LIBCMT:_cfin_.obj
 0001:00025ef0       __aulldvrm                 04026ef0 f   LIBCMT:ulldvrm.obj
 0001:00025f85       ??0Block@HeapManager@@QAE@XZ 04026f85 f i LIBCMT:undname.obj
 0001:00025f8b       ?Constructor@HeapManager@@QAEXP6APAXI@ZP6AXPAX@Z@Z 04026f8b f i LIBCMT:undname.obj
 0001:00025faa       ?Destructor@HeapManager@@QAEXXZ 04026faa f i LIBCMT:undname.obj
 0001:00025fd2       ?getNumberOfDimensions@UnDecorator@@CAHXZ 04026fd2 f   LIBCMT:undname.obj
 0001:00026035       ?getTypeEncoding@UnDecorator@@CAHXZ 04027035 f i LIBCMT:undname.obj
 0001:00026521       ?doUnderScore@UnDecorator@@SAHXZ 04027521 f i LIBCMT:undname.obj
 0001:0002652c       ?doMSKeywords@UnDecorator@@SAHXZ 0402752c f i LIBCMT:undname.obj
 0001:00026539       ?doPtr64@UnDecorator@@SAHXZ 04027539 f i LIBCMT:undname.obj
 0001:00026547       ?doFunctionReturns@UnDecorator@@SAHXZ 04027547 f i LIBCMT:undname.obj
 0001:00026555       ?doAllocationModel@UnDecorator@@SAHXZ 04027555 f i LIBCMT:undname.obj
 0001:00026563       ?doAllocationLanguage@UnDecorator@@SAHXZ 04027563 f i LIBCMT:undname.obj
 0001:00026571       ?doThisTypes@UnDecorator@@SAHXZ 04027571 f i LIBCMT:undname.obj
 0001:00026583       ?doAccessSpecifiers@UnDecorator@@SAHXZ 04027583 f i LIBCMT:undname.obj
 0001:00026591       ?doThrowTypes@UnDecorator@@SAHXZ 04027591 f i LIBCMT:undname.obj
 0001:0002659f       ?doMemberTypes@UnDecorator@@SAHXZ 0402759f f i LIBCMT:undname.obj
 0001:000265ad       ?doNameOnly@UnDecorator@@SAHXZ 040275ad f i LIBCMT:undname.obj
 0001:000265b8       ?doTypeOnly@UnDecorator@@SAHXZ 040275b8 f i LIBCMT:undname.obj
 0001:000265c3       ?haveTemplateParameters@UnDecorator@@SAHXZ 040275c3 f i LIBCMT:undname.obj
 0001:000265ce       ?doEcsu@UnDecorator@@SAHXZ 040275ce f i LIBCMT:undname.obj
 0001:000265dc       ?doNoIdentCharCheck@UnDecorator@@SAHXZ 040275dc f i LIBCMT:undname.obj
 0001:000265e7       ?doEllipsis@UnDecorator@@SAHXZ 040275e7 f i LIBCMT:undname.obj
 0001:000265f5       ?UScore@UnDecorator@@SAPBDW4Tokens@@@Z 040275f5 f   LIBCMT:undname.obj
 0001:00026613       ?getMemory@HeapManager@@QAEPAXIH@Z 04027613 f   LIBCMT:undname.obj
 0001:0002669b       ??0DName@@QAE@XZ           0402769b f i LIBCMT:undname.obj
 0001:000266ac       ??0DName@@QAE@ABV0@@Z      040276ac f i LIBCMT:undname.obj
 0001:000266c4       ?isValid@DName@@QBEHXZ     040276c4 f i LIBCMT:undname.obj
 0001:000266ce       ?isEmpty@DName@@QBEHXZ     040276ce f i LIBCMT:undname.obj
 0001:000266d6       ?status@DName@@QBE?AW4DNameStatus@@XZ 040276d6 f i LIBCMT:undname.obj
 0001:000266db       ?setPtrRef@DName@@QAEAAV1@XZ 040276db f i LIBCMT:undname.obj
 0001:000266e5       ?isPtrRef@DName@@QBEHXZ    040276e5 f i LIBCMT:undname.obj
 0001:000266ef       ?isUDC@DName@@QBEHXZ       040276ef f i LIBCMT:undname.obj
 0001:00026700       ?setIsUDC@DName@@QAEXXZ    04027700 f i LIBCMT:undname.obj
 0001:0002670d       ?isUDTThunk@DName@@QBEHXZ  0402770d f i LIBCMT:undname.obj
 0001:0002671e       ?setIsArray@DName@@QAEXXZ  0402771e f i LIBCMT:undname.obj
 0001:00026726       ?isArray@DName@@QBEHXZ     04027726 f i LIBCMT:undname.obj
 0001:00026730       ?isNoTE@DName@@QBEHXZ      04027730 f i LIBCMT:undname.obj
 0001:0002673a       ?setIsNoTE@DName@@QAEXXZ   0402773a f i LIBCMT:undname.obj
 0001:00026742       ?isPinPtr@DName@@QBEHXZ    04027742 f i LIBCMT:undname.obj
 0001:0002674c       ?setIsPinPtr@DName@@QAEXXZ 0402774c f i LIBCMT:undname.obj
 0001:00026754       ?isComArray@DName@@QBEHXZ  04027754 f i LIBCMT:undname.obj
 0001:0002675e       ?setIsComArray@DName@@QAEXXZ 0402775e f i LIBCMT:undname.obj
 0001:00026766       ?isVCallThunk@DName@@QBEHXZ 04027766 f i LIBCMT:undname.obj
 0001:00026770       ?setIsVCallThunk@DName@@QAEXXZ 04027770 f i LIBCMT:undname.obj
 0001:00026778       ?length@DName@@QBEHXZ      04027778 f i LIBCMT:undname.obj
 0001:00026785       ?getLastChar@DName@@QBEDXZ 04027785 f i LIBCMT:undname.obj
 0001:00026793       ?getString@DName@@QBEPADPAD0@Z 04027793 f i LIBCMT:undname.obj
 0001:000267ab       ??_5DName@@QAEAAV0@ABV0@@Z 040277ab f   LIBCMT:undname.obj
 0001:000267ca       ??4DName@@QAEAAV0@ABV0@@Z  040277ca f   LIBCMT:undname.obj
 0001:000267e2       ?isFull@Replicator@@QBEHXZ 040277e2 f i LIBCMT:undname.obj
 0001:000267eb       ??0Replicator@@QAE@XZ      040277eb f i LIBCMT:undname.obj
 0001:000267f1       ??0DNameNode@@IAE@XZ       040277f1 f   LIBCMT:undname.obj
 0001:000267fa       ??0charNode@@QAE@D@Z       040277fa f   LIBCMT:undname.obj
 0001:00026811       ?length@charNode@@UBEHXZ   04027811 f i LIBCMT:undname.obj
 0001:00026815       ?getLastChar@charNode@@UBEDXZ 04027815 f i LIBCMT:undname.obj
 0001:00026819       ?getString@charNode@@UBEPADPAD0@Z 04027819 f i LIBCMT:undname.obj
 0001:00026830       ??0pDNameNode@@QAE@PAVDName@@@Z 04027830 f   LIBCMT:undname.obj
 0001:0002685a       ?length@pDNameNode@@UBEHXZ 0402785a f i LIBCMT:undname.obj
 0001:00026870       ?getLastChar@pDNameNode@@UBEDXZ 04027870 f i LIBCMT:undname.obj
 0001:00026887       ?getString@pDNameNode@@UBEPADPAD0@Z 04027887 f i LIBCMT:undname.obj
 0001:000268a0       ??0DNameStatusNode@@AAE@W4DNameStatus@@@Z 040278a0 f   LIBCMT:undname.obj
 0001:000268c5       ?length@DNameStatusNode@@UBEHXZ 040278c5 f i LIBCMT:undname.obj
 0001:000268c9       ?getLastChar@DNameStatusNode@@UBEDXZ 040278c9 f i LIBCMT:undname.obj
 0001:000268d5       ?make@DNameStatusNode@@SAPAV1@W4DNameStatus@@@Z 040278d5 f i LIBCMT:undname.obj
 0001:0002695b       ??0pairNode@@QAE@PAVDNameNode@@0@Z 0402795b f   LIBCMT:undname.obj
 0001:0002697c       ?length@pairNode@@UBEHXZ   0402797c f i LIBCMT:undname.obj
 0001:000269a7       ?getLastChar@pairNode@@UBEDXZ 040279a7 f i LIBCMT:undname.obj
 0001:000269c3       ?getString@pairNode@@UBEPADPAD0@Z 040279c3 f i LIBCMT:undname.obj
 0001:00026a3d       ??0UnDecorator@@QAE@PADPBDHP6APADJ@ZK@Z 04027a3d f i LIBCMT:undname.obj
 0001:00026aac       ?getDataIndirectType@UnDecorator@@CA?AVDName@@XZ 04027aac f i LIBCMT:undname.obj
 0001:00026ae1       ?getThisType@UnDecorator@@CA?AVDName@@XZ 04027ae1 f i LIBCMT:undname.obj
 0001:00026b17       ??2@YAPAXIAAVHeapManager@@H@Z 04027b17 f i LIBCMT:undname.obj
 0001:00026b2e       ?getStringHelper@@YAPADPAD00H@Z 04027b2e f i LIBCMT:undname.obj
 0001:00026b65       ??0DName@@QAE@PAV0@@Z      04027b65 f   LIBCMT:undname.obj
 0001:00026bb8       ??0DName@@QAE@W4DNameStatus@@@Z 04027bb8 f   LIBCMT:undname.obj
 0001:00026bfd       ?getString@DName@@QBEPADPADH@Z 04027bfd f i LIBCMT:undname.obj
 0001:00026c55       ?append@DName@@AAEXPAVDNameNode@@@Z 04027c55 f   LIBCMT:undname.obj
 0001:00026c94       ??4DName@@QAEAAV0@PAV0@@Z  04027c94 f   LIBCMT:undname.obj
 0001:00026ce1       ??4DName@@QAEAAV0@W4DNameStatus@@@Z 04027ce1 f   LIBCMT:undname.obj
 0001:00026d18       ??YReplicator@@QAEAAV0@ABVDName@@@Z 04027d18 f   LIBCMT:undname.obj
 0001:00026d62       ??AReplicator@@QBE?AVDName@@H@Z 04027d62 f   LIBCMT:undname.obj
 0001:00026da2       ??0pcharNode@@QAE@PBDH@Z   04027da2 f   LIBCMT:undname.obj
 0001:00026df9       ?length@pcharNode@@UBEHXZ  04027df9 f i LIBCMT:undname.obj
 0001:00026dfd       ?getLastChar@pcharNode@@UBEDXZ 04027dfd f i LIBCMT:undname.obj
 0001:00026e0f       ?getString@pcharNode@@UBEPADPAD0@Z 04027e0f f i LIBCMT:undname.obj
 0001:00026e2c       ?getString@DNameStatusNode@@UBEPADPAD0@Z 04027e2c f i LIBCMT:undname.obj
 0001:00026e55       ?getReturnType@UnDecorator@@CA?AVDName@@PAV2@@Z 04027e55 f   LIBCMT:undname.obj
 0001:00026e86       ?getStorageConvention@UnDecorator@@CA?AVDName@@XZ 04027e86 f i LIBCMT:undname.obj
 0001:00026e99       ??YDName@@QAEAAV0@W4DNameStatus@@@Z 04027e99 f   LIBCMT:undname.obj
 0001:00026edb       ?doPchar@DName@@AAEXPBDH@Z 04027edb f   LIBCMT:undname.obj
 0001:00026f57       ??0DName@@QAE@D@Z          04027f57 f   LIBCMT:undname.obj
 0001:00026f84       ??0DName@@QAE@PBD@Z        04027f84 f   LIBCMT:undname.obj
 0001:00026fbd       ??0DName@@QAE@AAPBDD@Z     04027fbd f   LIBCMT:undname.obj
 0001:0002707c       ??0DName@@QAE@_K@Z         0402807c f   LIBCMT:undname.obj
 0001:000270ea       ??0DName@@QAE@_J@Z         040280ea f   LIBCMT:undname.obj
 0001:00027185       ??HDName@@QBE?AV0@W4DNameStatus@@@Z 04028185 f   LIBCMT:undname.obj
 0001:000271a9       ??YDName@@QAEAAV0@ABV0@@Z  040281a9 f   LIBCMT:undname.obj
 0001:000271ec       ??YDName@@QAEAAV0@PAV0@@Z  040281ec f   LIBCMT:undname.obj
 0001:00027253       ??4DName@@QAEAAV0@D@Z      04028253 f i LIBCMT:undname.obj
 0001:00027280       ??4DName@@QAEAAV0@PBD@Z    04028280 f   LIBCMT:undname.obj
 0001:000272b5       ?getCallingConvention@UnDecorator@@CA?AVDName@@XZ 040282b5 f   LIBCMT:undname.obj
 0001:0002735f       ?getVCallThunkType@UnDecorator@@CA?AVDName@@XZ 0402835f f i LIBCMT:undname.obj
 0001:00027398       ??HDName@@QBE?AV0@ABV0@@Z  04028398 f   LIBCMT:undname.obj
 0001:000273bc       ??HDName@@QBE?AV0@PAV0@@Z  040283bc f   LIBCMT:undname.obj
 0001:000273e0       ??YDName@@QAEAAV0@D@Z      040283e0 f   LIBCMT:undname.obj
 0001:00027432       ??YDName@@QAEAAV0@PBD@Z    04028432 f   LIBCMT:undname.obj
 0001:00027496       ?getArgumentList@UnDecorator@@CA?AVDName@@XZ 04028496 f   LIBCMT:undname.obj
 0001:00027598       ?getVdispMapType@UnDecorator@@CA?AVDName@@ABV2@@Z 04028598 f i LIBCMT:undname.obj
 0001:000275ec       ??H@YA?AVDName@@DABV0@@Z   040285ec f i LIBCMT:undname.obj
 0001:00027610       ??H@YA?AVDName@@W4DNameStatus@@ABV0@@Z 04028610 f i LIBCMT:undname.obj
 0001:00027634       ??H@YA?AVDName@@PBDABV0@@Z 04028634 f i LIBCMT:undname.obj
 0001:00027658       ??HDName@@QBE?AV0@D@Z      04028658 f   LIBCMT:undname.obj
 0001:0002767c       ??HDName@@QBE?AV0@PBD@Z    0402867c f   LIBCMT:undname.obj
 0001:000276a0       ?getDimension@UnDecorator@@CA?AVDName@@_N@Z 040286a0 f   LIBCMT:undname.obj
 0001:000277f2       ?getEnumType@UnDecorator@@CA?AVDName@@XZ 040287f2 f i LIBCMT:undname.obj
 0001:000278c6       ?getArgumentTypes@UnDecorator@@CA?AVDName@@XZ 040288c6 f   LIBCMT:undname.obj
 0001:000279a2       ?getThrowTypes@UnDecorator@@CA?AVDName@@XZ 040289a2 f   LIBCMT:undname.obj
 0001:00027a21       ?getExtendedDataIndirectType@UnDecorator@@CA?AVDName@@AADAA_NH@Z 04028a21 f   LIBCMT:undname.obj
 0001:00027b9e       ?getArrayType@UnDecorator@@CA?AVDName@@ABV2@@Z 04028b9e f i LIBCMT:undname.obj
 0001:00027d18       ?getLexicalFrame@UnDecorator@@CA?AVDName@@XZ 04028d18 f i LIBCMT:undname.obj
 0001:00027d4b       ?getDisplacement@UnDecorator@@CA?AVDName@@XZ 04028d4b f i LIBCMT:undname.obj
 0001:00027d61       ?getCallIndex@UnDecorator@@CA?AVDName@@XZ 04028d61 f i LIBCMT:undname.obj
 0001:00027d77       ?getGuardNumber@UnDecorator@@CA?AVDName@@XZ 04028d77 f i LIBCMT:undname.obj
 0001:00027d8d       ?getVfTableType@UnDecorator@@CA?AVDName@@ABV2@@Z 04028d8d f i LIBCMT:undname.obj
 0001:00027ec4       ?getStringEncoding@UnDecorator@@CA?AVDName@@PADH@Z 04028ec4 f   LIBCMT:undname.obj
 0001:00027f68       ?getSignedDimension@UnDecorator@@CA?AVDName@@XZ 04028f68 f   LIBCMT:undname.obj
 0001:00027fba       ?getTemplateConstant@UnDecorator@@CA?AVDName@@XZ 04028fba f   LIBCMT:undname.obj
 0001:00028287       ?getPtrRefDataType@UnDecorator@@CA?AVDName@@ABV2@H@Z 04029287 f i LIBCMT:undname.obj
 0001:00028365       ?getVbTableType@UnDecorator@@CA?AVDName@@ABV2@@Z 04029365 f i LIBCMT:undname.obj
 0001:0002837c       ?getTemplateArgumentList@UnDecorator@@CA?AVDName@@XZ 0402937c f   LIBCMT:undname.obj
 0001:00028540       ?getOperatorName@UnDecorator@@CA?AVDName@@_NPA_N@Z 04029540 f i LIBCMT:undname.obj
 0001:00028add       ?getTemplateName@UnDecorator@@CA?AVDName@@_N@Z 04029add f   LIBCMT:undname.obj
 0001:00028c24       ?getZName@UnDecorator@@CA?AVDName@@_N0@Z 04029c24 f   LIBCMT:undname.obj
 0001:00028e1a       ?getScopedName@UnDecorator@@CA?AVDName@@XZ 04029e1a f   LIBCMT:undname.obj
 0001:00028eeb       ?getECSUName@UnDecorator@@CA?AVDName@@XZ 04029eeb f i LIBCMT:undname.obj
 0001:00028efe       ?getECSUDataType@UnDecorator@@CA?AVDName@@XZ 04029efe f   LIBCMT:undname.obj
 0001:00029005       ?getSymbolName@UnDecorator@@CA?AVDName@@XZ 0402a005 f i LIBCMT:undname.obj
 0001:0002904f       ?getBasedType@UnDecorator@@CA?AVDName@@XZ 0402a04f f   LIBCMT:undname.obj
 0001:000290e7       ?composeDeclaration@UnDecorator@@CA?AVDName@@ABV2@@Z 0402a0e7 f i LIBCMT:undname.obj
 0001:00029c82       ?getDecoratedName@UnDecorator@@CA?AVDName@@XZ 0402ac82 f   LIBCMT:undname.obj
 0001:00029e9a       ?getScope@UnDecorator@@CA?AVDName@@XZ 0402ae9a f   LIBCMT:undname.obj
 0001:0002a10a       ?getFunctionIndirectType@UnDecorator@@CA?AVDName@@ABV2@@Z 0402b10a f   LIBCMT:undname.obj
 0001:0002a45e       ?getDataIndirectType@UnDecorator@@CA?AVDName@@ABV2@D0H@Z 0402b45e f   LIBCMT:undname.obj
 0001:0002a925       ??BUnDecorator@@QAEPADXZ   0402b925 f i LIBCMT:undname.obj
 0001:0002aa56       ?getPtrRefType@UnDecorator@@CA?AVDName@@ABV2@0D@Z 0402ba56 f   LIBCMT:undname.obj
 0001:0002ab4f       ?getPointerType@UnDecorator@@CA?AVDName@@ABV2@0@Z 0402bb4f f i LIBCMT:undname.obj
 0001:0002ab6c       ?getPointerTypeArray@UnDecorator@@CA?AVDName@@ABV2@0@Z 0402bb6c f i LIBCMT:undname.obj
 0001:0002ab89       ?getReferenceType@UnDecorator@@CA?AVDName@@ABV2@0@Z 0402bb89 f i LIBCMT:undname.obj
 0001:0002aba6       ___unDName                 0402bba6 f   LIBCMT:undname.obj
 0001:0002ac40       ___unDNameEx               0402bc40 f   LIBCMT:undname.obj
 0001:0002acda       ?getBasicDataType@UnDecorator@@CA?AVDName@@ABV2@@Z 0402bcda f   LIBCMT:undname.obj
 0001:0002b091       ?getPrimaryDataType@UnDecorator@@CA?AVDName@@ABV2@@Z 0402c091 f   LIBCMT:undname.obj
 0001:0002b1c9       ?getDataType@UnDecorator@@CA?AVDName@@PAV2@@Z 0402c1c9 f   LIBCMT:undname.obj
 0001:0002b289       ?getExternalDataType@UnDecorator@@CA?AVDName@@ABV2@@Z 0402c289 f i LIBCMT:undname.obj
 0001:0002b2f8       __local_unwind4            0402c2f8 f   LIBCMT:exsup4.obj
 0001:0002b3ce       __seh_longjmp_unwind4@4    0402c3ce f   LIBCMT:exsup4.obj
 0001:0002b3ea       @_EH4_CallFilterFunc@8     0402c3ea f   LIBCMT:exsup4.obj
 0001:0002b401       @_EH4_TransferToHandler@8  0402c401 f   LIBCMT:exsup4.obj
 0001:0002b41a       @_EH4_GlobalUnwind@4       0402c41a f   LIBCMT:exsup4.obj
 0001:0002b434       @_EH4_LocalUnwind@16       0402c434 f   LIBCMT:exsup4.obj
 0001:0002b44b       __lseeki64_nolock          0402c44b f   LIBCMT:lseeki64.obj
 0001:0002b4d0       __lseeki64                 0402c4d0 f   LIBCMT:lseeki64.obj
 0001:0002b5e9       __write_nolock             0402c5e9 f   LIBCMT:write.obj
 0001:0002bd1c       __write                    0402cd1c f   LIBCMT:write.obj
 0001:0002bdf8       __getbuf                   0402cdf8 f   LIBCMT:_getbuf.obj
 0001:0002be41       __isatty                   0402ce41 f   LIBCMT:isatty.obj
 0001:0002bea5       ___iob_func                0402cea5 f   LIBCMT:_file.obj
 0001:0002beab       ___initstdio               0402ceab f   LIBCMT:_file.obj
 0001:0002bf5c       ___endstdio                0402cf5c f   LIBCMT:_file.obj
 0001:0002bf7c       __lock_file                0402cf7c f   LIBCMT:_file.obj
 0001:0002bfbd       __lock_file2               0402cfbd f   LIBCMT:_file.obj
 0001:0002bfef       __unlock_file              0402cfef f   LIBCMT:_file.obj
 0001:0002c02b       __unlock_file2             0402d02b f   LIBCMT:_file.obj
 0001:0002c05a       __fileno                   0402d05a f   LIBCMT:fileno.obj
 0001:0002c08c       _printf                    0402d08c f   LIBCMT:printf.obj
 0001:0002c13b       __printf_l                 0402d13b f   LIBCMT:printf.obj
 0001:0002c154       __printf_s_l               0402d154 f   LIBCMT:printf.obj
 0001:0002c16d       _printf_s                  0402d16d f   LIBCMT:printf.obj
 0001:0002c185       __printf_p_l               0402d185 f   LIBCMT:printf.obj
 0001:0002c19e       __printf_p                 0402d19e f   LIBCMT:printf.obj
 0001:0002c1b6       __set_printf_count_output  0402d1b6 f   LIBCMT:printf.obj
 0001:0002c1e0       __get_printf_count_output  0402d1e0 f   LIBCMT:printf.obj
 0001:0002c1f6       __wctomb_s_l               0402d1f6 f   LIBCMT:wctomb.obj
 0001:0002c362       _wctomb_s                  0402d362 f   LIBCMT:wctomb.obj
 0001:0002c37f       __wctomb_l                 0402d37f f   LIBCMT:wctomb.obj
 0001:0002c3d0       _wctomb                    0402d3d0 f   LIBCMT:wctomb.obj
 0001:0002c402       __validate_param_reuseA    0402d402 f   LIBCMT:outputp.obj
 0001:0002c5d3       _get_crtdouble_arg         0402d5d3 f i LIBCMT:outputp.obj
 0001:0002c5e8       __output_p_l               0402d5e8 f   LIBCMT:outputp.obj
 0001:0002d94e       __output_s_l               0402e94e f   LIBCMT:outputs.obj
 0001:0002e51e       ?_ValidateRead@@YAHPBXI@Z  0402f51e f   LIBCMT:validate.obj
 0001:0002e530       ?_ValidateWrite@@YAHPAXI@Z 0402f530 f   LIBCMT:validate.obj
 0001:0002e542       ?_ValidateExecute@@YAHP6GHXZ@Z 0402f542 f   LIBCMT:validate.obj
 0001:0002e554       __global_unwind2           0402f554 f   LIBCMT:exsup.obj
 0001:0002e5b9       __local_unwind2            0402f5b9 f   LIBCMT:exsup.obj
 0001:0002e63d       __abnormal_termination     0402f63d f   LIBCMT:exsup.obj
 0001:0002e660       __NLG_Notify1              0402f660 f   LIBCMT:exsup.obj
 0001:0002e669       __NLG_Notify               0402f669 f   LIBCMT:exsup.obj
 0001:0002e680       __NLG_Dispatch2            0402f680     LIBCMT:exsup.obj
 0001:0002e680       __NLG_Dispatch             0402f680     LIBCMT:exsup.obj
 0001:0002e688       __NLG_Call                 0402f688 f   LIBCMT:exsup.obj
 0001:0002e68a       __NLG_Return2              0402f68a     LIBCMT:exsup.obj
 0001:0002e68b       __iswctype_l               0402f68b f   LIBCMT:iswctype.obj
 0001:0002e715       _iswctype                  0402f715 f   LIBCMT:iswctype.obj
 0001:0002e78b       _is_wctype                 0402f78b f   LIBCMT:iswctype.obj
 0001:0002e796       __initp_misc_initcrit      0402f796 f   LIBCMT:initcrit.obj
 0001:0002e7a5       ___crtInitCritSecAndSpinCount 0402f7a5 f   LIBCMT:initcrit.obj
 0001:0002e810       __ValidateImageBase        0402f810 f   LIBCMT:pesect.obj
 0001:0002e850       __FindPESection            0402f850 f   LIBCMT:pesect.obj
 0001:0002e8a0       __IsNonwritableInCurrentImage 0402f8a0 f   LIBCMT:pesect.obj
 0001:0002e95d       __initp_misc_rand_s        0402f95d f   LIBCMT:rand_s.obj
 0001:0002e96c       _rand_s                    0402f96c f   LIBCMT:rand_s.obj
 0001:0002ea74       ___crtMessageBoxA          0402fa74 f   LIBCMT:crtmbox.obj
 0001:0002ebdd       __set_error_mode           0402fbdd f   LIBCMT:errmode.obj
 0001:0002ec28       ___set_app_type            0402fc28 f   LIBCMT:errmode.obj
 0001:0002ec37       ___get_app_type            0402fc37 f   LIBCMT:errmode.obj
 0001:0002ec40       _strrchr                   0402fc40 f   LIBCMT:strrchr.obj
 0001:0002ec6d       __atodbl_l                 0402fc6d f   LIBCMT:atodbl.obj
 0001:0002ed15       __atodbl                   0402fd15 f   LIBCMT:atodbl.obj
 0001:0002ed2c       __atoldbl_l                0402fd2c f   LIBCMT:atodbl.obj
 0001:0002edd5       __atoldbl                  0402fdd5 f   LIBCMT:atodbl.obj
 0001:0002edec       __atoflt_l                 0402fdec f   LIBCMT:atodbl.obj
 0001:0002ee94       __atoflt                   0402fe94 f   LIBCMT:atodbl.obj
 0001:0002eeab       __set_output_format        0402feab f   LIBCMT:outputformat.obj
 0001:0002eee7       __get_output_format        0402fee7 f   LIBCMT:outputformat.obj
 0001:0002eeed       __fptostr                  0402feed f   LIBCMT:_fptostr.obj
 0001:0002efac       ___dtold                   0402ffac f   LIBCMT:_cfout_.obj
 0001:0002f069       __fltout2                  04030069 f   LIBCMT:_cfout_.obj
 0001:0002f100       __alldvrm                  04030100 f   LIBCMT:lldvrm.obj
 0001:0002f1e0       __aullshr                  040301e0 f   LIBCMT:ullshr.obj
 0001:0002f1ff       __fptrap                   040301ff f   LIBCMT:crt0fp.obj
 0001:0002f208       __controlfp_s              04030208 f   LIBCMT:_contrlfp_.obj
 0001:0002f28d       ___crtGetLocaleInfoW       0403028d f   LIBCMT:w_loc.obj
 0001:0002f400       ___crtGetLocaleInfoA       04030400 f   LIBCMT:a_loc.obj
 0001:0002f490       __ismbbkalnum_l            04030490 f   LIBCMT:ismbbyte.obj
 0001:0002f4a9       __ismbbkalnum              040304a9 f   LIBCMT:ismbbyte.obj
 0001:0002f4c1       __ismbbkprint_l            040304c1 f   LIBCMT:ismbbyte.obj
 0001:0002f4da       __ismbbkprint              040304da f   LIBCMT:ismbbyte.obj
 0001:0002f4f2       __ismbbkpunct_l            040304f2 f   LIBCMT:ismbbyte.obj
 0001:0002f50b       __ismbbkpunct              0403050b f   LIBCMT:ismbbyte.obj
 0001:0002f523       __ismbbalnum_l             04030523 f   LIBCMT:ismbbyte.obj
 0001:0002f53f       __ismbbalnum               0403053f f   LIBCMT:ismbbyte.obj
 0001:0002f55a       __ismbbalpha_l             0403055a f   LIBCMT:ismbbyte.obj
 0001:0002f576       __ismbbalpha               04030576 f   LIBCMT:ismbbyte.obj
 0001:0002f591       __ismbbgraph_l             04030591 f   LIBCMT:ismbbyte.obj
 0001:0002f5ad       __ismbbgraph               040305ad f   LIBCMT:ismbbyte.obj
 0001:0002f5c8       __ismbbprint_l             040305c8 f   LIBCMT:ismbbyte.obj
 0001:0002f5e4       __ismbbprint               040305e4 f   LIBCMT:ismbbyte.obj
 0001:0002f5ff       __ismbbpunct_l             040305ff f   LIBCMT:ismbbyte.obj
 0001:0002f618       __ismbbpunct               04030618 f   LIBCMT:ismbbyte.obj
 0001:0002f630       __ismbblead_l              04030630 f   LIBCMT:ismbbyte.obj
 0001:0002f649       __ismbblead                04030649 f   LIBCMT:ismbbyte.obj
 0001:0002f661       __ismbbtrail_l             04030661 f   LIBCMT:ismbbyte.obj
 0001:0002f67a       __ismbbtrail               0403067a f   LIBCMT:ismbbyte.obj
 0001:0002f692       __ismbbkana_l              04030692 f   LIBCMT:ismbbyte.obj
 0001:0002f6e7       __ismbbkana                040306e7 f   LIBCMT:ismbbyte.obj
 0001:0002f6fa       __get_daylight             040306fa f   LIBCMT:timeset.obj
 0001:0002f733       __get_dstbias              04030733 f   LIBCMT:timeset.obj
 0001:0002f76c       __get_timezone             0403076c f   LIBCMT:timeset.obj
 0001:0002f7a5       __get_tzname               040307a5 f   LIBCMT:timeset.obj
 0001:0002f849       ___daylight                04030849 f   LIBCMT:timeset.obj
 0001:0002f84f       ___dstbias                 0403084f f   LIBCMT:timeset.obj
 0001:0002f855       ___timezone                04030855 f   LIBCMT:timeset.obj
 0001:0002f85b       ___tzname                  0403085b f   LIBCMT:timeset.obj
 0001:0002f861       __set_daylight             04030861 f i LIBCMT:tzset.obj
 0001:0002f872       __set_dstbias              04030872 f i LIBCMT:tzset.obj
 0001:0002f883       __set_timezone             04030883 f i LIBCMT:tzset.obj
 0001:0002ffa9       ___tzset                   04030fa9 f   LIBCMT:tzset.obj
 0001:0002fff8       __tzset                    04030ff8 f   LIBCMT:tzset.obj
 0001:00030030       __isindst                  04031030 f   LIBCMT:tzset.obj
 0001:00030071       ___ascii_stricmp           04031071 f   LIBCMT:stricmp.obj
 0001:000300aa       __stricmp_l                040310aa f   LIBCMT:stricmp.obj
 0001:0003017f       _stricmp                   0403117f f   LIBCMT:stricmp.obj
 0001:0003017f       __stricmp                  0403117f f   LIBCMT:stricmp.obj
 0001:000301d1       __strnicmp_l               040311d1 f   LIBCMT:strnicmp.obj
 0001:000302c3       _strnicmp                  040312c3 f   LIBCMT:strnicmp.obj
 0001:000302c3       __strnicmp                 040312c3 f   LIBCMT:strnicmp.obj
 0001:00030321       ___addl                    04031321 f i LIBCMT:_intrncvt_.obj
 0001:00030345       __ZeroTail                 04031345 f i LIBCMT:_intrncvt_.obj
 0001:0003038e       __IncMan                   0403138e f i LIBCMT:_intrncvt_.obj
 0001:000303fb       __RoundMan                 040313fb f i LIBCMT:_intrncvt_.obj
 0001:000304eb       __CopyMan                  040314eb f i LIBCMT:_intrncvt_.obj
 0001:0003050a       __FillZeroMan              0403150a f i LIBCMT:_intrncvt_.obj
 0001:0003051b       __IsZeroMan                0403151b f i LIBCMT:_intrncvt_.obj
 0001:0003053a       __ShrMan                   0403153a f i LIBCMT:_intrncvt_.obj
 0001:000305d4       __ld12cvt                  040315d4 f i LIBCMT:_intrncvt_.obj
 0001:00030aff       __ld12tod                  04031aff f   LIBCMT:_intrncvt_.obj
 0001:00031043       __ld12tof                  04032043 f   LIBCMT:_intrncvt_.obj
 0001:00031587       __ld12told                 04032587 f   LIBCMT:_intrncvt_.obj
 0001:0003164e       ___shl_12                  0403264e f i LIBCMT:_strgtold_.obj
 0001:00031681       ___shr_12                  04032681 f i LIBCMT:_strgtold_.obj
 0001:000316b3       ___ld12mul                 040326b3 f i LIBCMT:_strgtold_.obj
 0001:0003192e       ___multtenpow12            0403292e f i LIBCMT:_strgtold_.obj
 0001:00031c33       ___strgtold12_l            04032c33 f   LIBCMT:_strgtold_.obj
 0001:0003232b       ___STRINGTOLD_L            0403332b f   LIBCMT:_strgtold_.obj
 0001:00032386       __set_osfhnd               04033386 f   LIBCMT:osfinfo.obj
 0001:00032407       __free_osfhnd              04033407 f   LIBCMT:osfinfo.obj
 0001:0003248d       __get_osfhandle            0403348d f   LIBCMT:osfinfo.obj
 0001:00032504       ___lock_fhandle            04033504 f   LIBCMT:osfinfo.obj
 0001:000325a4       __unlock_fhandle           040335a4 f   LIBCMT:osfinfo.obj
 0001:000325cb       __alloc_osfhnd             040335cb f   LIBCMT:osfinfo.obj
 0001:00032765       __open_osfhandle           04033765 f   LIBCMT:osfinfo.obj
 0001:0003287b       __putwch_nolock            0403387b f   LIBCMT:putwch.obj
 0001:00032940       __cputws                   04033940 f   LIBCMT:putwch.obj
 0001:000329df       __putwch                   040339df f   LIBCMT:putwch.obj
 0001:00032a25       __mbtowc_l                 04033a25 f   LIBCMT:mbtowc.obj
 0001:00032b3c       _mbtowc                    04033b3c f   LIBCMT:mbtowc.obj
 0001:00032b56       __fcloseall                04033b56 f   LIBCMT:closeall.obj
 0001:00032bf5       __flush                    04033bf5 f   LIBCMT:fflush.obj
 0001:00032c5d       __fflush_nolock            04033c5d f   LIBCMT:fflush.obj
 0001:00032d7f       _fflush                    04033d7f f   LIBCMT:fflush.obj
 0001:00032dd2       __flushall                 04033dd2 f   LIBCMT:fflush.obj
 0001:00032ddb       __stbuf                    04033ddb f   LIBCMT:_sftbuf.obj
 0001:00032e77       __ftbuf                    04033e77 f   LIBCMT:_sftbuf.obj
 0001:00032eab       _vprintf_helper            04033eab f   LIBCMT:vprintf.obj
 0001:00032f3b       __vprintf_l                04033f3b f   LIBCMT:vprintf.obj
 0001:00032f58       __vprintf_s_l              04033f58 f   LIBCMT:vprintf.obj
 0001:00032f75       __vprintf_p_l              04033f75 f   LIBCMT:vprintf.obj
 0001:00032f92       _vprintf                   04033f92 f   LIBCMT:vprintf.obj
 0001:00032fae       _vprintf_s                 04033fae f   LIBCMT:vprintf.obj
 0001:00032fca       __vprintf_p                04033fca f   LIBCMT:vprintf.obj
 0001:00033009       ___crtGetStringTypeW       04034009 f   LIBCMT:w_str.obj
 0001:00033047       ___add_12                  04034047 f i LIBCMT:_x10fout_.obj
 0001:000330b8       _$I10_OUTPUT               040340b8 f   LIBCMT:_x10fout_.obj
 0001:000339dc       __set_controlfp            040349dc f   LIBCMT:_ieee87_.obj
 0001:00033d50       __statusfp                 04034d50 f   LIBCMT:_ieee87_.obj
 0001:00033de2       __fpreset                  04034de2 f   LIBCMT:_ieee87_.obj
 0001:0003401b       __statusfp2                0403501b f   LIBCMT:_ieee87_.obj
 0001:00034075       __clearfp                  04035075 f   LIBCMT:_ieee87_.obj
 0001:0003414e       ___control87_2             0403514e f   LIBCMT:_ieee87_.obj
 0001:00034462       __control87                04035462 f i LIBCMT:_ieee87_.obj
 0001:00034771       __controlfp                04035771 f   LIBCMT:_ieee87_.obj
 0001:00034a83       __getenv_helper_nolock     04035a83 f   LIBCMT:getenv.obj
 0001:00034c43       _getenv                    04035c43 f   LIBCMT:getenv.obj
 0001:00034cc6       _getenv_s                  04035cc6 f   LIBCMT:getenv.obj
 0001:00034d9e       __dupenv_s                 04035d9e f   LIBCMT:getenv.obj
 0001:00034e90       ___ascii_strnicmp          04035e90 f   LIBCMT:_strnicm.obj
 0001:00034ef1       ___mtold12                 04035ef1 f   LIBCMT:_mantold_.obj
 0001:000350bf       ___initconin               040360bf f   LIBCMT:initcon.obj
 0001:000350de       ___initconout              040360de f   LIBCMT:initcon.obj
 0001:000350fd       ___termcon                 040360fd f   LIBCMT:initcon.obj
 0001:0003512a       _wcslen                    0403612a f   LIBCMT:wcslen.obj
 0001:00035144       __fclose_nolock            04036144 f   LIBCMT:fclose.obj
 0001:000351bb       _fclose                    040361bb f   LIBCMT:fclose.obj
 0001:00035237       __commit                   04036237 f   LIBCMT:commit.obj
 0001:00035318       __statfp                   04036318 f   LIBCMT:_fpctrl_.obj
 0001:00035328       __clrfp                    04036328 f   LIBCMT:_fpctrl_.obj
 0001:00035339       __ctrlfp                   04036339 f   LIBCMT:_fpctrl_.obj
 0001:00035362       __set_statfp               04036362 f   LIBCMT:_fpctrl_.obj
 0001:000353ba       ___get_fpsr_sse2           040363ba f   LIBCMT:_fpctrl_.obj
 0001:000353d8       ___set_fpsr_sse2           040363d8 f   LIBCMT:_fpctrl_.obj
 0001:0003544a       ___fclrf_sse2              0403644a f   LIBCMT:_fpctrl_.obj
 0001:00035467       ___statfp_sse2             04036467 f   LIBCMT:_fpctrl_.obj
 0001:0003547a       ___clrfp_sse2              0403647a f   LIBCMT:_fpctrl_.obj
 0001:00035492       ___ctrlfp_sse2             04036492 f   LIBCMT:_fpctrl_.obj
 0001:000354c9       ___set_statfp_sse2         040364c9 f   LIBCMT:_fpctrl_.obj
 0001:000354e4       __mbsnbicoll_l             040364e4 f   LIBCMT:mbsnbico.obj
 0001:000355d2       __mbsnbicoll               040365d2 f   LIBCMT:mbsnbico.obj
 0001:000355ec       ___wtomb_environ           040365ec f   LIBCMT:wtombenv.obj
 0001:00035683       _calloc                    04036683 f   LIBCMT:calloc.obj
 0001:000356c3       _strnlen                   040366c3 f   LIBCMT:strlen_s.obj
 0001:000356e0       __close_nolock             040366e0 f   LIBCMT:close.obj
 0001:0003577c       __close                    0403677c f   LIBCMT:close.obj
 0001:00035849       __freebuf                  04036849 f   LIBCMT:_freebuf.obj
 0001:00035c08       ___crtCompareStringA       04036c08 f   LIBCMT:a_cmp.obj
 0001:00035c4a       __strnicoll_l              04036c4a f   LIBCMT:strnicol.obj
 0001:00035d44       __strnicoll                04036d44 f   LIBCMT:strnicol.obj
 0001:00035e19       ___crtsetenv               04036e19 f   LIBCMT:setenv.obj
 0001:00036064       __strdup                   04037064 f   LIBCMT:strdup.obj
 0001:000360b9       __mbschr_l                 040370b9 f   LIBCMT:mbschr.obj
 0001:00036175       __mbschr                   04037175 f   LIBCMT:mbschr.obj
 0001:0003618c       _WideCharToMultiByte@32    0403718c f   kernel32:KERNEL32.dll
 0001:00036192       _InterlockedIncrement@4    04037192 f   kernel32:KERNEL32.dll
 0001:00036198       _InterlockedDecrement@4    04037198 f   kernel32:KERNEL32.dll
 0001:0003619e       _InterlockedCompareExchange@12 0403719e f   kernel32:KERNEL32.dll
 0001:000361a4       _InterlockedExchange@8     040371a4 f   kernel32:KERNEL32.dll
 0001:000361aa       _MultiByteToWideChar@24    040371aa f   kernel32:KERNEL32.dll
 0001:000361b0       _RtlUnwind@16              040371b0 f   kernel32:KERNEL32.dll
 0001:000361b6       _GetSystemTimeAsFileTime@4 040371b6 f   kernel32:KERNEL32.dll
 0001:000361bc       _GetLastError@0            040371bc f   kernel32:KERNEL32.dll
 0001:000361c2       _HeapFree@12               040371c2 f   kernel32:KERNEL32.dll
 0001:000361c8       _TerminateProcess@8        040371c8 f   kernel32:KERNEL32.dll
 0001:000361ce       _GetCurrentProcess@0       040371ce f   kernel32:KERNEL32.dll
 0001:000361d4       _UnhandledExceptionFilter@4 040371d4 f   kernel32:KERNEL32.dll
 0001:000361da       _SetUnhandledExceptionFilter@4 040371da f   kernel32:KERNEL32.dll
 0001:000361e0       _IsDebuggerPresent@0       040371e0 f   kernel32:KERNEL32.dll
 0001:000361e6       _HeapAlloc@12              040371e6 f   kernel32:KERNEL32.dll
 0001:000361ec       _RaiseException@16         040371ec f   kernel32:KERNEL32.dll
 0001:000361f2       _GetCurrentThreadId@0      040371f2 f   kernel32:KERNEL32.dll
 0001:000361f8       _GetCommandLineA@0         040371f8 f   kernel32:KERNEL32.dll
 0001:000361fe       _LCMapStringA@24           040371fe f   kernel32:KERNEL32.dll
 0001:00036204       _LCMapStringW@24           04037204 f   kernel32:KERNEL32.dll
 0001:0003620a       _GetCPInfo@8               0403720a f   kernel32:KERNEL32.dll
 0001:00036210       _GetModuleHandleW@4        04037210 f   kernel32:KERNEL32.dll
 0001:00036216       _TlsGetValue@4             04037216 f   kernel32:KERNEL32.dll
 0001:0003621c       _TlsAlloc@0                0403721c f   kernel32:KERNEL32.dll
 0001:00036222       _TlsSetValue@8             04037222 f   kernel32:KERNEL32.dll
 0001:00036228       _TlsFree@4                 04037228 f   kernel32:KERNEL32.dll
 0001:0003622e       _SetLastError@4            0403722e f   kernel32:KERNEL32.dll
 0001:00036234       _GetCurrentThread@0        04037234 f   kernel32:KERNEL32.dll
 0001:0003623a       _GetACP@0                  0403723a f   kernel32:KERNEL32.dll
 0001:00036240       _GetOEMCP@0                04037240 f   kernel32:KERNEL32.dll
 0001:00036246       _IsValidCodePage@4         04037246 f   kernel32:KERNEL32.dll
 0001:0003624c       _HeapCreate@12             0403724c f   kernel32:KERNEL32.dll
 0001:00036252       _HeapDestroy@4             04037252 f   kernel32:KERNEL32.dll
 0001:00036258       _VirtualFree@12            04037258 f   kernel32:KERNEL32.dll
 0001:0003625e       _FatalAppExitA@8           0403725e f   kernel32:KERNEL32.dll
 0001:00036264       _VirtualAlloc@16           04037264 f   kernel32:KERNEL32.dll
 0001:0003626a       _HeapReAlloc@16            0403726a f   kernel32:KERNEL32.dll
 0001:00036270       _ExitProcess@4             04037270 f   kernel32:KERNEL32.dll
 0001:00036276       _WriteFile@20              04037276 f   kernel32:KERNEL32.dll
 0001:0003627c       _GetStdHandle@4            0403727c f   kernel32:KERNEL32.dll
 0001:00036282       _GetModuleFileNameA@12     04037282 f   kernel32:KERNEL32.dll
 0001:00036288       _GetModuleHandleA@4        04037288 f   kernel32:KERNEL32.dll
 0001:0003628e       _HeapSize@12               0403728e f   kernel32:KERNEL32.dll
 0001:00036294       _SetHandleCount@4          04037294 f   kernel32:KERNEL32.dll
 0001:0003629a       _GetFileType@4             0403729a f   kernel32:KERNEL32.dll
 0001:000362a0       _GetStartupInfoA@4         040372a0 f   kernel32:KERNEL32.dll
 0001:000362a6       _FreeEnvironmentStringsA@4 040372a6 f   kernel32:KERNEL32.dll
 0001:000362ac       _GetEnvironmentStrings@0   040372ac f   kernel32:KERNEL32.dll
 0001:000362b2       _FreeEnvironmentStringsW@4 040372b2 f   kernel32:KERNEL32.dll
 0001:000362b8       _GetEnvironmentStringsW@0  040372b8 f   kernel32:KERNEL32.dll
 0001:000362be       _QueryPerformanceCounter@4 040372be f   kernel32:KERNEL32.dll
 0001:000362c4       _GetCurrentProcessId@0     040372c4 f   kernel32:KERNEL32.dll
 0001:000362ca       _GetLocaleInfoA@16         040372ca f   kernel32:KERNEL32.dll
 0001:000362d0       _GetStringTypeA@20         040372d0 f   kernel32:KERNEL32.dll
 0001:000362d6       _GetStringTypeW@16         040372d6 f   kernel32:KERNEL32.dll
 0001:000362dc       _SetConsoleCtrlHandler@8   040372dc f   kernel32:KERNEL32.dll
 0001:000362e2       _GetTimeFormatA@24         040372e2 f   kernel32:KERNEL32.dll
 0001:000362e8       _GetDateFormatA@24         040372e8 f   kernel32:KERNEL32.dll
 0001:000362ee       _GetUserDefaultLCID@0      040372ee f   kernel32:KERNEL32.dll
 0001:000362f4       _EnumSystemLocalesA@8      040372f4 f   kernel32:KERNEL32.dll
 0001:000362fa       _IsValidLocale@8           040372fa f   kernel32:KERNEL32.dll
 0001:00036300       _SetFilePointer@16         04037300 f   kernel32:KERNEL32.dll
 0001:00036306       _GetConsoleCP@0            04037306 f   kernel32:KERNEL32.dll
 0001:0003630c       _GetConsoleMode@8          0403730c f   kernel32:KERNEL32.dll
 0001:00036312       _InitializeCriticalSectionAndSpinCount@8 04037312 f   kernel32:KERNEL32.dll
 0001:00036318       _FreeLibrary@4             04037318 f   kernel32:KERNEL32.dll
 0001:0003631e       _LoadLibraryA@4            0403731e f   kernel32:KERNEL32.dll
 0001:00036324       _GetLocaleInfoW@16         04037324 f   kernel32:KERNEL32.dll
 0001:0003632a       _GetTimeZoneInformation@4  0403732a f   kernel32:KERNEL32.dll
 0001:00036330       _SetStdHandle@8            04037330 f   kernel32:KERNEL32.dll
 0001:00036336       _WriteConsoleA@20          04037336 f   kernel32:KERNEL32.dll
 0001:0003633c       _GetConsoleOutputCP@0      0403733c f   kernel32:KERNEL32.dll
 0001:00036342       _WriteConsoleW@20          04037342 f   kernel32:KERNEL32.dll
 0001:00036348       _CreateFileA@28            04037348 f   kernel32:KERNEL32.dll
 0001:0003634e       _CloseHandle@4             0403734e f   kernel32:KERNEL32.dll
 0001:00036354       _FlushFileBuffers@4        04037354 f   kernel32:KERNEL32.dll
 0001:0003635a       _CompareStringA@24         0403735a f   kernel32:KERNEL32.dll
 0001:00036360       _CompareStringW@24         04037360 f   kernel32:KERNEL32.dll
 0001:00036366       _SetEnvironmentVariableA@8 04037366 f   kernel32:KERNEL32.dll
 0001:0003636c       ?_strlwr_s_l_stat@@YAHPADIPAUlocaleinfo_struct@@@Z 0403736c f   LIBCMT:strlwr.obj
 0001:000364ef       __strlwr_s_l               040374ef f   LIBCMT:strlwr.obj
 0001:00036523       __strlwr_s                 04037523 f   LIBCMT:strlwr.obj
 0001:0003653a       __strlwr_l                 0403753a f   LIBCMT:strlwr.obj
 0001:00036554       __strlwr                   04037554 f   LIBCMT:strlwr.obj
 0001:00036554       _strlwr                    04037554 f   LIBCMT:strlwr.obj
 0001:000365fd       _itoa                      040375fd f   LIBCMT:xtoa.obj
 0001:000365fd       __itoa                     040375fd f   LIBCMT:xtoa.obj
 0001:00036627       __ltoa                     04037627 f   LIBCMT:xtoa.obj
 0001:0003664e       __ultoa                    0403764e f   LIBCMT:xtoa.obj
 0001:000366d7       __i64toa                   040376d7 f   LIBCMT:xtoa.obj
 0001:0003670a       __ui64toa                  0403770a f   LIBCMT:xtoa.obj
 0002:00000000       __imp__SetEnvironmentVariableA@8 04039000     kernel32:KERNEL32.dll
 0002:00000004       __imp__CompareStringW@24   04039004     kernel32:KERNEL32.dll
 0002:00000008       __imp__CompareStringA@24   04039008     kernel32:KERNEL32.dll
 0002:0000000c       __imp__FlushFileBuffers@4  0403900c     kernel32:KERNEL32.dll
 0002:00000010       __imp__CloseHandle@4       04039010     kernel32:KERNEL32.dll
 0002:00000014       __imp__CreateFileA@28      04039014     kernel32:KERNEL32.dll
 0002:00000018       __imp__WriteConsoleW@20    04039018     kernel32:KERNEL32.dll
 0002:0000001c       __imp__GetConsoleOutputCP@0 0403901c     kernel32:KERNEL32.dll
 0002:00000020       __imp__WriteConsoleA@20    04039020     kernel32:KERNEL32.dll
 0002:00000024       __imp__SetStdHandle@8      04039024     kernel32:KERNEL32.dll
 0002:00000028       __imp__GetTimeZoneInformation@4 04039028     kernel32:KERNEL32.dll
 0002:0000002c       __imp__GetLocaleInfoW@16   0403902c     kernel32:KERNEL32.dll
 0002:00000030       __imp__LoadLibraryA@4      04039030     kernel32:KERNEL32.dll
 0002:00000034       __imp__EnterCriticalSection@4 04039034     kernel32:KERNEL32.dll
 0002:00000038       __imp__LeaveCriticalSection@4 04039038     kernel32:KERNEL32.dll
 0002:0000003c       __imp__Sleep@4             0403903c     kernel32:KERNEL32.dll
 0002:00000040       __imp__GetProcAddress@8    04039040     kernel32:KERNEL32.dll
 0002:00000044       __imp__WritePrivateProfileStringA@16 04039044     kernel32:KERNEL32.dll
 0002:00000048       __imp__CreateThread@24     04039048     kernel32:KERNEL32.dll
 0002:0000004c       __imp__GetPrivateProfileStringA@24 0403904c     kernel32:KERNEL32.dll
 0002:00000050       __imp__InitializeCriticalSection@4 04039050     kernel32:KERNEL32.dll
 0002:00000054       __imp__DeleteCriticalSection@4 04039054     kernel32:KERNEL32.dll
 0002:00000058       __imp__GetTickCount@0      04039058     kernel32:KERNEL32.dll
 0002:0000005c       __imp__GetPrivateProfileIntA@16 0403905c     kernel32:KERNEL32.dll
 0002:00000060       __imp__InitializeCriticalSectionAndSpinCount@8 04039060     kernel32:KERNEL32.dll
 0002:00000064       __imp__GetConsoleMode@8    04039064     kernel32:KERNEL32.dll
 0002:00000068       __imp__GetConsoleCP@0      04039068     kernel32:KERNEL32.dll
 0002:0000006c       __imp__SetFilePointer@16   0403906c     kernel32:KERNEL32.dll
 0002:00000070       __imp__IsValidLocale@8     04039070     kernel32:KERNEL32.dll
 0002:00000074       __imp__EnumSystemLocalesA@8 04039074     kernel32:KERNEL32.dll
 0002:00000078       __imp__GetUserDefaultLCID@0 04039078     kernel32:KERNEL32.dll
 0002:0000007c       __imp__GetDateFormatA@24   0403907c     kernel32:KERNEL32.dll
 0002:00000080       __imp__GetTimeFormatA@24   04039080     kernel32:KERNEL32.dll
 0002:00000084       __imp__SetConsoleCtrlHandler@8 04039084     kernel32:KERNEL32.dll
 0002:00000088       __imp__GetStringTypeW@16   04039088     kernel32:KERNEL32.dll
 0002:0000008c       __imp__GetStringTypeA@20   0403908c     kernel32:KERNEL32.dll
 0002:00000090       __imp__GetLocaleInfoA@16   04039090     kernel32:KERNEL32.dll
 0002:00000094       __imp__GetCurrentProcessId@0 04039094     kernel32:KERNEL32.dll
 0002:00000098       __imp__QueryPerformanceCounter@4 04039098     kernel32:KERNEL32.dll
 0002:0000009c       __imp__GetEnvironmentStringsW@0 0403909c     kernel32:KERNEL32.dll
 0002:000000a0       __imp__FreeEnvironmentStringsW@4 040390a0     kernel32:KERNEL32.dll
 0002:000000a4       __imp__GetEnvironmentStrings@0 040390a4     kernel32:KERNEL32.dll
 0002:000000a8       __imp__FreeEnvironmentStringsA@4 040390a8     kernel32:KERNEL32.dll
 0002:000000ac       __imp__GetStartupInfoA@4   040390ac     kernel32:KERNEL32.dll
 0002:000000b0       __imp__GetFileType@4       040390b0     kernel32:KERNEL32.dll
 0002:000000b4       __imp__SetHandleCount@4    040390b4     kernel32:KERNEL32.dll
 0002:000000b8       __imp__HeapSize@12         040390b8     kernel32:KERNEL32.dll
 0002:000000bc       __imp__GetModuleHandleA@4  040390bc     kernel32:KERNEL32.dll
 0002:000000c0       __imp__GetModuleFileNameA@12 040390c0     kernel32:KERNEL32.dll
 0002:000000c4       __imp__GetStdHandle@4      040390c4     kernel32:KERNEL32.dll
 0002:000000c8       __imp__WriteFile@20        040390c8     kernel32:KERNEL32.dll
 0002:000000cc       __imp__ExitProcess@4       040390cc     kernel32:KERNEL32.dll
 0002:000000d0       __imp__HeapReAlloc@16      040390d0     kernel32:KERNEL32.dll
 0002:000000d4       __imp__VirtualAlloc@16     040390d4     kernel32:KERNEL32.dll
 0002:000000d8       __imp__FatalAppExitA@8     040390d8     kernel32:KERNEL32.dll
 0002:000000dc       __imp__VirtualFree@12      040390dc     kernel32:KERNEL32.dll
 0002:000000e0       __imp__HeapDestroy@4       040390e0     kernel32:KERNEL32.dll
 0002:000000e4       __imp__HeapCreate@12       040390e4     kernel32:KERNEL32.dll
 0002:000000e8       __imp__IsValidCodePage@4   040390e8     kernel32:KERNEL32.dll
 0002:000000ec       __imp__GetOEMCP@0          040390ec     kernel32:KERNEL32.dll
 0002:000000f0       __imp__GetACP@0            040390f0     kernel32:KERNEL32.dll
 0002:000000f4       __imp__GetCurrentThread@0  040390f4     kernel32:KERNEL32.dll
 0002:000000f8       __imp__SetLastError@4      040390f8     kernel32:KERNEL32.dll
 0002:000000fc       __imp__TlsFree@4           040390fc     kernel32:KERNEL32.dll
 0002:00000100       __imp__TlsSetValue@8       04039100     kernel32:KERNEL32.dll
 0002:00000104       __imp__TlsAlloc@0          04039104     kernel32:KERNEL32.dll
 0002:00000108       __imp__TlsGetValue@4       04039108     kernel32:KERNEL32.dll
 0002:0000010c       __imp__GetModuleHandleW@4  0403910c     kernel32:KERNEL32.dll
 0002:00000110       __imp__GetCPInfo@8         04039110     kernel32:KERNEL32.dll
 0002:00000114       __imp__LCMapStringW@24     04039114     kernel32:KERNEL32.dll
 0002:00000118       __imp__LCMapStringA@24     04039118     kernel32:KERNEL32.dll
 0002:0000011c       __imp__GetCommandLineA@0   0403911c     kernel32:KERNEL32.dll
 0002:00000120       __imp__GetCurrentThreadId@0 04039120     kernel32:KERNEL32.dll
 0002:00000124       __imp__RaiseException@16   04039124     kernel32:KERNEL32.dll
 0002:00000128       __imp__FreeLibrary@4       04039128     kernel32:KERNEL32.dll
 0002:0000012c       __imp__HeapAlloc@12        0403912c     kernel32:KERNEL32.dll
 0002:00000130       __imp__IsDebuggerPresent@0 04039130     kernel32:KERNEL32.dll
 0002:00000134       __imp__SetUnhandledExceptionFilter@4 04039134     kernel32:KERNEL32.dll
 0002:00000138       __imp__UnhandledExceptionFilter@4 04039138     kernel32:KERNEL32.dll
 0002:0000013c       __imp__GetCurrentProcess@0 0403913c     kernel32:KERNEL32.dll
 0002:00000140       __imp__TerminateProcess@8  04039140     kernel32:KERNEL32.dll
 0002:00000144       __imp__HeapFree@12         04039144     kernel32:KERNEL32.dll
 0002:00000148       __imp__GetLastError@0      04039148     kernel32:KERNEL32.dll
 0002:0000014c       __imp__WideCharToMultiByte@32 0403914c     kernel32:KERNEL32.dll
 0002:00000150       __imp__InterlockedIncrement@4 04039150     kernel32:KERNEL32.dll
 0002:00000154       __imp__InterlockedDecrement@4 04039154     kernel32:KERNEL32.dll
 0002:00000158       __imp__InterlockedCompareExchange@12 04039158     kernel32:KERNEL32.dll
 0002:0000015c       __imp__InterlockedExchange@8 0403915c     kernel32:KERNEL32.dll
 0002:00000160       __imp__MultiByteToWideChar@24 04039160     kernel32:KERNEL32.dll
 0002:00000164       __imp__RtlUnwind@16        04039164     kernel32:KERNEL32.dll
 0002:00000168       __imp__GetSystemTimeAsFileTime@4 04039168     kernel32:KERNEL32.dll
 0002:0000016c       \177KERNEL32_NULL_THUNK_DATA 0403916c     kernel32:KERNEL32.dll
 0002:00000170       __imp__RemoveCommand       04039170     MQ2Main:MQ2Main.dll
 0002:00000174       __imp__RemoveMQ2Data       04039174     MQ2Main:MQ2Main.dll
 0002:00000178       __imp__AddCommand          04039178     MQ2Main:MQ2Main.dll
 0002:0000017c       __imp__AddMQ2Data          0403917c     MQ2Main:MQ2Main.dll
 0002:00000180       __imp_?GetChildItem@CSidlScreenWnd@EQClasses@@QAEPAVCXWnd@2@PAD@Z 04039180     MQ2Main:MQ2Main.dll
 0002:00000184       __imp_?SetMaxChars@CEditBaseWnd@EQClasses@@QAEXH@Z 04039184     MQ2Main:MQ2Main.dll
 0002:00000188       __imp__DataTypeTemp        04039188     MQ2Main:MQ2Main.dll
 0002:0000018c       __imp__pFloatType          0403918c     MQ2Main:MQ2Main.dll
 0002:00000190       __imp__pStringType         04039190     MQ2Main:MQ2Main.dll
 0002:00000194       __imp_?ClrFocus@CXWnd@EQClasses@@QAEXXZ 04039194     MQ2Main:MQ2Main.dll
 0002:00000198       __imp_?WndNotification@CSidlScreenWnd@EQClasses@@QAEHPAVCXWnd@2@IPAX@Z 04039198     MQ2Main:MQ2Main.dll
 0002:0000019c       __imp__RemoveMQ2Type       0403919c     MQ2Main:MQ2Main.dll
 0002:000001a0       __imp__AddMQ2Type          040391a0     MQ2Main:MQ2Main.dll
 0002:000001a4       __imp__pBoolType           040391a4     MQ2Main:MQ2Main.dll
 0002:000001a8       __imp_??0CSidlScreenWnd@EQClasses@@QAE@PAVCXWnd@1@PAVCXStr@1@HHPAD@Z 040391a8     MQ2Main:MQ2Main.dll
 0002:000001ac       __imp_?CreateChildrenFromSidl@CSidlScreenWnd@EQClasses@@QAEXXZ 040391ac     MQ2Main:MQ2Main.dll
 0002:000001b0       __imp_??1CSidlScreenWnd@EQClasses@@QAE@XZ 040391b0     MQ2Main:MQ2Main.dll
 0002:000001b4       __imp__GetNextArg          040391b4     MQ2Main:MQ2Main.dll
 0002:000001b8       __imp_?OnMinimizeBox@CXWnd@EQClasses@@QAEHXZ 040391b8     MQ2Main:MQ2Main.dll
 0002:000001bc       __imp__WriteChatf          040391bc     MQ2Main:MQ2Main.dll
 0002:000001c0       __imp__ppLocalPlayer       040391c0     MQ2Main:MQ2Main.dll
 0002:000001c4       __imp_?GetXMLData@CXWnd@EQClasses@@QAEPAVCXMLData@2@XZ 040391c4     MQ2Main:MQ2Main.dll
 0002:000001c8       __imp__FindMQ2Window       040391c8     MQ2Main:MQ2Main.dll
 0002:000001cc       __imp__GetGameState        040391cc     MQ2Main:MQ2Main.dll
 0002:000001d0       __imp_?GetRaceDesc@CEverQuest@EQClasses@@QAEPADH@Z 040391d0     MQ2Main:MQ2Main.dll
 0002:000001d4       __imp_?Max_Endurance@EQ_Character1@EQClasses@@QAEHH@Z 040391d4     MQ2Main:MQ2Main.dll
 0002:000001d8       __imp_?Max_Mana@EQ_Character1@EQClasses@@QAEHH@Z 040391d8     MQ2Main:MQ2Main.dll
 0002:000001dc       __imp_?Max_HP@EQ_Character1@EQClasses@@QAEHHH@Z 040391dc     MQ2Main:MQ2Main.dll
 0002:000001e0       __imp_?Cur_HP@EQ_Character1@EQClasses@@QAEHHE@Z 040391e0     MQ2Main:MQ2Main.dll
 0002:000001e4       __imp__ppCharSpawn         040391e4     MQ2Main:MQ2Main.dll
 0002:000001e8       __imp__HideDoCommand       040391e8     MQ2Main:MQ2Main.dll
 0002:000001ec       __imp__DebugSpew           040391ec     MQ2Main:MQ2Main.dll
 0002:000001f0       __imp__GetArg              040391f0     MQ2Main:MQ2Main.dll
 0002:000001f4       __imp__GetCXStr            040391f4     MQ2Main:MQ2Main.dll
 0002:000001f8       __imp__SetCXStr            040391f8     MQ2Main:MQ2Main.dll
 0002:000001fc       __imp__pPlugins            040391fc     MQ2Main:MQ2Main.dll
 0002:00000200       __imp_?Show@CXWnd@EQClasses@@QAEH_N0@Z 04039200     MQ2Main:MQ2Main.dll
 0002:00000204       __imp__StripMQChat         04039204     MQ2Main:MQ2Main.dll
 0002:00000208       __imp__CheckChatForEvent   04039208     MQ2Main:MQ2Main.dll
 0002:0000020c       __imp__MQToSTML            0403920c     MQ2Main:MQ2Main.dll
 0002:00000210       __imp_??0CXStr@EQClasses@@QAE@PBD@Z 04039210     MQ2Main:MQ2Main.dll
 0002:00000214       __imp_??0CXStr@EQClasses@@QAE@ABV01@@Z 04039214     MQ2Main:MQ2Main.dll
 0002:00000218       __imp_?AppendSTML@CStmlWnd@EQClasses@@QAEAAVCXSize@2@PAV32@VCXStr@2@@Z 04039218     MQ2Main:MQ2Main.dll
 0002:0000021c       __imp_??1CXStr@EQClasses@@QAE@XZ 0403921c     MQ2Main:MQ2Main.dll
 0002:00000220       __imp__WriteChatColor      04039220     MQ2Main:MQ2Main.dll
 0002:00000224       __imp__gGameState          04039224     MQ2Main:MQ2Main.dll
 0002:00000228       __imp__ppWndMgr            04039228     MQ2Main:MQ2Main.dll
 0002:0000022c       __imp_?GetSTMLText@CStmlWnd@EQClasses@@QBEPAVCXStr@2@AAPAV32@@Z 0403922c     MQ2Main:MQ2Main.dll
 0002:00000230       __imp_?SetFont@CXWnd@EQClasses@@QAEHPAX@Z 04039230     MQ2Main:MQ2Main.dll
 0002:00000234       __imp_?SetSTMLText@CStmlWnd@EQClasses@@QAEXAAVCXStr@2@_NPAVSLinkInfo@2@@Z 04039234     MQ2Main:MQ2Main.dll
 0002:00000238       __imp_?ForceParseNow@CStmlWnd@EQClasses@@QAEXXZ 04039238     MQ2Main:MQ2Main.dll
 0002:0000023c       __imp_?SetVScrollPos@CXWnd@EQClasses@@QAEHH@Z 0403923c     MQ2Main:MQ2Main.dll
 0002:00000240       __imp__DebugSpewAlways     04039240     MQ2Main:MQ2Main.dll
 0002:00000244       __imp__gszINIPath          04039244     MQ2Main:MQ2Main.dll
 0002:00000248       __imp__ppEverQuest         04039248     MQ2Main:MQ2Main.dll
 0002:0000024c       __imp_?GetClassDesc@CEverQuest@EQClasses@@QAEPADH@Z 0403924c     MQ2Main:MQ2Main.dll
 0002:00000250       __imp__ppCharData          04039250     MQ2Main:MQ2Main.dll
 0002:00000254       __imp__pIntType            04039254     MQ2Main:MQ2Main.dll
 0002:00000258       \177MQ2Main_NULL_THUNK_DATA 04039258     MQ2Main:MQ2Main.dll
 0002:0000025c       __imp__recv@16             0403925c     wsock32:WSOCK32.dll
 0002:00000260       __imp__closesocket@4       04039260     wsock32:WSOCK32.dll
 0002:00000264       __imp__WSAStartup@8        04039264     wsock32:WSOCK32.dll
 0002:00000268       __imp__gethostbyname@4     04039268     wsock32:WSOCK32.dll
 0002:0000026c       __imp__WSACleanup@0        0403926c     wsock32:WSOCK32.dll
 0002:00000270       __imp__socket@12           04039270     wsock32:WSOCK32.dll
 0002:00000274       __imp__htons@4             04039274     wsock32:WSOCK32.dll
 0002:00000278       __imp__WSAGetLastError@0   04039278     wsock32:WSOCK32.dll
 0002:0000027c       __imp__WSASetLastError@4   0403927c     wsock32:WSOCK32.dll
 0002:00000280       __imp__connect@12          04039280     wsock32:WSOCK32.dll
 0002:00000284       __imp__ioctlsocket@12      04039284     wsock32:WSOCK32.dll
 0002:00000288       __imp__send@16             04039288     wsock32:WSOCK32.dll
 0002:0000028c       \177WSOCK32_NULL_THUNK_DATA 0403928c     wsock32:WSOCK32.dll
 0002:00000290       ___xc_a                    04039290     LIBCMT:crt0init.obj
 0002:000002b4       ___xc_z                    040392b4     LIBCMT:crt0init.obj
 0002:000002b8       ___xi_a                    040392b8     LIBCMT:crt0init.obj
 0002:000002d4       ___xi_z                    040392d4     LIBCMT:crt0init.obj
 0002:000002d8       ___xp_a                    040392d8     LIBCMT:crt0init.obj
 0002:000002e4       ___xp_z                    040392e4     LIBCMT:crt0init.obj
 0002:000002e8       ___xt_a                    040392e8     LIBCMT:crt0init.obj
 0002:000002ec       ___xt_z                    040392ec     LIBCMT:crt0init.obj
 0002:0000030c       ??_C@_03BMIBANNE@ber?$AA@  0403930c     MQ2EQBC.obj
 0002:00000310       ??_C@_09MHCCJHFP@Berserker?$AA@ 04039310     MQ2EQBC.obj
 0002:0000031c       ??_C@_03FCHAHFJA@bst?$AA@  0403931c     MQ2EQBC.obj
 0002:00000320       ??_C@_09KINPMODP@Beastlord?$AA@ 04039320     MQ2EQBC.obj
 0002:0000032c       ??_C@_03NONKPJJM@enc?$AA@  0403932c     MQ2EQBC.obj
 0002:00000330       ??_C@_09EEJIJECG@Enchanter?$AA@ 04039330     MQ2EQBC.obj
 0002:0000033c       ??_C@_03HEFOFDEK@mag?$AA@  0403933c     MQ2EQBC.obj
 0002:00000340       ??_C@_04EPDGEGDL@Mage?$AA@ 04039340     MQ2EQBC.obj
 0002:00000348       ??_C@_03LKIFNJBF@wiz?$AA@  04039348     MQ2EQBC.obj
 0002:0000034c       ??_C@_06MNAGNDLP@Wizard?$AA@ 0403934c     MQ2EQBC.obj
 0002:00000354       ??_C@_03FIOJBHM@nec?$AA@   04039354     MQ2EQBC.obj
 0002:00000358       ??_C@_0M@OEPIPDJH@Necromancer?$AA@ 04039358     MQ2EQBC.obj
 0002:00000364       ??_C@_03DBKGKAOD@shm?$AA@  04039364     MQ2EQBC.obj
 0002:00000368       ??_C@_06ELHMMIIB@Shaman?$AA@ 04039368     MQ2EQBC.obj
 0002:00000370       ??_C@_03HGLKDJIJ@rog?$AA@  04039370     MQ2EQBC.obj
 0002:00000374       ??_C@_05PIFIONNP@Rogue?$AA@ 04039374     MQ2EQBC.obj
 0002:0000037c       ??_C@_03BJHAANPG@brd?$AA@  0403937c     MQ2EQBC.obj
 0002:00000380       ??_C@_04MOJAIBDA@Bard?$AA@ 04039380     MQ2EQBC.obj
 0002:00000388       ??_C@_03NDLHFLHL@mnk?$AA@  04039388     MQ2EQBC.obj
 0002:0000038c       ??_C@_04DOLLCHAJ@Monk?$AA@ 0403938c     MQ2EQBC.obj
 0002:00000394       ??_C@_03GPMCHBDK@dru?$AA@  04039394     MQ2EQBC.obj
 0002:00000398       ??_C@_05EDJAKLCL@Druid?$AA@ 04039398     MQ2EQBC.obj
 0002:000003a0       ??_C@_03OAGEBLKK@shd?$AA@  040393a0     MQ2EQBC.obj
 0002:000003a4       ??_C@_0N@ICIHEJOD@Shadowknight?$AA@ 040393a4     MQ2EQBC.obj
 0002:000003b4       ??_C@_03HHHIFDLO@rng?$AA@  040393b4     MQ2EQBC.obj
 0002:000003b8       ??_C@_06MGJHBAMJ@Ranger?$AA@ 040393b8     MQ2EQBC.obj
 0002:000003c0       ??_C@_03DFNJAFMD@pal?$AA@  040393c0     MQ2EQBC.obj
 0002:000003c4       ??_C@_07DBGCNDAP@Paladin?$AA@ 040393c4     MQ2EQBC.obj
 0002:000003cc       ??_C@_03KLOMFBDO@clr?$AA@  040393cc     MQ2EQBC.obj
 0002:000003d0       ??_C@_06PBHENIKF@Cleric?$AA@ 040393d0     MQ2EQBC.obj
 0002:000003d8       ??_C@_03HMEPACKF@war?$AA@  040393d8     MQ2EQBC.obj
 0002:000003dc       ??_C@_07DFKLKNJN@Warrior?$AA@ 040393dc     MQ2EQBC.obj
 0002:000003e4       ??_C@_00CNPNBAHC@?$AA@     040393e4     MQ2EQBC.obj
 0002:000003e8       ??_C@_0P@GHFPNOJB@bad?5allocation?$AA@ 040393e8     MQ2EQBC.obj
 0002:000003f8       ?collate@?$_Locbase@H@std@@2HB 040393f8     MQ2EQBC.obj
 0002:000003fc       ?ctype@?$_Locbase@H@std@@2HB 040393fc     MQ2EQBC.obj
 0002:00000400       ?monetary@?$_Locbase@H@std@@2HB 04039400     MQ2EQBC.obj
 0002:00000404       ?numeric@?$_Locbase@H@std@@2HB 04039404     MQ2EQBC.obj
 0002:00000408       ?time@?$_Locbase@H@std@@2HB 04039408     MQ2EQBC.obj
 0002:0000040c       ?messages@?$_Locbase@H@std@@2HB 0403940c     MQ2EQBC.obj
 0002:00000410       ?all@?$_Locbase@H@std@@2HB 04039410     MQ2EQBC.obj
 0002:00000414       ?none@?$_Locbase@H@std@@2HB 04039414     MQ2EQBC.obj
 0002:00000418       ?table_size@?$ctype@D@std@@2IB 04039418     MQ2EQBC.obj
 0002:0000041c       ?skipws@?$_Iosb@H@std@@2W4_Fmtflags@12@B 0403941c     MQ2EQBC.obj
 0002:00000420       ?unitbuf@?$_Iosb@H@std@@2W4_Fmtflags@12@B 04039420     MQ2EQBC.obj
 0002:00000424       ?uppercase@?$_Iosb@H@std@@2W4_Fmtflags@12@B 04039424     MQ2EQBC.obj
 0002:00000428       ?showbase@?$_Iosb@H@std@@2W4_Fmtflags@12@B 04039428     MQ2EQBC.obj
 0002:0000042c       ?showpoint@?$_Iosb@H@std@@2W4_Fmtflags@12@B 0403942c     MQ2EQBC.obj
 0002:00000430       ?showpos@?$_Iosb@H@std@@2W4_Fmtflags@12@B 04039430     MQ2EQBC.obj
 0002:00000434       ?left@?$_Iosb@H@std@@2W4_Fmtflags@12@B 04039434     MQ2EQBC.obj
 0002:00000438       ?right@?$_Iosb@H@std@@2W4_Fmtflags@12@B 04039438     MQ2EQBC.obj
 0002:0000043c       ?internal@?$_Iosb@H@std@@2W4_Fmtflags@12@B 0403943c     MQ2EQBC.obj
 0002:00000440       ?dec@?$_Iosb@H@std@@2W4_Fmtflags@12@B 04039440     MQ2EQBC.obj
 0002:00000444       ?oct@?$_Iosb@H@std@@2W4_Fmtflags@12@B 04039444     MQ2EQBC.obj
 0002:00000448       ?hex@?$_Iosb@H@std@@2W4_Fmtflags@12@B 04039448     MQ2EQBC.obj
 0002:0000044c       ?scientific@?$_Iosb@H@std@@2W4_Fmtflags@12@B 0403944c     MQ2EQBC.obj
 0002:00000450       ?fixed@?$_Iosb@H@std@@2W4_Fmtflags@12@B 04039450     MQ2EQBC.obj
 0002:00000454       ?hexfloat@?$_Iosb@H@std@@2W4_Fmtflags@12@B 04039454     MQ2EQBC.obj
 0002:00000458       ?boolalpha@?$_Iosb@H@std@@2W4_Fmtflags@12@B 04039458     MQ2EQBC.obj
 0002:0000045c       ?_Stdio@?$_Iosb@H@std@@2W4_Fmtflags@12@B 0403945c     MQ2EQBC.obj
 0002:00000460       ?adjustfield@?$_Iosb@H@std@@2W4_Fmtflags@12@B 04039460     MQ2EQBC.obj
 0002:00000464       ?basefield@?$_Iosb@H@std@@2W4_Fmtflags@12@B 04039464     MQ2EQBC.obj
 0002:00000468       ?floatfield@?$_Iosb@H@std@@2W4_Fmtflags@12@B 04039468     MQ2EQBC.obj
 0002:0000046c       ?goodbit@?$_Iosb@H@std@@2W4_Iostate@12@B 0403946c     MQ2EQBC.obj
 0002:00000470       ?eofbit@?$_Iosb@H@std@@2W4_Iostate@12@B 04039470     MQ2EQBC.obj
 0002:00000474       ?failbit@?$_Iosb@H@std@@2W4_Iostate@12@B 04039474     MQ2EQBC.obj
 0002:00000478       ?badbit@?$_Iosb@H@std@@2W4_Iostate@12@B 04039478     MQ2EQBC.obj
 0002:0000047c       ?_Hardfail@?$_Iosb@H@std@@2W4_Iostate@12@B 0403947c     MQ2EQBC.obj
 0002:00000480       ?in@?$_Iosb@H@std@@2W4_Openmode@12@B 04039480     MQ2EQBC.obj
 0002:00000484       ?out@?$_Iosb@H@std@@2W4_Openmode@12@B 04039484     MQ2EQBC.obj
 0002:00000488       ?ate@?$_Iosb@H@std@@2W4_Openmode@12@B 04039488     MQ2EQBC.obj
 0002:0000048c       ?app@?$_Iosb@H@std@@2W4_Openmode@12@B 0403948c     MQ2EQBC.obj
 0002:00000490       ?trunc@?$_Iosb@H@std@@2W4_Openmode@12@B 04039490     MQ2EQBC.obj
 0002:00000494       ?_Nocreate@?$_Iosb@H@std@@2W4_Openmode@12@B 04039494     MQ2EQBC.obj
 0002:00000498       ?_Noreplace@?$_Iosb@H@std@@2W4_Openmode@12@B 04039498     MQ2EQBC.obj
 0002:0000049c       ?binary@?$_Iosb@H@std@@2W4_Openmode@12@B 0403949c     MQ2EQBC.obj
 0002:000004a0       ?beg@?$_Iosb@H@std@@2W4_Seekdir@12@B 040394a0     MQ2EQBC.obj
 0002:000004a4       ?cur@?$_Iosb@H@std@@2W4_Seekdir@12@B 040394a4     MQ2EQBC.obj
 0002:000004a8       ?end@?$_Iosb@H@std@@2W4_Seekdir@12@B 040394a8     MQ2EQBC.obj
 0002:000004b0       ??_7bad_alloc@std@@6B@     040394b0     MQ2EQBC.obj
 0002:000004bc       ??_7facet@locale@std@@6B@  040394bc     MQ2EQBC.obj
 0002:000004c4       ??_7ctype_base@std@@6B@    040394c4     MQ2EQBC.obj
 0002:000004cc       ??_7ios_base@std@@6B@      040394cc     MQ2EQBC.obj
 0002:000004d0       ??_C@_0N@HNJJIAEL@DoN?5Merchant?$AA@ 040394d0     MQ2EQBC.obj
 0002:000004e0       ??_C@_08BMEIENOK@Campfire?$AA@ 040394e0     MQ2EQBC.obj
 0002:000004ec       ??_C@_06NMEBMDIN@Banner?$AA@ 040394ec     MQ2EQBC.obj
 0002:000004f4       ??_C@_04CLDMMPGN@Aura?$AA@ 040394f4     MQ2EQBC.obj
 0002:000004fc       ??_C@_0BC@MKJKIPEE@Mercenary?5Liaison?$AA@ 040394fc     MQ2EQBC.obj
 0002:00000510       ??_C@_0BF@KHOIGALG@Fellowship?5Registrar?$AA@ 04039510     MQ2EQBC.obj
 0002:00000528       ??_C@_0N@BNCLDFOJ@Guild?5Banker?$AA@ 04039528     MQ2EQBC.obj
 0002:00000538       ??_C@_0BF@KMGKBJKG@Guild?5Tribute?5Master?$AA@ 04039538     MQ2EQBC.obj
 0002:00000550       ??_C@_0P@BKNMCCED@Tribute?5Master?$AA@ 04039550     MQ2EQBC.obj
 0002:00000560       ??_C@_0BE@LNFKOHCE@Destructible?5Object?$AA@ 04039560     MQ2EQBC.obj
 0002:00000574       ??_C@_0O@MIBKNJNC@LDoN?5Merchant?$AA@ 04039574     MQ2EQBC.obj
 0002:00000584       ??_C@_0P@HPHJOKMH@LDoN?5Recruiter?$AA@ 04039584     MQ2EQBC.obj
 0002:00000594       ??_C@_0BD@GHJBOHNK@?$CFs?5Module?5Unloaded?$AA@ 04039594     MQ2EQBC.obj
 0002:000005a8       ??_C@_09KADMDAPI@?$CFs?2?$CFs?4ini?$AA@ 040395a8     MQ2EQBC.obj
 0002:000005b4       ??_C@_0BB@OIFMLBEG@?$CFs?5Module?5Loaded?$AA@ 040395b4     MQ2EQBC.obj
 0002:000005c8       ??_C@_07KCEGIEOF@MQ2Eqbc?$AA@ 040395c8     MQ2EQBC.obj
 0002:000005d0       ??_C@_01ICJEACDI@?$DL?$AA@ 040395d0     MQ2EQBC.obj
 0002:000005d4       ??_C@_01NEMOKFLO@?$DN?$AA@ 040395d4     MQ2EQBC.obj
 0002:000005d8       ??_C@_01JLIPDDHJ@?3?$AA@   040395d8     MQ2EQBC.obj
 0002:000005dc       ??_C@_05PLHGOPJD@LOGIN?$AA@ 040395dc     MQ2EQBC.obj
 0002:000005e4       ??_C@_05CGBBMGEI@?$CFs?5?1?1?$AA@ 040395e4     MQ2EQBC.obj
 0002:000005ec       ??_C@_09IDINGOEI@YouPlayer?$AA@ 040395ec     MQ2EQBC.obj
 0002:000005f8       ??_C@_04NKJDMFKO@?$DMbr?$DO?$AA@ 040395f8     MQ2EQBC.obj
 0002:00000600       ??_C@_09EEGKPAIL@OnWriteBC?$AA@ 04039600     MQ2EQBC.obj
 0002:0000060c       ??_C@_0BA@JOAACNPO@broadcast?3send2?$AA@ 0403960c     MQ2EQBC.obj
 0002:0000061c       ??_C@_01EEMJAFIK@?6?$AA@   0403961c     MQ2EQBC.obj
 0002:00000620       ??_C@_0BA@LFCNHODN@broadcast?3send1?$AA@ 04039620     MQ2EQBC.obj
 0002:00000630       ??_C@_08CDLGKJMC@?$AHr?$CD?$AHx?5?$CFs?$AA@ 04039630     MQ2EQBC.obj
 0002:0000063c       ??_C@_08EEOHOBEO@Settings?$AA@ 0403963c     MQ2EQBC.obj
 0002:00000648       ??_C@_02DPKJAMEF@?$CFd?$AA@ 04039648     MQ2EQBC.obj
 0002:0000064c       ??_C@_0BM@KMJKAAND@?$AHr?$CD?$AHx?5Setting?3?5?$CFs?5turned?5?$CFs?$AA@ 0403964c     MQ2EQBC.obj
 0002:00000668       ??_C@_03MPPIHBHJ@OFF?$AA@  04039668     MQ2EQBC.obj
 0002:0000066c       ??_C@_02BFICIOJL@ON?$AA@   0403966c     MQ2EQBC.obj
 0002:00000670       ??_C@_0DK@GAOFAOKN@?$AHr?$CD?$AHx?5IRC?5Compat?5Mode?3?5?$CFs?0?5Recon@ 04039670     MQ2EQBC.obj
 0002:000006ac       ??_C@_0CK@EDPCEBKD@?$AHr?$CD?$AHx?5Allow?5Control?3?5?$CFs?0?5Auto?5Co@ 040396ac     MQ2EQBC.obj
 0002:000006d8       ??_C@_0BO@IJEEBJAI@?$AHr?$CD?$AHx?5MQ2Eqbc?5Status?3?5OFFLINE?$AA@ 040396d8     MQ2EQBC.obj
 0002:000006f8       ??_C@_0CH@BMBFMLLO@?$AHr?$CD?$AHx?5MQ2Eqbc?5Status?3?5ONLINE?5?9?5?$CF@ 040396f8     MQ2EQBC.obj
 0002:00000720       ??_C@_0FD@EACMDOJE@?$AHr?$CD?$AHx?5?$AHy?1bcaa?5?1?1command?$AHx?5?$CIsend?5@ 04039720     MQ2EQBC.obj
 0002:00000778       ??_C@_0FC@HIDBFPJP@?$AHr?$CD?$AHx?5?$AHy?1bca?5?1?1command?$AHx?5?$CIsend?5C@ 04039778     MQ2EQBC.obj
 0002:000007d0       ??_C@_0EJ@KPMGFJB@?$AHr?$CD?$AHx?5?$AHy?1bc?5ToonName?5?1?1command?$AHx@ 040397d0     MQ2EQBC.obj
 0002:0000081c       ??_C@_0DN@PMPPPEIP@?$AHr?$CD?$AHx?5?$AHy?1bct?5ToonName?5?1?1command?$AH@ 0403981c     MQ2EQBC.obj
 0002:00000860       ??_C@_0EE@HDHIKABG@?$AHr?$CD?$AHx?5?$AHy?1bct?5ToonName?5your?5text?$AH@ 04039860     MQ2EQBC.obj
 0002:000008a4       ??_C@_0CE@CCJFDBNO@?$AHr?$CD?$AHx?5?$AHy?1bc?5your?5text?$AHx?5?$CIsend?5te@ 040398a4     MQ2EQBC.obj
 0002:000008c8       ??_C@_0FM@BLGIFAIK@?$AHr?$CD?$AHx?5?$AHy?1bccmd?5togglelocalecho?$AHx@ 040398c8     MQ2EQBC.obj
 0002:00000928       ??_C@_0FG@HLNPNHIF@?$AHr?$CD?$AHx?5?$AHy?1bccmd?5channels?5?$DMchannel@ 04039928     MQ2EQBC.obj
 0002:00000980       ??_C@_0GG@DONJMKOM@?$AHr?$CD?$AHx?5?$AHy?1bccmd?5relog?5?$DMcharname?$DO?$AH@ 04039980     MQ2EQBC.obj
 0002:000009e8       ??_C@_0EC@BBLMEDJI@?$AHr?$CD?$AHx?5?$AHy?1bccmd?5stopreconnect?$AHx?5?$CI@ 040399e8     MQ2EQBC.obj
 0002:00000a30       ??_C@_0EM@JHPFDJFM@?$AHr?$CD?$AHx?5?$AHy?1bccmd?5setreconnectsecs?5@ 04039a30     MQ2EQBC.obj
 0002:00000a80       ??_C@_0EP@LLENNPAA@?$AHr?$CD?$AHx?5?$AHy?1bccmd?5togglesavebychar?$AH@ 04039a80     MQ2EQBC.obj
 0002:00000ad0       ??_C@_0EL@PBFKHPPP@?$AHr?$CD?$AHx?5?$AHy?1bccmd?5togglesilentcmd?$AHx@ 04039ad0     MQ2EQBC.obj
 0002:00000b20       ??_C@_0EI@JCPECKGJ@?$AHr?$CD?$AHx?5?$AHy?1bccmd?5togglefswatch?$AHx?5?$CI@ 04039b20     MQ2EQBC.obj
 0002:00000b68       ??_C@_0EG@KAADBHOL@?$AHr?$CD?$AHx?5?$AHy?1bccmd?5togglegroupwatch?$AH@ 04039b68     MQ2EQBC.obj
 0002:00000bb0       ??_C@_0EG@HDBEDIOA@?$AHr?$CD?$AHx?5?$AHy?1bccmd?5toggleguildwatch?$AH@ 04039bb0     MQ2EQBC.obj
 0002:00000bf8       ??_C@_0EJ@NMHMCCGP@?$AHr?$CD?$AHx?5?$AHy?1bccmd?5toggletellwatch?$AHx@ 04039bf8     MQ2EQBC.obj
 0002:00000c48       ??_C@_0FD@DKGEDHAC@?$AHr?$CD?$AHx?5?$AHy?1bccmd?5togglereconnect?$AHx@ 04039c48     MQ2EQBC.obj
 0002:00000c9c       ??_C@_0DJ@IOOOBEEG@?$AHr?$CD?$AHx?5?$AHy?1bccmd?5toggleautoconnect@ 04039c9c     MQ2EQBC.obj
 0002:00000cd8       ??_C@_0EC@DDAMPIDP@?$AHr?$CD?$AHx?5?$AHy?1bccmd?5togglecompatmode?$AH@ 04039cd8     MQ2EQBC.obj
 0002:00000d20       ??_C@_0EA@MNNELNHD@?$AHr?$CD?$AHx?5?$AHy?1bccmd?5togglewindow?$AHx?5?$CIt@ 04039d20     MQ2EQBC.obj
 0002:00000d60       ??_C@_0DG@HLPEPPDH@?$AHr?$CD?$AHx?5?$AHy?1bccmd?5togglecontrol?$AHx?5?$CI@ 04039d60     MQ2EQBC.obj
 0002:00000d98       ??_C@_0DN@KBLMOPEB@?$AHr?$CD?$AHx?5?$AHy?1bccmd?5colordump?$AHx?5?$CIShow@ 04039d98     MQ2EQBC.obj
 0002:00000dd8       ??_C@_0CP@LOAOPEM@?$AHr?$CD?$AHx?5?$AHy?1bccmd?5names?$AHx?5?$CIshow?5who@ 04039dd8     MQ2EQBC.obj
 0002:00000e08       ??_C@_0EI@CNBJPJPC@?$AHr?$CD?$AHx?5?$AHy?1bccmd?5reconnect?$AHx?5?$CIclos@ 04039e08     MQ2EQBC.obj
 0002:00000e50       ??_C@_0DN@IHFMGLKA@?$AHr?$CD?$AHx?5?$AHy?1bccmd?5status?$AHx?5?$CIshow?5co@ 04039e50     MQ2EQBC.obj
 0002:00000e90       ??_C@_0CJ@DJKNPMHD@?$AHr?$CD?$AHx?5?$AHy?1bccmd?5help?$AHx?5?$CIshow?5this@ 04039e90     MQ2EQBC.obj
 0002:00000ebc       ??_C@_0CE@PEINCONG@?$AHr?$CD?$AHx?5?$AHy?1bccmd?5quit?$AHx?5?$CIdisconnec@ 04039ebc     MQ2EQBC.obj
 0002:00000ee0       ??_C@_0EJ@PLFNPONG@?$AHr?$CD?$AHx?5?$AHy?1bccmd?5connect?5?$DMserver?$DO?5@ 04039ee0     MQ2EQBC.obj
 0002:00000f2c       ??_C@_0BJ@EKLJPLJK@?$AHr?$CD?$AHx?5Commands?5Available?$AA@ 04039f2c     MQ2EQBC.obj
 0002:00000f48       ??_C@_0BN@DIMNGJCB@?$AHr?$CD?$AHx?5Connecting?5to?5?$CFs?5?$CFs?4?4?4?$AA@ 04039f48     MQ2EQBC.obj
 0002:00000f68       ??_C@_0BD@JMHPKKLF@?$AHr?$CD?$AHx?5Socket?5error?$AA@ 04039f68     MQ2EQBC.obj
 0002:00000f7c       ??_C@_0BK@JEIKIAPE@?$AHr?$CD?$AHx?5gethostbyname?5error?$AA@ 04039f7c     MQ2EQBC.obj
 0002:00000f98       ??_C@_08FJIAHGMM@Password?$AA@ 04039f98     MQ2EQBC.obj
 0002:00000fa4       ??_C@_04HOKNCALA@Port?$AA@ 04039fa4     MQ2EQBC.obj
 0002:00000fac       ??_C@_04GCHCKHBG@2112?$AA@ 04039fac     MQ2EQBC.obj
 0002:00000fb4       ??_C@_0N@LNPCLCEH@Last?5Connect?$AA@ 04039fb4     MQ2EQBC.obj
 0002:00000fc4       ??_C@_06LGMEBDBC@Server?$AA@ 04039fc4     MQ2EQBC.obj
 0002:00000fcc       ??_C@_09PFCHIMEP@127?40?40?41?$AA@ 04039fcc     MQ2EQBC.obj
 0002:00000fd8       ??_C@_0DI@NHOMDELM@?$AHr?$CD?$AHx?5Already?5trying?5to?5connect?$CB@ 04039fd8     MQ2EQBC.obj
 0002:00001010       ??_C@_0DO@KFEBCHBG@?$AHr?$CD?$AHx?5Already?5connected?4?5Use?5?1bc@ 0403a010     MQ2EQBC.obj
 0002:00001050       ??_C@_0BA@DOKPPHDF@MQ2EQBC?5v1?43?4p5?$AA@ 0403a050     MQ2EQBC.obj
 0002:00001060       ??_C@_0BG@EBLEKGBJ@You?5are?5not?5connected?$AA@ 0403a060     MQ2EQBC.obj
 0002:00001078       ??_C@_0BI@GLDPCGED@HandleNamesRequest?3send?$AA@ 0403a078     MQ2EQBC.obj
 0002:00001090       ??_C@_07MNBOKAME@?7NAMES?6?$AA@ 0403a090     MQ2EQBC.obj
 0002:00001098       ??_C@_0BK@IGBGOJCJ@?$AHr?$CD?$AHx?5Requesting?5names?4?4?4?$AA@ 0403a098     MQ2EQBC.obj
 0002:000010b4       ??_C@_0BF@PPILBNAB@HandleChannels?3Send3?$AA@ 0403a0b4     MQ2EQBC.obj
 0002:000010cc       ??_C@_0BF@OGJACMEA@HandleChannels?3Send2?$AA@ 0403a0cc     MQ2EQBC.obj
 0002:000010e4       ??_C@_0BF@MNLNHPID@HandleChannels?3Send1?$AA@ 0403a0e4     MQ2EQBC.obj
 0002:000010fc       ??_C@_01CLKCMJKC@?5?$AA@   0403a0fc     MQ2EQBC.obj
 0002:00001100       ??_C@_02MCBMIIIH@?5?6?$AA@ 0403a100     MQ2EQBC.obj
 0002:00001104       ??_C@_08INPNJAIK@Channels?$AA@ 0403a104     MQ2EQBC.obj
 0002:00001110       ??_C@_0FG@KAJBGFPB@?$AHr?$CD?$AHx?5You?5are?5not?5connected?4?5Ple@ 0403a110     MQ2EQBC.obj
 0002:00001168       ??_C@_0L@OOGHICLO@?7CHANNELS?6?$AA@ 0403a168     MQ2EQBC.obj
 0002:00001174       ??_C@_0BH@LKPDHFIH@SendCmdLocalEcho?3Send1?$AA@ 0403a174     MQ2EQBC.obj
 0002:0000118c       ??_C@_05INCLBHOP@?$CFs?$CFi?6?$AA@ 0403a18c     MQ2EQBC.obj
 0002:00001194       ??_C@_0M@NLMHBBHD@?7LOCALECHO?5?$AA@ 0403a194     MQ2EQBC.obj
 0002:000011a0       ??_C@_0BB@FBJIDADK@BoxChatSay?3Send2?$AA@ 0403a1a0     MQ2EQBC.obj
 0002:000011b4       ??_C@_0BB@HKLFGDPJ@BoxChatSay?3Send1?$AA@ 0403a1b4     MQ2EQBC.obj
 0002:000011c8       ??_C@_08BDFNLAHA@?$AHx?$AHr?$FN?$AHx?5?$AA@ 0403a1c8     MQ2EQBC.obj
 0002:000011d4       ??_C@_0BH@FENGHABL@?$AHx?$AHr?$FL?$CI?$AHx?$AHymsg?$AHx?$AHr?$CJ?$AHx?$AHy?$AA@ 0403a1d4     MQ2EQBC.obj
 0002:000011ec       ??_C@_0BC@NLKJACMF@BoxChatTell?3Send3?$AA@ 0403a1ec     MQ2EQBC.obj
 0002:00001200       ??_C@_0BC@MCLCDDIE@BoxChatTell?3Send2?$AA@ 0403a200     MQ2EQBC.obj
 0002:00001214       ??_C@_0BC@OJJPGAEH@BoxChatTell?3Send1?$AA@ 0403a214     MQ2EQBC.obj
 0002:00001228       ??_C@_06KCKKIDCB@?7TELL?6?$AA@ 0403a228     MQ2EQBC.obj
 0002:00001230       ??_C@_0BC@NCIOADNF@BciTransmit?3Send3?$AA@ 0403a230     MQ2EQBC.obj
 0002:00001244       ??_C@_0BC@MLJFDCJE@BciTransmit?3Send2?$AA@ 0403a244     MQ2EQBC.obj
 0002:00001258       ??_C@_0BC@OALIGBFH@BciTransmit?3Send1?$AA@ 0403a258     MQ2EQBC.obj
 0002:0000126c       ??_C@_05EHAEKNKL@?7BCI?6?$AA@ 0403a26c     MQ2EQBC.obj
 0002:00001274       ??_C@_0BE@MMJKEIED@BoxChatSayAll?3Send3?$AA@ 0403a274     MQ2EQBC.obj
 0002:00001288       ??_C@_0BE@NFIBHJAC@BoxChatSayAll?3Send2?$AA@ 0403a288     MQ2EQBC.obj
 0002:0000129c       ??_C@_0BE@POKMCKMB@BoxChatSayAll?3Send1?$AA@ 0403a29c     MQ2EQBC.obj
 0002:000012b0       ??_C@_08DAJDEJJK@?7MSGALL?6?$AA@ 0403a2b0     MQ2EQBC.obj
 0002:000012bc       ??_C@_0BJ@MLKBIOKC@SendNetBotMSG?3?3Bad?5NBMSG?$AA@ 0403a2bc     MQ2EQBC.obj
 0002:000012d8       ??_C@_0BK@KHHCIIHL@SendNetBotMSG?3?3No?5Handler?$AA@ 0403a2d8     MQ2EQBC.obj
 0002:000012f4       ??_C@_0M@OEDKJGKG@OnNetBotMSG?$AA@ 0403a2f4     MQ2EQBC.obj
 0002:00001300       ??_C@_0L@LPMPLDMD@mq2netheal?$AA@ 0403a300     MQ2EQBC.obj
 0002:0000130c       ??_C@_06FGEEDPEK@?3?$FLNH?$FN?$HM?$AA@ 0403a30c     MQ2EQBC.obj
 0002:00001314       ??_C@_0L@ENHFCEAD@mq2netbots?$AA@ 0403a314     MQ2EQBC.obj
 0002:00001320       ??_C@_06DJPJNPCO@?3?$FLNB?$FN?$HM?$AA@ 0403a320     MQ2EQBC.obj
 0002:00001328       ??_C@_0BL@EGKPPNHM@SendNetBotEVENT?3?3Bad?5NBMSG?$AA@ 0403a328     MQ2EQBC.obj
 0002:00001344       ??_C@_0BM@MGJEHJNL@SendNetBotEVENT?3?3No?5Handler?$AA@ 0403a344     MQ2EQBC.obj
 0002:00001360       ??_C@_0O@MLFIDECI@OnNetBotEVENT?$AA@ 0403a360     MQ2EQBC.obj
 0002:00001370       ??_C@_03IMLOPEAE@?5?$AN?6?$AA@ 0403a370     MQ2EQBC.obj
 0002:00001374       ??_C@_0BC@ECNHDGMP@?$AHr?$CD?$AHx?5CMD?3?5?$FL?$CFs?$FN?$CFs?$AA@ 0403a374     MQ2EQBC.obj
 0002:00001388       ??_C@_0CE@KNNCEEBN@?5?9?5Not?5allowed?5?$CIControl?5turned?5o@ 0403a388     MQ2EQBC.obj
 0002:000013ac       ??_C@_0CP@FCGPGEPD@1?$HM?$CFd?$HM?$CFd?$HM?$CFd?$HM?$CFd?$HM?$CFd?$HM?$CFd?$HM?$CFd?$HM?$CFd?$HM?$CFs?$HM?$CFs?$HM@ 0403a3ac     MQ2EQBC.obj
 0002:000013dc       ??_C@_03GKEOMEPE@REQ?$AA@  0403a3dc     MQ2EQBC.obj
 0002:000013e0       ??_C@_0CA@KGDHADIM@?$AHr?$CD?$AHx?5?9?5?$CFs?5has?5left?5the?5server?4?$AA@ 0403a3e0     MQ2EQBC.obj
 0002:00001400       ??_C@_07KFDONGJF@NBQUIT?$DN?$AA@ 0403a400     MQ2EQBC.obj
 0002:00001408       ??_C@_0CC@JBLHELD@?$AHr?$CD?$AHx?5?9?5?$CFs?5has?5joined?5the?5server@ 0403a408     MQ2EQBC.obj
 0002:0000142c       ??_C@_07PHMOINEI@NBJOIN?$DN?$AA@ 0403a42c     MQ2EQBC.obj
 0002:00001434       ??_C@_02LIPFKLKA@NB?$AA@   0403a434     MQ2EQBC.obj
 0002:00001438       ??_C@_06OCNMNCA@NBPKT?3?$AA@ 0403a438     MQ2EQBC.obj
 0002:00001440       ??_C@_06NFNHPOPM@?7PONG?6?$AA@ 0403a440     MQ2EQBC.obj
 0002:00001448       ??_C@_04CCOOKJJG@PING?$AA@ 0403a448     MQ2EQBC.obj
 0002:00001450       ??_C@_0BG@KBFECGOG@CharacterSelectWindow?$AA@ 0403a450     MQ2EQBC.obj
 0002:00001468       ??_C@_08ILDHAKLL@CSW_Char?$AA@ 0403a468     MQ2EQBC.obj
 0002:00001478       ??_C@_0EB@NPALNAMG@?1notify?5CharacterSelectWindow?5CS@ 0403a478     MQ2EQBC.obj
 0002:000014bc       ??_C@_0CN@LBAJENHI@?1notify?5CharacterSelectWindow?5?$CFs@ 0403a4bc     MQ2EQBC.obj
 0002:000014ec       ??_C@_0BG@GABCGEKF@?$AHr?$CD?$AHx?5Logging?5in?5?$FL?$CFs?$FN?$AA@ 0403a4ec     MQ2EQBC.obj
 0002:00001508       ??_C@_0ED@DLLKEEDK@?$AHr?$CD?$AHx?5Character?5?$FL?$CFs?$FN?5not?5found?0?5@ 0403a508     MQ2EQBC.obj
 0002:0000154c       ??_C@_0BE@LODCKKCB@Usage?3?5?1bcfont?50?910?$AA@ 0403a54c     MQ2EQBC.obj
 0002:00001560       ??_C@_0BM@GGEEFNNA@Fellowship?5chat?5from?5?$CFs?3?5?$CFs?$AA@ 0403a560     MQ2EQBC.obj
 0002:0000157c       ??_C@_0BH@HAGAFLNF@Group?5chat?5from?5?$CFs?3?5?$CFs?$AA@ 0403a57c     MQ2EQBC.obj
 0002:00001594       ??_C@_0BH@BNEBAGK@Guild?5chat?5from?5?$CFs?3?5?$CFs?$AA@ 0403a594     MQ2EQBC.obj
 0002:000015ac       ??_C@_0BK@BDIDMBIA@Tell?5received?5from?5?$CFs?3?5?$CFs?$AA@ 0403a5ac     MQ2EQBC.obj
 0002:000015c8       ??_C@_04HCDFPCHE@EQBC?$AA@ 0403a5c8     MQ2EQBC.obj
 0002:000015d0       ??_C@_06FINGMMKM@?7NBMSG?$AA@ 0403a5d0     MQ2EQBC.obj
 0002:000015d8       ??_C@_08IEKODCDM@?7NBNAMES?$AA@ 0403a5d8     MQ2EQBC.obj
 0002:000015e4       ??_C@_05JAEFIFOF@NAMES?$AA@ 0403a5e4     MQ2EQBC.obj
 0002:000015f0       ??_7?$basic_istream@DU?$char_traits@D@std@@@std@@6B@ 0403a5f0     MQ2EQBC.obj
 0002:000015f8       ??_7?$basic_ios@DU?$char_traits@D@std@@@std@@6B@ 0403a5f8     MQ2EQBC.obj
 0002:00001600       ??_7?$ctype@D@std@@6B@     0403a600     MQ2EQBC.obj
 0002:0000162c       ??_C@_0BG@KJPCHNIL@HandleDisconnect?3Send?$AA@ 0403a62c     MQ2EQBC.obj
 0002:00001644       ??_C@_0N@FHBOBIM@?7DISCONNECT?6?$AA@ 0403a644     MQ2EQBC.obj
 0002:00001654       ??_C@_06LABFLKJ@NBEXIT?$AA@ 0403a654     MQ2EQBC.obj
 0002:0000165c       ??_C@_0O@KOPNLKNP@Relog?5as?5?$CFs?3?5?$AA@ 0403a65c     MQ2EQBC.obj
 0002:0000166c       ??_C@_06OHCJKBJM@FAILED?$AA@ 0403a66c     MQ2EQBC.obj
 0002:00001674       ??_C@_03CLEMAOID@NOW?$AA@  0403a674     MQ2EQBC.obj
 0002:00001678       ??_C@_0DK@HKPBCGFM@Failed?5to?5reach?5character?5select@ 0403a678     MQ2EQBC.obj
 0002:000016b8       ??_7?$basic_streambuf@DU?$char_traits@D@std@@@std@@6B@ 0403a6b8     MQ2EQBC.obj
 0002:000016f4       ??_7?$basic_stringbuf@DU?$char_traits@D@std@@V?$allocator@D@2@@std@@6B@ 0403a6f4     MQ2EQBC.obj
 0002:00001730       ??_7?$num_get@DV?$istreambuf_iterator@DU?$char_traits@D@std@@@std@@@std@@6B@ 0403a730     MQ2EQBC.obj
 0002:00001760       ??_C@_05LAPONLG@false?$AA@ 0403a760     MQ2EQBC.obj
 0002:00001768       ??_C@_04LOAJBDKD@true?$AA@ 0403a768     MQ2EQBC.obj
 0002:00001774       ??_7?$basic_istringstream@DU?$char_traits@D@std@@V?$allocator@D@2@@std@@6B@ 0403a774     MQ2EQBC.obj
 0002:0000177c       ??_7?$numpunct@D@std@@6B@  0403a77c     MQ2EQBC.obj
 0002:00001798       ??_7logic_error@std@@6B@   0403a798     MQ2EQBC.obj
 0002:000017a4       ??_7runtime_error@std@@6B@ 0403a7a4     MQ2EQBC.obj
 0002:000017ac       ??_C@_04HIBGFPH@NULL?$AA@  0403a7ac     MQ2EQBC.obj
 0002:000017b4       ??_C@_04MLLLIHIP@null?$AA@ 0403a7b4     MQ2EQBC.obj
 0002:000017bc       ??_C@_05MAJJAKPI@FALSE?$AA@ 0403a7bc     MQ2EQBC.obj
 0002:000017c4       ??_C@_04HCDDPBNL@TRUE?$AA@ 0403a7c4     MQ2EQBC.obj
 0002:000017cc       ??_C@_0BA@DMCHCNPB@GlobalVar?3Send3?$AA@ 0403a7cc     MQ2EQBC.obj
 0002:000017dc       ??_C@_0BA@CFDMBMLA@GlobalVar?3Send2?$AA@ 0403a7dc     MQ2EQBC.obj
 0002:000017ec       ??_C@_0BA@OBBEPHD@GlobalVar?3Send1?$AA@ 0403a7ec     MQ2EQBC.obj
 0002:000017fc       ??_C@_0N@DFMHFGJL@?$HL?$CFs?$HN?$HL?$CFs?$HN?$HL?$CFs?$HN?$AA@ 0403a7fc     MQ2EQBC.obj
 0002:0000180c       ??_C@_06OEHKEIOB@?7GVAR?6?$AA@ 0403a80c     MQ2EQBC.obj
 0002:00001818       ??_7length_error@std@@6B@  0403a818     MQ2EQBC.obj
 0002:00001824       ??_7out_of_range@std@@6B@  0403a824     MQ2EQBC.obj
 0002:00001830       ??_7failure@ios_base@std@@6B@ 0403a830     MQ2EQBC.obj
 0002:00001838       ??_C@_0BM@NMJKDPPO@invalid?5vector?$DMT?$DO?5subscript?$AA@ 0403a838     MQ2EQBC.obj
 0002:00001854       ??_C@_0BD@OLBABOEK@vector?$DMT?$DO?5too?5long?$AA@ 0403a854     MQ2EQBC.obj
 0002:00001868       ??_C@_08EPJLHIJG@bad?5cast?$AA@ 0403a868     MQ2EQBC.obj
 0002:00001874       ??_C@_0BF@OOHOMBOF@ios_base?3?3eofbit?5set?$AA@ 0403a874     MQ2EQBC.obj
 0002:0000188c       ??_C@_0BG@FMKFHCIL@ios_base?3?3failbit?5set?$AA@ 0403a88c     MQ2EQBC.obj
 0002:000018a4       ??_C@_0BF@PHHKMMFD@ios_base?3?3badbit?5set?$AA@ 0403a8a4     MQ2EQBC.obj
 0002:000018bc       ??_C@_0BM@PAPJHAGI@invalid?5map?1set?$DMT?$DO?5iterator?$AA@ 0403a8bc     MQ2EQBC.obj
 0002:000018d8       ??_C@_0BE@JONHPENG@map?1set?$DMT?$DO?5too?5long?$AA@ 0403a8d8     MQ2EQBC.obj
 0002:000018ec       ??_C@_0BH@HHDGIIFB@0123456789abcdefABCDEF?$AA@ 0403a8ec     MQ2EQBC.obj
 0002:00001904       ??_8?$basic_istream@DU?$char_traits@D@std@@@std@@7B@ 0403a904     MQ2EQBC.obj
 0002:0000190c       ??_8?$basic_istringstream@DU?$char_traits@D@std@@V?$allocator@D@2@@std@@7B@ 0403a90c     MQ2EQBC.obj
 0002:00001914       ??_C@_0L@ODFEECHB@UseMyTitle?$AA@ 0403a914     MQ2EQBC.obj
 0002:00001920       ??_C@_01GBGANLPD@0?$AA@    0403a920     MQ2EQBC.obj
 0002:00001924       ??_C@_01HIHLOKLC@1?$AA@    0403a924     MQ2EQBC.obj
 0002:00001928       ??_C@_08IOPOCEFC@FontSize?$AA@ 0403a928     MQ2EQBC.obj
 0002:00001934       ??_C@_0M@NPGMHGGG@BGTint?4blue?$AA@ 0403a934     MQ2EQBC.obj
 0002:00001940       ??_C@_0N@IAHEABPN@BGTint?4green?$AA@ 0403a940     MQ2EQBC.obj
 0002:00001950       ??_C@_0L@DNFAHPHL@BGTint?4red?$AA@ 0403a950     MQ2EQBC.obj
 0002:0000195c       ??_C@_06DEIFAPKK@BGType?$AA@ 0403a95c     MQ2EQBC.obj
 0002:00001964       ??_C@_05ENDOMFAI@Delay?$AA@ 0403a964     MQ2EQBC.obj
 0002:0000196c       ??_C@_06GFKCFIPE@Locked?$AA@ 0403a96c     MQ2EQBC.obj
 0002:00001974       ??_C@_08DEOOAPOB@Duration?$AA@ 0403a974     MQ2EQBC.obj
 0002:00001980       ??_C@_0M@GBJPOAMO@FadeToAlpha?$AA@ 0403a980     MQ2EQBC.obj
 0002:0000198c       ??_C@_05IHOGHNDL@Alpha?$AA@ 0403a98c     MQ2EQBC.obj
 0002:00001994       ??_C@_05MNCEKKHK@Fades?$AA@ 0403a994     MQ2EQBC.obj
 0002:0000199c       ??_C@_09PECHAJJL@ChatRight?$AA@ 0403a99c     MQ2EQBC.obj
 0002:000019a8       ??_C@_08NGGHNOAC@ChatLeft?$AA@ 0403a9a8     MQ2EQBC.obj
 0002:000019b4       ??_C@_0L@CLABEOBI@ChatBottom?$AA@ 0403a9b4     MQ2EQBC.obj
 0002:000019c0       ??_C@_06BKKJGDHO@Window?$AA@ 0403a9c0     MQ2EQBC.obj
 0002:000019c8       ??_C@_07GCLHBAPE@ChatTop?$AA@ 0403a9c8     MQ2EQBC.obj
 0002:000019d0       ??_C@_0DG@FFGIHLDH@?$AHr?$CD?$AHx?5Unsupported?5command?0?5suppo@ 0403a9d0     MQ2EQBC.obj
 0002:00001a08       ??_C@_0BCI@FNFOBPIC@connect?5quit?5help?5status?5names?5c@ 0403aa08     MQ2EQBC.obj
 0002:00001b30       ??_C@_0BA@OKEIILO@SaveByCharacter?$AA@ 0403ab30     MQ2EQBC.obj
 0002:00001b40       ??_C@_0BP@IFCIBODJ@Save?5UI?5data?5by?5character?5name?$AA@ 0403ab40     MQ2EQBC.obj
 0002:00001b60       ??_C@_09BGMPGCKN@SilentCmd?$AA@ 0403ab60     MQ2EQBC.obj
 0002:00001b6c       ??_C@_0BO@HMIPMBGF@Silence?5?8CMD?3?5?$FLcommand?$FN?8?5echo?$AA@ 0403ab6c     MQ2EQBC.obj
 0002:00001b8c       ??_C@_07NBCDNNHJ@FSWatch?$AA@ 0403ab8c     MQ2EQBC.obj
 0002:00001b94       ??_C@_0BP@GALIAADM@?8Relay?5fellowship?5chat?5to?5?1bc?8?$AA@ 0403ab94     MQ2EQBC.obj
 0002:00001bb4       ??_C@_0L@KEIENDNP@GroupWatch?$AA@ 0403abb4     MQ2EQBC.obj
 0002:00001bc0       ??_C@_0BK@MJPIIPAK@?8Relay?5group?5chat?5to?5?1bc?8?$AA@ 0403abc0     MQ2EQBC.obj
 0002:00001bdc       ??_C@_0L@MFCHCDPB@GuildWatch?$AA@ 0403abdc     MQ2EQBC.obj
 0002:00001be8       ??_C@_0BK@HKKAPIAK@?8Relay?5guild?5chat?5to?5?1bc?8?$AA@ 0403abe8     MQ2EQBC.obj
 0002:00001c04       ??_C@_09MHBNCDJK@TellWatch?$AA@ 0403ac04     MQ2EQBC.obj
 0002:00001c10       ??_C@_0BJ@NOJOHAHE@?8Relay?5all?5tells?5to?5?1bc?8?$AA@ 0403ac10     MQ2EQBC.obj
 0002:00001c2c       ??_C@_09KJLHDNO@LocalEcho?$AA@ 0403ac2c     MQ2EQBC.obj
 0002:00001c38       ??_C@_0CE@NJPFBJBN@Echo?5my?5channel?5commands?5back?5to@ 0403ac38     MQ2EQBC.obj
 0002:00001c5c       ??_C@_0DB@MGLCLJEE@?$AHr?$CD?$AHx?5?$FL?$CLx?$CL?$FN?5and?5?$FL?$CLX?$CL?$FN?5set?5back?5t@ 0403ac5c     MQ2EQBC.obj
 0002:00001c90       ??_C@_0M@MOIHCFAG@?5?$AH?9?$CFc?$FL?$CL?$CFc?$CL?$FN?$AA@ 0403ac90     MQ2EQBC.obj
 0002:00001c9c       ??_C@_0BD@OIOPEGHM@?$AHr?$CD?$AHx?5Dark?5Colors?3?$AA@ 0403ac9c     MQ2EQBC.obj
 0002:00001cb0       ??_C@_0L@DBDMIADA@?5?$AH?$CFc?$FL?$CL?$CFc?$CL?$FN?$AA@ 0403acb0     MQ2EQBC.obj
 0002:00001cbc       ??_C@_0BF@EHDBPAA@?$AHr?$CD?$AHx?5Bright?5Colors?3?$AA@ 0403acbc     MQ2EQBC.obj
 0002:00001cd8       ??_C@_0EH@FGGFBNDM@?$AHr?$CD?$AHx?5Invalid?5value?5given?5?9?5prop@ 0403acd8     MQ2EQBC.obj
 0002:00001d20       ??_C@_0EK@IFAFOAOM@?$AHr?$CD?$AHx?5Will?5now?5try?5to?5reconnect?5@ 0403ad20     MQ2EQBC.obj
 0002:00001d6c       ??_C@_0BG@ENEENNKK@ReconnectRetrySeconds?$AA@ 0403ad6c     MQ2EQBC.obj
 0002:00001d84       ??_C@_0CI@HNEKKCGO@?$AHr?$CD?$AHx?5Disabling?5reconnect?5mode?5f@ 0403ad84     MQ2EQBC.obj
 0002:00001dac       ??_C@_0CG@DBJINKCG@?$AHr?$CD?$AHx?5You?5are?5not?5trying?5to?5reco@ 0403adac     MQ2EQBC.obj
 0002:00001dd8       ??_C@_0FD@HCMIAFDF@Now?5logging?5in?5as?5?$FL?$CFs?$FN?0?5?$CFs?5must?5@ 0403add8     MQ2EQBC.obj
 0002:00001e2c       ??_C@_0CP@DOOJAKFE@Aborting?5relog?5to?5?$FL?$CFs?$FN?0?5you?5must@ 0403ae2c     MQ2EQBC.obj
 0002:00001e5c       ??_C@_09GKFHMILF@UseWindow?$AA@ 0403ae5c     MQ2EQBC.obj
 0002:00001e68       ??_C@_0BF@JKFBJAPI@Use?5Dedicated?5Window?$AA@ 0403ae68     MQ2EQBC.obj
 0002:00001e80       ??_C@_0O@CAAAOHCL@AutoReconnect?$AA@ 0403ae80     MQ2EQBC.obj
 0002:00001e90       ??_C@_0CG@JIDJJFLL@Auto?5Reconnect?5?$CIon?5remote?5discon@ 0403ae90     MQ2EQBC.obj
 0002:00001eb8       ??_C@_0O@KILKDBPG@IRCCompatMode?$AA@ 0403aeb8     MQ2EQBC.obj
 0002:00001ec8       ??_C@_0BA@IPCLBNIB@IRC?5Compat?5Mode?$AA@ 0403aec8     MQ2EQBC.obj
 0002:00001ed8       ??_C@_0M@BPMLMHJH@AutoConnect?$AA@ 0403aed8     MQ2EQBC.obj
 0002:00001ee4       ??_C@_0N@DLFGLCG@Auto?5Connect?$AA@ 0403aee4     MQ2EQBC.obj
 0002:00001ef4       ??_C@_0N@PMJNDEEC@AllowControl?$AA@ 0403aef4     MQ2EQBC.obj
 0002:00001f04       ??_C@_0O@LBBOLNKJ@Allow?5Control?$AA@ 0403af04     MQ2EQBC.obj
 0002:00001f14       ??_C@_0DF@KPNGAJIP@?$AHr?$CD?$AHx?5Connection?5Closed?0?5you?5can@ 0403af14     MQ2EQBC.obj
 0002:00001f4c       ??_C@_02DIDHHIJL@?$CJ?$FN?$AA@ 0403af4c     MQ2EQBC.obj
 0002:00001f50       ??_C@_03GLPMCEFE@msg?$AA@  0403af50     MQ2EQBC.obj
 0002:00001f54       ??_C@_02PLAMPCNH@?$AHy?$AA@ 0403af54     MQ2EQBC.obj
 0002:00001f58       ??_C@_02OCBHMDJG@?$AHx?$AA@ 0403af58     MQ2EQBC.obj
 0002:00001f5c       ??_C@_02BIPICLBM@?$AHr?$AA@ 0403af5c     MQ2EQBC.obj
 0002:00001f60       ??_C@_02CBLDBPFN@?1?1?$AA@ 0403af60     MQ2EQBC.obj
 0002:00001f64       ??_C@_06DFAOMCOC@?$AHr?$CD?$AHx?5?$AA@ 0403af64     MQ2EQBC.obj
 0002:00001f6c       ??_C@_06KFALDBOD@?$DMGVAR?$DO?$AA@ 0403af6c     MQ2EQBC.obj
 0002:00001f78       ??_C@_0EB@GOOMHGCJ@?$AHrMQ2EQBC?3?5did?5not?5recieve?5expec@ 0403af78     MQ2EQBC.obj
 0002:00001fbc       ??_C@_0DJ@KHPHEBDO@?9?9?5Remote?5connection?5closed?0?5you@ 0403afbc     MQ2EQBC.obj
 0002:00001ff8       ??_C@_0BJ@FOAMIIIL@?$AHr?$CD?$AHx?5Could?5not?5connect?4?$AA@ 0403aff8     MQ2EQBC.obj
 0002:00002014       ??_C@_0BB@OAHEIPHO@?$AHr?$CD?$AHx?5Connected?$CB?$AA@ 0403b014     MQ2EQBC.obj
 0002:00002028       ??_C@_0BI@PIANHHKO@MQ2WndTest?3?3OnCleanUI?$CI?$CJ?$AA@ 0403b028     MQ2EQBC.obj
 0002:00002040       ??_C@_0L@PKBNNHAF@?$DM?$CFs?$DO?5?$CFs?5?$CFs?$AA@ 0403b040     MQ2EQBC.obj
 0002:0000204c       __real@00000000            0403b04c     MQ2EQBC.obj
 0002:00002054       ??_7MQ2Type@MQ2Internal@@6B@ 0403b054     MQ2EQBC.obj
 0002:0000206c       ??_C@_0CE@DCHHEDAJ@CMQ2EqbcWnd?5message?5?$CFXh?0?5value?3?5@ 0403b06c     MQ2EQBC.obj
 0002:00002090       ??_C@_06GMOIMOOB@Up?3?5?$CFd?$AA@ 0403b090     MQ2EQBC.obj
 0002:00002098       ??_C@_0BO@NKGOAEIO@?$AHr?$CD?$AH?9w?5You?5are?5not?5connected?4?$AA@ 0403b098     MQ2EQBC.obj
 0002:000020b8       ??_C@_06JBKGCNBB@Delete?$AA@ 0403b0b8     MQ2EQBC.obj
 0002:000020c0       ??_C@_06EKPONOIP@SetVal?$AA@ 0403b0c0     MQ2EQBC.obj
 0002:000020c8       ??_C@_06NJGPGGFC@GetVal?$AA@ 0403b0c8     MQ2EQBC.obj
 0002:000020d4       ??_7MQ2GlobalVarType@@6B@  0403b0d4     MQ2EQBC.obj
 0002:000020ec       ??_C@_09OKLGLKJF@GlobalVar?$AA@ 0403b0ec     MQ2EQBC.obj
 0002:000020fc       ??_7EQBCType@@6B@          0403b0fc     MQ2EQBC.obj
 0002:00002114       ??_C@_09NJLBODLJ@Connected?$AA@ 0403b114     MQ2EQBC.obj
 0002:00002120       ??_C@_0M@HIABHLGI@CWChatInput?$AA@ 0403b120     MQ2EQBC.obj
 0002:0000212c       ??_C@_0N@MBBPKPEE@CWChatOutput?$AA@ 0403b12c     MQ2EQBC.obj
 0002:0000213c       ??_C@_0L@CNKDMAL@ChatWindow?$AA@ 0403b13c     MQ2EQBC.obj
 0002:00002148       ??_C@_0M@LHNCFPMH@WindowTitle?$AA@ 0403b148     MQ2EQBC.obj
 0002:00002154       ??_C@_02DKCKIIND@?$CFs?$AA@ 0403b154     MQ2EQBC.obj
 0002:00002158       ??_C@_0ED@PDMAOKCO@?$AHr?$CD?$AHx?5Welcome?5to?5?$AHyMQ2Eqbc?$AHx?0?5?$CFs@ 0403b158     MQ2EQBC.obj
 0002:0000219c       ??_C@_07CJIGNMEG@Globals?$AA@ 0403b19c     MQ2EQBC.obj
 0002:000021a4       ??_C@_06LFPMFDGA@?1bcmin?$AA@ 0403b1a4     MQ2EQBC.obj
 0002:000021ac       ??_C@_07FEOPEPDE@?1bcfont?$AA@ 0403b1ac     MQ2EQBC.obj
 0002:000021b4       ??_C@_06KIMFGEAF@?1bccmd?$AA@ 0403b1b4     MQ2EQBC.obj
 0002:000021bc       ??_C@_05EHFFGOIO@?1bcaa?$AA@ 0403b1bc     MQ2EQBC.obj
 0002:000021c4       ??_C@_04NNBEKACA@?1bca?$AA@ 0403b1c4     MQ2EQBC.obj
 0002:000021cc       ??_C@_04OKKBEGDE@?1bct?$AA@ 0403b1cc     MQ2EQBC.obj
 0002:000021d4       ??_C@_03CDGJLIKB@?1bc?$AA@ 0403b1d4     MQ2EQBC.obj
 0002:000021d8       ??_C@_0BF@KPFIJJMP@Initializing?5MQ2Eqbc?$AA@ 0403b1d8     MQ2EQBC.obj
 0002:000021f0       ??_C@_0DB@IGCMADJL@MQ2Eqbc?3?3Still?5Connected?3?3Attemp@ 0403b1f0     MQ2EQBC.obj
 0002:00002224       ??_C@_0DJ@NKOHHMIG@?$AHr?$CD?$AHx?5You?5are?5still?5connected?$CB?5A@ 0403b224     MQ2EQBC.obj
 0002:00002260       ??_C@_0BG@NFPIADDH@Shutting?5down?5MQ2Eqbc?$AA@ 0403b260     MQ2EQBC.obj
 0002:00002278       ??_C@_06FOBLBEIN@delete?$AA@ 0403b278     MQ2EQBC.obj
 0002:00002280       ??_C@_03KCHOJKKI@set?$AA@  0403b280     MQ2EQBC.obj
 0002:00002288       ??_7_Locimp@locale@std@@6B@ 0403b288     libcpmt:locale0.obj
 0002:0000228c       ??_C@_01NBENCBCI@?$CK?$AA@ 0403b28c     libcpmt:locale0.obj
 0002:00002290       ??_C@_01GFHCPBMG@C?$AA@    0403b290     libcpmt:locale0.obj
 0002:00002294       ?_BADOFF@std@@3JB          0403b294     libcpmt:ios.obj
 0002:0000229c       ??_7invalid_argument@std@@6B@ 0403b29c     libcpmt:string.obj
 0002:000022a4       ??_C@_0BA@JFNIOLAK@string?5too?5long?$AA@ 0403b2a4     libcpmt:string.obj
 0002:000022b4       ??_C@_0BI@CFPLBAOH@invalid?5string?5position?$AA@ 0403b2b4     libcpmt:string.obj
 0002:000022cc       ??_C@_0BI@ILCMCLF@invalid?5string?5argument?$AA@ 0403b2cc     libcpmt:string.obj
 0002:00002388       __real@4024000000000000    0403b388     libcpmt:xstod.obj
 0002:00002394       ??_7exception@std@@6B@     0403b394     LIBCMT:stdexcpt.obj
 0002:0000239c       ??_C@_0BC@EOODALEL@Unknown?5exception?$AA@ 0403b39c     LIBCMT:stdexcpt.obj
 0002:000023b4       ??_7bad_cast@std@@6B@      0403b3b4     LIBCMT:stdexcpt.obj
 0002:000023c0       ??_7bad_typeid@std@@6B@    0403b3c0     LIBCMT:stdexcpt.obj
 0002:000023cc       ??_7__non_rtti_object@std@@6B@ 0403b3cc     LIBCMT:stdexcpt.obj
 0002:000023d8       ??_7type_info@@6B@         0403b3d8     LIBCMT:typinfo.obj
 0002:000023dc       ?ProcessDetach@NativeDll@<CrtImplementationDetails>@@0IB 0403b3dc     LIBCMT:_trnsctrl_.obj
 0002:000023e0       ?ProcessAttach@NativeDll@<CrtImplementationDetails>@@0IB 0403b3e0     LIBCMT:_trnsctrl_.obj
 0002:000023e4       ?ThreadAttach@NativeDll@<CrtImplementationDetails>@@0IB 0403b3e4     LIBCMT:_trnsctrl_.obj
 0002:000023e8       ?ThreadDetach@NativeDll@<CrtImplementationDetails>@@0IB 0403b3e8     LIBCMT:_trnsctrl_.obj
 0002:000023ec       ?ProcessVerifier@NativeDll@<CrtImplementationDetails>@@0IB 0403b3ec     LIBCMT:_trnsctrl_.obj
 0002:00002410       __FPinit                   0403b410     LIBCMT:_fpinit_.obj
 0002:00002414       __FPmtinit                 0403b414     LIBCMT:_fpinit_.obj
 0002:00002418       __FPmtterm                 0403b418     LIBCMT:_fpinit_.obj
 0002:0000241c       __pDefaultRawDllMain       0403b41c     LIBCMT:dllcrt0.obj
 0002:0000241c       __pRawDllMain              0403b41c     LIBCMT:dllcrt0.obj
 0002:00002420       ??_C@_13NOLLCAOD@?$AA?$AA?$AA?$AA@ 0403b420     LIBCMT:a_map.obj
 0002:00002428       ___newctype                0403b428     LIBCMT:ctype.obj
 0002:00002728       __wctype                   0403b728     LIBCMT:ctype.obj
 0002:00002930       ___newclmap                0403b930     LIBCMT:ctype.obj
 0002:00002ab0       ___newcumap                0403bab0     LIBCMT:ctype.obj
 0002:00002c30       ??_C@_07LCBHPJJN@LC_TIME?$AA@ 0403bc30     LIBCMT:setlocal.obj
 0002:00002c38       ??_C@_0L@DLHIECNL@LC_NUMERIC?$AA@ 0403bc38     LIBCMT:setlocal.obj
 0002:00002c44       ??_C@_0M@MIENIKLA@LC_MONETARY?$AA@ 0403bc44     LIBCMT:setlocal.obj
 0002:00002c50       ??_C@_08EADHIDAD@LC_CTYPE?$AA@ 0403bc50     LIBCMT:setlocal.obj
 0002:00002c5c       ??_C@_0L@KFJHEKIK@LC_COLLATE?$AA@ 0403bc5c     LIBCMT:setlocal.obj
 0002:00002c68       ??_C@_06NEFDFEKB@LC_ALL?$AA@ 0403bc68     LIBCMT:setlocal.obj
 0002:00002c70       ___lc_category             0403bc70     LIBCMT:setlocal.obj
 0002:00002d38       ??_C@_03EGDHDPFD@_?4?0?$AA@ 0403bd38     LIBCMT:setlocal.obj
 0002:00002d3c       ??_C@_01LFCBOECM@?4?$AA@   0403bd3c     LIBCMT:setlocal.obj
 0002:00002d40       ??_C@_01IDAFKMJL@_?$AA@    0403bd40     LIBCMT:setlocal.obj
 0002:00002d44       ??_C@_02BALPLPBG@?$DN?$DL?$AA@ 0403bd44     LIBCMT:setlocal.obj
 0002:00002d48       __real@0000000000000000    0403bd48     LIBCMT:strtod.obj
 0002:00002d50       ??_C@_1O@CEDCILHN@?$AA?$CI?$AAn?$AAu?$AAl?$AAl?$AA?$CJ?$AA?$AA@ 0403bd50     LIBCMT:output.obj
 0002:00002d60       ??_C@_06OJHGLDPL@?$CInull?$CJ?$AA@ 0403bd60     LIBCMT:output.obj
 0002:00002d68       ___lookuptable             0403bd68     LIBCMT:output.obj
 0002:00002dc4       __pDestructExceptionObject 0403bdc4     LIBCMT:frame.obj
 0002:00002dcc       ??_7bad_exception@std@@6B@ 0403bdcc     LIBCMT:frame.obj
 0002:00002dd4       ??_C@_0O@DPKOEFFH@bad?5exception?$AA@ 0403bdd4     LIBCMT:frame.obj
 0002:00002de4       ??_C@_0O@NLDKAIKN@EncodePointer?$AA@ 0403bde4     LIBCMT:tidtable.obj
 0002:00002df4       ??_C@_1BK@DBDEIDLH@?$AAK?$AAE?$AAR?$AAN?$AAE?$AAL?$AA3?$AA2?$AA?4?$AAD?$AAL?$AAL?$AA?$AA@ 0403bdf4     LIBCMT:tidtable.obj
 0002:00002e10       ??_C@_0O@KBPMFGHI@DecodePointer?$AA@ 0403be10     LIBCMT:tidtable.obj
 0002:00002e20       ??_C@_07PEJMOBNF@FlsFree?$AA@ 0403be20     LIBCMT:tidtable.obj
 0002:00002e28       ??_C@_0M@JCPCPOEF@FlsSetValue?$AA@ 0403be28     LIBCMT:tidtable.obj
 0002:00002e34       ??_C@_0M@GDNOONDI@FlsGetValue?$AA@ 0403be34     LIBCMT:tidtable.obj
 0002:00002e40       ??_C@_08KNHFBNJ@FlsAlloc?$AA@ 0403be40     LIBCMT:tidtable.obj
 0002:00002e4c       ??_C@_0P@MIGLKIOC@CorExitProcess?$AA@ 0403be4c     LIBCMT:crt0dat.obj
 0002:00002e5c       ??_C@_1BI@BGOHAHKC@?$AAm?$AAs?$AAc?$AAo?$AAr?$AAe?$AAe?$AA?4?$AAd?$AAl?$AAl?$AA?$AA@ 0403be5c     LIBCMT:crt0dat.obj
 0002:00002e74       ??_C@_0P@GGKDKEEG@runtime?5error?5?$AA@ 0403be74     LIBCMT:crt0msg.obj
 0002:00002e84       ??_C@_02PCIJFNDE@?$AN?6?$AA@ 0403be84     LIBCMT:crt0msg.obj
 0002:00002e88       ??_C@_0O@MJNIPGOH@TLOSS?5error?$AN?6?$AA@ 0403be88     LIBCMT:crt0msg.obj
 0002:00002e98       ??_C@_0N@BONNPDHF@SING?5error?$AN?6?$AA@ 0403be98     LIBCMT:crt0msg.obj
 0002:00002ea8       ??_C@_0P@MBDAJNE@DOMAIN?5error?$AN?6?$AA@ 0403bea8     LIBCMT:crt0msg.obj
 0002:00002eb8       ??_C@_0JL@DFDOOABL@R6034?$AN?6An?5application?5has?5made?5a@ 0403beb8     LIBCMT:crt0msg.obj
 0002:00002f58       ??_C@_0PH@EPAFIJ@R6033?$AN?6?9?5Attempt?5to?5use?5MSIL?5cod@ 0403bf58     LIBCMT:crt0msg.obj
 0002:00003050       ??_C@_0DD@BKEEABMM@R6032?$AN?6?9?5not?5enough?5space?5for?5lo@ 0403c050     LIBCMT:crt0msg.obj
 0002:00003088       ??_C@_0GD@OFKILIED@R6031?$AN?6?9?5Attempt?5to?5initialize?5t@ 0403c088     LIBCMT:crt0msg.obj
 0002:000030ec       ??_C@_0BP@LPMHJOKI@R6030?$AN?6?9?5CRT?5not?5initialized?$AN?6?$AA@ 0403c0ec     LIBCMT:crt0msg.obj
 0002:0000310c       ??_C@_0CF@KJDAIALP@R6028?$AN?6?9?5unable?5to?5initialize?5he@ 0403c10c     LIBCMT:crt0msg.obj
 0002:00003134       ??_C@_0DF@GAKBPDFP@R6027?$AN?6?9?5not?5enough?5space?5for?5lo@ 0403c134     LIBCMT:crt0msg.obj
 0002:0000316c       ??_C@_0DF@IBLNNAIG@R6026?$AN?6?9?5not?5enough?5space?5for?5st@ 0403c16c     LIBCMT:crt0msg.obj
 0002:000031a4       ??_C@_0CG@IOHKGFNJ@R6025?$AN?6?9?5pure?5virtual?5function?5c@ 0403c1a4     LIBCMT:crt0msg.obj
 0002:000031cc       ??_C@_0DF@JIJJFJDC@R6024?$AN?6?9?5not?5enough?5space?5for?5_o@ 0403c1cc     LIBCMT:crt0msg.obj
 0002:00003204       ??_C@_0CJ@EGEJHFME@R6019?$AN?6?9?5unable?5to?5open?5console?5@ 0403c204     LIBCMT:crt0msg.obj
 0002:00003230       ??_C@_0CB@GNHNIELH@R6018?$AN?6?9?5unexpected?5heap?5error?$AN?6@ 0403c230     LIBCMT:crt0msg.obj
 0002:00003254       ??_C@_0CN@FOLDKNG@R6017?$AN?6?9?5unexpected?5multithread?5@ 0403c254     LIBCMT:crt0msg.obj
 0002:00003284       ??_C@_0CM@FAHFJNHO@R6016?$AN?6?9?5not?5enough?5space?5for?5th@ 0403c284     LIBCMT:crt0msg.obj
 0002:000032b0       ??_C@_0JG@LBKMGKLD@?$AN?6This?5application?5has?5requested@ 0403c2b0     LIBCMT:crt0msg.obj
 0002:00003348       ??_C@_0CM@FLCNIPKK@R6009?$AN?6?9?5not?5enough?5space?5for?5en@ 0403c348     LIBCMT:crt0msg.obj
 0002:00003374       ??_C@_0CK@KMMJOAPP@R6008?$AN?6?9?5not?5enough?5space?5for?5ar@ 0403c374     LIBCMT:crt0msg.obj
 0002:000033a0       ??_C@_0CN@LEKKICBM@R6002?$AN?6?9?5floating?5point?5support?5@ 0403c3a0     LIBCMT:crt0msg.obj
 0002:000033d0       ??_C@_0CF@GOGNBNAK@Microsoft?5Visual?5C?$CL?$CL?5Runtime?5Lib@ 0403c3d0     LIBCMT:crt0msg.obj
 0002:000033f8       ??_C@_02PHMGELLB@?6?6?$AA@ 0403c3f8     LIBCMT:crt0msg.obj
 0002:000033fc       ??_C@_03KHICJKCI@?4?4?4?$AA@ 0403c3fc     LIBCMT:crt0msg.obj
 0002:00003400       ??_C@_0BH@DNAGHKFM@?$DMprogram?5name?5unknown?$DO?$AA@ 0403c400     LIBCMT:crt0msg.obj
 0002:00003418       ??_C@_0BK@OFGJDLJJ@Runtime?5Error?$CB?6?6Program?3?5?$AA@ 0403c418     LIBCMT:crt0msg.obj
 0002:00003434       ??_C@_05KLBDPFGC@e?$CL000?$AA@ 0403c434     LIBCMT:cvt.obj
 0002:00003440       __real@3ff0000000000000    0403c440     LIBCMT:_testfdiv_.obj
 0002:00003448       __real@4150017ec0000000    0403c448     LIBCMT:_testfdiv_.obj
 0002:00003450       __real@4147ffff80000000    0403c450     LIBCMT:_testfdiv_.obj
 0002:00003458       ??_C@_0BK@NHEOCAHP@IsProcessorFeaturePresent?$AA@ 0403c458     LIBCMT:_testfdiv_.obj
 0002:00003474       ??_C@_08CPNIBGIE@KERNEL32?$AA@ 0403c474     LIBCMT:_testfdiv_.obj
 0002:00003480       __XcptActTab               0403c480     LIBCMT:winxfltr.obj
 0002:00003500       ??_C@_08JCCMCCIL@HH?3mm?3ss?$AA@ 0403c500     LIBCMT:strftime.obj
 0002:0000350c       ??_C@_0BE@CKGJFCPC@dddd?0?5MMMM?5dd?0?5yyyy?$AA@ 0403c50c     LIBCMT:strftime.obj
 0002:00003520       ??_C@_08BPBNCDIB@MM?1dd?1yy?$AA@ 0403c520     LIBCMT:strftime.obj
 0002:0000352c       ??_C@_02CJNFDJBF@PM?$AA@   0403c52c     LIBCMT:strftime.obj
 0002:00003530       ??_C@_02DEDBPAFC@AM?$AA@   0403c530     LIBCMT:strftime.obj
 0002:00003534       ??_C@_08EDHMEBNP@December?$AA@ 0403c534     LIBCMT:strftime.obj
 0002:00003540       ??_C@_08HCHEGEOA@November?$AA@ 0403c540     LIBCMT:strftime.obj
 0002:0000354c       ??_C@_07JJNFCEND@October?$AA@ 0403c54c     LIBCMT:strftime.obj
 0002:00003554       ??_C@_09BHHEALKD@September?$AA@ 0403c554     LIBCMT:strftime.obj
 0002:00003560       ??_C@_06LBBHFDDG@August?$AA@ 0403c560     LIBCMT:strftime.obj
 0002:00003568       ??_C@_04MIEPOIFP@July?$AA@ 0403c568     LIBCMT:strftime.obj
 0002:00003570       ??_C@_04CNLMGBGM@June?$AA@ 0403c570     LIBCMT:strftime.obj
 0002:00003578       ??_C@_05DMJDNLEJ@April?$AA@ 0403c578     LIBCMT:strftime.obj
 0002:00003580       ??_C@_05HPCKOFNC@March?$AA@ 0403c580     LIBCMT:strftime.obj
 0002:00003588       ??_C@_08GNJGEPFN@February?$AA@ 0403c588     LIBCMT:strftime.obj
 0002:00003594       ??_C@_07CGJPFGJA@January?$AA@ 0403c594     LIBCMT:strftime.obj
 0002:0000359c       ??_C@_03MKABNOCG@Dec?$AA@  0403c59c     LIBCMT:strftime.obj
 0002:000035a0       ??_C@_03JPJOFNIA@Nov?$AA@  0403c5a0     LIBCMT:strftime.obj
 0002:000035a4       ??_C@_03BMAOKBAD@Oct?$AA@  0403c5a4     LIBCMT:strftime.obj
 0002:000035a8       ??_C@_03GGCAPAJC@Sep?$AA@  0403c5a8     LIBCMT:strftime.obj
 0002:000035ac       ??_C@_03IFJFEIGA@Aug?$AA@  0403c5ac     LIBCMT:strftime.obj
 0002:000035b0       ??_C@_03LBGABGKK@Jul?$AA@  0403c5b0     LIBCMT:strftime.obj
 0002:000035b4       ??_C@_03IDFGHECI@Jun?$AA@  0403c5b4     LIBCMT:strftime.obj
 0002:000035b8       ??_C@_03CNMDKL@May?$AA@    0403c5b8     LIBCMT:strftime.obj
 0002:000035bc       ??_C@_03LEOLGMJP@Apr?$AA@  0403c5bc     LIBCMT:strftime.obj
 0002:000035c0       ??_C@_03ODNJBKGA@Mar?$AA@  0403c5c0     LIBCMT:strftime.obj
 0002:000035c4       ??_C@_03HJBDCHOM@Feb?$AA@  0403c5c4     LIBCMT:strftime.obj
 0002:000035c8       ??_C@_03JIHJHPIE@Jan?$AA@  0403c5c8     LIBCMT:strftime.obj
 0002:000035cc       ??_C@_08INBOOONO@Saturday?$AA@ 0403c5cc     LIBCMT:strftime.obj
 0002:000035d8       ??_C@_06JECMNKMI@Friday?$AA@ 0403c5d8     LIBCMT:strftime.obj
 0002:000035e0       ??_C@_08HACCIKIA@Thursday?$AA@ 0403c5e0     LIBCMT:strftime.obj
 0002:000035ec       ??_C@_09DLIGFAKA@Wednesday?$AA@ 0403c5ec     LIBCMT:strftime.obj
 0002:000035f8       ??_C@_07BAAGCFCM@Tuesday?$AA@ 0403c5f8     LIBCMT:strftime.obj
 0002:00003600       ??_C@_06JLEDEDGH@Monday?$AA@ 0403c600     LIBCMT:strftime.obj
 0002:00003608       ??_C@_06OOPIFAJ@Sunday?$AA@ 0403c608     LIBCMT:strftime.obj
 0002:00003610       ??_C@_03FEFJNEK@Sat?$AA@   0403c610     LIBCMT:strftime.obj
 0002:00003614       ??_C@_03IDIOELNC@Fri?$AA@  0403c614     LIBCMT:strftime.obj
 0002:00003618       ??_C@_03IOFIKPDN@Thu?$AA@  0403c618     LIBCMT:strftime.obj
 0002:0000361c       ??_C@_03MHOMLAJA@Wed?$AA@  0403c61c     LIBCMT:strftime.obj
 0002:00003620       ??_C@_03NAGEINEP@Tue?$AA@  0403c620     LIBCMT:strftime.obj
 0002:00003624       ??_C@_03PDAGKDH@Mon?$AA@   0403c624     LIBCMT:strftime.obj
 0002:00003628       ??_C@_03KOEHGMDN@Sun?$AA@  0403c628     LIBCMT:strftime.obj
 0002:0000362c       ??_C@_03EBAPMIKO@a?1p?$AA@ 0403c62c     LIBCMT:strftime.obj
 0002:00003630       ??_C@_05JAMEPDIN@am?1pm?$AA@ 0403c630     LIBCMT:strftime.obj
 0002:00003638       ??_C@_0O@FMJNFNKE@united?9states?$AA@ 0403c638     LIBCMT:getqloc.obj
 0002:00003648       ??_C@_0P@NDHFFKCA@united?9kingdom?$AA@ 0403c648     LIBCMT:getqloc.obj
 0002:00003658       ??_C@_0BC@HHDADLGF@trinidad?5?$CG?5tobago?$AA@ 0403c658     LIBCMT:getqloc.obj
 0002:0000366c       ??_C@_0M@IOAEBDAC@south?9korea?$AA@ 0403c66c     LIBCMT:getqloc.obj
 0002:00003678       ??_C@_0N@FIELFKIJ@south?9africa?$AA@ 0403c678     LIBCMT:getqloc.obj
 0002:00003688       ??_C@_0M@OPNDHCMC@south?5korea?$AA@ 0403c688     LIBCMT:getqloc.obj
 0002:00003694       ??_C@_0N@MDEOEPFI@south?5africa?$AA@ 0403c694     LIBCMT:getqloc.obj
 0002:000036a4       ??_C@_06FKAPCJLB@slovak?$AA@ 0403c6a4     LIBCMT:getqloc.obj
 0002:000036ac       ??_C@_0M@EFJANOAL@puerto?9rico?$AA@ 0403c6ac     LIBCMT:getqloc.obj
 0002:000036b8       ??_C@_08PGOJKDAI@pr?9china?$AA@ 0403c6b8     LIBCMT:getqloc.obj
 0002:000036c4       ??_C@_08JHDOMCMI@pr?5china?$AA@ 0403c6c4     LIBCMT:getqloc.obj
 0002:000036d0       ??_C@_02JHCHFBLL@nz?$AA@   0403c6d0     LIBCMT:getqloc.obj
 0002:000036d4       ??_C@_0M@LINHDHKP@new?9zealand?$AA@ 0403c6d4     LIBCMT:getqloc.obj
 0002:000036e0       ??_C@_09IIIPPBDB@hong?9kong?$AA@ 0403c6e0     LIBCMT:getqloc.obj
 0002:000036ec       ??_C@_07HJLCKBG@holland?$AA@ 0403c6ec     LIBCMT:getqloc.obj
 0002:000036f4       ??_C@_0O@LEHGMHAG@great?5britain?$AA@ 0403c6f4     LIBCMT:getqloc.obj
 0002:00003704       ??_C@_07FACOMELA@england?$AA@ 0403c704     LIBCMT:getqloc.obj
 0002:0000370c       ??_C@_05JIHCEICB@czech?$AA@ 0403c70c     LIBCMT:getqloc.obj
 0002:00003714       ??_C@_05BBJOBLGB@china?$AA@ 0403c714     LIBCMT:getqloc.obj
 0002:0000371c       ??_C@_07GPKPHICP@britain?$AA@ 0403c71c     LIBCMT:getqloc.obj
 0002:00003724       ??_C@_07MHIPBHMG@america?$AA@ 0403c724     LIBCMT:getqloc.obj
 0002:0000372c       ??_C@_03KIALPMKC@usa?$AA@  0403c72c     LIBCMT:getqloc.obj
 0002:00003730       ??_C@_02FGJGKGGD@us?$AA@   0403c730     LIBCMT:getqloc.obj
 0002:00003734       ??_C@_02NEINDODK@uk?$AA@   0403c734     LIBCMT:getqloc.obj
 0002:00003738       ??_C@_05JMPCFJFJ@swiss?$AA@ 0403c738     LIBCMT:getqloc.obj
 0002:00003740       ??_C@_0BA@HLOCPIOD@swedish?9finland?$AA@ 0403c740     LIBCMT:getqloc.obj
 0002:00003750       ??_C@_0BC@PKCNIABK@spanish?9venezuela?$AA@ 0403c750     LIBCMT:getqloc.obj
 0002:00003764       ??_C@_0BA@GBHHMIJI@spanish?9uruguay?$AA@ 0403c764     LIBCMT:getqloc.obj
 0002:00003774       ??_C@_0BE@BHDOHPMC@spanish?9puerto?5rico?$AA@ 0403c774     LIBCMT:getqloc.obj
 0002:00003788       ??_C@_0N@KMOIDGGN@spanish?9peru?$AA@ 0403c788     LIBCMT:getqloc.obj
 0002:00003798       ??_C@_0BB@HMHLPGPH@spanish?9paraguay?$AA@ 0403c798     LIBCMT:getqloc.obj
 0002:000037ac       ??_C@_0P@MCPKNGFD@spanish?9panama?$AA@ 0403c7ac     LIBCMT:getqloc.obj
 0002:000037bc       ??_C@_0BC@IHOHGAIL@spanish?9nicaragua?$AA@ 0403c7bc     LIBCMT:getqloc.obj
 0002:000037d0       ??_C@_0P@KLMJDNFJ@spanish?9modern?$AA@ 0403c7d0     LIBCMT:getqloc.obj
 0002:000037e0       ??_C@_0BA@BPAPGBCM@spanish?9mexican?$AA@ 0403c7e0     LIBCMT:getqloc.obj
 0002:000037f0       ??_C@_0BB@PDECHHHE@spanish?9honduras?$AA@ 0403c7f0     LIBCMT:getqloc.obj
 0002:00003804       ??_C@_0BC@KLHKFGDB@spanish?9guatemala?$AA@ 0403c804     LIBCMT:getqloc.obj
 0002:00003818       ??_C@_0BE@MFOOKJAI@spanish?9el?5salvador?$AA@ 0403c818     LIBCMT:getqloc.obj
 0002:0000382c       ??_C@_0BA@FCOKFPFC@spanish?9ecuador?$AA@ 0403c82c     LIBCMT:getqloc.obj
 0002:0000383c       ??_C@_0BL@PLMGIMOO@spanish?9dominican?5republic?$AA@ 0403c83c     LIBCMT:getqloc.obj
 0002:00003858       ??_C@_0BD@HLGDNMHB@spanish?9costa?5rica?$AA@ 0403c858     LIBCMT:getqloc.obj
 0002:0000386c       ??_C@_0BB@PKCBKCPE@spanish?9colombia?$AA@ 0403c86c     LIBCMT:getqloc.obj
 0002:00003880       ??_C@_0O@MCBIJGNE@spanish?9chile?$AA@ 0403c880     LIBCMT:getqloc.obj
 0002:00003890       ??_C@_0BA@BEFEIGJJ@spanish?9bolivia?$AA@ 0403c890     LIBCMT:getqloc.obj
 0002:000038a0       ??_C@_0BC@EMECMPD@spanish?9argentina?$AA@ 0403c8a0     LIBCMT:getqloc.obj
 0002:000038b4       ??_C@_0BF@EALFLENP@portuguese?9brazilian?$AA@ 0403c8b4     LIBCMT:getqloc.obj
 0002:000038cc       ??_C@_0BC@HBLEBLNN@norwegian?9nynorsk?$AA@ 0403c8cc     LIBCMT:getqloc.obj
 0002:000038e0       ??_C@_0BB@HMACDDCK@norwegian?9bokmal?$AA@ 0403c8e0     LIBCMT:getqloc.obj
 0002:000038f4       ??_C@_09BAFFPPHE@norwegian?$AA@ 0403c8f4     LIBCMT:getqloc.obj
 0002:00003900       ??_C@_0O@EAJFJDFG@italian?9swiss?$AA@ 0403c900     LIBCMT:getqloc.obj
 0002:00003910       ??_C@_0O@CNOMPGD@irish?9english?$AA@ 0403c910     LIBCMT:getqloc.obj
 0002:00003920       ??_C@_0N@EDHBGCKG@german?9swiss?$AA@ 0403c920     LIBCMT:getqloc.obj
 0002:00003930       ??_C@_0BC@JACMHNBP@german?9luxembourg?$AA@ 0403c930     LIBCMT:getqloc.obj
 0002:00003944       ??_C@_0BE@HBGMGFEG@german?9lichtenstein?$AA@ 0403c944     LIBCMT:getqloc.obj
 0002:00003958       ??_C@_0BA@HKKBIBKL@german?9austrian?$AA@ 0403c958     LIBCMT:getqloc.obj
 0002:00003968       ??_C@_0N@GCAEPEBK@french?9swiss?$AA@ 0403c968     LIBCMT:getqloc.obj
 0002:00003978       ??_C@_0BC@DJFJJCK@french?9luxembourg?$AA@ 0403c978     LIBCMT:getqloc.obj
 0002:0000398c       ??_C@_0BA@NNCEDFIC@french?9canadian?$AA@ 0403c98c     LIBCMT:getqloc.obj
 0002:0000399c       ??_C@_0P@CMPOCLM@french?9belgian?$AA@ 0403c99c     LIBCMT:getqloc.obj
 0002:000039ac       ??_C@_0M@GHHDJOK@english?9usa?$AA@ 0403c9ac     LIBCMT:getqloc.obj
 0002:000039b8       ??_C@_0L@PLDJKEIL@english?9us?$AA@ 0403c9b8     LIBCMT:getqloc.obj
 0002:000039c4       ??_C@_0L@HJCCDMNC@english?9uk?$AA@ 0403c9c4     LIBCMT:getqloc.obj
 0002:000039d0       ??_C@_0BK@CKLIAGJB@english?9trinidad?5y?5tobago?$AA@ 0403c9d0     LIBCMT:getqloc.obj
 0002:000039ec       ??_C@_0BF@JMJMGNNF@english?9south?5africa?$AA@ 0403c9ec     LIBCMT:getqloc.obj
 0002:00003a04       ??_C@_0L@DKIIFDFD@english?9nz?$AA@ 0403ca04     LIBCMT:getqloc.obj
 0002:00003a10       ??_C@_0BA@ONHGJCLH@english?9jamaica?$AA@ 0403ca10     LIBCMT:getqloc.obj
 0002:00003a20       ??_C@_0M@HJBGHOPO@english?9ire?$AA@ 0403ca20     LIBCMT:getqloc.obj
 0002:00003a2c       ??_C@_0BC@LFEKMIFB@english?9caribbean?$AA@ 0403ca2c     LIBCMT:getqloc.obj
 0002:00003a40       ??_C@_0M@OLDPFKHI@english?9can?$AA@ 0403ca40     LIBCMT:getqloc.obj
 0002:00003a4c       ??_C@_0P@OMDEHBMP@english?9belize?$AA@ 0403ca4c     LIBCMT:getqloc.obj
 0002:00003a5c       ??_C@_0M@KFHFPFED@english?9aus?$AA@ 0403ca5c     LIBCMT:getqloc.obj
 0002:00003a68       ??_C@_0BB@MNMBKDFE@english?9american?$AA@ 0403ca68     LIBCMT:getqloc.obj
 0002:00003a7c       ??_C@_0O@KIDLNNBA@dutch?9belgian?$AA@ 0403ca7c     LIBCMT:getqloc.obj
 0002:00003a8c       ??_C@_0BE@JBKABBMH@chinese?9traditional?$AA@ 0403ca8c     LIBCMT:getqloc.obj
 0002:00003aa0       ??_C@_0BC@MJJMPKCG@chinese?9singapore?$AA@ 0403caa0     LIBCMT:getqloc.obj
 0002:00003ab4       ??_C@_0BD@FDKADDCP@chinese?9simplified?$AA@ 0403cab4     LIBCMT:getqloc.obj
 0002:00003ac8       ??_C@_0BB@DBEFDDME@chinese?9hongkong?$AA@ 0403cac8     LIBCMT:getqloc.obj
 0002:00003adc       ??_C@_07DHNMFMCI@chinese?$AA@ 0403cadc     LIBCMT:getqloc.obj
 0002:00003ae4       ??_C@_03FNDDCHI@chi?$AA@   0403cae4     LIBCMT:getqloc.obj
 0002:00003ae8       ??_C@_03BMMIADDJ@chh?$AA@  0403cae8     LIBCMT:getqloc.obj
 0002:00003aec       ??_C@_08OAIPJDGI@canadian?$AA@ 0403caec     LIBCMT:getqloc.obj
 0002:00003af8       ??_C@_07HBPMNPNJ@belgian?$AA@ 0403caf8     LIBCMT:getqloc.obj
 0002:00003b00       ??_C@_0L@OEKOPBEL@australian?$AA@ 0403cb00     LIBCMT:getqloc.obj
 0002:00003b0c       ??_C@_0BB@MEIMBEDG@american?9english?$AA@ 0403cb0c     LIBCMT:getqloc.obj
 0002:00003b20       ??_C@_0BB@DFMDPDGB@american?5english?$AA@ 0403cb20     LIBCMT:getqloc.obj
 0002:00003b34       ??_C@_08IJLOKOLL@american?$AA@ 0403cb34     LIBCMT:getqloc.obj
 0002:00003b40       ___rg_language             0403cb40     LIBCMT:getqloc.obj
 0002:00003d48       ___rg_country              0403cd48     LIBCMT:getqloc.obj
 0002:00003e00       ___rglangidNotDefault      0403ce00     LIBCMT:getqloc.obj
 0002:00003e14       ??_C@_03NFKLAGEF@OCP?$AA@  0403ce14     LIBCMT:getqloc.obj
 0002:00003e18       ??_C@_03DFHEHBHG@ACP?$AA@  0403ce18     LIBCMT:getqloc.obj
 0002:00003e1c       ??_C@_0BC@NFIEMBLL@Norwegian?9Nynorsk?$AA@ 0403ce1c     LIBCMT:getqloc.obj
 0002:00003e30       ??_C@_0BK@CFCOFLF@?5Complete?5Object?5Locator?8?$AA@ 0403ce30     LIBCMT:undname.obj
 0002:00003e4c       ??_C@_0BN@MECKDCOJ@?5Class?5Hierarchy?5Descriptor?8?$AA@ 0403ce4c     LIBCMT:undname.obj
 0002:00003e6c       ??_C@_0BD@LGICGFMM@?5Base?5Class?5Array?8?$AA@ 0403ce6c     LIBCMT:undname.obj
 0002:00003e80       ??_C@_0BM@LDKODKLH@?5Base?5Class?5Descriptor?5at?5?$CI?$AA@ 0403ce80     LIBCMT:undname.obj
 0002:00003e9c       ??_C@_0BC@DAFEJGAK@?5Type?5Descriptor?8?$AA@ 0403ce9c     LIBCMT:undname.obj
 0002:00003eb0       ??_C@_0BM@PMGGMLDN@?$GAlocal?5static?5thread?5guard?8?$AA@ 0403ceb0     LIBCMT:undname.obj
 0002:00003ecc       ??_C@_0CL@FGIJHLCE@?$GAmanaged?5vector?5copy?5constructor@ 0403cecc     LIBCMT:undname.obj
 0002:00003ef8       ??_C@_0CJ@GJELGAMM@?$GAvector?5vbase?5copy?5constructor?5i@ 0403cef8     LIBCMT:undname.obj
 0002:00003f24       ??_C@_0CD@CGAJBKEJ@?$GAvector?5copy?5constructor?5iterato@ 0403cf24     LIBCMT:undname.obj
 0002:00003f48       ??_C@_0CB@PDBIFEP@?$GAdynamic?5atexit?5destructor?5for?5?8@ 0403cf48     LIBCMT:undname.obj
 0002:00003f6c       ??_C@_0BL@CLIPGLGB@?$GAdynamic?5initializer?5for?5?8?$AA@ 0403cf6c     LIBCMT:undname.obj
 0002:00003f88       ??_C@_0CM@FCBBDIGB@?$GAeh?5vector?5vbase?5copy?5constructo@ 0403cf88     LIBCMT:undname.obj
 0002:00003fb4       ??_C@_0CG@HLDDJMAG@?$GAeh?5vector?5copy?5constructor?5iter@ 0403cfb4     LIBCMT:undname.obj
 0002:00003fdc       ??_C@_0CF@IMGKMJNO@?$GAmanaged?5vector?5destructor?5itera@ 0403cfdc     LIBCMT:undname.obj
 0002:00004004       ??_C@_0CG@CFDHKGGD@?$GAmanaged?5vector?5constructor?5iter@ 0403d004     LIBCMT:undname.obj
 0002:0000402c       ??_C@_0BN@CKNJLHMB@?$GAplacement?5delete?$FL?$FN?5closure?8?$AA@ 0403d02c     LIBCMT:undname.obj
 0002:0000404c       ??_C@_0BL@CNOONJFP@?$GAplacement?5delete?5closure?8?$AA@ 0403d04c     LIBCMT:undname.obj
 0002:00004068       ??_C@_0P@HJKNJFNN@?$GAomni?5callsig?8?$AA@ 0403d068     LIBCMT:undname.obj
 0002:00004078       ??_C@_09LBNFPBCA@?5delete?$FL?$FN?$AA@ 0403d078     LIBCMT:undname.obj
 0002:00004084       ??_C@_06FHBGPFGH@?5new?$FL?$FN?$AA@ 0403d084     LIBCMT:undname.obj
 0002:0000408c       ??_C@_0CE@IIHCMGGL@?$GAlocal?5vftable?5constructor?5closu@ 0403d08c     LIBCMT:undname.obj
 0002:000040b0       ??_C@_0BA@KKLDJDLB@?$GAlocal?5vftable?8?$AA@ 0403d0b0     LIBCMT:undname.obj
 0002:000040c0       ??_C@_05KHLCHHI@?$GARTTI?$AA@ 0403d0c0     LIBCMT:undname.obj
 0002:000040c8       ??_C@_03KLGMFNMG@?$GAEH?$AA@ 0403d0c8     LIBCMT:undname.obj
 0002:000040cc       ??_C@_0BA@KBCDOMBN@?$GAudt?5returning?8?$AA@ 0403d0cc     LIBCMT:undname.obj
 0002:000040dc       ??_C@_0BL@LLKPOHJI@?$GAcopy?5constructor?5closure?8?$AA@ 0403d0dc     LIBCMT:undname.obj
 0002:000040f8       ??_C@_0CH@OOJPLCPH@?$GAeh?5vector?5vbase?5constructor?5ite@ 0403d0f8     LIBCMT:undname.obj
 0002:00004120       ??_C@_0CA@GCEOPDGL@?$GAeh?5vector?5destructor?5iterator?8?$AA@ 0403d120     LIBCMT:undname.obj
 0002:00004140       ??_C@_0CB@JONCMFFK@?$GAeh?5vector?5constructor?5iterator?8@ 0403d140     LIBCMT:undname.obj
 0002:00004164       ??_C@_0BL@NILFHHPC@?$GAvirtual?5displacement?5map?8?$AA@ 0403d164     LIBCMT:undname.obj
 0002:00004180       ??_C@_0CE@IKBNEHA@?$GAvector?5vbase?5constructor?5iterat@ 0403d180     LIBCMT:undname.obj
 0002:000041a4       ??_C@_0BN@LFPFMEDL@?$GAvector?5destructor?5iterator?8?$AA@ 0403d1a4     LIBCMT:undname.obj
 0002:000041c4       ??_C@_0BO@PFGOCPJJ@?$GAvector?5constructor?5iterator?8?$AA@ 0403d1c4     LIBCMT:undname.obj
 0002:000041e4       ??_C@_0BN@IMDCHIKM@?$GAscalar?5deleting?5destructor?8?$AA@ 0403d1e4     LIBCMT:undname.obj
 0002:00004204       ??_C@_0BO@OBMKPJIG@?$GAdefault?5constructor?5closure?8?$AA@ 0403d204     LIBCMT:undname.obj
 0002:00004224       ??_C@_0BN@DEGPLNFK@?$GAvector?5deleting?5destructor?8?$AA@ 0403d224     LIBCMT:undname.obj
 0002:00004244       ??_C@_0BD@JDLKDPAB@?$GAvbase?5destructor?8?$AA@ 0403d244     LIBCMT:undname.obj
 0002:00004258       ??_C@_08OBABFOLI@?$GAstring?8?$AA@ 0403d258     LIBCMT:undname.obj
 0002:00004264       ??_C@_0BF@KDPPACIK@?$GAlocal?5static?5guard?8?$AA@ 0403d264     LIBCMT:undname.obj
 0002:0000427c       ??_C@_08LLFFHHDJ@?$GAtypeof?8?$AA@ 0403d27c     LIBCMT:undname.obj
 0002:00004288       ??_C@_07FEEIOKP@?$GAvcall?8?$AA@ 0403d288     LIBCMT:undname.obj
 0002:00004290       ??_C@_09BLBHBJP@?$GAvbtable?8?$AA@ 0403d290     LIBCMT:undname.obj
 0002:0000429c       ??_C@_09IFPLHPGF@?$GAvftable?8?$AA@ 0403d29c     LIBCMT:undname.obj
 0002:000042a8       ??_C@_02MHEGNOJ@?$FO?$DN?$AA@ 0403d2a8     LIBCMT:undname.obj
 0002:000042ac       ??_C@_02DHLNPPGH@?$HM?$DN?$AA@ 0403d2ac     LIBCMT:undname.obj
 0002:000042b0       ??_C@_02FGJGFEAB@?$CG?$DN?$AA@ 0403d2b0     LIBCMT:undname.obj
 0002:000042b4       ??_C@_03CDNPDDLA@?$DM?$DM?$DN?$AA@ 0403d2b4     LIBCMT:undname.obj
 0002:000042b8       ??_C@_03IKFCCPFF@?$DO?$DO?$DN?$AA@ 0403d2b8     LIBCMT:undname.obj
 0002:000042bc       ??_C@_02FENAOKFI@?$CF?$DN?$AA@ 0403d2bc     LIBCMT:undname.obj
 0002:000042c0       ??_C@_02FJEHGPIO@?1?$DN?$AA@ 0403d2c0     LIBCMT:undname.obj
 0002:000042c4       ??_C@_02FKMDLLOA@?9?$DN?$AA@ 0403d2c4     LIBCMT:undname.obj
 0002:000042c8       ??_C@_02FOEOMHFC@?$CL?$DN?$AA@ 0403d2c8     LIBCMT:undname.obj
 0002:000042cc       ??_C@_02FPIMKNGF@?$CK?$DN?$AA@ 0403d2cc     LIBCMT:undname.obj
 0002:000042d0       ??_C@_02NONPIBCD@?$HM?$HM?$AA@ 0403d2d0     LIBCMT:undname.obj
 0002:000042d4       ??_C@_02PPKAJPJL@?$CG?$CG?$AA@ 0403d2d4     LIBCMT:undname.obj
 0002:000042d8       ??_C@_01DNKMNLPK@?$HM?$AA@ 0403d2d8     LIBCMT:undname.obj
 0002:000042dc       ??_C@_01JKBOJNNK@?$FO?$AA@ 0403d2dc     LIBCMT:undname.obj
 0002:000042e0       ??_C@_01PJKLJHI@?$HO?$AA@  0403d2e0     LIBCMT:undname.obj
 0002:000042e4       ??_C@_02HCKGKOFO@?$CI?$CJ?$AA@ 0403d2e4     LIBCMT:undname.obj
 0002:000042e8       ??_C@_01IHBHIGKO@?0?$AA@   0403d2e8     LIBCMT:undname.obj
 0002:000042ec       ??_C@_02EEKDKGMJ@?$DO?$DN?$AA@ 0403d2ec     LIBCMT:undname.obj
 0002:000042f0       ??_C@_01PPODPGHN@?$DO?$AA@ 0403d2f0     LIBCMT:undname.obj
 0002:000042f4       ??_C@_02EHCHHCKH@?$DM?$DN?$AA@ 0403d2f4     LIBCMT:undname.obj
 0002:000042f8       ??_C@_01MNNFJEPP@?$DM?$AA@ 0403d2f8     LIBCMT:undname.obj
 0002:000042fc       ??_C@_01FGNFDNOH@?$CF?$AA@ 0403d2fc     LIBCMT:undname.obj
 0002:00004300       ??_C@_01KMDKNFGN@?1?$AA@   0403d300     LIBCMT:undname.obj
 0002:00004304       ??_C@_03MNHNFDLC@?9?$DO?$CK?$AA@ 0403d304     LIBCMT:undname.obj
 0002:00004308       ??_C@_01HNPIGOCE@?$CG?$AA@ 0403d308     LIBCMT:undname.obj
 0002:0000430c       ??_C@_01MIFGBAGJ@?$CL?$AA@ 0403d30c     LIBCMT:undname.obj
 0002:00004310       ??_C@_01JOAMLHOP@?9?$AA@   0403d310     LIBCMT:undname.obj
 0002:00004314       ??_C@_02BAABKJLB@?9?9?$AA@ 0403d314     LIBCMT:undname.obj
 0002:00004318       ??_C@_02ECNGHCIF@?$CL?$CL?$AA@ 0403d318     LIBCMT:undname.obj
 0002:0000431c       ??_C@_02HBOOOICD@?9?$DO?$AA@ 0403d31c     LIBCMT:undname.obj
 0002:00004320       ??_C@_08LHJFAFGD@operator?$AA@ 0403d320     LIBCMT:undname.obj
 0002:0000432c       ??_C@_02GPECMEKF@?$FL?$FN?$AA@ 0403d32c     LIBCMT:undname.obj
 0002:00004330       ??_C@_02FDNJECIE@?$CB?$DN?$AA@ 0403d330     LIBCMT:undname.obj
 0002:00004334       ??_C@_02EGOFBIJA@?$DN?$DN?$AA@ 0403d334     LIBCMT:undname.obj
 0002:00004338       ??_C@_01DCLJPIOD@?$CB?$AA@ 0403d338     LIBCMT:undname.obj
 0002:0000433c       ??_C@_02FODMEDOG@?$DM?$DM?$AA@ 0403d33c     LIBCMT:undname.obj
 0002:00004340       ??_C@_02GPIOPFAK@?$DO?$DO?$AA@ 0403d340     LIBCMT:undname.obj
 0002:00004344       ??_C@_07FPCDHGMM@?5delete?$AA@ 0403d344     LIBCMT:undname.obj
 0002:0000434c       ??_C@_04NIHEBCM@?5new?$AA@ 0403d34c     LIBCMT:undname.obj
 0002:00004354       ??_C@_0M@GFIIJFMG@__unaligned?$AA@ 0403d354     LIBCMT:undname.obj
 0002:00004360       ??_C@_0L@PILCLIHE@__restrict?$AA@ 0403d360     LIBCMT:undname.obj
 0002:0000436c       ??_C@_07JOMMBBKO@__ptr64?$AA@ 0403d36c     LIBCMT:undname.obj
 0002:00004374       ??_C@_09HIJEGCPM@__clrcall?$AA@ 0403d374     LIBCMT:undname.obj
 0002:00004380       ??_C@_0L@JMKHOMEK@__fastcall?$AA@ 0403d380     LIBCMT:undname.obj
 0002:0000438c       ??_C@_0L@NPHFGOKO@__thiscall?$AA@ 0403d38c     LIBCMT:undname.obj
 0002:00004398       ??_C@_09IFJBGAPI@__stdcall?$AA@ 0403d398     LIBCMT:undname.obj
 0002:000043a4       ??_C@_08GHMPAG@__pascal?$AA@ 0403d3a4     LIBCMT:undname.obj
 0002:000043b0       ??_C@_07KOLFKCDI@__cdecl?$AA@ 0403d3b0     LIBCMT:undname.obj
 0002:000043b8       ??_C@_08EHJDFFNH@__based?$CI?$AA@ 0403d3b8     LIBCMT:undname.obj
 0002:00004548       ??_7DNameNode@@6B@         0403d548     LIBCMT:undname.obj
 0002:00004554       ??_7charNode@@6B@          0403d554     LIBCMT:undname.obj
 0002:00004560       ??_7pDNameNode@@6B@        0403d560     LIBCMT:undname.obj
 0002:0000456c       ??_7DNameStatusNode@@6B@   0403d56c     LIBCMT:undname.obj
 0002:00004578       ??_7pairNode@@6B@          0403d578     LIBCMT:undname.obj
 0002:00004584       ??_7pcharNode@@6B@         0403d584     LIBCMT:undname.obj
 0002:00004590       ??_C@_04OKOHEJBO@?5?$DP?$DP?5?$AA@ 0403d590     LIBCMT:undname.obj
 0002:00004598       ??_C@_06EEGAIFAK@?$HLflat?$HN?$AA@ 0403d598     LIBCMT:undname.obj
 0002:000045a0       ??_C@_05JIBOFOHK@?$HLfor?5?$AA@ 0403d5a0     LIBCMT:undname.obj
 0002:000045a8       ??_C@_0BN@IBLMMFAP@?$GAnon?9type?9template?9parameter?$AA@ 0403d5a8     LIBCMT:undname.obj
 0002:000045c8       ??_C@_09EBBEKKIH@unsigned?5?$AA@ 0403d5c8     LIBCMT:undname.obj
 0002:000045d4       ??_C@_05CJIMAING@long?5?$AA@ 0403d5d4     LIBCMT:undname.obj
 0002:000045dc       ??_C@_04LAHKHJMA@int?5?$AA@ 0403d5dc     LIBCMT:undname.obj
 0002:000045e4       ??_C@_06EHJMALKF@short?5?$AA@ 0403d5e4     LIBCMT:undname.obj
 0002:000045ec       ??_C@_05CIHEBHNO@char?5?$AA@ 0403d5ec     LIBCMT:undname.obj
 0002:000045f4       ??_C@_04GKJNKENE@void?$AA@ 0403d5f4     LIBCMT:undname.obj
 0002:000045fc       ??_C@_0L@EGPHHEKN@?$DMellipsis?$DO?$AA@ 0403d5fc     LIBCMT:undname.obj
 0002:00004608       ??_C@_0M@ELJOJFFH@?0?$DMellipsis?$DO?$AA@ 0403d608     LIBCMT:undname.obj
 0002:00004614       ??_C@_04EENFHACM@?0?4?4?4?$AA@ 0403d614     LIBCMT:undname.obj
 0002:0000461c       ??_C@_07HDJPLPEK@?5throw?$CI?$AA@ 0403d61c     LIBCMT:undname.obj
 0002:00004624       ??_C@_02GOGNNPBN@?$CJ?$FL?$AA@ 0403d624     LIBCMT:undname.obj
 0002:00004628       ??_C@_02MDINNEEG@s?5?$AA@  0403d628     LIBCMT:undname.obj
 0002:0000462c       ??_C@_0BE@EODMJLIF@?$GAtemplate?9parameter?$AA@ 0403d62c     LIBCMT:undname.obj
 0002:00004640       ??_C@_01GEODFPGF@?8?$AA@   0403d640     LIBCMT:undname.obj
 0002:00004644       ??_C@_0O@GKABPPIF@cli?3?3pin_ptr?$DM?$AA@ 0403d644     LIBCMT:undname.obj
 0002:00004654       ??_C@_0M@EALIELKG@cli?3?3array?$DM?$AA@ 0403d654     LIBCMT:undname.obj
 0002:00004660       ??_C@_05BEFAKPML@void?5?$AA@ 0403d660     LIBCMT:undname.obj
 0002:00004668       ??_C@_02OHHJMEON@?8?8?$AA@ 0403d668     LIBCMT:undname.obj
 0002:0000466c       ??_C@_0BG@JNJLAMPM@?$GAanonymous?5namespace?8?$AA@ 0403d66c     LIBCMT:undname.obj
 0002:00004684       ??_C@_01NLNLIGKH@?$GA?$AA@ 0403d684     LIBCMT:undname.obj
 0002:00004688       ??_C@_0O@KHGCOMHP@generic?9type?9?$AA@ 0403d688     LIBCMT:undname.obj
 0002:00004698       ??_C@_0BE@JAEOCHPE@template?9parameter?9?$AA@ 0403d698     LIBCMT:undname.obj
 0002:000046ac       ??_C@_02MOLJINC@?3?3?$AA@  0403d6ac     LIBCMT:undname.obj
 0002:000046b0       ??_C@_0P@GCIFDJCJ@?$GAunknown?5ecsu?8?$AA@ 0403d6b0     LIBCMT:undname.obj
 0002:000046c0       ??_C@_06MOJHIBMG@union?5?$AA@ 0403d6c0     LIBCMT:undname.obj
 0002:000046c8       ??_C@_07DIBCDNGL@struct?5?$AA@ 0403d6c8     LIBCMT:undname.obj
 0002:000046d0       ??_C@_06LJBABKPM@class?5?$AA@ 0403d6d0     LIBCMT:undname.obj
 0002:000046d8       ??_C@_05LJGMCFOG@enum?5?$AA@ 0403d6d8     LIBCMT:undname.obj
 0002:000046e0       ??_C@_08KOFANOFK@coclass?5?$AA@ 0403d6e0     LIBCMT:undname.obj
 0002:000046ec       ??_C@_0N@DLIEFKNA@cointerface?5?$AA@ 0403d6ec     LIBCMT:undname.obj
 0002:000046fc       ??_C@_02KCKGHPCA@?$CJ?5?$AA@ 0403d6fc     LIBCMT:undname.obj
 0002:00004700       ??_C@_0M@DHNBOJMP@extern?5?$CCC?$CC?5?$AA@ 0403d700     LIBCMT:undname.obj
 0002:0000470c       ??_C@_08KJLFOPNE@?$FLthunk?$FN?3?$AA@ 0403d70c     LIBCMT:undname.obj
 0002:00004718       ??_C@_08GPDDCMKI@public?3?5?$AA@ 0403d718     LIBCMT:undname.obj
 0002:00004724       ??_C@_0M@GAIFPFIP@protected?3?5?$AA@ 0403d724     LIBCMT:undname.obj
 0002:00004730       ??_C@_09LAPHOOG@private?3?5?$AA@ 0403d730     LIBCMT:undname.obj
 0002:0000473c       ??_C@_08NIEOINHE@virtual?5?$AA@ 0403d73c     LIBCMT:undname.obj
 0002:00004748       ??_C@_07PGOEDBHP@static?5?$AA@ 0403d748     LIBCMT:undname.obj
 0002:00004750       ??_C@_0DA@HGFJFBBE@?$GAtemplate?5static?5data?5member?5des@ 0403d750     LIBCMT:undname.obj
 0002:00004780       ??_C@_0DB@ILEFOCIJ@?$GAtemplate?5static?5data?5member?5con@ 0403d780     LIBCMT:undname.obj
 0002:000047b4       ??_C@_0CB@KJDOOODE@?$GAlocal?5static?5destructor?5helper?8@ 0403d7b4     LIBCMT:undname.obj
 0002:000047d8       ??_C@_0L@HNGCOGAE@?$GAadjustor?$HL?$AA@ 0403d7d8     LIBCMT:undname.obj
 0002:000047e4       ??_C@_0L@GHPFDFH@?$GAvtordisp?$HL?$AA@ 0403d7e4     LIBCMT:undname.obj
 0002:000047f0       ??_C@_0N@CBHHHENL@?$GAvtordispex?$HL?$AA@ 0403d7f0     LIBCMT:undname.obj
 0002:00004800       ??_C@_02IGFCGPIL@?$HN?8?$AA@ 0403d800     LIBCMT:undname.obj
 0002:00004804       ??_C@_03OPGICMGF@?$HN?8?5?$AA@ 0403d804     LIBCMT:undname.obj
 0002:00004808       ??_C@_06LIJLOJAG@const?5?$AA@ 0403d808     LIBCMT:undname.obj
 0002:00004810       ??_C@_09GAIEOBLP@volatile?5?$AA@ 0403d810     LIBCMT:undname.obj
 0002:0000481c       ??_C@_04HEJADOOB@CV?3?5?$AA@ 0403d81c     LIBCMT:undname.obj
 0002:00004824       ??_C@_08PABEKFH@volatile?$AA@ 0403d824     LIBCMT:undname.obj
 0002:00004830       ??_C@_09EFNPDFFP@?5volatile?$AA@ 0403d830     LIBCMT:undname.obj
 0002:0000483c       ??_C@_05BNCCCJPP@const?$AA@ 0403d83c     LIBCMT:undname.obj
 0002:00004844       ??_C@_07EDHNAJHC@signed?5?$AA@ 0403d844     LIBCMT:undname.obj
 0002:0000484c       ??_C@_06BNJCAIGJ@double?$AA@ 0403d84c     LIBCMT:undname.obj
 0002:00004854       ??_C@_07NFANNNEC@UNKNOWN?$AA@ 0403d854     LIBCMT:undname.obj
 0002:0000485c       ??_C@_08GAHOLHEO@__int128?$AA@ 0403d85c     LIBCMT:undname.obj
 0002:00004868       ??_C@_04DDKJGDCM@bool?$AA@ 0403d868     LIBCMT:undname.obj
 0002:00004870       ??_C@_07CLGGIAMF@wchar_t?$AA@ 0403d870     LIBCMT:undname.obj
 0002:00004878       ??_C@_07LFCOJCAC@__int64?$AA@ 0403d878     LIBCMT:undname.obj
 0002:00004880       ??_C@_07ICFHOGAF@__int16?$AA@ 0403d880     LIBCMT:undname.obj
 0002:00004888       ??_C@_07OFLPPHGP@__int32?$AA@ 0403d888     LIBCMT:undname.obj
 0002:00004890       ??_C@_06EBGKOKIG@__int8?$AA@ 0403d890     LIBCMT:undname.obj
 0002:00004898       ??_C@_06GCICPBLB@__w64?5?$AA@ 0403d898     LIBCMT:undname.obj
 0002:000048a0       ??_C@_05KNFBNCOH@float?$AA@ 0403d8a0     LIBCMT:undname.obj
 0002:000048a8       ??_C@_04GOKPGOLB@long?$AA@ 0403d8a8     LIBCMT:undname.obj
 0002:000048b0       ??_C@_03JBIPMCLC@int?$AA@  0403d8b0     LIBCMT:undname.obj
 0002:000048b4       ??_C@_05BFKKPKCG@short?$AA@ 0403d8b4     LIBCMT:undname.obj
 0002:000048bc       ??_C@_04ENMBGAPA@char?$AA@ 0403d8bc     LIBCMT:undname.obj
 0002:000048c8       ___lookuptable_s           0403d8c8     LIBCMT:outputs.obj
 0002:00004924       ??_C@_0BC@JEAENNKH@SystemFunction036?$AA@ 0403d924     LIBCMT:rand_s.obj
 0002:00004938       ??_C@_0N@JJPEKNFO@ADVAPI32?4DLL?$AA@ 0403d938     LIBCMT:rand_s.obj
 0002:00004948       ??_C@_0BI@DFKBFLJE@GetProcessWindowStation?$AA@ 0403d948     LIBCMT:crtmbox.obj
 0002:00004960       ??_C@_0BK@CIDNPOGP@GetUserObjectInformationA?$AA@ 0403d960     LIBCMT:crtmbox.obj
 0002:0000497c       ??_C@_0BD@HHGDFDBJ@GetLastActivePopup?$AA@ 0403d97c     LIBCMT:crtmbox.obj
 0002:00004990       ??_C@_0BA@HNOPNCHB@GetActiveWindow?$AA@ 0403d990     LIBCMT:crtmbox.obj
 0002:000049a0       ??_C@_0M@CHKKJDAI@MessageBoxA?$AA@ 0403d9a0     LIBCMT:crtmbox.obj
 0002:000049ac       ??_C@_0L@NDEGIDAG@USER32?4DLL?$AA@ 0403d9ac     LIBCMT:crtmbox.obj
 0002:000049b8       ___dnames                  0403d9b8     LIBCMT:timeset.obj
 0002:000049d0       ___mnames                  0403d9d0     LIBCMT:timeset.obj
 0002:000049f8       ??_C@_02CLFPBFFP@TZ?$AA@   0403d9f8     LIBCMT:tzset.obj
 0002:000049fc       ??_C@_06IMKFLFPG@1?$CDQNAN?$AA@ 0403d9fc     LIBCMT:_x10fout_.obj
 0002:00004a04       ??_C@_05DNEBIAHO@1?$CDINF?$AA@ 0403da04     LIBCMT:_x10fout_.obj
 0002:00004a0c       ??_C@_05PHHOCPM@1?$CDIND?$AA@ 0403da0c     LIBCMT:_x10fout_.obj
 0002:00004a14       ??_C@_06PGGFOGJG@1?$CDSNAN?$AA@ 0403da14     LIBCMT:_x10fout_.obj
 0002:00004a1c       ??_C@_06GDENEHCP@CONIN$?$AA@ 0403da1c     LIBCMT:initcon.obj
 0002:00004a24       ??_C@_07GPDNMNG@CONOUT$?$AA@ 0403da24     LIBCMT:initcon.obj
 0002:00004a30       __load_config_used         0403da30     LIBCMT:loadcfg.obj
 0002:00004ae0       ??_R4bad_alloc@std@@6B@    0403dae0     MQ2EQBC.obj
 0002:00004af4       ??_R3bad_alloc@std@@8      0403daf4     MQ2EQBC.obj
 0002:00004b04       ??_R2bad_alloc@std@@8      0403db04     MQ2EQBC.obj
 0002:00004b10       ??_R1A@?0A@EA@bad_alloc@std@@8 0403db10     MQ2EQBC.obj
 0002:00004b2c       ??_R1A@?0A@EA@exception@std@@8 0403db2c     MQ2EQBC.obj
 0002:00004b48       ??_R3exception@std@@8      0403db48     MQ2EQBC.obj
 0002:00004b58       ??_R2exception@std@@8      0403db58     MQ2EQBC.obj
 0002:00004b60       ??_R4facet@locale@std@@6B@ 0403db60     MQ2EQBC.obj
 0002:00004b74       ??_R3facet@locale@std@@8   0403db74     MQ2EQBC.obj
 0002:00004b84       ??_R2facet@locale@std@@8   0403db84     MQ2EQBC.obj
 0002:00004b8c       ??_R1A@?0A@EA@facet@locale@std@@8 0403db8c     MQ2EQBC.obj
 0002:00004ba8       ??_R4ctype_base@std@@6B@   0403dba8     MQ2EQBC.obj
 0002:00004bbc       ??_R3ctype_base@std@@8     0403dbbc     MQ2EQBC.obj
 0002:00004bcc       ??_R2ctype_base@std@@8     0403dbcc     MQ2EQBC.obj
 0002:00004bd8       ??_R1A@?0A@EA@ctype_base@std@@8 0403dbd8     MQ2EQBC.obj
 0002:00004bf4       ??_R4ios_base@std@@6B@     0403dbf4     MQ2EQBC.obj
 0002:00004c08       ??_R3ios_base@std@@8       0403dc08     MQ2EQBC.obj
 0002:00004c18       ??_R2ios_base@std@@8       0403dc18     MQ2EQBC.obj
 0002:00004c24       ??_R1A@?0A@EA@ios_base@std@@8 0403dc24     MQ2EQBC.obj
 0002:00004c40       ??_R13?0A@EA@?$_Iosb@H@std@@8 0403dc40     MQ2EQBC.obj
 0002:00004c5c       ??_R3?$_Iosb@H@std@@8      0403dc5c     MQ2EQBC.obj
 0002:00004c6c       ??_R2?$_Iosb@H@std@@8      0403dc6c     MQ2EQBC.obj
 0002:00004c74       ??_R1A@?0A@EA@?$_Iosb@H@std@@8 0403dc74     MQ2EQBC.obj
 0002:00004c90       ??_R4?$basic_istream@DU?$char_traits@D@std@@@std@@6B@ 0403dc90     MQ2EQBC.obj
 0002:00004ca4       ??_R3?$basic_istream@DU?$char_traits@D@std@@@std@@8 0403dca4     MQ2EQBC.obj
 0002:00004cb4       ??_R2?$basic_istream@DU?$char_traits@D@std@@@std@@8 0403dcb4     MQ2EQBC.obj
 0002:00004cc8       ??_R1A@?0A@EA@?$basic_istream@DU?$char_traits@D@std@@@std@@8 0403dcc8     MQ2EQBC.obj
 0002:00004ce4       ??_R1A@A@3FA@?$basic_ios@DU?$char_traits@D@std@@@std@@8 0403dce4     MQ2EQBC.obj
 0002:00004d00       ??_R3?$basic_ios@DU?$char_traits@D@std@@@std@@8 0403dd00     MQ2EQBC.obj
 0002:00004d10       ??_R2?$basic_ios@DU?$char_traits@D@std@@@std@@8 0403dd10     MQ2EQBC.obj
 0002:00004d20       ??_R1A@?0A@EA@?$basic_ios@DU?$char_traits@D@std@@@std@@8 0403dd20     MQ2EQBC.obj
 0002:00004d3c       ??_R1A@A@3EA@ios_base@std@@8 0403dd3c     MQ2EQBC.obj
 0002:00004d58       ??_R13A@3EA@?$_Iosb@H@std@@8 0403dd58     MQ2EQBC.obj
 0002:00004d74       ??_R4?$basic_ios@DU?$char_traits@D@std@@@std@@6B@ 0403dd74     MQ2EQBC.obj
 0002:00004d88       ??_R4?$ctype@D@std@@6B@    0403dd88     MQ2EQBC.obj
 0002:00004d9c       ??_R3?$ctype@D@std@@8      0403dd9c     MQ2EQBC.obj
 0002:00004dac       ??_R2?$ctype@D@std@@8      0403ddac     MQ2EQBC.obj
 0002:00004dbc       ??_R1A@?0A@EA@?$ctype@D@std@@8 0403ddbc     MQ2EQBC.obj
 0002:00004dd8       ??_R4?$basic_streambuf@DU?$char_traits@D@std@@@std@@6B@ 0403ddd8     MQ2EQBC.obj
 0002:00004dec       ??_R3?$basic_streambuf@DU?$char_traits@D@std@@@std@@8 0403ddec     MQ2EQBC.obj
 0002:00004dfc       ??_R2?$basic_streambuf@DU?$char_traits@D@std@@@std@@8 0403ddfc     MQ2EQBC.obj
 0002:00004e04       ??_R1A@?0A@EA@?$basic_streambuf@DU?$char_traits@D@std@@@std@@8 0403de04     MQ2EQBC.obj
 0002:00004e20       ??_R4?$basic_stringbuf@DU?$char_traits@D@std@@V?$allocator@D@2@@std@@6B@ 0403de20     MQ2EQBC.obj
 0002:00004e34       ??_R3?$basic_stringbuf@DU?$char_traits@D@std@@V?$allocator@D@2@@std@@8 0403de34     MQ2EQBC.obj
 0002:00004e44       ??_R2?$basic_stringbuf@DU?$char_traits@D@std@@V?$allocator@D@2@@std@@8 0403de44     MQ2EQBC.obj
 0002:00004e50       ??_R1A@?0A@EA@?$basic_stringbuf@DU?$char_traits@D@std@@V?$allocator@D@2@@std@@8 0403de50     MQ2EQBC.obj
 0002:00004e6c       ??_R4?$num_get@DV?$istreambuf_iterator@DU?$char_traits@D@std@@@std@@@std@@6B@ 0403de6c     MQ2EQBC.obj
 0002:00004e80       ??_R3?$num_get@DV?$istreambuf_iterator@DU?$char_traits@D@std@@@std@@@std@@8 0403de80     MQ2EQBC.obj
 0002:00004e90       ??_R2?$num_get@DV?$istreambuf_iterator@DU?$char_traits@D@std@@@std@@@std@@8 0403de90     MQ2EQBC.obj
 0002:00004e9c       ??_R1A@?0A@EA@?$num_get@DV?$istreambuf_iterator@DU?$char_traits@D@std@@@std@@@std@@8 0403de9c     MQ2EQBC.obj
 0002:00004eb8       ??_R4?$basic_istringstream@DU?$char_traits@D@std@@V?$allocator@D@2@@std@@6B@ 0403deb8     MQ2EQBC.obj
 0002:00004ecc       ??_R3?$basic_istringstream@DU?$char_traits@D@std@@V?$allocator@D@2@@std@@8 0403decc     MQ2EQBC.obj
 0002:00004edc       ??_R2?$basic_istringstream@DU?$char_traits@D@std@@V?$allocator@D@2@@std@@8 0403dedc     MQ2EQBC.obj
 0002:00004ef4       ??_R1A@?0A@EA@?$basic_istringstream@DU?$char_traits@D@std@@V?$allocator@D@2@@std@@8 0403def4     MQ2EQBC.obj
 0002:00004f10       ??_R4?$numpunct@D@std@@6B@ 0403df10     MQ2EQBC.obj
 0002:00004f24       ??_R3?$numpunct@D@std@@8   0403df24     MQ2EQBC.obj
 0002:00004f34       ??_R2?$numpunct@D@std@@8   0403df34     MQ2EQBC.obj
 0002:00004f40       ??_R1A@?0A@EA@?$numpunct@D@std@@8 0403df40     MQ2EQBC.obj
 0002:00004f5c       ??_R4logic_error@std@@6B@  0403df5c     MQ2EQBC.obj
 0002:00004f70       ??_R3logic_error@std@@8    0403df70     MQ2EQBC.obj
 0002:00004f80       ??_R2logic_error@std@@8    0403df80     MQ2EQBC.obj
 0002:00004f8c       ??_R1A@?0A@EA@logic_error@std@@8 0403df8c     MQ2EQBC.obj
 0002:00004fa8       ??_R4runtime_error@std@@6B@ 0403dfa8     MQ2EQBC.obj
 0002:00004fbc       ??_R3runtime_error@std@@8  0403dfbc     MQ2EQBC.obj
 0002:00004fcc       ??_R2runtime_error@std@@8  0403dfcc     MQ2EQBC.obj
 0002:00004fd8       ??_R1A@?0A@EA@runtime_error@std@@8 0403dfd8     MQ2EQBC.obj
 0002:00004ff4       ??_R4length_error@std@@6B@ 0403dff4     MQ2EQBC.obj
 0002:00005008       ??_R3length_error@std@@8   0403e008     MQ2EQBC.obj
 0002:00005018       ??_R2length_error@std@@8   0403e018     MQ2EQBC.obj
 0002:00005028       ??_R1A@?0A@EA@length_error@std@@8 0403e028     MQ2EQBC.obj
 0002:00005044       ??_R4out_of_range@std@@6B@ 0403e044     MQ2EQBC.obj
 0002:00005058       ??_R3out_of_range@std@@8   0403e058     MQ2EQBC.obj
 0002:00005068       ??_R2out_of_range@std@@8   0403e068     MQ2EQBC.obj
 0002:00005078       ??_R1A@?0A@EA@out_of_range@std@@8 0403e078     MQ2EQBC.obj
 0002:00005094       ??_R4failure@ios_base@std@@6B@ 0403e094     MQ2EQBC.obj
 0002:000050a8       ??_R3failure@ios_base@std@@8 0403e0a8     MQ2EQBC.obj
 0002:000050b8       ??_R2failure@ios_base@std@@8 0403e0b8     MQ2EQBC.obj
 0002:000050c8       ??_R1A@?0A@EA@failure@ios_base@std@@8 0403e0c8     MQ2EQBC.obj
 0002:000050e4       ??_R4MQ2Type@MQ2Internal@@6B@ 0403e0e4     MQ2EQBC.obj
 0002:000050f8       ??_R3MQ2Type@MQ2Internal@@8 0403e0f8     MQ2EQBC.obj
 0002:00005108       ??_R2MQ2Type@MQ2Internal@@8 0403e108     MQ2EQBC.obj
 0002:00005110       ??_R1A@?0A@EA@MQ2Type@MQ2Internal@@8 0403e110     MQ2EQBC.obj
 0002:0000512c       ??_R4MQ2GlobalVarType@@6B@ 0403e12c     MQ2EQBC.obj
 0002:00005140       ??_R3MQ2GlobalVarType@@8   0403e140     MQ2EQBC.obj
 0002:00005150       ??_R2MQ2GlobalVarType@@8   0403e150     MQ2EQBC.obj
 0002:0000515c       ??_R1A@?0A@EA@MQ2GlobalVarType@@8 0403e15c     MQ2EQBC.obj
 0002:00005178       ??_R4EQBCType@@6B@         0403e178     MQ2EQBC.obj
 0002:0000518c       ??_R3EQBCType@@8           0403e18c     MQ2EQBC.obj
 0002:0000519c       ??_R2EQBCType@@8           0403e19c     MQ2EQBC.obj
 0002:000051a8       ??_R1A@?0A@EA@EQBCType@@8  0403e1a8     MQ2EQBC.obj
 0002:000051c4       ??_R4_Locimp@locale@std@@6B@ 0403e1c4     libcpmt:locale0.obj
 0002:000051d8       ??_R3_Locimp@locale@std@@8 0403e1d8     libcpmt:locale0.obj
 0002:000051e8       ??_R2_Locimp@locale@std@@8 0403e1e8     libcpmt:locale0.obj
 0002:000051f4       ??_R1A@?0A@EA@_Locimp@locale@std@@8 0403e1f4     libcpmt:locale0.obj
 0002:00005210       ??_R4invalid_argument@std@@6B@ 0403e210     libcpmt:string.obj
 0002:00005224       ??_R3invalid_argument@std@@8 0403e224     libcpmt:string.obj
 0002:00005234       ??_R2invalid_argument@std@@8 0403e234     libcpmt:string.obj
 0002:00005244       ??_R1A@?0A@EA@invalid_argument@std@@8 0403e244     libcpmt:string.obj
 0002:00005260       ??_R4exception@std@@6B@    0403e260     LIBCMT:stdexcpt.obj
 0002:00005274       ??_R4bad_cast@std@@6B@     0403e274     LIBCMT:stdexcpt.obj
 0002:00005288       ??_R3bad_cast@std@@8       0403e288     LIBCMT:stdexcpt.obj
 0002:00005298       ??_R2bad_cast@std@@8       0403e298     LIBCMT:stdexcpt.obj
 0002:000052a4       ??_R1A@?0A@EA@bad_cast@std@@8 0403e2a4     LIBCMT:stdexcpt.obj
 0002:000052c0       ??_R4bad_typeid@std@@6B@   0403e2c0     LIBCMT:stdexcpt.obj
 0002:000052d4       ??_R3bad_typeid@std@@8     0403e2d4     LIBCMT:stdexcpt.obj
 0002:000052e4       ??_R2bad_typeid@std@@8     0403e2e4     LIBCMT:stdexcpt.obj
 0002:000052f0       ??_R1A@?0A@EA@bad_typeid@std@@8 0403e2f0     LIBCMT:stdexcpt.obj
 0002:0000530c       ??_R4__non_rtti_object@std@@6B@ 0403e30c     LIBCMT:stdexcpt.obj
 0002:00005320       ??_R3__non_rtti_object@std@@8 0403e320     LIBCMT:stdexcpt.obj
 0002:00005330       ??_R2__non_rtti_object@std@@8 0403e330     LIBCMT:stdexcpt.obj
 0002:00005340       ??_R1A@?0A@EA@__non_rtti_object@std@@8 0403e340     LIBCMT:stdexcpt.obj
 0002:0000535c       ??_R4type_info@@6B@        0403e35c     LIBCMT:typinfo.obj
 0002:00005370       ??_R3type_info@@8          0403e370     LIBCMT:typinfo.obj
 0002:00005380       ??_R2type_info@@8          0403e380     LIBCMT:typinfo.obj
 0002:00005388       ??_R1A@?0A@EA@type_info@@8 0403e388     LIBCMT:typinfo.obj
 0002:000053a4       ??_R4bad_exception@std@@6B@ 0403e3a4     LIBCMT:frame.obj
 0002:000053b8       ??_R3bad_exception@std@@8  0403e3b8     LIBCMT:frame.obj
 0002:000053c8       ??_R2bad_exception@std@@8  0403e3c8     LIBCMT:frame.obj
 0002:000053d4       ??_R1A@?0A@EA@bad_exception@std@@8 0403e3d4     LIBCMT:frame.obj
 0002:000053f0       ___safe_se_handler_table   0403e3f0     <linker-defined>
 0002:00005584       ___rtc_iaa                 0403e584     LIBCMT:_initsect_.obj
 0002:00005588       ___rtc_izz                 0403e588     LIBCMT:_initsect_.obj
 0002:0000558c       ___rtc_taa                 0403e58c     LIBCMT:_initsect_.obj
 0002:00005590       ___rtc_tzz                 0403e590     LIBCMT:_initsect_.obj
 0002:000055c4       __TI2?AVbad_alloc@std@@    0403e5c4     MQ2EQBC.obj
 0002:000055d4       __CTA2?AVbad_alloc@std@@   0403e5d4     MQ2EQBC.obj
 0002:000055e0       __CT??_R0?AVbad_alloc@std@@@8??0bad_alloc@std@@QAE@ABV01@@Z12 0403e5e0     MQ2EQBC.obj
 0002:000055fc       __CT??_R0?AVexception@std@@@8??0exception@std@@QAE@ABV01@@Z12 0403e5fc     MQ2EQBC.obj
 0002:00005a38       __TI3?AVout_of_range@std@@ 0403ea38     MQ2EQBC.obj
 0002:00005a74       __CTA3?AVout_of_range@std@@ 0403ea74     MQ2EQBC.obj
 0002:00005a84       __CT??_R0?AVout_of_range@std@@@8??0out_of_range@std@@QAE@ABV01@@Z40 0403ea84     MQ2EQBC.obj
 0002:00005aa0       __CT??_R0?AVlogic_error@std@@@8??0logic_error@std@@QAE@ABV01@@Z40 0403eaa0     MQ2EQBC.obj
 0002:00005b14       __TI3?AVlength_error@std@@ 0403eb14     MQ2EQBC.obj
 0002:00005b50       __CTA3?AVlength_error@std@@ 0403eb50     MQ2EQBC.obj
 0002:00005b60       __CT??_R0?AVlength_error@std@@@8??0length_error@std@@QAE@ABV01@@Z40 0403eb60     MQ2EQBC.obj
 0002:00005b7c       __TI2?AVbad_cast@std@@     0403eb7c     MQ2EQBC.obj
 0002:00005bb8       __CTA2?AVbad_cast@std@@    0403ebb8     MQ2EQBC.obj
 0002:00005bc4       __CT??_R0?AVbad_cast@std@@@8??0bad_cast@std@@QAE@ABV01@@Z12 0403ebc4     MQ2EQBC.obj
 0002:00005c68       __TI3?AVfailure@ios_base@std@@ 0403ec68     MQ2EQBC.obj
 0002:00005cb4       __CTA3?AVfailure@ios_base@std@@ 0403ecb4     MQ2EQBC.obj
 0002:00005cc4       __CT??_R0?AVfailure@ios_base@std@@@8??0failure@ios_base@std@@QAE@ABV012@@Z40 0403ecc4     MQ2EQBC.obj
 0002:00005ce0       __CT??_R0?AVruntime_error@std@@@8??0runtime_error@std@@QAE@ABV01@@Z40 0403ece0     MQ2EQBC.obj
 0002:00006bc8       __TI3?AVinvalid_argument@std@@ 0403fbc8     libcpmt:string.obj
 0002:00006c04       __CTA3?AVinvalid_argument@std@@ 0403fc04     libcpmt:string.obj
 0002:00006c14       __CT??_R0?AVinvalid_argument@std@@@8??0invalid_argument@std@@QAE@ABV01@@Z40 0403fc14     libcpmt:string.obj
 0002:00006f9c       __TI2?AVbad_exception@std@@ 0403ff9c     LIBCMT:frame.obj
 0002:00006fac       __CTA2?AVbad_exception@std@@ 0403ffac     LIBCMT:frame.obj
 0002:00006fb8       __CT??_R0?AVbad_exception@std@@@8??0bad_exception@std@@QAE@ABV01@@Z12 0403ffb8     LIBCMT:frame.obj
 0002:00007534       __IMPORT_DESCRIPTOR_WSOCK32 04040534     wsock32:WSOCK32.dll
 0002:00007548       __IMPORT_DESCRIPTOR_KERNEL32 04040548     kernel32:KERNEL32.dll
 0002:0000755c       __IMPORT_DESCRIPTOR_MQ2Main 0404055c     MQ2Main:MQ2Main.dll
 0002:00007570       __NULL_IMPORT_DESCRIPTOR   04040570     wsock32:WSOCK32.dll
 0003:00000004       ?szColorChars@@3PADA       04042004     MQ2EQBC.obj
 0003:00000120       ?bSaveCharacter@@3HA       04042120     MQ2EQBC.obj
 0003:00000124       ?bAllowControl@@3HA        04042124     MQ2EQBC.obj
 0003:00000128       ?bLocalEchoMode@@3HA       04042128     MQ2EQBC.obj
 0003:00000164       ??_R0?AVbad_alloc@std@@@8  04042164     MQ2EQBC.obj
 0003:00000180       ??_R0?AVexception@std@@@8  04042180     MQ2EQBC.obj
 0003:0000019c       ??_R0?AVfacet@locale@std@@@8 0404219c     MQ2EQBC.obj
 0003:000001bc       ??_R0?AUctype_base@std@@@8 040421bc     MQ2EQBC.obj
 0003:000001dc       ??_R0?AVios_base@std@@@8   040421dc     MQ2EQBC.obj
 0003:000001f8       ??_R0?AV?$_Iosb@H@std@@@8  040421f8     MQ2EQBC.obj
 0003:00000214       ??_R0?AV?$basic_istream@DU?$char_traits@D@std@@@std@@@8 04042214     MQ2EQBC.obj
 0003:00000250       ??_R0?AV?$basic_ios@DU?$char_traits@D@std@@@std@@@8 04042250     MQ2EQBC.obj
 0003:00000288       ??_R0?AV?$ctype@D@std@@@8  04042288     MQ2EQBC.obj
 0003:000002a4       ??_R0?AV?$basic_streambuf@DU?$char_traits@D@std@@@std@@@8 040422a4     MQ2EQBC.obj
 0003:000002e0       ??_R0?AV?$basic_stringbuf@DU?$char_traits@D@std@@V?$allocator@D@2@@std@@@8 040422e0     MQ2EQBC.obj
 0003:00000330       ??_R0?AV?$num_get@DV?$istreambuf_iterator@DU?$char_traits@D@std@@@std@@@std@@@8 04042330     MQ2EQBC.obj
 0003:00000388       ??_R0?AV?$basic_istringstream@DU?$char_traits@D@std@@V?$allocator@D@2@@std@@@8 04042388     MQ2EQBC.obj
 0003:000003dc       ??_R0?AV?$numpunct@D@std@@@8 040423dc     MQ2EQBC.obj
 0003:000003fc       ??_R0?AVlogic_error@std@@@8 040423fc     MQ2EQBC.obj
 0003:0000041c       ??_R0?AVruntime_error@std@@@8 0404241c     MQ2EQBC.obj
 0003:0000043c       ??_R0?AVlength_error@std@@@8 0404243c     MQ2EQBC.obj
 0003:0000045c       ??_R0?AVout_of_range@std@@@8 0404245c     MQ2EQBC.obj
 0003:0000047c       ??_R0?AVfailure@ios_base@std@@@8 0404247c     MQ2EQBC.obj
 0003:000004a0       ??_R0?AVbad_cast@std@@@8   040424a0     MQ2EQBC.obj
 0003:00000610       ??_R0?AVMQ2Type@MQ2Internal@@@8 04042610     MQ2EQBC.obj
 0003:00000634       ?szBCFONT@?1??WndNotification@CMQ2EqbcWnd@@QAEHPAVCXWnd@EQClasses@@IPAX@Z@4PADA 04042634     MQ2EQBC.obj
 0003:0000063c       ?szBCMIN@?1??WndNotification@CMQ2EqbcWnd@@QAEHPAVCXWnd@EQClasses@@IPAX@Z@4PADA 0404263c     MQ2EQBC.obj
 0003:00000644       ?szBCA@?1??WndNotification@CMQ2EqbcWnd@@QAEHPAVCXWnd@EQClasses@@IPAX@Z@4PADA 04042644     MQ2EQBC.obj
 0003:0000064c       ?szBCAA@?1??WndNotification@CMQ2EqbcWnd@@QAEHPAVCXWnd@EQClasses@@IPAX@Z@4PADA 0404264c     MQ2EQBC.obj
 0003:00000654       ?szBCT@?1??WndNotification@CMQ2EqbcWnd@@QAEHPAVCXWnd@EQClasses@@IPAX@Z@4PADA 04042654     MQ2EQBC.obj
 0003:0000065c       ?szCommand@?1??WndNotification@CMQ2EqbcWnd@@QAEHPAVCXWnd@EQClasses@@IPAX@Z@4PADA 0404265c     MQ2EQBC.obj
 0003:00000664       ??_R0?AVMQ2GlobalVarType@@@8 04042664     MQ2EQBC.obj
 0003:00000684       ??_R0?AVEQBCType@@@8       04042684     MQ2EQBC.obj
 0003:000006a4       ??_R0?AV_Locimp@locale@std@@@8 040426a4     libcpmt:locale0.obj
 0003:000006cc       ?_Sync@ios_base@std@@0_NA  040426cc     libcpmt:ios.obj
 0003:000006d4       ??_R0?AVinvalid_argument@std@@@8 040426d4     libcpmt:string.obj
 0003:00000708       ?_PJP_CPP_Copyright@@3PADA 04042708     libcpmt:iosptrs.obj
 0003:00000774       ??_R0?AVbad_typeid@std@@@8 04042774     LIBCMT:stdexcpt.obj
 0003:00000794       ??_R0?AV__non_rtti_object@std@@@8 04042794     LIBCMT:stdexcpt.obj
 0003:000007bc       ??_R0?AVtype_info@@@8      040427bc     LIBCMT:typinfo.obj
 0003:000007f0       ___lconv_static_decimal    040427f0     LIBCMT:lconv.obj
 0003:000007f4       ___lconv_c                 040427f4     LIBCMT:lconv.obj
 0003:00000824       ___lconv                   04042824     LIBCMT:lconv.obj
 0003:00000828       __fltused                  04042828     LIBCMT:_fpinit_.obj
 0003:0000082c       __ldused                   0404282c     LIBCMT:_fpinit_.obj
 0003:00000830       __pctype                   04042830     LIBCMT:ctype.obj
 0003:00000834       __pwctype                  04042834     LIBCMT:ctype.obj
 0003:000009b0       ___abort_behavior          040429b0     LIBCMT:abort.obj
 0003:000009c0       ___security_cookie         040429c0     LIBCMT:gs_cookie.obj
 0003:000009c4       ___security_cookie_complement 040429c4     LIBCMT:gs_cookie.obj
 0003:000009d0       ___nullstring              040429d0     LIBCMT:output.obj
 0003:000009d4       ___wnullstring             040429d4     LIBCMT:output.obj
 0003:000009dc       ??_R0?AVbad_exception@std@@@8 040429dc     LIBCMT:frame.obj
 0003:000009fc       ___flsindex                040429fc     LIBCMT:tidtable.obj
 0003:00000a00       ___getvalueindex           04042a00     LIBCMT:tidtable.obj
 0003:00000a10       ___initialmbcinfo          04042a10     LIBCMT:mbctype.obj
 0003:00000c30       __mbctype                  04042c30     LIBCMT:mbctype.obj
 0003:00000d38       __mbcasemap                04042d38     LIBCMT:mbctype.obj
 0003:00000e38       ___ptmbcinfo               04042e38     LIBCMT:mbctype.obj
 0003:00000f30       ___globallocalestatus      04042f30     LIBCMT:glstatus.obj
 0003:00000f38       ___clocalestr              04042f38     LIBCMT:nlsdata2.obj
 0003:00000f40       ___initiallocinfo          04042f40     LIBCMT:nlsdata2.obj
 0003:00001018       ___ptlocinfo               04043018     LIBCMT:nlsdata2.obj
 0003:0000101c       ___lc_clike                0404301c     LIBCMT:nlsdata2.obj
 0003:00001020       ___initiallocalestructinfo 04043020     LIBCMT:nlsdata2.obj
 0003:00001028       __amblksiz                 04043028     LIBCMT:heapinit.obj
 0003:00001150       __aexit_rtn                04043150     LIBCMT:crt0dat.obj
 0003:00001210       __cfltcvt_tab              04043210     LIBCMT:cmiscdat.obj
 0003:00001238       ___badioinfo               04043238     LIBCMT:ioinit.obj
 0003:00001278       __First_FPE_Indx           04043278     LIBCMT:winxfltr.obj
 0003:0000127c       __Num_FPE                  0404327c     LIBCMT:winxfltr.obj
 0003:00001280       __XcptActTabSize           04043280     LIBCMT:winxfltr.obj
 0003:00001284       __XcptActTabCount          04043284     LIBCMT:winxfltr.obj
 0003:00001290       ___lc_time_c               04043290     LIBCMT:strftime.obj
 0003:00001348       ___lc_time_curr            04043348     LIBCMT:strftime.obj
 0003:0000134c       ___mb_cur_max              0404334c     LIBCMT:nlsdata1.obj
 0003:00001350       ___decimal_point           04043350     LIBCMT:nlsdata1.obj
 0003:00001354       ___decimal_point_length    04043354     LIBCMT:nlsdata1.obj
 0003:00001360       __HUGE                     04043360     LIBCMT:_huge_.obj
 0003:00001370       __iob                      04043370     LIBCMT:_file.obj
 0003:000015f0       __NLG_Destination          040435f0     LIBCMT:exsup.obj
 0003:00001600       __timezone                 04043600     LIBCMT:timeset.obj
 0003:00001604       __daylight                 04043604     LIBCMT:timeset.obj
 0003:00001608       __dstbias                  04043608     LIBCMT:timeset.obj
 0003:00001690       __tzname                   04043690     LIBCMT:timeset.obj
 0003:000016e4       __lpdays                   040436e4     LIBCMT:days.obj
 0003:00001718       __days                     04043718     LIBCMT:days.obj
 0003:00001750       __pow10pos                 04043750     LIBCMT:_constpow_.obj
 0003:000018b0       __pow10neg                 040438b0     LIBCMT:_constpow_.obj
 0003:00001a0c       __coninpfh                 04043a0c     LIBCMT:initcon.obj
 0003:00001a10       __confh                    04043a10     LIBCMT:initcon.obj
 0003:00001a40       ?lastReadBufPos@@3HA       04043a40     MQ2EQBC.obj
 0003:00001a44       ?theSocket@@3IA            04043a44     MQ2EQBC.obj
 0003:00001a48       ?nret@@3HA                 04043a48     MQ2EQBC.obj
 0003:00001a4c       ?ConnectCS@@3U_RTL_CRITICAL_SECTION@@A 04043a4c     MQ2EQBC.obj
 0003:00001a64       ?sockVersion@@3GA          04043a64     MQ2EQBC.obj
 0003:00001a68       ?hostEntry@@3PAUhostent@@A 04043a68     MQ2EQBC.obj
 0003:00001a70       ?wsaData@@3UWSAData@@A     04043a70     MQ2EQBC.obj
 0003:00001c00       ?serverInfo@@3Usockaddr_in@@A 04043c00     MQ2EQBC.obj
 0003:00001c10       ?INIFileName@@3PADA        04043c10     MQ2EQBC.obj
 0003:00001d14       ?pEQBCType@@3PAVEQBCType@@A 04043d14     MQ2EQBC.obj
 0003:00001d18       ?bConnecting@@3_NA         04043d18     MQ2EQBC.obj
 0003:00001d19       ?bTriedConnect@@3_NA       04043d19     MQ2EQBC.obj
 0003:00001d1a       ?bConnected@@3_NA          04043d1a     MQ2EQBC.obj
 0003:00001d1b       ?bForceCmd@@3_NA           04043d1b     MQ2EQBC.obj
 0003:00001d1c       ?bSetTitle@@3HA            04043d1c     MQ2EQBC.obj
 0003:00001d20       ?szServer@@3PADA           04043d20     MQ2EQBC.obj
 0003:00002520       ?szPort@@3PADA             04044520     MQ2EQBC.obj
 0003:00002d20       ?szToonName@@3PADA         04044d20     MQ2EQBC.obj
 0003:00003520       ?szToonCmdStart@@3PADA     04045520     MQ2EQBC.obj
 0003:00003d20       ?szToonToRelog@@3PADA      04045d20     MQ2EQBC.obj
 0003:00004520       ?szPassword@@3PADA         04046520     MQ2EQBC.obj
 0003:00004548       ?bUseWindow@@3HA           04046548     MQ2EQBC.obj
 0003:0000454c       ?bAutoConnect@@3HA         0404654c     MQ2EQBC.obj
 0003:00004550       ?bSocketGone@@3HA          04046550     MQ2EQBC.obj
 0003:00004554       ?bIrcCompatMode@@3HA       04046554     MQ2EQBC.obj
 0003:00004558       ?bReconnectMode@@3HA       04046558     MQ2EQBC.obj
 0003:0000455c       ?bDoTellWatch@@3HA         0404655c     MQ2EQBC.obj
 0003:00004560       ?bDoGuildWatch@@3HA        04046560     MQ2EQBC.obj
 0003:00004564       ?bDoGroupWatch@@3HA        04046564     MQ2EQBC.obj
 0003:00004568       ?bDoFSWatch@@3HA           04046568     MQ2EQBC.obj
 0003:0000456c       ?bSilentCmd@@3HA           0404656c     MQ2EQBC.obj
 0003:00004570       ?iReconnectSeconds@@3HA    04046570     MQ2EQBC.obj
 0003:00004574       ?lastReconnectTimeSecs@@3KA 04046574     MQ2EQBC.obj
 0003:00004578       ?reloginBeforeSecs@@3KA    04046578     MQ2EQBC.obj
 0003:0000457c       ?lastPingTime@@3JA         0404657c     MQ2EQBC.obj
 0003:00004580       ?chatWnd@@3PAVCMQ2EqbcWnd@@A 04046580     MQ2EQBC.obj
 0003:00004584       ?pGlobalValType@@3PAVMQ2GlobalValType@@A 04046584     MQ2EQBC.obj
 0003:00004588       ?pGlobalVarType@@3PAVMQ2GlobalVarType@@A 04046588     MQ2EQBC.obj
 0003:0000458c       ?ireadbuf@@3PADA           0404658c     MQ2EQBC.obj
 0003:00004590       ?globals@@3V?$map@V?$basic_string@DU?$char_traits@D@std@@V?$allocator@D@2@@std@@V12@U?$less@V?$basic_string@DU?$char_traits@D@std@@V?$allocator@D@2@@std@@@2@V?$allocator@U?$pair@$$CBV?$basic_string@DU?$char_traits@D@std@@V?$allocator@D@2@@std@@V12@@std@@@2@@std@@A 04046590     MQ2EQBC.obj
 0003:000045b0       ?_Psave@?$_Facetptr@V?$ctype@D@std@@@std@@2PBVfacet@locale@2@B 040465b0     MQ2EQBC.obj
 0003:000045b4       ?_Psave@?$_Facetptr@V?$num_get@DV?$istreambuf_iterator@DU?$char_traits@D@std@@@std@@@std@@@std@@2PBVfacet@locale@2@B 040465b4     MQ2EQBC.obj
 0003:000045b8       ?_Psave@?$_Facetptr@V?$numpunct@D@std@@@std@@2PBVfacet@locale@2@B 040465b8     MQ2EQBC.obj
 0003:000045bc       ?id@?$numpunct@D@std@@2V0locale@2@A 040465bc     MQ2EQBC.obj
 0003:000045c0       ?id@?$num_get@DV?$istreambuf_iterator@DU?$char_traits@D@std@@@std@@@std@@2V0locale@2@A 040465c0     MQ2EQBC.obj
 0003:00004634       ?_Clocptr@_Locimp@locale@std@@0PAV123@A 04046634     libcpmt:locale0.obj
 0003:00004638       ?_Id_cnt@id@locale@std@@0HA 04046638     libcpmt:locale0.obj
 0003:0000463c       ?id@?$ctype@D@std@@2V0locale@2@A 0404663c     libcpmt:locale0.obj
 0003:00004640       ?id@?$codecvt@GDH@std@@2V0locale@2@A 04046640     libcpmt:locale0.obj
 0003:00004644       ?id@?$ctype@_W@std@@2V0locale@2@A 04046644     libcpmt:locale0.obj
 0003:00004648       ?id@?$codecvt@_WDH@std@@2V0locale@2@A 04046648     libcpmt:locale0.obj
 0003:00004650       ?id@?$ctype@G@std@@2V0locale@2@A 04046650     libcpmt:locale0.obj
 0003:00004658       ?_Fpz@std@@3_JA            04046658     libcpmt:ios.obj
 0003:00004660       ?_Index@ios_base@std@@0HA  04046660     libcpmt:ios.obj
 0003:00004790       ?_Ptr_cin@std@@3PAV?$basic_istream@DU?$char_traits@D@std@@@1@A 04046790     libcpmt:iosptrs.obj
 0003:00004794       ?_Ptr_cout@std@@3PAV?$basic_ostream@DU?$char_traits@D@std@@@1@A 04046794     libcpmt:iosptrs.obj
 0003:00004798       ?_Ptr_cerr@std@@3PAV?$basic_ostream@DU?$char_traits@D@std@@@1@A 04046798     libcpmt:iosptrs.obj
 0003:0000479c       ?_Ptr_clog@std@@3PAV?$basic_ostream@DU?$char_traits@D@std@@@1@A 0404679c     libcpmt:iosptrs.obj
 0003:000047a0       ?_Ptr_wcin@std@@3PAV?$basic_istream@_WU?$char_traits@_W@std@@@1@A 040467a0     libcpmt:iosptrs.obj
 0003:000047a4       ?_Ptr_wcout@std@@3PAV?$basic_ostream@_WU?$char_traits@_W@std@@@1@A 040467a4     libcpmt:iosptrs.obj
 0003:000047a8       ?_Ptr_wcerr@std@@3PAV?$basic_ostream@_WU?$char_traits@_W@std@@@1@A 040467a8     libcpmt:iosptrs.obj
 0003:000047ac       ?_Ptr_wclog@std@@3PAV?$basic_ostream@_WU?$char_traits@_W@std@@@1@A 040467ac     libcpmt:iosptrs.obj
 0003:000047f8       ___pInvalidArgHandler      040467f8     LIBCMT:invarg.obj
 0003:000047fc       ___lconv_static_null       040467fc     LIBCMT:lconv.obj
 0003:00004800       ___fastflag                04046800     LIBCMT:_fpinit_.obj
 0003:00004804       __adjust_fdiv              04046804     LIBCMT:_fpinit_.obj
 0003:0000480c       __aenvptr                  0404680c     LIBCMT:dllcrt0.obj
 0003:00004810       __wenvptr                  04046810     LIBCMT:dllcrt0.obj
 0003:00004814       ___error_mode              04046814     LIBCMT:dllcrt0.obj
 0003:00004818       ___app_type                04046818     LIBCMT:dllcrt0.obj
 0003:00004820       __maxwait                  04046820     LIBCMT:crtheap.obj
 0003:00004824       ___locale_changed          04046824     LIBCMT:setlocal.obj
 0003:00004830       ?_pnhHeap@@3P6AHI@ZA       04046830     LIBCMT:handler.obj
 0003:00004834       _gpFlsAlloc                04046834     LIBCMT:tidtable.obj
 0003:00004838       _gpFlsGetValue             04046838     LIBCMT:tidtable.obj
 0003:0000483c       _gpFlsSetValue             0404683c     LIBCMT:tidtable.obj
 0003:00004840       _gpFlsFree                 04046840     LIBCMT:tidtable.obj
 0003:00004844       ?__pInconsistency@@3P6AXXZA 04046844     LIBCMT:hooks.obj
 0003:0000484c       ___mbulinfo                0404684c     LIBCMT:mbctype.obj
 0003:00004858       ___mbcodepage              04046858     LIBCMT:mbctype.obj
 0003:0000485c       ___ismbcodepage            0404685c     LIBCMT:mbctype.obj
 0003:00004860       ___mblcid                  04046860     LIBCMT:mbctype.obj
 0003:00004864       ___lc_handle               04046864     LIBCMT:nlsdata2.obj
 0003:0000487c       ___lc_codepage             0404687c     LIBCMT:nlsdata2.obj
 0003:00004880       ___lc_collate_cp           04046880     LIBCMT:nlsdata2.obj
 0003:00004884       __crtheap                  04046884     LIBCMT:heapinit.obj
 0003:000049d8       ___sbh_pHeaderDefer        040469d8     LIBCMT:sbheap.obj
 0003:000049dc       __umaskval                 040469dc     LIBCMT:crt0dat.obj
 0003:000049e0       ___argc                    040469e0     LIBCMT:crt0dat.obj
 0003:000049e4       ___argv                    040469e4     LIBCMT:crt0dat.obj
 0003:000049e8       ___wargv                   040469e8     LIBCMT:crt0dat.obj
 0003:000049ec       __environ                  040469ec     LIBCMT:crt0dat.obj
 0003:000049f0       ___initenv                 040469f0     LIBCMT:crt0dat.obj
 0003:000049f4       __wenviron                 040469f4     LIBCMT:crt0dat.obj
 0003:000049f8       ___winitenv                040469f8     LIBCMT:crt0dat.obj
 0003:000049fc       __pgmptr                   040469fc     LIBCMT:crt0dat.obj
 0003:00004a00       __wpgmptr                  04046a00     LIBCMT:crt0dat.obj
 0003:00004a04       __exitflag                 04046a04     LIBCMT:crt0dat.obj
 0003:00004a08       __C_Termination_Done       04046a08     LIBCMT:crt0dat.obj
 0003:00004a0c       __C_Exit_Done              04046a0c     LIBCMT:crt0dat.obj
 0003:00004d24       __newmode                  04046d24     LIBCMT:_newmode.obj
 0003:00004d30       ___pPurecall               04046d30     LIBCMT:inithelp.obj
 0003:00005198       ?pArgList@UnDecorator@@0PAVReplicator@@A 04047198     LIBCMT:undname.obj
 0003:0000519c       ?pZNameList@UnDecorator@@0PAVReplicator@@A 0404719c     LIBCMT:undname.obj
 0003:000051a0       ?pTemplateArgList@UnDecorator@@0PAVReplicator@@A 040471a0     LIBCMT:undname.obj
 0003:000051a4       ?gName@UnDecorator@@0PBDB  040471a4     LIBCMT:undname.obj
 0003:000051a8       ?name@UnDecorator@@0PBDB   040471a8     LIBCMT:undname.obj
 0003:000051ac       ?outputString@UnDecorator@@0PADA 040471ac     LIBCMT:undname.obj
 0003:000051b0       ?maxStringLength@UnDecorator@@0HA 040471b0     LIBCMT:undname.obj
 0003:000051b4       ?disableFlags@UnDecorator@@0KA 040471b4     LIBCMT:undname.obj
 0003:000051b8       ?m_pGetParameter@UnDecorator@@0P6APADJ@ZA 040471b8     LIBCMT:undname.obj
 0003:000051bc       ?fExplicitTemplateParams@UnDecorator@@0_NA 040471bc     LIBCMT:undname.obj
 0003:000051bd       ?fGetTemplateArgumentList@UnDecorator@@0_NA 040471bd     LIBCMT:undname.obj
 0003:000051c0       ?nodes@?1??make@DNameStatusNode@@SAPAV2@W4DNameStatus@@@Z@4PAV2@A 040471c0     LIBCMT:undname.obj
 0003:000051f0       ??_B?1??make@DNameStatusNode@@SAPAV1@W4DNameStatus@@@Z@51 040471f0     LIBCMT:undname.obj
 0003:000051f4       __cflush                   040471f4     LIBCMT:_file.obj
 0003:00005218       __outputformat             04047218     LIBCMT:outputformat.obj
 0003:000052d8       __stdbuf                   040472d8     LIBCMT:_sftbuf.obj
 0003:000052e4       ___piob                    040472e4     <common>
 0003:00005300       __bufin                    04047300     <common>
 0003:00006300       __nstream                  04048300     <common>
 0003:00006304       __nhandle                  04048304     <common>
 0003:00006320       ___pioinfo                 04048320     <common>
 0003:00006420       ___env_initialized         04048420     <common>
 0003:00006424       ___onexitend               04048424     <common>
 0003:00006428       ___onexitbegin             04048428     <common>
 0003:0000642c       ___mbctype_initialized     0404842c     <common>
 0003:00006430       ___dyn_tls_init_callback   04048430     <common>
 0003:00006434       __debugger_hook_dummy      04048434     <common>
 0003:00006438       ___sbh_initialized         04048438     <common>
 0003:0000643c       ___sbh_cntHeaderList       0404843c     <common>
 0003:00006440       ___sbh_pHeaderList         04048440     <common>
 0003:00006444       ___sbh_threshold           04048444     <common>
 0003:00006448       ___sbh_pHeaderScan         04048448     <common>
 0003:0000644c       ___sbh_sizeHeaderList      0404844c     <common>
 0003:00006450       ___sbh_indGroupDefer       04048450     <common>
 0003:00006454       ___active_heap             04048454     <common>
 0003:00006458       ___sse2_available          04048458     <common>
 0003:0000645c       ___setlc_active            0404845c     <common>
 0003:00006460       ___unguarded_readlc_active 04048460     <common>
 0003:00006464       __acmdln                   04048464     <common>

 entry point at        0001:00015e4b

 Static symbols

 0001:fffff000       __ehhandler$?_Copy@?$basic_string@DU?$char_traits@D@std@@V?$allocator@D@2@@std@@IAEXII@Z 04000000 f   libcpmt:locale0.obj
 0001:fffff000       __ehhandler$?_Copy@?$basic_string@DU?$char_traits@D@std@@V?$allocator@D@2@@std@@IAEXII@Z 04000000 f   libcpmt:string.obj
 0001:fffff000       __unwindfunclet$??0logic_error@std@@QAE@ABV01@@Z$0 04000000 f   libcpmt:string.obj
 0001:fffff000       __unwindfunclet$??0logic_error@std@@QAE@ABV?$basic_string@DU?$char_traits@D@std@@V?$allocator@D@2@@1@@Z$0 04000000 f   libcpmt:string.obj
 0001:fffff008       __ehhandler$??0logic_error@std@@QAE@ABV01@@Z 04000008 f   libcpmt:string.obj
 0001:fffff008       __ehhandler$??0logic_error@std@@QAE@ABV?$basic_string@DU?$char_traits@D@std@@V?$allocator@D@2@@1@@Z 04000008 f   libcpmt:string.obj
 0001:fffff059       __catch$?_Copy@?$basic_string@DU?$char_traits@D@std@@V?$allocator@D@2@@std@@IAEXII@Z$0 04000059 f   libcpmt:locale0.obj
 0001:fffff059       __catch$?_Copy@?$basic_string@DU?$char_traits@D@std@@V?$allocator@D@2@@std@@IAEXII@Z$0 04000059 f   libcpmt:string.obj
 0001:fffff0ca       __catch$?_Copy@?$basic_string@DU?$char_traits@D@std@@V?$allocator@D@2@@std@@IAEXII@Z$1 040000ca f   libcpmt:locale0.obj
 0001:fffff0ca       __catch$?_Copy@?$basic_string@DU?$char_traits@D@std@@V?$allocator@D@2@@std@@IAEXII@Z$1 040000ca f   libcpmt:string.obj
 0001:000007e0       ?GetCharInfo@@YAPAU_CHARINFO@EQData@@XZ 040017e0 f   MQ2EQBC.obj
 0001:000007f0       ?GetCharInfo2@@YAPAU_CHARINFO2@EQData@@XZ 040017f0 f   MQ2EQBC.obj
 0001:00000810       ?GetClassDesc@@YAPADK@Z    04001810 f   MQ2EQBC.obj
 0001:00005110       __catch$?_Init@?$numpunct@D@std@@IAEXABV_Locinfo@2@_N@Z$0 04006110 f i MQ2EQBC.obj
 0001:000059b3       __catch$?_Copy@?$basic_string@DU?$char_traits@D@std@@V?$allocator@D@2@@std@@IAEXII@Z$0 040069b3 f i MQ2EQBC.obj
 0001:00005a43       __catch$?_Copy@?$basic_string@DU?$char_traits@D@std@@V?$allocator@D@2@@std@@IAEXII@Z$1 04006a43 f i MQ2EQBC.obj
 0001:00008e6e       __catch$?_Buynode@?$_Tree@V?$_Tmap_traits@V?$basic_string@DU?$char_traits@D@std@@V?$allocator@D@2@@std@@V12@U?$less@V?$basic_string@DU?$char_traits@D@std@@V?$allocator@D@2@@std@@@2@V?$allocator@U?$pair@$$CBV?$basic_string@DU?$char_traits@D@std@@V?$allocator@D@2@@std@@V12@@std@@@2@$0A@@std@@@std@@IAEPAU_Node@?$_Tree_nod@V?$_Tmap_traits@V?$basic_string@DU?$char_traits@D@std@@V?$allocator@D@2@@std@@V12@U?$less@V?$basic_string@DU?$char_traits@D@std@@V?$allocator@D@2@@std@@@2@V?$allocator@U?$pair@$$CBV?$basic_string@DU?$char_traits@D@std@@V?$allocator@D@2@@std@@V12@@std@@@2@$0A@@std@@@2@PAU342@00ABU?$pair@$$CBV?$basic_string@DU?$char_traits@D@std@@V?$allocator@D@2@@std@@V12@@2@D@Z$0 04009e6e f i MQ2EQBC.obj
 0001:00009292       __catch$?_Buynode@?$_Tree@V?$_Tmap_traits@V?$basic_string@DU?$char_traits@D@std@@V?$allocator@D@2@@std@@KU?$less@V?$basic_string@DU?$char_traits@D@std@@V?$allocator@D@2@@std@@@2@V?$allocator@U?$pair@$$CBV?$basic_string@DU?$char_traits@D@std@@V?$allocator@D@2@@std@@K@std@@@2@$0A@@std@@@std@@IAEPAU_Node@?$_Tree_nod@V?$_Tmap_traits@V?$basic_string@DU?$char_traits@D@std@@V?$allocator@D@2@@std@@KU?$less@V?$basic_string@DU?$char_traits@D@std@@V?$allocator@D@2@@std@@@2@V?$allocator@U?$pair@$$CBV?$basic_string@DU?$char_traits@D@std@@V?$allocator@D@2@@std@@K@std@@@2@$0A@@std@@@2@PAU342@00ABU?$pair@$$CBV?$basic_string@DU?$char_traits@D@std@@V?$allocator@D@2@@std@@K@2@D@Z$0 0400a292 f i MQ2EQBC.obj
 0001:00009649       __catch$??$_Uninit_fill_n@PAV?$basic_string@DU?$char_traits@D@std@@V?$allocator@D@2@@std@@IV12@V?$allocator@V?$basic_string@DU?$char_traits@D@std@@V?$allocator@D@2@@std@@@2@@std@@YAXPAV?$basic_string@DU?$char_traits@D@std@@V?$allocator@D@2@@0@IABV10@AAV?$allocator@V?$basic_string@DU?$char_traits@D@std@@V?$allocator@D@2@@std@@@0@U_Nonscalar_ptr_iterator_tag@0@U_Range_checked_iterator_tag@0@@Z$0 0400a649 f i MQ2EQBC.obj
 0001:0000b4f8       __catch$??$_Uninit_move@PAV?$basic_string@DU?$char_traits@D@std@@V?$allocator@D@2@@std@@PAV12@V?$allocator@V?$basic_string@DU?$char_traits@D@std@@V?$allocator@D@2@@std@@@2@@std@@YAPAV?$basic_string@DU?$char_traits@D@std@@V?$allocator@D@2@@0@PAV10@00AAV?$allocator@V?$basic_string@DU?$char_traits@D@std@@V?$allocator@D@2@@std@@@0@U_Swap_move_tag@0@U_Range_checked_iterator_tag@0@@Z$0 0400c4f8 f i MQ2EQBC.obj
 0001:0000bc41       __catch$?_Ipfx@?$basic_istream@DU?$char_traits@D@std@@@std@@QAE_N_N@Z$0 0400cc41 f i MQ2EQBC.obj
 0001:0000f932       __catch$??5?$basic_istream@DU?$char_traits@D@std@@@std@@QAEAAV01@AAH@Z$0 04010932 f i MQ2EQBC.obj
 0001:0000faf1       __catch$??5?$basic_istream@DU?$char_traits@D@std@@@std@@QAEAAV01@AAM@Z$0 04010af1 f i MQ2EQBC.obj
 0001:0000fec6       __catch$?_Insert_n@?$vector@V?$basic_string@DU?$char_traits@D@std@@V?$allocator@D@2@@std@@V?$allocator@V?$basic_string@DU?$char_traits@D@std@@V?$allocator@D@2@@std@@@2@@std@@IAEXV?$_Vector_const_iterator@V?$basic_string@DU?$char_traits@D@std@@V?$allocator@D@2@@std@@V?$allocator@V?$basic_string@DU?$char_traits@D@std@@V?$allocator@D@2@@std@@@2@@2@IABV?$basic_string@DU?$char_traits@D@std@@V?$allocator@D@2@@2@@Z$0 04010ec6 f i MQ2EQBC.obj
 0001:0000ff93       __catch$?_Insert_n@?$vector@V?$basic_string@DU?$char_traits@D@std@@V?$allocator@D@2@@std@@V?$allocator@V?$basic_string@DU?$char_traits@D@std@@V?$allocator@D@2@@std@@@2@@std@@IAEXV?$_Vector_const_iterator@V?$basic_string@DU?$char_traits@D@std@@V?$allocator@D@2@@std@@V?$allocator@V?$basic_string@DU?$char_traits@D@std@@V?$allocator@D@2@@std@@@2@@2@IABV?$basic_string@DU?$char_traits@D@std@@V?$allocator@D@2@@2@@Z$2 04010f93 f i MQ2EQBC.obj
 0001:00012417       _tidy_global               04013417 f   libcpmt:locale0.obj
 0001:000131f0       __CreateLocForCP           040141f0 f   libcpmt:xmbtowc.obj
 0001:000132cd       __ReleaseCPLocHash         040142cd f   libcpmt:xmbtowc.obj
 0001:0001330d       __InitCPLocHash            0401430d f   libcpmt:xmbtowc.obj
 0001:00014088       ?CatchGuardHandler@@YA?AW4_EXCEPTION_DISPOSITION@@PAUEHExceptionRecord@@PAUCatchGuardRN@@PAX2@Z 04015088 f   LIBCMT:_trnsctrl_.obj
 0001:00014192       ?TranslatorGuardHandler@@YA?AW4_EXCEPTION_DISPOSITION@@PAUEHExceptionRecord@@PAUTranslatorGuardRN@@PAX2@Z 04015192 f   LIBCMT:_trnsctrl_.obj
 0001:00015ae2       __onexit_nolock            04016ae2 f   LIBCMT:onexit.obj
 0001:00015d55       ___DllMainCRTStartup       04016d55 f   LIBCMT:dllcrt0.obj
 0001:00015ea4       ?strncnt@@YAHPBDH@Z        04016ea4 f   LIBCMT:a_map.obj
 0001:00015ec2       ?__crtLCMapStringA_stat@@YAHPAUlocaleinfo_struct@@KKPBDHPADHHH@Z 04016ec2 f   LIBCMT:a_map.obj
 0001:00016f4d       __copytlocinfo_nolock      04017f4d f   LIBCMT:setlocal.obj
 0001:00016f73       __updatetlocinfoEx_nolock  04017f73 f   LIBCMT:setlocal.obj
 0001:00017091       _sync_legacy_variables_lk  04018091 f   LIBCMT:setlocal.obj
 0001:0001743e       __setlocale_get_all        0401843e f   LIBCMT:setlocal.obj
 0001:000177ec       __setlocale_set_cat        040187ec f   LIBCMT:setlocal.obj
 0001:00017aee       __setlocale_nolock         04018aee f   LIBCMT:setlocal.obj
 0001:0001815a       _xtoa_s@20                 0401915a f   LIBCMT:xtoas.obj
 0001:000182a2       @x64toa_s@24               040192a2 f   LIBCMT:xtoas.obj
 0001:00018bb5       _fastzero_I                04019bb5 f   LIBCMT:p4_memset.obj
 0001:00018c9b       _has_osfxsr_set            04019c9b f   LIBCMT:cpu_disp.obj
 0001:00018f41       _write_char                04019f41 f   LIBCMT:output.obj
 0001:00018f74       _write_multi_char          04019f74 f   LIBCMT:output.obj
 0001:00018f9a       _write_string              04019f9a f   LIBCMT:output.obj
 0001:0001a231       ?ExFilterRethrow@@YAHPAU_EXCEPTION_POINTERS@@@Z 0401b231 f   LIBCMT:frame.obj
 0001:0001a625       ?IsInExceptionSpec@@YAEPAUEHExceptionRecord@@PBU_s_ESTypeList@@@Z 0401b625 f   LIBCMT:frame.obj
 0001:0001a6a0       ?CallUnexpected@@YAXPBU_s_ESTypeList@@@Z 0401b6a0 f   LIBCMT:frame.obj
 0001:0001a6d1       __catch$?CallUnexpected@@YAXPBU_s_ESTypeList@@@Z$0 0401b6d1 f   LIBCMT:frame.obj
 0001:0001a6e9       ?Is_bad_exception_allowed@@YAEPBU_s_ESTypeList@@@Z 0401b6e9 f   LIBCMT:frame.obj
 0001:0001a7a1       ?CallCatchBlock@@YAPAXPAUEHExceptionRecord@@PAUEHRegistrationNode@@PAU_CONTEXT@@PBU_s_FuncInfo@@PAXHK@Z 0401b7a1 f   LIBCMT:frame.obj
 0001:0001ac93       ?CatchIt@@YAXPAUEHExceptionRecord@@PAUEHRegistrationNode@@PAU_CONTEXT@@PAXPBU_s_FuncInfo@@PBU_s_HandlerType@@PBU_s_CatchableType@@PBU_s_TryBlockMapEntry@@H1E@Z 0401bc93 f   LIBCMT:frame.obj
 0001:0001ad01       ?FindHandlerForForeignException@@YAXPAUEHExceptionRecord@@PAUEHRegistrationNode@@PAU_CONTEXT@@PAXPBU_s_FuncInfo@@HH1@Z 0401bd01 f   LIBCMT:frame.obj
 0001:0001adf5       ?FindHandler@@YAXPAUEHExceptionRecord@@PAUEHRegistrationNode@@PAU_CONTEXT@@PAXPBU_s_FuncInfo@@EH1@Z 0401bdf5 f   LIBCMT:frame.obj
 0001:0001b99c       ?strtoxl@@YAKPAUlocaleinfo_struct@@PBDPAPBDHH@Z 0401c99c f   LIBCMT:strtol.obj
 0001:0001bc5c       ?strtoxq@@YA_KPAUlocaleinfo_struct@@PBDPAPBDHH@Z 0401cc5c f   LIBCMT:strtoq.obj
 0001:0001bf84       _fastcopy_I                0401cf84 f   LIBCMT:p4_memcpy.obj
 0001:0001c0ee       ?CPtoLCID@@YAHH@Z          0401d0ee f   LIBCMT:mbctype.obj
 0001:0001c11d       ?setSBCS@@YAXPAUthreadmbcinfostruct@@@Z 0401d11d f   LIBCMT:mbctype.obj
 0001:0001c181       ?setSBUpLow@@YAXPAUthreadmbcinfostruct@@@Z 0401d181 f   LIBCMT:mbctype.obj
 0001:0001c3b8       ?getSystemCP@@YAHH@Z       0401d3b8 f   LIBCMT:mbctype.obj
 0001:0001dee0       _ValidateLocalCookies      0401eee0 f   LIBCMT:chandler4.obj
 0001:0001e152       __initterm                 0401f152 f   LIBCMT:crt0dat.obj
 0001:0001e290       _doexit                    0401f290 f   LIBCMT:crt0dat.obj
 0001:0001e7d6       __shift                    0401f7d6 f   LIBCMT:cvt.obj
 0001:0001e81b       __cftoe2_l                 0401f81b f   LIBCMT:cvt.obj
 0001:0001ee0d       __cftof2_l                 0401fe0d f   LIBCMT:cvt.obj
 0001:0001f814       _parse_cmdline             04020814 f   LIBCMT:stdargv.obj
 0001:0001fbed       _xcptlookup                04020bed f   LIBCMT:winxfltr.obj
 0001:0002006c       ?__crtGetStringTypeA_stat@@YAHPAUlocaleinfo_struct@@KPBDHPAGHHH@Z 0402106c f   LIBCMT:a_str.obj
 0001:0002063a       _ctrlevent_capture@4       0402163a f   LIBCMT:winsig.obj
 0001:000206d5       _siglookup                 040216d5 f   LIBCMT:winsig.obj
 0001:00020c1e       __get_lc_time              04021c1e f   LIBCMT:inittime.obj
 0001:00021247       _fix_grouping              04022247 f   LIBCMT:initnum.obj
 0001:00021489       _fix_grouping              04022489 f   LIBCMT:initmon.obj
 0001:00021d85       ?_store_str@@YAXPADPAPADPAI@Z 04022d85 f   LIBCMT:strftime.obj
 0001:00021da5       ?_store_number@@YAXHPAPADPAI@Z 04022da5 f   LIBCMT:strftime.obj
 0001:00021ddb       ?_store_num@@YAXHHPAPADPAII@Z 04022ddb f   LIBCMT:strftime.obj
 0001:00021e56       ?_expandtime@@YAHPAUlocaleinfo_struct@@DPBUtm@@PAPADPAIPAU__lc_time_data@@I@Z 04022e56 f   LIBCMT:strftime.obj
 0001:0002223e       ?_store_winword@@YAHPAUlocaleinfo_struct@@HPBUtm@@PAPADPAIPAU__lc_time_data@@@Z 0402323e f   LIBCMT:strftime.obj
 0001:00022a1b       _TranslateName             04023a1b f   LIBCMT:getqloc.obj
 0001:00022a7d       _GetLcidFromDefault        04023a7d f   LIBCMT:getqloc.obj
 0001:00022a91       _ProcessCodePage           04023a91 f   LIBCMT:getqloc.obj
 0001:00022b35       _TestDefaultCountry        04023b35 f   LIBCMT:getqloc.obj
 0001:00022b59       _LcidFromHexString         04023b59 f   LIBCMT:getqloc.obj
 0001:00022b8d       _GetPrimaryLen             04023b8d f   LIBCMT:getqloc.obj
 0001:00022ba8       _CountryEnumProc@4         04023ba8 f   LIBCMT:getqloc.obj
 0001:00022c40       _TestDefaultLanguage       04023c40 f   LIBCMT:getqloc.obj
 0001:00022cb4       _LangCountryEnumProc@4     04023cb4 f   LIBCMT:getqloc.obj
 0001:00022e86       _LanguageEnumProc@4        04023e86 f   LIBCMT:getqloc.obj
 0001:00022f47       _GetLcidFromCountry        04023f47 f   LIBCMT:getqloc.obj
 0001:00022f73       _GetLcidFromLangCountry    04023f73 f   LIBCMT:getqloc.obj
 0001:00022fda       _GetLcidFromLanguage       04023fda f   LIBCMT:getqloc.obj
 0001:00023207       _cmpResult                 04024207 f   LIBCMT:memcmp.obj
 0001:00023219       _cmpBYTE                   04024219 f   LIBCMT:memcmp.obj
 0001:00023231       _cmpWORD                   04024231 f   LIBCMT:memcmp.obj
 0001:00023271       _cmpDWORD                  04024271 f   LIBCMT:memcmp.obj
 0001:000232e9       _unaligned_memcmp          040242e9 f   LIBCMT:memcmp.obj
 0001:000269ef       ?und_strlen@@YAIPBD@Z      040279ef f   LIBCMT:undname.obj
 0001:000269fd       ?und_memcpy@@YAXPADPBDI@Z  040279fd f   LIBCMT:undname.obj
 0001:00026a13       ?und_strncmp@@YAIPBD0I@Z   04027a13 f   LIBCMT:undname.obj
 0001:0002b388       __unwind_handler4          0402c388 f   LIBCMT:exsup4.obj
 0001:0002c52d       _write_char                0402d52d f   LIBCMT:outputp.obj
 0001:0002c560       _write_multi_char          0402d560 f   LIBCMT:outputp.obj
 0001:0002c586       _write_string              0402d586 f   LIBCMT:outputp.obj
 0001:0002d8a8       _write_char                0402e8a8 f   LIBCMT:outputs.obj
 0001:0002d8db       _write_multi_char          0402e8db f   LIBCMT:outputs.obj
 0001:0002d901       _write_string              0402e901 f   LIBCMT:outputs.obj
 0001:0002e574       __unwind_handler           0402f574 f   LIBCMT:exsup.obj
 0001:0002f274       ?__crtGetLocaleInfoW_stat@@YAHPAUlocaleinfo_struct@@KKPA_WHH@Z 04030274 f   LIBCMT:w_loc.obj
 0001:0002f2c1       ?__crtGetLocaleInfoA_stat@@YAHPAUlocaleinfo_struct@@KKPADHH@Z 040302c1 f   LIBCMT:a_loc.obj
 0001:0002f43d       ?x_ismbbtype_l@@YAHPAUlocaleinfo_struct@@IHH@Z 0403043d f   LIBCMT:ismbbyte.obj
 0001:0002f894       __tzset_nolock             04030894 f   LIBCMT:tzset.obj
 0001:0002fbda       _cvtdate                   04030bda f   LIBCMT:tzset.obj
 0001:0002fdd1       __isindst_nolock           04030dd1 f   LIBCMT:tzset.obj
 0001:00032ca5       _flsall                    04033ca5 f   LIBCMT:fflush.obj
 0001:00032fe6       ?__crtGetStringTypeW_stat@@YAHPAUlocaleinfo_struct@@KPB_WHPAGHH@Z 04033fe6 f   LIBCMT:w_str.obj
 0001:00033a51       __abstract_cw              04034a51 f   LIBCMT:_ieee87_.obj
 0001:00033af0       __hw_cw                    04034af0 f   LIBCMT:_ieee87_.obj
 0001:00033b7e       __abstract_sw              04034b7e f   LIBCMT:_ieee87_.obj
 0001:00033bc1       ___abstract_cw_sse2        04034bc1 f   LIBCMT:_ieee87_.obj
 0001:00033c61       ___hw_cw_sse2              04034c61 f   LIBCMT:_ieee87_.obj
 0001:00033d01       ___abstract_sw_sse2        04034d01 f   LIBCMT:_ieee87_.obj
 0001:00033d44       ___fpreset_sse2            04034d44 f   LIBCMT:_ieee87_.obj
 0001:00033e1a       ___statusfp_sse2           04034e1a f   LIBCMT:_ieee87_.obj
 0001:00033e55       ___clearfp_sse2            04034e55 f   LIBCMT:_ieee87_.obj
 0001:00033ea5       ___control87_sse2          04034ea5 f   LIBCMT:_ieee87_.obj
 0001:00034b0a       __getenv_s_helper          04035b0a f   LIBCMT:getenv.obj
 0001:00034b9f       __dupenv_s_helper          04035b9f f   LIBCMT:getenv.obj
 0001:0003587a       ?strncnt@@YAHPBDH@Z        0403687a f   LIBCMT:a_cmp.obj
 0001:00035898       ?__crtCompareStringA_stat@@YAHPAUlocaleinfo_struct@@KKPBDH1HH@Z 04036898 f   LIBCMT:a_cmp.obj
 0001:00035d6d       _findenv                   04036d6d f   LIBCMT:setenv.obj
 0001:00035dbf       _copy_environ              04036dbf f   LIBCMT:setenv.obj
 0001:000365b9       _xtoa@16                   040375b9 f   LIBCMT:xtoa.obj
 0001:00036668       @x64toa@20                 04037668 f   LIBCMT:xtoa.obj
 0001:00036730       __unwindfunclet$?WriteOut@@YAXPAD@Z$0 04037730 f   MQ2EQBC.obj
 0001:0003673c       __ehhandler$?WriteOut@@YAXPAD@Z 0403773c f   MQ2EQBC.obj
 0001:00036750       __unwindfunclet$??0CCustomWnd@MQ2Internal@@QAE@PAVCXStr@EQClasses@@@Z$0 04037750 f   MQ2EQBC.obj
 0001:00036759       __ehhandler$??0CCustomWnd@MQ2Internal@@QAE@PAVCXStr@EQClasses@@@Z 04037759 f   MQ2EQBC.obj
 0001:00036770       __unwindfunclet$??0?$basic_streambuf@DU?$char_traits@D@std@@@std@@IAE@XZ$0 04037770 f   MQ2EQBC.obj
 0001:0003677b       __ehhandler$??0?$basic_streambuf@DU?$char_traits@D@std@@@std@@IAE@XZ 0403777b f   MQ2EQBC.obj
 0001:00036790       __ehhandler$?_Init@?$numpunct@D@std@@IAEXABV_Locinfo@2@_N@Z 04037790 f   MQ2EQBC.obj
 0001:000367a0       __unwindfunclet$??1?$basic_istringstream@DU?$char_traits@D@std@@V?$allocator@D@2@@std@@UAE@XZ$0 040377a0 f   MQ2EQBC.obj
 0001:000367ab       __ehhandler$??1?$basic_istringstream@DU?$char_traits@D@std@@V?$allocator@D@2@@std@@UAE@XZ 040377ab f   MQ2EQBC.obj
 0001:000367c0       __ehhandler$?_Copy@?$basic_string@DU?$char_traits@D@std@@V?$allocator@D@2@@std@@IAEXII@Z 040377c0 f   MQ2EQBC.obj
 0001:000367d0       __unwindfunclet$??0?$numpunct@D@std@@QAE@ABV_Locinfo@1@I_N@Z$0 040377d0 f   MQ2EQBC.obj
 0001:000367d8       __ehhandler$??0?$numpunct@D@std@@QAE@ABV_Locinfo@1@I_N@Z 040377d8 f   MQ2EQBC.obj
 0001:000367f0       __unwindfunclet$??0?$basic_stringbuf@DU?$char_traits@D@std@@V?$allocator@D@2@@std@@QAE@ABV?$basic_string@DU?$char_traits@D@std@@V?$allocator@D@2@@1@H@Z$0 040377f0 f   MQ2EQBC.obj
 0001:000367f8       __ehhandler$??0?$basic_stringbuf@DU?$char_traits@D@std@@V?$allocator@D@2@@std@@QAE@ABV?$basic_string@DU?$char_traits@D@std@@V?$allocator@D@2@@1@H@Z 040377f8 f   MQ2EQBC.obj
 0001:00036810       __unwindfunclet$??0_Locinfo@std@@QAE@ABV?$basic_string@DU?$char_traits@D@std@@V?$allocator@D@2@@1@@Z$0 04037810 f   MQ2EQBC.obj
 0001:00036818       __unwindfunclet$??0_Locinfo@std@@QAE@ABV?$basic_string@DU?$char_traits@D@std@@V?$allocator@D@2@@1@@Z$1 04037818 f   MQ2EQBC.obj
 0001:00036823       __unwindfunclet$??0_Locinfo@std@@QAE@ABV?$basic_string@DU?$char_traits@D@std@@V?$allocator@D@2@@1@@Z$2 04037823 f   MQ2EQBC.obj
 0001:0003682e       __unwindfunclet$??0_Locinfo@std@@QAE@ABV?$basic_string@DU?$char_traits@D@std@@V?$allocator@D@2@@1@@Z$3 0403782e f   MQ2EQBC.obj
 0001:00036839       __unwindfunclet$??0_Locinfo@std@@QAE@ABV?$basic_string@DU?$char_traits@D@std@@V?$allocator@D@2@@1@@Z$4 04037839 f   MQ2EQBC.obj
 0001:00036844       __ehhandler$??0_Locinfo@std@@QAE@ABV?$basic_string@DU?$char_traits@D@std@@V?$allocator@D@2@@1@@Z 04037844 f   MQ2EQBC.obj
 0001:00036850       __unwindfunclet$??1_Locinfo@std@@QAE@XZ$0 04037850 f   MQ2EQBC.obj
 0001:00036858       __unwindfunclet$??1_Locinfo@std@@QAE@XZ$1 04037858 f   MQ2EQBC.obj
 0001:00036863       __unwindfunclet$??1_Locinfo@std@@QAE@XZ$2 04037863 f   MQ2EQBC.obj
 0001:0003686e       __unwindfunclet$??1_Locinfo@std@@QAE@XZ$3 0403786e f   MQ2EQBC.obj
 0001:00036879       __unwindfunclet$??1_Locinfo@std@@QAE@XZ$4 04037879 f   MQ2EQBC.obj
 0001:00036884       __ehhandler$??1_Locinfo@std@@QAE@XZ 04037884 f   MQ2EQBC.obj
 0001:00036890       __unwindfunclet$?StringIsBool@@YA_NV?$basic_string@DU?$char_traits@D@std@@V?$allocator@D@2@@std@@@Z$0 04037890 f   MQ2EQBC.obj
 0001:00036898       __ehhandler$?StringIsBool@@YA_NV?$basic_string@DU?$char_traits@D@std@@V?$allocator@D@2@@std@@@Z 04037898 f   MQ2EQBC.obj
 0001:000368b0       __unwindfunclet$?StringToBool@@YA_NV?$basic_string@DU?$char_traits@D@std@@V?$allocator@D@2@@std@@@Z$0 040378b0 f   MQ2EQBC.obj
 0001:000368b8       __ehhandler$?StringToBool@@YA_NV?$basic_string@DU?$char_traits@D@std@@V?$allocator@D@2@@std@@@Z 040378b8 f   MQ2EQBC.obj
 0001:000368d0       __unwindfunclet$??$_Getloctxt@DV?$istreambuf_iterator@DU?$char_traits@D@std@@@std@@@std@@YAHAAV?$istreambuf_iterator@DU?$char_traits@D@std@@@0@0IPBD@Z$0 040378d0 f   MQ2EQBC.obj
 0001:000368d8       __ehhandler$??$_Getloctxt@DV?$istreambuf_iterator@DU?$char_traits@D@std@@@std@@@std@@YAHAAV?$istreambuf_iterator@DU?$char_traits@D@std@@@0@0IPBD@Z 040378d8 f   MQ2EQBC.obj
 0001:000368f0       __unwindfunclet$??0?$pair@$$CBV?$basic_string@DU?$char_traits@D@std@@V?$allocator@D@2@@std@@V12@@std@@QAE@ABU01@@Z$0 040378f0 f   MQ2EQBC.obj
 0001:000368f8       __ehhandler$??0?$pair@$$CBV?$basic_string@DU?$char_traits@D@std@@V?$allocator@D@2@@std@@V12@@std@@QAE@ABU01@@Z 040378f8 f   MQ2EQBC.obj
 0001:00036910       __unwindfunclet$??$?0V?$basic_string@DU?$char_traits@D@std@@V?$allocator@D@2@@std@@V01@@?$pair@$$CBV?$basic_string@DU?$char_traits@D@std@@V?$allocator@D@2@@std@@V12@@std@@QAE@ABU?$pair@V?$basic_string@DU?$char_traits@D@std@@V?$allocator@D@2@@std@@V12@@1@@Z$0 04037910 f   MQ2EQBC.obj
 0001:00036918       __ehhandler$??$?0V?$basic_string@DU?$char_traits@D@std@@V?$allocator@D@2@@std@@V01@@?$pair@$$CBV?$basic_string@DU?$char_traits@D@std@@V?$allocator@D@2@@std@@V12@@std@@QAE@ABU?$pair@V?$basic_string@DU?$char_traits@D@std@@V?$allocator@D@2@@std@@V12@@1@@Z 04037918 f   MQ2EQBC.obj
 0001:00036930       __unwindfunclet$??$_Construct@V?$basic_string@DU?$char_traits@D@std@@V?$allocator@D@2@@std@@V12@@std@@YAXPAV?$basic_string@DU?$char_traits@D@std@@V?$allocator@D@2@@0@ABV10@@Z$0 04037930 f   MQ2EQBC.obj
 0001:00036941       __ehhandler$??$_Construct@V?$basic_string@DU?$char_traits@D@std@@V?$allocator@D@2@@std@@V12@@std@@YAXPAV?$basic_string@DU?$char_traits@D@std@@V?$allocator@D@2@@0@ABV10@@Z 04037941 f   MQ2EQBC.obj
 0001:00036950       __unwindfunclet$??0logic_error@std@@QAE@ABV?$basic_string@DU?$char_traits@D@std@@V?$allocator@D@2@@1@@Z$0 04037950 f   MQ2EQBC.obj
 0001:00036958       __ehhandler$??0logic_error@std@@QAE@ABV?$basic_string@DU?$char_traits@D@std@@V?$allocator@D@2@@1@@Z 04037958 f   MQ2EQBC.obj
 0001:00036970       __unwindfunclet$??0runtime_error@std@@QAE@ABV?$basic_string@DU?$char_traits@D@std@@V?$allocator@D@2@@1@@Z$0 04037970 f   MQ2EQBC.obj
 0001:00036978       __ehhandler$??0runtime_error@std@@QAE@ABV?$basic_string@DU?$char_traits@D@std@@V?$allocator@D@2@@1@@Z 04037978 f   MQ2EQBC.obj
 0001:00036990       __unwindfunclet$?_Getcat@?$ctype@D@std@@SAIPAPBVfacet@locale@2@PBV42@@Z$0 04037990 f   MQ2EQBC.obj
 0001:0003699e       __unwindfunclet$?_Getcat@?$ctype@D@std@@SAIPAPBVfacet@locale@2@PBV42@@Z$1 0403799e f   MQ2EQBC.obj
 0001:000369c0       __ehhandler$?_Getcat@?$ctype@D@std@@SAIPAPBVfacet@locale@2@PBV42@@Z 040379c0 f   MQ2EQBC.obj
 0001:000369d0       __unwindfunclet$??0?$_Tree@V?$_Tmap_traits@V?$basic_string@DU?$char_traits@D@std@@V?$allocator@D@2@@std@@KU?$less@V?$basic_string@DU?$char_traits@D@std@@V?$allocator@D@2@@std@@@2@V?$allocator@U?$pair@$$CBV?$basic_string@DU?$char_traits@D@std@@V?$allocator@D@2@@std@@K@std@@@2@$0A@@std@@@std@@QAE@ABU?$less@V?$basic_string@DU?$char_traits@D@std@@V?$allocator@D@2@@std@@@1@ABV?$allocator@U?$pair@$$CBV?$basic_string@DU?$char_traits@D@std@@V?$allocator@D@2@@std@@K@std@@@1@@Z$0 040379d0 f   MQ2EQBC.obj
 0001:000369d8       __ehhandler$??0?$_Tree@V?$_Tmap_traits@V?$basic_string@DU?$char_traits@D@std@@V?$allocator@D@2@@std@@KU?$less@V?$basic_string@DU?$char_traits@D@std@@V?$allocator@D@2@@std@@@2@V?$allocator@U?$pair@$$CBV?$basic_string@DU?$char_traits@D@std@@V?$allocator@D@2@@std@@K@std@@@2@$0A@@std@@@std@@QAE@ABU?$less@V?$basic_string@DU?$char_traits@D@std@@V?$allocator@D@2@@std@@@1@ABV?$allocator@U?$pair@$$CBV?$basic_string@DU?$char_traits@D@std@@V?$allocator@D@2@@std@@K@std@@@1@@Z 040379d8 f   MQ2EQBC.obj
 0001:000369f0       __unwindfunclet$?_Xran@?$vector@V?$basic_string@DU?$char_traits@D@std@@V?$allocator@D@2@@std@@V?$allocator@V?$basic_string@DU?$char_traits@D@std@@V?$allocator@D@2@@std@@@2@@std@@KAXXZ$0 040379f0 f   MQ2EQBC.obj
 0001:000369f8       __ehhandler$?_Xran@?$vector@V?$basic_string@DU?$char_traits@D@std@@V?$allocator@D@2@@std@@V?$allocator@V?$basic_string@DU?$char_traits@D@std@@V?$allocator@D@2@@std@@@2@@std@@KAXXZ 040379f8 f   MQ2EQBC.obj
 0001:00036a10       __unwindfunclet$??0logic_error@std@@QAE@ABV01@@Z$0 04037a10 f   MQ2EQBC.obj
 0001:00036a18       __ehhandler$??0logic_error@std@@QAE@ABV01@@Z 04037a18 f   MQ2EQBC.obj
 0001:00036a30       __unwindfunclet$??0?$_Tree@V?$_Tmap_traits@V?$basic_string@DU?$char_traits@D@std@@V?$allocator@D@2@@std@@V12@U?$less@V?$basic_string@DU?$char_traits@D@std@@V?$allocator@D@2@@std@@@2@V?$allocator@U?$pair@$$CBV?$basic_string@DU?$char_traits@D@std@@V?$allocator@D@2@@std@@V12@@std@@@2@$0A@@std@@@std@@QAE@ABU?$less@V?$basic_string@DU?$char_traits@D@std@@V?$allocator@D@2@@std@@@1@ABV?$allocator@U?$pair@$$CBV?$basic_string@DU?$char_traits@D@std@@V?$allocator@D@2@@std@@V12@@std@@@1@@Z$0 04037a30 f   MQ2EQBC.obj
 0001:00036a38       __ehhandler$??0?$_Tree@V?$_Tmap_traits@V?$basic_string@DU?$char_traits@D@std@@V?$allocator@D@2@@std@@V12@U?$less@V?$basic_string@DU?$char_traits@D@std@@V?$allocator@D@2@@std@@@2@V?$allocator@U?$pair@$$CBV?$basic_string@DU?$char_traits@D@std@@V?$allocator@D@2@@std@@V12@@std@@@2@$0A@@std@@@std@@QAE@ABU?$less@V?$basic_string@DU?$char_traits@D@std@@V?$allocator@D@2@@std@@@1@ABV?$allocator@U?$pair@$$CBV?$basic_string@DU?$char_traits@D@std@@V?$allocator@D@2@@std@@V12@@std@@@1@@Z 04037a38 f   MQ2EQBC.obj
 0001:00036a50       __unwindfunclet$?_Xlen@?$vector@V?$basic_string@DU?$char_traits@D@std@@V?$allocator@D@2@@std@@V?$allocator@V?$basic_string@DU?$char_traits@D@std@@V?$allocator@D@2@@std@@@2@@std@@KAXXZ$0 04037a50 f   MQ2EQBC.obj
 0001:00036a58       __ehhandler$?_Xlen@?$vector@V?$basic_string@DU?$char_traits@D@std@@V?$allocator@D@2@@std@@V?$allocator@V?$basic_string@DU?$char_traits@D@std@@V?$allocator@D@2@@std@@@2@@std@@KAXXZ 04037a58 f   MQ2EQBC.obj
 0001:00036a70       __unwindfunclet$??$use_facet@V?$ctype@D@std@@@std@@YAABV?$ctype@D@0@ABVlocale@0@@Z$0 04037a70 f   MQ2EQBC.obj
 0001:00036a78       __ehhandler$??$use_facet@V?$ctype@D@std@@@std@@YAABV?$ctype@D@0@ABVlocale@0@@Z 04037a78 f   MQ2EQBC.obj
 0001:00036a90       __unwindfunclet$?_Getcat@?$num_get@DV?$istreambuf_iterator@DU?$char_traits@D@std@@@std@@@std@@SAIPAPBVfacet@locale@2@PBV42@@Z$0 04037a90 f   MQ2EQBC.obj
 0001:00036a9e       __unwindfunclet$?_Getcat@?$num_get@DV?$istreambuf_iterator@DU?$char_traits@D@std@@@std@@@std@@SAIPAPBVfacet@locale@2@PBV42@@Z$1 04037a9e f   MQ2EQBC.obj
 0001:00036ac0       __ehhandler$?_Getcat@?$num_get@DV?$istreambuf_iterator@DU?$char_traits@D@std@@@std@@@std@@SAIPAPBVfacet@locale@2@PBV42@@Z 04037ac0 f   MQ2EQBC.obj
 0001:00036ad0       __unwindfunclet$?_Getcat@?$numpunct@D@std@@SAIPAPBVfacet@locale@2@PBV42@@Z$0 04037ad0 f   MQ2EQBC.obj
 0001:00036ade       __unwindfunclet$?_Getcat@?$numpunct@D@std@@SAIPAPBVfacet@locale@2@PBV42@@Z$1 04037ade f   MQ2EQBC.obj
 0001:00036b00       __unwindfunclet$?_Getcat@?$numpunct@D@std@@SAIPAPBVfacet@locale@2@PBV42@@Z$2 04037b00 f   MQ2EQBC.obj
 0001:00036b1f       __ehhandler$?_Getcat@?$numpunct@D@std@@SAIPAPBVfacet@locale@2@PBV42@@Z 04037b1f f   MQ2EQBC.obj
 0001:00036b30       __unwindfunclet$?clear@ios_base@std@@QAEXH_N@Z$0 04037b30 f   MQ2EQBC.obj
 0001:00036b38       __unwindfunclet$?clear@ios_base@std@@QAEXH_N@Z$1 04037b38 f   MQ2EQBC.obj
 0001:00036b40       __unwindfunclet$?clear@ios_base@std@@QAEXH_N@Z$2 04037b40 f   MQ2EQBC.obj
 0001:00036b48       __ehhandler$?clear@ios_base@std@@QAEXH_N@Z 04037b48 f   MQ2EQBC.obj
 0001:00036b60       __unwindfunclet$??0runtime_error@std@@QAE@ABV01@@Z$0 04037b60 f   MQ2EQBC.obj
 0001:00036b68       __ehhandler$??0runtime_error@std@@QAE@ABV01@@Z 04037b68 f   MQ2EQBC.obj
 0001:00036b80       __unwindfunclet$?getValByVarName@@YA?AV?$basic_string@DU?$char_traits@D@std@@V?$allocator@D@2@@std@@V12@@Z$0 04037b80 f   MQ2EQBC.obj
 0001:00036b88       __ehhandler$?getValByVarName@@YA?AV?$basic_string@DU?$char_traits@D@std@@V?$allocator@D@2@@std@@V12@@Z 04037b88 f   MQ2EQBC.obj
 0001:00036ba0       __unwindfunclet$?GlobalVarExists@@YA_NPAD@Z$0 04037ba0 f   MQ2EQBC.obj
 0001:00036ba8       __ehhandler$?GlobalVarExists@@YA_NPAD@Z 04037ba8 f   MQ2EQBC.obj
 0001:00036bc0       __unwindfunclet$?setVar@MQ2GlobalVarType@@QAEXV?$basic_string@DU?$char_traits@D@std@@V?$allocator@D@2@@std@@@Z$0 04037bc0 f   MQ2EQBC.obj
 0001:00036bc8       __ehhandler$?setVar@MQ2GlobalVarType@@QAEXV?$basic_string@DU?$char_traits@D@std@@V?$allocator@D@2@@std@@@Z 04037bc8 f   MQ2EQBC.obj
 0001:00036be0       __unwindfunclet$?setVal@MQ2GlobalVarType@@QAEXV?$basic_string@DU?$char_traits@D@std@@V?$allocator@D@2@@std@@@Z$0 04037be0 f   MQ2EQBC.obj
 0001:00036be8       __ehhandler$?setVal@MQ2GlobalVarType@@QAEXV?$basic_string@DU?$char_traits@D@std@@V?$allocator@D@2@@std@@@Z 04037be8 f   MQ2EQBC.obj
 0001:00036c00       __unwindfunclet$?_Buynode@?$_Tree@V?$_Tmap_traits@V?$basic_string@DU?$char_traits@D@std@@V?$allocator@D@2@@std@@V12@U?$less@V?$basic_string@DU?$char_traits@D@std@@V?$allocator@D@2@@std@@@2@V?$allocator@U?$pair@$$CBV?$basic_string@DU?$char_traits@D@std@@V?$allocator@D@2@@std@@V12@@std@@@2@$0A@@std@@@std@@IAEPAU_Node@?$_Tree_nod@V?$_Tmap_traits@V?$basic_string@DU?$char_traits@D@std@@V?$allocator@D@2@@std@@V12@U?$less@V?$basic_string@DU?$char_traits@D@std@@V?$allocator@D@2@@std@@@2@V?$allocator@U?$pair@$$CBV?$basic_string@DU?$char_traits@D@std@@V?$allocator@D@2@@std@@V12@@std@@@2@$0A@@std@@@2@PAU342@00ABU?$pair@$$CBV?$basic_string@DU?$char_traits@D@std@@V?$allocator@D@2@@std@@V12@@2@D@Z$2 04037c00 f   MQ2EQBC.obj
 0001:00036c11       __ehhandler$?_Buynode@?$_Tree@V?$_Tmap_traits@V?$basic_string@DU?$char_traits@D@std@@V?$allocator@D@2@@std@@V12@U?$less@V?$basic_string@DU?$char_traits@D@std@@V?$allocator@D@2@@std@@@2@V?$allocator@U?$pair@$$CBV?$basic_string@DU?$char_traits@D@std@@V?$allocator@D@2@@std@@V12@@std@@@2@$0A@@std@@@std@@IAEPAU_Node@?$_Tree_nod@V?$_Tmap_traits@V?$basic_string@DU?$char_traits@D@std@@V?$allocator@D@2@@std@@V12@U?$less@V?$basic_string@DU?$char_traits@D@std@@V?$allocator@D@2@@std@@@2@V?$allocator@U?$pair@$$CBV?$basic_string@DU?$char_traits@D@std@@V?$allocator@D@2@@std@@V12@@std@@@2@$0A@@std@@@2@PAU342@00ABU?$pair@$$CBV?$basic_string@DU?$char_traits@D@std@@V?$allocator@D@2@@std@@V12@@2@D@Z 04037c11 f   MQ2EQBC.obj
 0001:00036c20       __unwindfunclet$?widen@?$basic_ios@DU?$char_traits@D@std@@@std@@QBEDD@Z$0 04037c20 f   MQ2EQBC.obj
 0001:00036c28       __ehhandler$?widen@?$basic_ios@DU?$char_traits@D@std@@@std@@QBEDD@Z 04037c28 f   MQ2EQBC.obj
 0001:00036c40       __unwindfunclet$?erase@?$_Tree@V?$_Tmap_traits@V?$basic_string@DU?$char_traits@D@std@@V?$allocator@D@2@@std@@KU?$less@V?$basic_string@DU?$char_traits@D@std@@V?$allocator@D@2@@std@@@2@V?$allocator@U?$pair@$$CBV?$basic_string@DU?$char_traits@D@std@@V?$allocator@D@2@@std@@K@std@@@2@$0A@@std@@@std@@QAE?AViterator@12@Vconst_iterator@12@@Z$0 04037c40 f   MQ2EQBC.obj
 0001:00036c48       __ehhandler$?erase@?$_Tree@V?$_Tmap_traits@V?$basic_string@DU?$char_traits@D@std@@V?$allocator@D@2@@std@@KU?$less@V?$basic_string@DU?$char_traits@D@std@@V?$allocator@D@2@@std@@@2@V?$allocator@U?$pair@$$CBV?$basic_string@DU?$char_traits@D@std@@V?$allocator@D@2@@std@@K@std@@@2@$0A@@std@@@std@@QAE?AViterator@12@Vconst_iterator@12@@Z 04037c48 f   MQ2EQBC.obj
 0001:00036c60       __unwindfunclet$?_Buynode@?$_Tree@V?$_Tmap_traits@V?$basic_string@DU?$char_traits@D@std@@V?$allocator@D@2@@std@@KU?$less@V?$basic_string@DU?$char_traits@D@std@@V?$allocator@D@2@@std@@@2@V?$allocator@U?$pair@$$CBV?$basic_string@DU?$char_traits@D@std@@V?$allocator@D@2@@std@@K@std@@@2@$0A@@std@@@std@@IAEPAU_Node@?$_Tree_nod@V?$_Tmap_traits@V?$basic_string@DU?$char_traits@D@std@@V?$allocator@D@2@@std@@KU?$less@V?$basic_string@DU?$char_traits@D@std@@V?$allocator@D@2@@std@@@2@V?$allocator@U?$pair@$$CBV?$basic_string@DU?$char_traits@D@std@@V?$allocator@D@2@@std@@K@std@@@2@$0A@@std@@@2@PAU342@00ABU?$pair@$$CBV?$basic_string@DU?$char_traits@D@std@@V?$allocator@D@2@@std@@K@2@D@Z$2 04037c60 f   MQ2EQBC.obj
 0001:00036c71       __ehhandler$?_Buynode@?$_Tree@V?$_Tmap_traits@V?$basic_string@DU?$char_traits@D@std@@V?$allocator@D@2@@std@@KU?$less@V?$basic_string@DU?$char_traits@D@std@@V?$allocator@D@2@@std@@@2@V?$allocator@U?$pair@$$CBV?$basic_string@DU?$char_traits@D@std@@V?$allocator@D@2@@std@@K@std@@@2@$0A@@std@@@std@@IAEPAU_Node@?$_Tree_nod@V?$_Tmap_traits@V?$basic_string@DU?$char_traits@D@std@@V?$allocator@D@2@@std@@KU?$less@V?$basic_string@DU?$char_traits@D@std@@V?$allocator@D@2@@std@@@2@V?$allocator@U?$pair@$$CBV?$basic_string@DU?$char_traits@D@std@@V?$allocator@D@2@@std@@K@std@@@2@$0A@@std@@@2@PAU342@00ABU?$pair@$$CBV?$basic_string@DU?$char_traits@D@std@@V?$allocator@D@2@@std@@K@2@D@Z 04037c71 f   MQ2EQBC.obj
 0001:00036c80       __unwindfunclet$??$use_facet@V?$num_get@DV?$istreambuf_iterator@DU?$char_traits@D@std@@@std@@@std@@@std@@YAABV?$num_get@DV?$istreambuf_iterator@DU?$char_traits@D@std@@@std@@@0@ABVlocale@0@@Z$0 04037c80 f   MQ2EQBC.obj
 0001:00036c88       __ehhandler$??$use_facet@V?$num_get@DV?$istreambuf_iterator@DU?$char_traits@D@std@@@std@@@std@@@std@@YAABV?$num_get@DV?$istreambuf_iterator@DU?$char_traits@D@std@@@std@@@0@ABVlocale@0@@Z 04037c88 f   MQ2EQBC.obj
 0001:00036ca0       __unwindfunclet$??$use_facet@V?$numpunct@D@std@@@std@@YAABV?$numpunct@D@0@ABVlocale@0@@Z$0 04037ca0 f   MQ2EQBC.obj
 0001:00036ca8       __ehhandler$??$use_facet@V?$numpunct@D@std@@@std@@YAABV?$numpunct@D@0@ABVlocale@0@@Z 04037ca8 f   MQ2EQBC.obj
 0001:00036cc0       __unwindfunclet$??$_Uninit_fill_n@PAV?$basic_string@DU?$char_traits@D@std@@V?$allocator@D@2@@std@@IV12@V?$allocator@V?$basic_string@DU?$char_traits@D@std@@V?$allocator@D@2@@std@@@2@@std@@YAXPAV?$basic_string@DU?$char_traits@D@std@@V?$allocator@D@2@@0@IABV10@AAV?$allocator@V?$basic_string@DU?$char_traits@D@std@@V?$allocator@D@2@@std@@@0@U_Nonscalar_ptr_iterator_tag@0@U_Range_checked_iterator_tag@0@@Z$2 04037cc0 f   MQ2EQBC.obj
 0001:00036cd1       __ehhandler$??$_Uninit_fill_n@PAV?$basic_string@DU?$char_traits@D@std@@V?$allocator@D@2@@std@@IV12@V?$allocator@V?$basic_string@DU?$char_traits@D@std@@V?$allocator@D@2@@std@@@2@@std@@YAXPAV?$basic_string@DU?$char_traits@D@std@@V?$allocator@D@2@@0@IABV10@AAV?$allocator@V?$basic_string@DU?$char_traits@D@std@@V?$allocator@D@2@@std@@@0@U_Nonscalar_ptr_iterator_tag@0@U_Range_checked_iterator_tag@0@@Z 04037cd1 f   MQ2EQBC.obj
 0001:00036ce0       __unwindfunclet$??0?$vector@V?$basic_string@DU?$char_traits@D@std@@V?$allocator@D@2@@std@@V?$allocator@V?$basic_string@DU?$char_traits@D@std@@V?$allocator@D@2@@std@@@2@@std@@QAE@XZ$0 04037ce0 f   MQ2EQBC.obj
 0001:00036ce8       __ehhandler$??0?$vector@V?$basic_string@DU?$char_traits@D@std@@V?$allocator@D@2@@std@@V?$allocator@V?$basic_string@DU?$char_traits@D@std@@V?$allocator@D@2@@std@@@2@@std@@QAE@XZ 04037ce8 f   MQ2EQBC.obj
 0001:00036d00       __unwindfunclet$?erase@?$_Tree@V?$_Tmap_traits@V?$basic_string@DU?$char_traits@D@std@@V?$allocator@D@2@@std@@V12@U?$less@V?$basic_string@DU?$char_traits@D@std@@V?$allocator@D@2@@std@@@2@V?$allocator@U?$pair@$$CBV?$basic_string@DU?$char_traits@D@std@@V?$allocator@D@2@@std@@V12@@std@@@2@$0A@@std@@@std@@QAE?AViterator@12@Vconst_iterator@12@@Z$0 04037d00 f   MQ2EQBC.obj
 0001:00036d08       __ehhandler$?erase@?$_Tree@V?$_Tmap_traits@V?$basic_string@DU?$char_traits@D@std@@V?$allocator@D@2@@std@@V12@U?$less@V?$basic_string@DU?$char_traits@D@std@@V?$allocator@D@2@@std@@@2@V?$allocator@U?$pair@$$CBV?$basic_string@DU?$char_traits@D@std@@V?$allocator@D@2@@std@@V12@@std@@@2@$0A@@std@@@std@@QAE?AViterator@12@Vconst_iterator@12@@Z 04037d08 f   MQ2EQBC.obj
 0001:00036d20       __unwindfunclet$?_Insert@?$_Tree@V?$_Tmap_traits@V?$basic_string@DU?$char_traits@D@std@@V?$allocator@D@2@@std@@V12@U?$less@V?$basic_string@DU?$char_traits@D@std@@V?$allocator@D@2@@std@@@2@V?$allocator@U?$pair@$$CBV?$basic_string@DU?$char_traits@D@std@@V?$allocator@D@2@@std@@V12@@std@@@2@$0A@@std@@@std@@IAE?AViterator@12@_NPAU_Node@?$_Tree_nod@V?$_Tmap_traits@V?$basic_string@DU?$char_traits@D@std@@V?$allocator@D@2@@std@@V12@U?$less@V?$basic_string@DU?$char_traits@D@std@@V?$allocator@D@2@@std@@@2@V?$allocator@U?$pair@$$CBV?$basic_string@DU?$char_traits@D@std@@V?$allocator@D@2@@std@@V12@@std@@@2@$0A@@std@@@2@ABU?$pair@$$CBV?$basic_string@DU?$char_traits@D@std@@V?$allocator@D@2@@std@@V12@@2@@Z$0 04037d20 f   MQ2EQBC.obj
 0001:00036d28       __ehhandler$?_Insert@?$_Tree@V?$_Tmap_traits@V?$basic_string@DU?$char_traits@D@std@@V?$allocator@D@2@@std@@V12@U?$less@V?$basic_string@DU?$char_traits@D@std@@V?$allocator@D@2@@std@@@2@V?$allocator@U?$pair@$$CBV?$basic_string@DU?$char_traits@D@std@@V?$allocator@D@2@@std@@V12@@std@@@2@$0A@@std@@@std@@IAE?AViterator@12@_NPAU_Node@?$_Tree_nod@V?$_Tmap_traits@V?$basic_string@DU?$char_traits@D@std@@V?$allocator@D@2@@std@@V12@U?$less@V?$basic_string@DU?$char_traits@D@std@@V?$allocator@D@2@@std@@@2@V?$allocator@U?$pair@$$CBV?$basic_string@DU?$char_traits@D@std@@V?$allocator@D@2@@std@@V12@@std@@@2@$0A@@std@@@2@ABU?$pair@$$CBV?$basic_string@DU?$char_traits@D@std@@V?$allocator@D@2@@std@@V12@@2@@Z 04037d28 f   MQ2EQBC.obj
 0001:00036d40       __unwindfunclet$?_Insert@?$_Tree@V?$_Tmap_traits@V?$basic_string@DU?$char_traits@D@std@@V?$allocator@D@2@@std@@KU?$less@V?$basic_string@DU?$char_traits@D@std@@V?$allocator@D@2@@std@@@2@V?$allocator@U?$pair@$$CBV?$basic_string@DU?$char_traits@D@std@@V?$allocator@D@2@@std@@K@std@@@2@$0A@@std@@@std@@IAE?AViterator@12@_NPAU_Node@?$_Tree_nod@V?$_Tmap_traits@V?$basic_string@DU?$char_traits@D@std@@V?$allocator@D@2@@std@@KU?$less@V?$basic_string@DU?$char_traits@D@std@@V?$allocator@D@2@@std@@@2@V?$allocator@U?$pair@$$CBV?$basic_string@DU?$char_traits@D@std@@V?$allocator@D@2@@std@@K@std@@@2@$0A@@std@@@2@ABU?$pair@$$CBV?$basic_string@DU?$char_traits@D@std@@V?$allocator@D@2@@std@@K@2@@Z$0 04037d40 f   MQ2EQBC.obj
 0001:00036d48       __ehhandler$?_Insert@?$_Tree@V?$_Tmap_traits@V?$basic_string@DU?$char_traits@D@std@@V?$allocator@D@2@@std@@KU?$less@V?$basic_string@DU?$char_traits@D@std@@V?$allocator@D@2@@std@@@2@V?$allocator@U?$pair@$$CBV?$basic_string@DU?$char_traits@D@std@@V?$allocator@D@2@@std@@K@std@@@2@$0A@@std@@@std@@IAE?AViterator@12@_NPAU_Node@?$_Tree_nod@V?$_Tmap_traits@V?$basic_string@DU?$char_traits@D@std@@V?$allocator@D@2@@std@@KU?$less@V?$basic_string@DU?$char_traits@D@std@@V?$allocator@D@2@@std@@@2@V?$allocator@U?$pair@$$CBV?$basic_string@DU?$char_traits@D@std@@V?$allocator@D@2@@std@@K@std@@@2@$0A@@std@@@2@ABU?$pair@$$CBV?$basic_string@DU?$char_traits@D@std@@V?$allocator@D@2@@std@@K@2@@Z 04037d48 f   MQ2EQBC.obj
 0001:00036d60       __unwindfunclet$?_Getifld@?$num_get@DV?$istreambuf_iterator@DU?$char_traits@D@std@@@std@@@std@@ABAHPADAAV?$istreambuf_iterator@DU?$char_traits@D@std@@@2@1HABVlocale@2@@Z$0 04037d60 f   MQ2EQBC.obj
 0001:00036d68       __unwindfunclet$?_Getifld@?$num_get@DV?$istreambuf_iterator@DU?$char_traits@D@std@@@std@@@std@@ABAHPADAAV?$istreambuf_iterator@DU?$char_traits@D@std@@@2@1HABVlocale@2@@Z$1 04037d68 f   MQ2EQBC.obj
 0001:00036d70       __ehhandler$?_Getifld@?$num_get@DV?$istreambuf_iterator@DU?$char_traits@D@std@@@std@@@std@@ABAHPADAAV?$istreambuf_iterator@DU?$char_traits@D@std@@@2@1HABVlocale@2@@Z 04037d70 f   MQ2EQBC.obj
 0001:00036d80       __unwindfunclet$?_Getffld@?$num_get@DV?$istreambuf_iterator@DU?$char_traits@D@std@@@std@@@std@@ABAHPADAAV?$istreambuf_iterator@DU?$char_traits@D@std@@@2@1ABVlocale@2@@Z$0 04037d80 f   MQ2EQBC.obj
 0001:00036d88       __unwindfunclet$?_Getffld@?$num_get@DV?$istreambuf_iterator@DU?$char_traits@D@std@@@std@@@std@@ABAHPADAAV?$istreambuf_iterator@DU?$char_traits@D@std@@@2@1ABVlocale@2@@Z$1 04037d88 f   MQ2EQBC.obj
 0001:00036d90       __ehhandler$?_Getffld@?$num_get@DV?$istreambuf_iterator@DU?$char_traits@D@std@@@std@@@std@@ABAHPADAAV?$istreambuf_iterator@DU?$char_traits@D@std@@@2@1ABVlocale@2@@Z 04037d90 f   MQ2EQBC.obj
 0001:00036da0       __unwindfunclet$??$_Uninit_move@PAV?$basic_string@DU?$char_traits@D@std@@V?$allocator@D@2@@std@@PAV12@V?$allocator@V?$basic_string@DU?$char_traits@D@std@@V?$allocator@D@2@@std@@@2@@std@@YAPAV?$basic_string@DU?$char_traits@D@std@@V?$allocator@D@2@@0@PAV10@00AAV?$allocator@V?$basic_string@DU?$char_traits@D@std@@V?$allocator@D@2@@std@@@0@U_Swap_move_tag@0@U_Range_checked_iterator_tag@0@@Z$2 04037da0 f   MQ2EQBC.obj
 0001:00036da8       __unwindfunclet$??$_Uninit_move@PAV?$basic_string@DU?$char_traits@D@std@@V?$allocator@D@2@@std@@PAV12@V?$allocator@V?$basic_string@DU?$char_traits@D@std@@V?$allocator@D@2@@std@@@2@@std@@YAPAV?$basic_string@DU?$char_traits@D@std@@V?$allocator@D@2@@0@PAV10@00AAV?$allocator@V?$basic_string@DU?$char_traits@D@std@@V?$allocator@D@2@@std@@@0@U_Swap_move_tag@0@U_Range_checked_iterator_tag@0@@Z$3 04037da8 f   MQ2EQBC.obj
 0001:00036db9       __ehhandler$??$_Uninit_move@PAV?$basic_string@DU?$char_traits@D@std@@V?$allocator@D@2@@std@@PAV12@V?$allocator@V?$basic_string@DU?$char_traits@D@std@@V?$allocator@D@2@@std@@@2@@std@@YAPAV?$basic_string@DU?$char_traits@D@std@@V?$allocator@D@2@@0@PAV10@00AAV?$allocator@V?$basic_string@DU?$char_traits@D@std@@V?$allocator@D@2@@std@@@0@U_Swap_move_tag@0@U_Range_checked_iterator_tag@0@@Z 04037db9 f   MQ2EQBC.obj
 0001:00036dd0       __unwindfunclet$?deleteVarByName@@YA_NV?$basic_string@DU?$char_traits@D@std@@V?$allocator@D@2@@std@@_N@Z$0 04037dd0 f   MQ2EQBC.obj
 0001:00036dd8       __unwindfunclet$?deleteVarByName@@YA_NV?$basic_string@DU?$char_traits@D@std@@V?$allocator@D@2@@std@@_N@Z$1 04037dd8 f   MQ2EQBC.obj
 0001:00036de0       __unwindfunclet$?deleteVarByName@@YA_NV?$basic_string@DU?$char_traits@D@std@@V?$allocator@D@2@@std@@_N@Z$2 04037de0 f   MQ2EQBC.obj
 0001:00036de8       __unwindfunclet$?deleteVarByName@@YA_NV?$basic_string@DU?$char_traits@D@std@@V?$allocator@D@2@@std@@_N@Z$3 04037de8 f   MQ2EQBC.obj
 0001:00036df0       __ehhandler$?deleteVarByName@@YA_NV?$basic_string@DU?$char_traits@D@std@@V?$allocator@D@2@@std@@_N@Z 04037df0 f   MQ2EQBC.obj
 0001:00036e00       __unwindfunclet$??0?$basic_istream@DU?$char_traits@D@std@@@std@@QAE@PAV?$basic_streambuf@DU?$char_traits@D@std@@@1@_N@Z$0 04037e00 f   MQ2EQBC.obj
 0001:00036e1c       __ehhandler$??0?$basic_istream@DU?$char_traits@D@std@@@std@@QAE@PAV?$basic_streambuf@DU?$char_traits@D@std@@@1@_N@Z 04037e1c f   MQ2EQBC.obj
 0001:00036e30       __unwindfunclet$?_Ipfx@?$basic_istream@DU?$char_traits@D@std@@@std@@QAE_N_N@Z$2 04037e30 f   MQ2EQBC.obj
 0001:00036e38       __ehhandler$?_Ipfx@?$basic_istream@DU?$char_traits@D@std@@@std@@QAE_N_N@Z 04037e38 f   MQ2EQBC.obj
 0001:00036e50       __unwindfunclet$?do_get@?$num_get@DV?$istreambuf_iterator@DU?$char_traits@D@std@@@std@@@std@@MBE?AV?$istreambuf_iterator@DU?$char_traits@D@std@@@2@V32@0AAVios_base@2@AAHAA_N@Z$0 04037e50 f   MQ2EQBC.obj
 0001:00036e58       __unwindfunclet$?do_get@?$num_get@DV?$istreambuf_iterator@DU?$char_traits@D@std@@@std@@@std@@MBE?AV?$istreambuf_iterator@DU?$char_traits@D@std@@@2@V32@0AAVios_base@2@AAHAA_N@Z$1 04037e58 f   MQ2EQBC.obj
 0001:00036e60       __unwindfunclet$?do_get@?$num_get@DV?$istreambuf_iterator@DU?$char_traits@D@std@@@std@@@std@@MBE?AV?$istreambuf_iterator@DU?$char_traits@D@std@@@2@V32@0AAVios_base@2@AAHAA_N@Z$2 04037e60 f   MQ2EQBC.obj
 0001:00036e68       __unwindfunclet$?do_get@?$num_get@DV?$istreambuf_iterator@DU?$char_traits@D@std@@@std@@@std@@MBE?AV?$istreambuf_iterator@DU?$char_traits@D@std@@@2@V32@0AAVios_base@2@AAHAA_N@Z$3 04037e68 f   MQ2EQBC.obj
 0001:00036e70       __unwindfunclet$?do_get@?$num_get@DV?$istreambuf_iterator@DU?$char_traits@D@std@@@std@@@std@@MBE?AV?$istreambuf_iterator@DU?$char_traits@D@std@@@2@V32@0AAVios_base@2@AAHAA_N@Z$4 04037e70 f   MQ2EQBC.obj
 0001:00036e78       __ehhandler$?do_get@?$num_get@DV?$istreambuf_iterator@DU?$char_traits@D@std@@@std@@@std@@MBE?AV?$istreambuf_iterator@DU?$char_traits@D@std@@@2@V32@0AAVios_base@2@AAHAA_N@Z 04037e78 f   MQ2EQBC.obj
 0001:00036e90       __unwindfunclet$?do_get@?$num_get@DV?$istreambuf_iterator@DU?$char_traits@D@std@@@std@@@std@@MBE?AV?$istreambuf_iterator@DU?$char_traits@D@std@@@2@V32@0AAVios_base@2@AAHAAG@Z$0 04037e90 f   MQ2EQBC.obj
 0001:00036e98       __ehhandler$?do_get@?$num_get@DV?$istreambuf_iterator@DU?$char_traits@D@std@@@std@@@std@@MBE?AV?$istreambuf_iterator@DU?$char_traits@D@std@@@2@V32@0AAVios_base@2@AAHAAG@Z 04037e98 f   MQ2EQBC.obj
 0001:00036eb0       __unwindfunclet$?do_get@?$num_get@DV?$istreambuf_iterator@DU?$char_traits@D@std@@@std@@@std@@MBE?AV?$istreambuf_iterator@DU?$char_traits@D@std@@@2@V32@0AAVios_base@2@AAHAAI@Z$0 04037eb0 f   MQ2EQBC.obj
 0001:00036eb8       __ehhandler$?do_get@?$num_get@DV?$istreambuf_iterator@DU?$char_traits@D@std@@@std@@@std@@MBE?AV?$istreambuf_iterator@DU?$char_traits@D@std@@@2@V32@0AAVios_base@2@AAHAAI@Z 04037eb8 f   MQ2EQBC.obj
 0001:00036ed0       __unwindfunclet$?do_get@?$num_get@DV?$istreambuf_iterator@DU?$char_traits@D@std@@@std@@@std@@MBE?AV?$istreambuf_iterator@DU?$char_traits@D@std@@@2@V32@0AAVios_base@2@AAHAAJ@Z$0 04037ed0 f   MQ2EQBC.obj
 0001:00036ed8       __ehhandler$?do_get@?$num_get@DV?$istreambuf_iterator@DU?$char_traits@D@std@@@std@@@std@@MBE?AV?$istreambuf_iterator@DU?$char_traits@D@std@@@2@V32@0AAVios_base@2@AAHAAJ@Z 04037ed8 f   MQ2EQBC.obj
 0001:00036ef0       __unwindfunclet$?do_get@?$num_get@DV?$istreambuf_iterator@DU?$char_traits@D@std@@@std@@@std@@MBE?AV?$istreambuf_iterator@DU?$char_traits@D@std@@@2@V32@0AAVios_base@2@AAHAAK@Z$0 04037ef0 f   MQ2EQBC.obj
 0001:00036ef8       __ehhandler$?do_get@?$num_get@DV?$istreambuf_iterator@DU?$char_traits@D@std@@@std@@@std@@MBE?AV?$istreambuf_iterator@DU?$char_traits@D@std@@@2@V32@0AAVios_base@2@AAHAAK@Z 04037ef8 f   MQ2EQBC.obj
 0001:00036f10       __unwindfunclet$?do_get@?$num_get@DV?$istreambuf_iterator@DU?$char_traits@D@std@@@std@@@std@@MBE?AV?$istreambuf_iterator@DU?$char_traits@D@std@@@2@V32@0AAVios_base@2@AAHAA_J@Z$0 04037f10 f   MQ2EQBC.obj
 0001:00036f18       __ehhandler$?do_get@?$num_get@DV?$istreambuf_iterator@DU?$char_traits@D@std@@@std@@@std@@MBE?AV?$istreambuf_iterator@DU?$char_traits@D@std@@@2@V32@0AAVios_base@2@AAHAA_J@Z 04037f18 f   MQ2EQBC.obj
 0001:00036f30       __unwindfunclet$?do_get@?$num_get@DV?$istreambuf_iterator@DU?$char_traits@D@std@@@std@@@std@@MBE?AV?$istreambuf_iterator@DU?$char_traits@D@std@@@2@V32@0AAVios_base@2@AAHAA_K@Z$0 04037f30 f   MQ2EQBC.obj
 0001:00036f38       __ehhandler$?do_get@?$num_get@DV?$istreambuf_iterator@DU?$char_traits@D@std@@@std@@@std@@MBE?AV?$istreambuf_iterator@DU?$char_traits@D@std@@@2@V32@0AAVios_base@2@AAHAA_K@Z 04037f38 f   MQ2EQBC.obj
 0001:00036f50       __unwindfunclet$?do_get@?$num_get@DV?$istreambuf_iterator@DU?$char_traits@D@std@@@std@@@std@@MBE?AV?$istreambuf_iterator@DU?$char_traits@D@std@@@2@V32@0AAVios_base@2@AAHAAM@Z$0 04037f50 f   MQ2EQBC.obj
 0001:00036f58       __ehhandler$?do_get@?$num_get@DV?$istreambuf_iterator@DU?$char_traits@D@std@@@std@@@std@@MBE?AV?$istreambuf_iterator@DU?$char_traits@D@std@@@2@V32@0AAVios_base@2@AAHAAM@Z 04037f58 f   MQ2EQBC.obj
 0001:00036f70       __unwindfunclet$?do_get@?$num_get@DV?$istreambuf_iterator@DU?$char_traits@D@std@@@std@@@std@@MBE?AV?$istreambuf_iterator@DU?$char_traits@D@std@@@2@V32@0AAVios_base@2@AAHAAN@Z$0 04037f70 f   MQ2EQBC.obj
 0001:00036f78       __ehhandler$?do_get@?$num_get@DV?$istreambuf_iterator@DU?$char_traits@D@std@@@std@@@std@@MBE?AV?$istreambuf_iterator@DU?$char_traits@D@std@@@2@V32@0AAVios_base@2@AAHAAN@Z 04037f78 f   MQ2EQBC.obj
 0001:00036f90       __unwindfunclet$?do_get@?$num_get@DV?$istreambuf_iterator@DU?$char_traits@D@std@@@std@@@std@@MBE?AV?$istreambuf_iterator@DU?$char_traits@D@std@@@2@V32@0AAVios_base@2@AAHAAO@Z$0 04037f90 f   MQ2EQBC.obj
 0001:00036f98       __ehhandler$?do_get@?$num_get@DV?$istreambuf_iterator@DU?$char_traits@D@std@@@std@@@std@@MBE?AV?$istreambuf_iterator@DU?$char_traits@D@std@@@2@V32@0AAVios_base@2@AAHAAO@Z 04037f98 f   MQ2EQBC.obj
 0001:00036fb0       __unwindfunclet$?do_get@?$num_get@DV?$istreambuf_iterator@DU?$char_traits@D@std@@@std@@@std@@MBE?AV?$istreambuf_iterator@DU?$char_traits@D@std@@@2@V32@0AAVios_base@2@AAHAAPAX@Z$0 04037fb0 f   MQ2EQBC.obj
 0001:00036fb8       __ehhandler$?do_get@?$num_get@DV?$istreambuf_iterator@DU?$char_traits@D@std@@@std@@@std@@MBE?AV?$istreambuf_iterator@DU?$char_traits@D@std@@@2@V32@0AAVios_base@2@AAHAAPAX@Z 04037fb8 f   MQ2EQBC.obj
 0001:00036fd0       __unwindfunclet$?setValByVarName@@YAXV?$basic_string@DU?$char_traits@D@std@@V?$allocator@D@2@@std@@0_N@Z$0 04037fd0 f   MQ2EQBC.obj
 0001:00036fd8       __unwindfunclet$?setValByVarName@@YAXV?$basic_string@DU?$char_traits@D@std@@V?$allocator@D@2@@std@@0_N@Z$1 04037fd8 f   MQ2EQBC.obj
 0001:00036fe0       __unwindfunclet$?setValByVarName@@YAXV?$basic_string@DU?$char_traits@D@std@@V?$allocator@D@2@@std@@0_N@Z$2 04037fe0 f   MQ2EQBC.obj
 0001:00036fe8       __unwindfunclet$?setValByVarName@@YAXV?$basic_string@DU?$char_traits@D@std@@V?$allocator@D@2@@std@@0_N@Z$3 04037fe8 f   MQ2EQBC.obj
 0001:00036ff0       __unwindfunclet$?setValByVarName@@YAXV?$basic_string@DU?$char_traits@D@std@@V?$allocator@D@2@@std@@0_N@Z$4 04037ff0 f   MQ2EQBC.obj
 0001:00036ffb       __unwindfunclet$?setValByVarName@@YAXV?$basic_string@DU?$char_traits@D@std@@V?$allocator@D@2@@std@@0_N@Z$5 04037ffb f   MQ2EQBC.obj
 0001:00037003       __ehhandler$?setValByVarName@@YAXV?$basic_string@DU?$char_traits@D@std@@V?$allocator@D@2@@std@@0_N@Z 04038003 f   MQ2EQBC.obj
 0001:00037010       __unwindfunclet$?declareVar@@YAXV?$basic_string@DU?$char_traits@D@std@@V?$allocator@D@2@@std@@@Z$0 04038010 f   MQ2EQBC.obj
 0001:00037018       __unwindfunclet$?declareVar@@YAXV?$basic_string@DU?$char_traits@D@std@@V?$allocator@D@2@@std@@@Z$1 04038018 f   MQ2EQBC.obj
 0001:00037023       __unwindfunclet$?declareVar@@YAXV?$basic_string@DU?$char_traits@D@std@@V?$allocator@D@2@@std@@@Z$2 04038023 f   MQ2EQBC.obj
 0001:0003702e       __unwindfunclet$?declareVar@@YAXV?$basic_string@DU?$char_traits@D@std@@V?$allocator@D@2@@std@@@Z$3 0403802e f   MQ2EQBC.obj
 0001:00037036       __unwindfunclet$?declareVar@@YAXV?$basic_string@DU?$char_traits@D@std@@V?$allocator@D@2@@std@@@Z$4 04038036 f   MQ2EQBC.obj
 0001:0003703e       __unwindfunclet$?declareVar@@YAXV?$basic_string@DU?$char_traits@D@std@@V?$allocator@D@2@@std@@@Z$5 0403803e f   MQ2EQBC.obj
 0001:00037046       __ehhandler$?declareVar@@YAXV?$basic_string@DU?$char_traits@D@std@@V?$allocator@D@2@@std@@@Z 04038046 f   MQ2EQBC.obj
 0001:00037050       __unwindfunclet$?HandleGlobalVar@@YAXV?$basic_string@DU?$char_traits@D@std@@V?$allocator@D@2@@std@@@Z$0 04038050 f   MQ2EQBC.obj
 0001:00037058       __unwindfunclet$?HandleGlobalVar@@YAXV?$basic_string@DU?$char_traits@D@std@@V?$allocator@D@2@@std@@@Z$1 04038058 f   MQ2EQBC.obj
 0001:00037060       __unwindfunclet$?HandleGlobalVar@@YAXV?$basic_string@DU?$char_traits@D@std@@V?$allocator@D@2@@std@@@Z$2 04038060 f   MQ2EQBC.obj
 0001:00037068       __unwindfunclet$?HandleGlobalVar@@YAXV?$basic_string@DU?$char_traits@D@std@@V?$allocator@D@2@@std@@@Z$3 04038068 f   MQ2EQBC.obj
 0001:00037073       __unwindfunclet$?HandleGlobalVar@@YAXV?$basic_string@DU?$char_traits@D@std@@V?$allocator@D@2@@std@@@Z$4 04038073 f   MQ2EQBC.obj
 0001:0003707b       __unwindfunclet$?HandleGlobalVar@@YAXV?$basic_string@DU?$char_traits@D@std@@V?$allocator@D@2@@std@@@Z$5 0403807b f   MQ2EQBC.obj
 0001:00037086       __ehhandler$?HandleGlobalVar@@YAXV?$basic_string@DU?$char_traits@D@std@@V?$allocator@D@2@@std@@@Z 04038086 f   MQ2EQBC.obj
 0001:00037090       __unwindfunclet$??0sentry@?$basic_istream@DU?$char_traits@D@std@@@std@@QAE@AAV12@_N@Z$0 04038090 f   MQ2EQBC.obj
 0001:00037098       __ehhandler$??0sentry@?$basic_istream@DU?$char_traits@D@std@@@std@@QAE@AAV12@_N@Z 04038098 f   MQ2EQBC.obj
 0001:000370b0       __unwindfunclet$??0?$basic_istringstream@DU?$char_traits@D@std@@V?$allocator@D@2@@std@@QAE@ABV?$basic_string@DU?$char_traits@D@std@@V?$allocator@D@2@@1@H@Z$0 040380b0 f   MQ2EQBC.obj
 0001:000370cc       __unwindfunclet$??0?$basic_istringstream@DU?$char_traits@D@std@@V?$allocator@D@2@@std@@QAE@ABV?$basic_string@DU?$char_traits@D@std@@V?$allocator@D@2@@1@H@Z$1 040380cc f   MQ2EQBC.obj
 0001:000370d7       __ehhandler$??0?$basic_istringstream@DU?$char_traits@D@std@@V?$allocator@D@2@@std@@QAE@ABV?$basic_string@DU?$char_traits@D@std@@V?$allocator@D@2@@1@H@Z 040380d7 f   MQ2EQBC.obj
 0001:000370f0       __unwindfunclet$?HandleIncomingString@@YAXPAD@Z$0 040380f0 f   MQ2EQBC.obj
 0001:000370fb       __ehhandler$?HandleIncomingString@@YAXPAD@Z 040380fb f   MQ2EQBC.obj
 0001:00037110       __unwindfunclet$??5?$basic_istream@DU?$char_traits@D@std@@@std@@QAEAAV01@AAH@Z$2 04038110 f   MQ2EQBC.obj
 0001:00037118       __unwindfunclet$??5?$basic_istream@DU?$char_traits@D@std@@@std@@QAEAAV01@AAH@Z$3 04038118 f   MQ2EQBC.obj
 0001:00037120       __ehhandler$??5?$basic_istream@DU?$char_traits@D@std@@@std@@QAEAAV01@AAH@Z 04038120 f   MQ2EQBC.obj
 0001:00037130       __unwindfunclet$??5?$basic_istream@DU?$char_traits@D@std@@@std@@QAEAAV01@AAM@Z$2 04038130 f   MQ2EQBC.obj
 0001:00037138       __unwindfunclet$??5?$basic_istream@DU?$char_traits@D@std@@@std@@QAEAAV01@AAM@Z$3 04038138 f   MQ2EQBC.obj
 0001:00037140       __ehhandler$??5?$basic_istream@DU?$char_traits@D@std@@@std@@QAEAAV01@AAM@Z 04038140 f   MQ2EQBC.obj
 0001:00037150       __unwindfunclet$??A?$map@V?$basic_string@DU?$char_traits@D@std@@V?$allocator@D@2@@std@@KU?$less@V?$basic_string@DU?$char_traits@D@std@@V?$allocator@D@2@@std@@@2@V?$allocator@U?$pair@$$CBV?$basic_string@DU?$char_traits@D@std@@V?$allocator@D@2@@std@@K@std@@@2@@std@@QAEAAKABV?$basic_string@DU?$char_traits@D@std@@V?$allocator@D@2@@1@@Z$0 04038150 f   MQ2EQBC.obj
 0001:00037158       __ehhandler$??A?$map@V?$basic_string@DU?$char_traits@D@std@@V?$allocator@D@2@@std@@KU?$less@V?$basic_string@DU?$char_traits@D@std@@V?$allocator@D@2@@std@@@2@V?$allocator@U?$pair@$$CBV?$basic_string@DU?$char_traits@D@std@@V?$allocator@D@2@@std@@K@std@@@2@@std@@QAEAAKABV?$basic_string@DU?$char_traits@D@std@@V?$allocator@D@2@@1@@Z 04038158 f   MQ2EQBC.obj
 0001:00037170       __unwindfunclet$??1?$_Tree@V?$_Tmap_traits@V?$basic_string@DU?$char_traits@D@std@@V?$allocator@D@2@@std@@KU?$less@V?$basic_string@DU?$char_traits@D@std@@V?$allocator@D@2@@std@@@2@V?$allocator@U?$pair@$$CBV?$basic_string@DU?$char_traits@D@std@@V?$allocator@D@2@@std@@K@std@@@2@$0A@@std@@@std@@QAE@XZ$0 04038170 f   MQ2EQBC.obj
 0001:00037178       __ehhandler$??1?$_Tree@V?$_Tmap_traits@V?$basic_string@DU?$char_traits@D@std@@V?$allocator@D@2@@std@@KU?$less@V?$basic_string@DU?$char_traits@D@std@@V?$allocator@D@2@@std@@@2@V?$allocator@U?$pair@$$CBV?$basic_string@DU?$char_traits@D@std@@V?$allocator@D@2@@std@@K@std@@@2@$0A@@std@@@std@@QAE@XZ 04038178 f   MQ2EQBC.obj
 0001:00037190       __unwindfunclet$??1?$_Tree@V?$_Tmap_traits@V?$basic_string@DU?$char_traits@D@std@@V?$allocator@D@2@@std@@V12@U?$less@V?$basic_string@DU?$char_traits@D@std@@V?$allocator@D@2@@std@@@2@V?$allocator@U?$pair@$$CBV?$basic_string@DU?$char_traits@D@std@@V?$allocator@D@2@@std@@V12@@std@@@2@$0A@@std@@@std@@QAE@XZ$0 04038190 f   MQ2EQBC.obj
 0001:00037198       __ehhandler$??1?$_Tree@V?$_Tmap_traits@V?$basic_string@DU?$char_traits@D@std@@V?$allocator@D@2@@std@@V12@U?$less@V?$basic_string@DU?$char_traits@D@std@@V?$allocator@D@2@@std@@@2@V?$allocator@U?$pair@$$CBV?$basic_string@DU?$char_traits@D@std@@V?$allocator@D@2@@std@@V12@@std@@@2@$0A@@std@@@std@@QAE@XZ 04038198 f   MQ2EQBC.obj
 0001:000371b0       __unwindfunclet$?_Insert_n@?$vector@V?$basic_string@DU?$char_traits@D@std@@V?$allocator@D@2@@std@@V?$allocator@V?$basic_string@DU?$char_traits@D@std@@V?$allocator@D@2@@std@@@2@@std@@IAEXV?$_Vector_const_iterator@V?$basic_string@DU?$char_traits@D@std@@V?$allocator@D@2@@std@@V?$allocator@V?$basic_string@DU?$char_traits@D@std@@V?$allocator@D@2@@std@@@2@@2@IABV?$basic_string@DU?$char_traits@D@std@@V?$allocator@D@2@@2@@Z$4 040381b0 f   MQ2EQBC.obj
 0001:000371b8       __unwindfunclet$?_Insert_n@?$vector@V?$basic_string@DU?$char_traits@D@std@@V?$allocator@D@2@@std@@V?$allocator@V?$basic_string@DU?$char_traits@D@std@@V?$allocator@D@2@@std@@@2@@std@@IAEXV?$_Vector_const_iterator@V?$basic_string@DU?$char_traits@D@std@@V?$allocator@D@2@@std@@V?$allocator@V?$basic_string@DU?$char_traits@D@std@@V?$allocator@D@2@@std@@@2@@2@IABV?$basic_string@DU?$char_traits@D@std@@V?$allocator@D@2@@2@@Z$5 040381b8 f   MQ2EQBC.obj
 0001:000371c0       __ehhandler$?_Insert_n@?$vector@V?$basic_string@DU?$char_traits@D@std@@V?$allocator@D@2@@std@@V?$allocator@V?$basic_string@DU?$char_traits@D@std@@V?$allocator@D@2@@std@@@2@@std@@IAEXV?$_Vector_const_iterator@V?$basic_string@DU?$char_traits@D@std@@V?$allocator@D@2@@std@@V?$allocator@V?$basic_string@DU?$char_traits@D@std@@V?$allocator@D@2@@std@@@2@@2@IABV?$basic_string@DU?$char_traits@D@std@@V?$allocator@D@2@@2@@Z 040381c0 f   MQ2EQBC.obj
 0001:000371d0       __unwindfunclet$?FindMember@MQ2Type@MQ2Internal@@QAEPAU_MQ2TypeMember@2@PAD@Z$0 040381d0 f   MQ2EQBC.obj
 0001:000371d8       __ehhandler$?FindMember@MQ2Type@MQ2Internal@@QAEPAU_MQ2TypeMember@2@PAD@Z 040381d8 f   MQ2EQBC.obj
 0001:000371f0       __unwindfunclet$?AddMember@MQ2Type@MQ2Internal@@IAEHKPAD@Z$0 040381f0 f   MQ2EQBC.obj
 0001:000371f8       __unwindfunclet$?AddMember@MQ2Type@MQ2Internal@@IAEHKPAD@Z$1 040381f8 f   MQ2EQBC.obj
 0001:00037200       __ehhandler$?AddMember@MQ2Type@MQ2Internal@@IAEHKPAD@Z 04038200 f   MQ2EQBC.obj
 0001:00037210       __unwindfunclet$?StringIsInt@@YA_NV?$basic_string@DU?$char_traits@D@std@@V?$allocator@D@2@@std@@@Z$0 04038210 f   MQ2EQBC.obj
 0001:00037218       __unwindfunclet$?StringIsInt@@YA_NV?$basic_string@DU?$char_traits@D@std@@V?$allocator@D@2@@std@@@Z$1 04038218 f   MQ2EQBC.obj
 0001:00037223       __ehhandler$?StringIsInt@@YA_NV?$basic_string@DU?$char_traits@D@std@@V?$allocator@D@2@@std@@@Z 04038223 f   MQ2EQBC.obj
 0001:00037230       __unwindfunclet$?StringToInt@@YAHV?$basic_string@DU?$char_traits@D@std@@V?$allocator@D@2@@std@@@Z$0 04038230 f   MQ2EQBC.obj
 0001:00037238       __unwindfunclet$?StringToInt@@YAHV?$basic_string@DU?$char_traits@D@std@@V?$allocator@D@2@@std@@@Z$1 04038238 f   MQ2EQBC.obj
 0001:00037243       __ehhandler$?StringToInt@@YAHV?$basic_string@DU?$char_traits@D@std@@V?$allocator@D@2@@std@@@Z 04038243 f   MQ2EQBC.obj
 0001:00037250       __unwindfunclet$?StringIsFloat@@YA_NV?$basic_string@DU?$char_traits@D@std@@V?$allocator@D@2@@std@@@Z$0 04038250 f   MQ2EQBC.obj
 0001:00037258       __unwindfunclet$?StringIsFloat@@YA_NV?$basic_string@DU?$char_traits@D@std@@V?$allocator@D@2@@std@@@Z$1 04038258 f   MQ2EQBC.obj
 0001:00037263       __ehhandler$?StringIsFloat@@YA_NV?$basic_string@DU?$char_traits@D@std@@V?$allocator@D@2@@std@@@Z 04038263 f   MQ2EQBC.obj
 0001:00037270       __unwindfunclet$?StringToFloat@@YAMV?$basic_string@DU?$char_traits@D@std@@V?$allocator@D@2@@std@@@Z$0 04038270 f   MQ2EQBC.obj
 0001:00037278       __unwindfunclet$?StringToFloat@@YAMV?$basic_string@DU?$char_traits@D@std@@V?$allocator@D@2@@std@@@Z$1 04038278 f   MQ2EQBC.obj
 0001:00037283       __ehhandler$?StringToFloat@@YAMV?$basic_string@DU?$char_traits@D@std@@V?$allocator@D@2@@std@@@Z 04038283 f   MQ2EQBC.obj
 0001:00037290       __unwindfunclet$??0MQ2Type@MQ2Internal@@QAE@PAD@Z$0 04038290 f   MQ2EQBC.obj
 0001:0003729b       __ehhandler$??0MQ2Type@MQ2Internal@@QAE@PAD@Z 0403829b f   MQ2EQBC.obj
 0001:000372b0       __unwindfunclet$??1MQ2Type@MQ2Internal@@QAE@XZ$0 040382b0 f   MQ2EQBC.obj
 0001:000372bb       __ehhandler$??1MQ2Type@MQ2Internal@@QAE@XZ 040382bb f   MQ2EQBC.obj
 0001:000372d0       __unwindfunclet$?WndNotification@CMQ2EqbcWnd@@QAEHPAVCXWnd@EQClasses@@IPAX@Z$0 040382d0 f   MQ2EQBC.obj
 0001:000372db       __ehhandler$?WndNotification@CMQ2EqbcWnd@@QAEHPAVCXWnd@EQClasses@@IPAX@Z 040382db f   MQ2EQBC.obj
 0001:000372f0       __unwindfunclet$??0MQ2GlobalVarType@@QAE@XZ$0 040382f0 f   MQ2EQBC.obj
 0001:000372f8       __unwindfunclet$??0MQ2GlobalVarType@@QAE@XZ$1 040382f8 f   MQ2EQBC.obj
 0001:00037303       __unwindfunclet$??0MQ2GlobalVarType@@QAE@XZ$2 04038303 f   MQ2EQBC.obj
 0001:00037311       __ehhandler$??0MQ2GlobalVarType@@QAE@XZ 04038311 f   MQ2EQBC.obj
 0001:00037320       __unwindfunclet$?GetMember@MQ2GlobalVarType@@UAE_NU_MQ2VarPtr@MQ2Internal@@PAD1AAU_MQ2TypeVar@3@@Z$6 04038320 f   MQ2EQBC.obj
 0001:00037328       __ehhandler$?GetMember@MQ2GlobalVarType@@UAE_NU_MQ2VarPtr@MQ2Internal@@PAD1AAU_MQ2TypeVar@3@@Z 04038328 f   MQ2EQBC.obj
 0001:00037340       __unwindfunclet$??0EQBCType@@QAE@XZ$0 04038340 f   MQ2EQBC.obj
 0001:00037348       __ehhandler$??0EQBCType@@QAE@XZ 04038348 f   MQ2EQBC.obj
 0001:00037360       __unwindfunclet$??0CMQ2EqbcWnd@@QAE@PAVCXStr@EQClasses@@@Z$0 04038360 f   MQ2EQBC.obj
 0001:00037368       __unwindfunclet$??0CMQ2EqbcWnd@@QAE@PAVCXStr@EQClasses@@@Z$2 04038368 f   MQ2EQBC.obj
 0001:00037370       __unwindfunclet$??0CMQ2EqbcWnd@@QAE@PAVCXStr@EQClasses@@@Z$1 04038370 f   MQ2EQBC.obj
 0001:0003737e       __ehhandler$??0CMQ2EqbcWnd@@QAE@PAVCXStr@EQClasses@@@Z 0403837e f   MQ2EQBC.obj
 0001:00037390       __unwindfunclet$?CreateChatWindowIfNeeded@@YAXXZ$0 04038390 f   MQ2EQBC.obj
 0001:0003739c       __unwindfunclet$?CreateChatWindowIfNeeded@@YAXXZ$1 0403839c f   MQ2EQBC.obj
 0001:000373aa       __ehhandler$?CreateChatWindowIfNeeded@@YAXXZ 040383aa f   MQ2EQBC.obj
 0001:000373b4       __unwindfunclet$?_Locimp_dtor@_Locimp@locale@std@@CAXPAV123@@Z$0 040383b4 f   libcpmt:locale0.obj
 0001:000373bc       __ehhandler$?_Locimp_dtor@_Locimp@locale@std@@CAXPAV123@@Z 040383bc f   libcpmt:locale0.obj
 0001:000373d7       __unwindfunclet$??0_Locimp@locale@std@@AAE@_N@Z$0 040383d7 f   libcpmt:locale0.obj
 0001:000373df       __ehhandler$??0_Locimp@locale@std@@AAE@_N@Z 040383df f   libcpmt:locale0.obj
 0001:000373fa       __unwindfunclet$??1_Locimp@locale@std@@MAE@XZ$0 040383fa f   libcpmt:locale0.obj
 0001:00037402       __unwindfunclet$??1_Locimp@locale@std@@MAE@XZ$1 04038402 f   libcpmt:locale0.obj
 0001:0003740d       __ehhandler$??1_Locimp@locale@std@@MAE@XZ 0403840d f   libcpmt:locale0.obj
 0001:00037428       __unwindfunclet$?_Init@locale@std@@CAPAV_Locimp@12@XZ$0 04038428 f   libcpmt:locale0.obj
 0001:00037430       __unwindfunclet$?_Init@locale@std@@CAPAV_Locimp@12@XZ$1 04038430 f   libcpmt:locale0.obj
 0001:0003743a       __ehhandler$?_Init@locale@std@@CAPAV_Locimp@12@XZ 0403843a f   libcpmt:locale0.obj
 0001:00037455       __unwindfunclet$?empty@locale@std@@SA?AV12@XZ$0 04038455 f   libcpmt:locale0.obj
 0001:0003745f       __ehhandler$?empty@locale@std@@SA?AV12@XZ 0403845f f   libcpmt:locale0.obj
 0001:0003747a       __unwindfunclet$?_Xlen@_String_base@std@@SAXXZ$0 0403847a f   libcpmt:string.obj
 0001:00037482       __ehhandler$?_Xlen@_String_base@std@@SAXXZ 04038482 f   libcpmt:string.obj
 0001:0003749d       __unwindfunclet$?_Xran@_String_base@std@@SAXXZ$0 0403849d f   libcpmt:string.obj
 0001:000374a5       __ehhandler$?_Xran@_String_base@std@@SAXXZ 040384a5 f   libcpmt:string.obj
 0001:000374c0       __unwindfunclet$?_Xinvarg@_String_base@std@@SAXXZ$0 040384c0 f   libcpmt:string.obj
 0001:000374c8       __ehhandler$?_Xinvarg@_String_base@std@@SAXXZ 040384c8 f   libcpmt:string.obj
 0001:000374e3       __ehhandler$?CallUnexpected@@YAXPBU_s_ESTypeList@@@Z 040384e3 f   LIBCMT:frame.obj
 0001:00037500       ??__Eireadbuf@@YAXXZ       04038500 f   MQ2EQBC.obj
 0001:00037520       ??__Eglobals@@YAXXZ        04038520 f   MQ2EQBC.obj
 0001:00037550       ??__EDELETE_STR@@YAXXZ     04038550 f   MQ2EQBC.obj
 0001:00037570       ??__ESET_STR@@YAXXZ        04038570 f   MQ2EQBC.obj
 0001:0003758d       ??__Einitlocks@std@@YAXXZ  0403858d f   libcpmt:xlock.obj
 0001:000375a3       ??__Eclassic_locale@std@@YAXXZ 040385a3 f   libcpmt:locale0.obj
 0001:000375af       ??__Einitlocks@std@@YAXXZ  040385af f   libcpmt:iosptrs.obj
 0001:000375c5       ??__Einit_atexit@@YAXXZ    040385c5 f   libcpmt:iosptrs.obj
 0001:000375e0       ??__FDELETE_STR@@YAXXZ     040385e0 f   MQ2EQBC.obj
 0001:00037610       ??__FSET_STR@@YAXXZ        04038610 f   MQ2EQBC.obj
 0001:00037640       ??__Fglobals@@YAXXZ        04038640 f   MQ2EQBC.obj
 0001:0003764a       ??__Finitlocks@std@@YAXXZ  0403864a f   libcpmt:xlock.obj
 0001:00037654       ??__Fclassic_locale@std@@YAXXZ 04038654 f   libcpmt:locale0.obj
 0001:0003765e       ??__Finitlocks@std@@YAXXZ  0403865e f   libcpmt:iosptrs.obj
 0001:00037668       ??__Finit_atexit@@YAXXZ    04038668 f   libcpmt:iosptrs.obj
 0001:00037672       ??__Fnomem@?5???2@YAPAXI@Z@YAXXZ 04038672 f   LIBCMT:new.obj

 Exports

  ordinal    name

        1    _InitializePlugin
               exported name: InitializePlugin
        2    _NetBotRequest
               exported name: NetBotRequest
        3    _NetBotSendMsg
               exported name: NetBotSendMsg
        4    _OnCleanUI
               exported name: OnCleanUI
        5    _OnIncomingChat
               exported name: OnIncomingChat
        6    _OnPulse
               exported name: OnPulse
        7    _OnReloadUI
               exported name: OnReloadUI
        8    _SetGameState
               exported name: SetGameState
        9    _ShutdownPlugin
               exported name: ShutdownPlugin
       10    _isConnected
               exported name: isConnected
