 MQ2Irc

 Timestamp is 4d3d7c9d (Mon Jan 24 08:20:29 2011)

 Preferred load address is 04000000

 Start         Length     Name                   Class
 0001:00000000 00023df7H .text                   CODE
 0001:00023e00 000002c6H .text$x                 CODE
 0001:000240d0 00000036H .text$yc                CODE
 0001:00024110 0000002bH .text$yd                CODE
 0002:00000000 00000214H .idata$5                DATA
 0002:00000214 00000004H .CRT$XCA                DATA
 0002:00000218 00000008H .CRT$XCU                DATA
 0002:00000220 00000004H .CRT$XCZ                DATA
 0002:00000224 00000004H .CRT$XIA                DATA
 0002:00000228 00000010H .CRT$XIC                DATA
 0002:00000238 00000004H .CRT$XIZ                DATA
 0002:0000023c 00000004H .CRT$XPA                DATA
 0002:00000240 00000004H .CRT$XPX                DATA
 0002:00000244 00000004H .CRT$XPXA               DATA
 0002:00000248 00000004H .CRT$XPZ                DATA
 0002:0000024c 00000004H .CRT$XTA                DATA
 0002:00000250 00000004H .CRT$XTZ                DATA
 0002:00000260 000033d0H .rdata                  DATA
 0002:00003630 00000065H .rdata$debug            DATA
 0002:00003698 000003e0H .rdata$r                DATA
 0002:00003a80 00000070H .rdata$sxdata           DATA
 0002:00003af0 00000004H .rtc$IAA                DATA
 0002:00003af4 00000004H .rtc$IZZ                DATA
 0002:00003af8 00000004H .rtc$TAA                DATA
 0002:00003afc 00000004H .rtc$TZZ                DATA
 0002:00003b00 00000e6cH .xdata$x                DATA
 0002:0000496c 0000003cH .idata$2                DATA
 0002:000049a8 00000014H .idata$3                DATA
 0002:000049bc 00000214H .idata$4                DATA
 0002:00004bd0 00000a38H .idata$6                DATA
 0002:00005610 000000b9H .edata                  DATA
 0003:00000000 000011b0H .data                   DATA
 0003:000011c0 00008184H .bss                    DATA

  Address         Publics by Value              Rva+Base       Lib:Object

 0000:00000000       __except_list              00000000     <absolute>
 0000:0000001c       ___safe_se_handler_count   0000001c     <absolute>
 0000:00000000       ___ImageBase               04000000     <linker-defined>
 0001:00000000       ?strchr@@YAPADPADH@Z       04001000 f i MQ2Irc.obj
 0001:00000010       ??0bad_alloc@std@@QAE@PBD@Z 04001010 f i MQ2Irc.obj
 0001:00000030       ??1bad_alloc@std@@UAE@XZ   04001030 f i MQ2Irc.obj
 0001:00000040       ??_Ebad_alloc@std@@UAEPAXI@Z 04001040 f i MQ2Irc.obj
 0001:00000040       ??_Gbad_alloc@std@@UAEPAXI@Z 04001040 f i MQ2Irc.obj
 0001:00000070       ??2@YAPAXIPAX@Z            04001070 f i MQ2Irc.obj
 0001:00000080       ??3@YAXPAX0@Z              04001080 f i MQ2Irc.obj
 0001:00000090       ?assign@?$char_traits@D@std@@SAXAADABD@Z 04001090 f i MQ2Irc.obj
 0001:000000a0       ?compare@?$char_traits@D@std@@SAHPBD0I@Z 040010a0 f i MQ2Irc.obj
 0001:00000120       ?length@?$char_traits@D@std@@SAIPBD@Z 04001120 f i MQ2Irc.obj
 0001:00000140       ?_Copy_s@?$char_traits@D@std@@SAPADPADIPBDI@Z 04001140 f i MQ2Irc.obj
 0001:00000170       ?_Move_s@?$char_traits@D@std@@SAPADPADIPBDI@Z 04001170 f i MQ2Irc.obj
 0001:000001a0       ??0_Aux_cont@std@@QAE@QBV_Container_base_aux@1@@Z 040011a0 f i MQ2Irc.obj
 0001:000001b0       ?_Getcont@_Aux_cont@std@@QBEPBV_Container_base_aux@2@XZ 040011b0 f i MQ2Irc.obj
 0001:000001c0       ??0_Container_base_aux@std@@QAE@XZ 040011c0 f i MQ2Irc.obj
 0001:000001d0       ??1_Container_base_aux@std@@QAE@XZ 040011d0 f i MQ2Irc.obj
 0001:000001e0       ??0_Iterator_base_aux@std@@QAE@XZ 040011e0 f i MQ2Irc.obj
 0001:000001f0       ?_Set_container@_Iterator_base_aux@std@@QAEXQBV_Container_base_aux@2@@Z 040011f0 f i MQ2Irc.obj
 0001:00000200       ?_Getmycont@_Iterator_base_aux@std@@QBEPBV_Container_base_aux@2@XZ 04001200 f i MQ2Irc.obj
 0001:00000210       ?_Same_container@_Iterator_base_aux@std@@QBE_NABV12@@Z 04001210 f i MQ2Irc.obj
 0001:00000230       ?_Has_container@_Iterator_base_aux@std@@QBE_NXZ 04001230 f i MQ2Irc.obj
 0001:00000240       ?pXWnd@CSidlScreenWnd@EQClasses@@QAEPAVCXWnd@2@XZ 04001240 f i MQ2Irc.obj
 0001:00000250       ?Lock@CAutoLock@MQ2Internal@@QAEXXZ 04001250 f i MQ2Irc.obj
 0001:00000270       ?Unlock@CAutoLock@MQ2Internal@@QAEXXZ 04001270 f i MQ2Irc.obj
 0001:00000290       ??0CAutoLock@MQ2Internal@@QAE@PAU_RTL_CRITICAL_SECTION@@@Z 04001290 f i MQ2Irc.obj
 0001:000002c0       ??1CAutoLock@MQ2Internal@@QAE@XZ 040012c0 f i MQ2Irc.obj
 0001:000002e0       ?ReplacevfTable@CCustomWnd@MQ2Internal@@QAEXXZ 040012e0 f i MQ2Irc.obj
 0001:00000310       ?RemovevfTable@CCustomWnd@MQ2Internal@@QAEXXZ 04001310 f i MQ2Irc.obj
 0001:00000330       ?SetvfTable@CCustomWnd@MQ2Internal@@QAEXKK@Z 04001330 f i MQ2Irc.obj
 0001:00000340       _DllMain@12                04001340 f   MQ2Irc.obj
 0001:000003a0       ?ircout@@YAXPAD@Z          040013a0 f   MQ2Irc.obj
 0001:00000520       ?IRCConnectThread@@YGKPAX@Z 04001520 f   MQ2Irc.obj
 0001:00000680       ?IrcStatusCmd@@YAXPAU_SPAWNINFO@EQData@@PAD@Z 04001680 f   MQ2Irc.obj
 0001:000006d0       ?IrcConnectCmd@@YAXPAU_SPAWNINFO@EQData@@PAD@Z 040016d0 f   MQ2Irc.obj
 0001:00000c40       ?dataIrc@@YAHPADAAU_MQ2TypeVar@MQ2Internal@@@Z 04001c40 f   MQ2Irc.obj
 0001:00000c60       ?size@?$basic_string@DU?$char_traits@D@std@@V?$allocator@D@2@@std@@QBEIXZ 04001c60 f i MQ2Irc.obj
 0001:00000c70       ??0?$CIndex@PAU_MQ2TypeMember@MQ2Internal@@@MQ2Internal@@QAE@XZ 04001c70 f i MQ2Irc.obj
 0001:00000c90       ??1?$CIndex@PAU_MQ2TypeMember@MQ2Internal@@@MQ2Internal@@QAE@XZ 04001c90 f i MQ2Irc.obj
 0001:00000cd0       ?Cleanup@?$CIndex@PAU_MQ2TypeMember@MQ2Internal@@@MQ2Internal@@QAEXXZ 04001cd0 f i MQ2Irc.obj
 0001:00000d10       ??A?$CIndex@PAU_MQ2TypeMember@MQ2Internal@@@MQ2Internal@@QAEAAPAU_MQ2TypeMember@1@K@Z 04001d10 f i MQ2Irc.obj
 0001:00000d20       ?size@?$list@PADV?$allocator@PAD@std@@@std@@QBEIXZ 04001d20 f i MQ2Irc.obj
 0001:00000d30       ??8?$_Const_iterator@$00@?$list@PADV?$allocator@PAD@std@@@std@@QBE_NABV012@@Z 04001d30 f i MQ2Irc.obj
 0001:00000d60       ?_Myptr@?$basic_string@DU?$char_traits@D@std@@V?$allocator@D@2@@std@@IBEPBDXZ 04001d60 f i MQ2Irc.obj
 0001:00000d70       ??0?$allocator@D@std@@QAE@XZ 04001d70 f i MQ2Irc.obj
 0001:00000d80       ?Resize@?$CIndex@PAU_MQ2TypeMember@MQ2Internal@@@MQ2Internal@@QAEXK@Z 04001d80 f i MQ2Irc.obj
 0001:00000e30       ??0?$allocator@U?$pair@$$CBV?$basic_string@DU?$char_traits@D@std@@V?$allocator@D@2@@std@@K@std@@@std@@QAE@XZ 04001e30 f i MQ2Irc.obj
 0001:00000e40       ?_Nextnode@?$list@PADV?$allocator@PAD@std@@@std@@KAAAPAU_Node@?$_List_nod@PADV?$allocator@PAD@std@@@2@PAU342@@Z 04001e40 f i MQ2Irc.obj
 0001:00000e50       ?_Prevnode@?$list@PADV?$allocator@PAD@std@@@std@@KAAAPAU_Node@?$_List_nod@PADV?$allocator@PAD@std@@@2@PAU342@@Z 04001e50 f i MQ2Irc.obj
 0001:00000e60       ??0?$allocator@PAD@std@@QAE@XZ 04001e60 f i MQ2Irc.obj
 0001:00000e70       ?deallocate@?$allocator@U_Node@?$_List_nod@PADV?$allocator@PAD@std@@@std@@@std@@QAEXPAU_Node@?$_List_nod@PADV?$allocator@PAD@std@@@2@I@Z 04001e70 f i MQ2Irc.obj
 0001:00000e80       ?_Mynode@?$_Const_iterator@$00@?$list@PADV?$allocator@PAD@std@@@std@@QBEPAU_Node@?$_List_nod@PADV?$allocator@PAD@std@@@3@XZ 04001e80 f i MQ2Irc.obj
 0001:00000e90       ??8const_iterator@?$_Tree@V?$_Tmap_traits@V?$basic_string@DU?$char_traits@D@std@@V?$allocator@D@2@@std@@KU?$less@V?$basic_string@DU?$char_traits@D@std@@V?$allocator@D@2@@std@@@2@V?$allocator@U?$pair@$$CBV?$basic_string@DU?$char_traits@D@std@@V?$allocator@D@2@@std@@K@std@@@2@$0A@@std@@@std@@QBE_NABV012@@Z 04001e90 f i MQ2Irc.obj
 0001:00000ec0       ?_Mynode@const_iterator@?$_Tree@V?$_Tmap_traits@V?$basic_string@DU?$char_traits@D@std@@V?$allocator@D@2@@std@@KU?$less@V?$basic_string@DU?$char_traits@D@std@@V?$allocator@D@2@@std@@@2@V?$allocator@U?$pair@$$CBV?$basic_string@DU?$char_traits@D@std@@V?$allocator@D@2@@std@@K@std@@@2@$0A@@std@@@std@@QBEPAU_Node@?$_Tree_nod@V?$_Tmap_traits@V?$basic_string@DU?$char_traits@D@std@@V?$allocator@D@2@@std@@KU?$less@V?$basic_string@DU?$char_traits@D@std@@V?$allocator@D@2@@std@@@2@V?$allocator@U?$pair@$$CBV?$basic_string@DU?$char_traits@D@std@@V?$allocator@D@2@@std@@K@std@@@2@$0A@@std@@@3@XZ 04001ec0 f i MQ2Irc.obj
 0001:00000ed0       ??0?$_Iterator_with_base@Ubidirectional_iterator_tag@std@@PADHPBQADABQADV_Iterator_base_aux@2@@std@@QAE@XZ 04001ed0 f i MQ2Irc.obj
 0001:00000ee0       ?_Myptr@?$basic_string@DU?$char_traits@D@std@@V?$allocator@D@2@@std@@IAEPADXZ 04001ee0 f i MQ2Irc.obj
 0001:00000ef0       ??0?$allocator@D@std@@QAE@ABV01@@Z 04001ef0 f i MQ2Irc.obj
 0001:00000f00       ?deallocate@?$allocator@D@std@@QAEXPADI@Z 04001f00 f i MQ2Irc.obj
 0001:00000f10       ?deallocate@?$allocator@V_Aux_cont@std@@@std@@QAEXPAV_Aux_cont@2@I@Z 04001f10 f i MQ2Irc.obj
 0001:00000f20       ?_Isnil@?$_Tree@V?$_Tmap_traits@V?$basic_string@DU?$char_traits@D@std@@V?$allocator@D@2@@std@@KU?$less@V?$basic_string@DU?$char_traits@D@std@@V?$allocator@D@2@@std@@@2@V?$allocator@U?$pair@$$CBV?$basic_string@DU?$char_traits@D@std@@V?$allocator@D@2@@std@@K@std@@@2@$0A@@std@@@std@@KAAADPAU_Node@?$_Tree_nod@V?$_Tmap_traits@V?$basic_string@DU?$char_traits@D@std@@V?$allocator@D@2@@std@@KU?$less@V?$basic_string@DU?$char_traits@D@std@@V?$allocator@D@2@@std@@@2@V?$allocator@U?$pair@$$CBV?$basic_string@DU?$char_traits@D@std@@V?$allocator@D@2@@std@@K@std@@@2@$0A@@std@@@2@@Z 04001f20 f i MQ2Irc.obj
 0001:00000f30       ?_Left@?$_Tree@V?$_Tmap_traits@V?$basic_string@DU?$char_traits@D@std@@V?$allocator@D@2@@std@@KU?$less@V?$basic_string@DU?$char_traits@D@std@@V?$allocator@D@2@@std@@@2@V?$allocator@U?$pair@$$CBV?$basic_string@DU?$char_traits@D@std@@V?$allocator@D@2@@std@@K@std@@@2@$0A@@std@@@std@@KAAAPAU_Node@?$_Tree_nod@V?$_Tmap_traits@V?$basic_string@DU?$char_traits@D@std@@V?$allocator@D@2@@std@@KU?$less@V?$basic_string@DU?$char_traits@D@std@@V?$allocator@D@2@@std@@@2@V?$allocator@U?$pair@$$CBV?$basic_string@DU?$char_traits@D@std@@V?$allocator@D@2@@std@@K@std@@@2@$0A@@std@@@2@PAU342@@Z 04001f30 f i MQ2Irc.obj
 0001:00000f40       ?_Parent@?$_Tree@V?$_Tmap_traits@V?$basic_string@DU?$char_traits@D@std@@V?$allocator@D@2@@std@@KU?$less@V?$basic_string@DU?$char_traits@D@std@@V?$allocator@D@2@@std@@@2@V?$allocator@U?$pair@$$CBV?$basic_string@DU?$char_traits@D@std@@V?$allocator@D@2@@std@@K@std@@@2@$0A@@std@@@std@@KAAAPAU_Node@?$_Tree_nod@V?$_Tmap_traits@V?$basic_string@DU?$char_traits@D@std@@V?$allocator@D@2@@std@@KU?$less@V?$basic_string@DU?$char_traits@D@std@@V?$allocator@D@2@@std@@@2@V?$allocator@U?$pair@$$CBV?$basic_string@DU?$char_traits@D@std@@V?$allocator@D@2@@std@@K@std@@@2@$0A@@std@@@2@PAU342@@Z 04001f40 f i MQ2Irc.obj
 0001:00000f50       ?_Right@?$_Tree@V?$_Tmap_traits@V?$basic_string@DU?$char_traits@D@std@@V?$allocator@D@2@@std@@KU?$less@V?$basic_string@DU?$char_traits@D@std@@V?$allocator@D@2@@std@@@2@V?$allocator@U?$pair@$$CBV?$basic_string@DU?$char_traits@D@std@@V?$allocator@D@2@@std@@K@std@@@2@$0A@@std@@@std@@KAAAPAU_Node@?$_Tree_nod@V?$_Tmap_traits@V?$basic_string@DU?$char_traits@D@std@@V?$allocator@D@2@@std@@KU?$less@V?$basic_string@DU?$char_traits@D@std@@V?$allocator@D@2@@std@@@2@V?$allocator@U?$pair@$$CBV?$basic_string@DU?$char_traits@D@std@@V?$allocator@D@2@@std@@K@std@@@2@$0A@@std@@@2@PAU342@@Z 04001f50 f i MQ2Irc.obj
 0001:00000f60       ?_Myval@?$_Tree@V?$_Tmap_traits@V?$basic_string@DU?$char_traits@D@std@@V?$allocator@D@2@@std@@KU?$less@V?$basic_string@DU?$char_traits@D@std@@V?$allocator@D@2@@std@@@2@V?$allocator@U?$pair@$$CBV?$basic_string@DU?$char_traits@D@std@@V?$allocator@D@2@@std@@K@std@@@2@$0A@@std@@@std@@KAAAU?$pair@$$CBV?$basic_string@DU?$char_traits@D@std@@V?$allocator@D@2@@std@@K@2@PAU_Node@?$_Tree_nod@V?$_Tmap_traits@V?$basic_string@DU?$char_traits@D@std@@V?$allocator@D@2@@std@@KU?$less@V?$basic_string@DU?$char_traits@D@std@@V?$allocator@D@2@@std@@@2@V?$allocator@U?$pair@$$CBV?$basic_string@DU?$char_traits@D@std@@V?$allocator@D@2@@std@@K@std@@@2@$0A@@std@@@2@@Z 04001f60 f i MQ2Irc.obj
 0001:00000f70       ?size@?$_Tree@V?$_Tmap_traits@V?$basic_string@DU?$char_traits@D@std@@V?$allocator@D@2@@std@@KU?$less@V?$basic_string@DU?$char_traits@D@std@@V?$allocator@D@2@@std@@@2@V?$allocator@U?$pair@$$CBV?$basic_string@DU?$char_traits@D@std@@V?$allocator@D@2@@std@@K@std@@@2@$0A@@std@@@std@@QBEIXZ 04001f70 f i MQ2Irc.obj
 0001:00000f80       ?_Rmost@?$_Tree@V?$_Tmap_traits@V?$basic_string@DU?$char_traits@D@std@@V?$allocator@D@2@@std@@KU?$less@V?$basic_string@DU?$char_traits@D@std@@V?$allocator@D@2@@std@@@2@V?$allocator@U?$pair@$$CBV?$basic_string@DU?$char_traits@D@std@@V?$allocator@D@2@@std@@K@std@@@2@$0A@@std@@@std@@IBEAAPAU_Node@?$_Tree_nod@V?$_Tmap_traits@V?$basic_string@DU?$char_traits@D@std@@V?$allocator@D@2@@std@@KU?$less@V?$basic_string@DU?$char_traits@D@std@@V?$allocator@D@2@@std@@@2@V?$allocator@U?$pair@$$CBV?$basic_string@DU?$char_traits@D@std@@V?$allocator@D@2@@std@@K@std@@@2@$0A@@std@@@2@XZ 04001f80 f i MQ2Irc.obj
 0001:00000f90       ?_Kfn@?$_Tmap_traits@V?$basic_string@DU?$char_traits@D@std@@V?$allocator@D@2@@std@@KU?$less@V?$basic_string@DU?$char_traits@D@std@@V?$allocator@D@2@@std@@@2@V?$allocator@U?$pair@$$CBV?$basic_string@DU?$char_traits@D@std@@V?$allocator@D@2@@std@@K@std@@@2@$0A@@std@@SAABV?$basic_string@DU?$char_traits@D@std@@V?$allocator@D@2@@2@ABU?$pair@$$CBV?$basic_string@DU?$char_traits@D@std@@V?$allocator@D@2@@std@@K@2@@Z 04001f90 f i MQ2Irc.obj
 0001:00000fa0       ??0?$allocator@U?$pair@$$CBV?$basic_string@DU?$char_traits@D@std@@V?$allocator@D@2@@std@@K@std@@@std@@QAE@ABV01@@Z 04001fa0 f i MQ2Irc.obj
 0001:00000fb0       ?deallocate@?$allocator@U_Node@?$_Tree_nod@V?$_Tmap_traits@V?$basic_string@DU?$char_traits@D@std@@V?$allocator@D@2@@std@@KU?$less@V?$basic_string@DU?$char_traits@D@std@@V?$allocator@D@2@@std@@@2@V?$allocator@U?$pair@$$CBV?$basic_string@DU?$char_traits@D@std@@V?$allocator@D@2@@std@@K@std@@@2@$0A@@std@@@std@@@std@@QAEXPAU_Node@?$_Tree_nod@V?$_Tmap_traits@V?$basic_string@DU?$char_traits@D@std@@V?$allocator@D@2@@std@@KU?$less@V?$basic_string@DU?$char_traits@D@std@@V?$allocator@D@2@@std@@@2@V?$allocator@U?$pair@$$CBV?$basic_string@DU?$char_traits@D@std@@V?$allocator@D@2@@std@@K@std@@@2@$0A@@std@@@2@I@Z 04001fb0 f i MQ2Irc.obj
 0001:00000fc0       ?_Myval@?$list@PADV?$allocator@PAD@std@@@std@@KAAAPADPAU_Node@?$_List_nod@PADV?$allocator@PAD@std@@@2@@Z 04001fc0 f i MQ2Irc.obj
 0001:00000fd0       ??0?$allocator@PAD@std@@QAE@ABV01@@Z 04001fd0 f i MQ2Irc.obj
 0001:00000fe0       ??E?$_Const_iterator@$00@?$list@PADV?$allocator@PAD@std@@@std@@QAEAAV012@XZ 04001fe0 f i MQ2Irc.obj
 0001:00001020       ??Dconst_iterator@?$_Tree@V?$_Tmap_traits@V?$basic_string@DU?$char_traits@D@std@@V?$allocator@D@2@@std@@KU?$less@V?$basic_string@DU?$char_traits@D@std@@V?$allocator@D@2@@std@@@2@V?$allocator@U?$pair@$$CBV?$basic_string@DU?$char_traits@D@std@@V?$allocator@D@2@@std@@K@std@@@2@$0A@@std@@@std@@QBEABU?$pair@$$CBV?$basic_string@DU?$char_traits@D@std@@V?$allocator@D@2@@std@@K@2@XZ 04002020 f i MQ2Irc.obj
 0001:00001050       ??0?$_Iterator_with_base@Ubidirectional_iterator_tag@std@@U?$pair@$$CBV?$basic_string@DU?$char_traits@D@std@@V?$allocator@D@2@@std@@K@2@HPBU32@ABU32@V_Iterator_base_aux@2@@std@@QAE@XZ 04002050 f i MQ2Irc.obj
 0001:00001060       ?_Inside@?$basic_string@DU?$char_traits@D@std@@V?$allocator@D@2@@std@@IAE_NPBD@Z 04002060 f i MQ2Irc.obj
 0001:000010a0       ?_Color@?$_Tree@V?$_Tmap_traits@V?$basic_string@DU?$char_traits@D@std@@V?$allocator@D@2@@std@@KU?$less@V?$basic_string@DU?$char_traits@D@std@@V?$allocator@D@2@@std@@@2@V?$allocator@U?$pair@$$CBV?$basic_string@DU?$char_traits@D@std@@V?$allocator@D@2@@std@@K@std@@@2@$0A@@std@@@std@@KAAADPAU_Node@?$_Tree_nod@V?$_Tmap_traits@V?$basic_string@DU?$char_traits@D@std@@V?$allocator@D@2@@std@@KU?$less@V?$basic_string@DU?$char_traits@D@std@@V?$allocator@D@2@@std@@@2@V?$allocator@U?$pair@$$CBV?$basic_string@DU?$char_traits@D@std@@V?$allocator@D@2@@std@@K@std@@@2@$0A@@std@@@2@@Z 040020a0 f i MQ2Irc.obj
 0001:000010b0       ?_Lmost@?$_Tree@V?$_Tmap_traits@V?$basic_string@DU?$char_traits@D@std@@V?$allocator@D@2@@std@@KU?$less@V?$basic_string@DU?$char_traits@D@std@@V?$allocator@D@2@@std@@@2@V?$allocator@U?$pair@$$CBV?$basic_string@DU?$char_traits@D@std@@V?$allocator@D@2@@std@@K@std@@@2@$0A@@std@@@std@@IBEAAPAU_Node@?$_Tree_nod@V?$_Tmap_traits@V?$basic_string@DU?$char_traits@D@std@@V?$allocator@D@2@@std@@KU?$less@V?$basic_string@DU?$char_traits@D@std@@V?$allocator@D@2@@std@@@2@V?$allocator@U?$pair@$$CBV?$basic_string@DU?$char_traits@D@std@@V?$allocator@D@2@@std@@K@std@@@2@$0A@@std@@@2@XZ 040020b0 f i MQ2Irc.obj
 0001:000010c0       ?_Root@?$_Tree@V?$_Tmap_traits@V?$basic_string@DU?$char_traits@D@std@@V?$allocator@D@2@@std@@KU?$less@V?$basic_string@DU?$char_traits@D@std@@V?$allocator@D@2@@std@@@2@V?$allocator@U?$pair@$$CBV?$basic_string@DU?$char_traits@D@std@@V?$allocator@D@2@@std@@K@std@@@2@$0A@@std@@@std@@IBEAAPAU_Node@?$_Tree_nod@V?$_Tmap_traits@V?$basic_string@DU?$char_traits@D@std@@V?$allocator@D@2@@std@@KU?$less@V?$basic_string@DU?$char_traits@D@std@@V?$allocator@D@2@@std@@@2@V?$allocator@U?$pair@$$CBV?$basic_string@DU?$char_traits@D@std@@V?$allocator@D@2@@std@@K@std@@@2@$0A@@std@@@2@XZ 040020c0 f i MQ2Irc.obj
 0001:000010d0       ?_Rrotate@?$_Tree@V?$_Tmap_traits@V?$basic_string@DU?$char_traits@D@std@@V?$allocator@D@2@@std@@KU?$less@V?$basic_string@DU?$char_traits@D@std@@V?$allocator@D@2@@std@@@2@V?$allocator@U?$pair@$$CBV?$basic_string@DU?$char_traits@D@std@@V?$allocator@D@2@@std@@K@std@@@2@$0A@@std@@@std@@IAEXPAU_Node@?$_Tree_nod@V?$_Tmap_traits@V?$basic_string@DU?$char_traits@D@std@@V?$allocator@D@2@@std@@KU?$less@V?$basic_string@DU?$char_traits@D@std@@V?$allocator@D@2@@std@@@2@V?$allocator@U?$pair@$$CBV?$basic_string@DU?$char_traits@D@std@@V?$allocator@D@2@@std@@K@std@@@2@$0A@@std@@@2@@Z 040020d0 f i MQ2Irc.obj
 0001:00001130       ??9const_iterator@?$_Tree@V?$_Tmap_traits@V?$basic_string@DU?$char_traits@D@std@@V?$allocator@D@2@@std@@KU?$less@V?$basic_string@DU?$char_traits@D@std@@V?$allocator@D@2@@std@@@2@V?$allocator@U?$pair@$$CBV?$basic_string@DU?$char_traits@D@std@@V?$allocator@D@2@@std@@K@std@@@2@$0A@@std@@@std@@QBE_NABV012@@Z 04002130 f i MQ2Irc.obj
 0001:00001160       ??0?$pair@Viterator@?$_Tree@V?$_Tmap_traits@V?$basic_string@DU?$char_traits@D@std@@V?$allocator@D@2@@std@@KU?$less@V?$basic_string@DU?$char_traits@D@std@@V?$allocator@D@2@@std@@@2@V?$allocator@U?$pair@$$CBV?$basic_string@DU?$char_traits@D@std@@V?$allocator@D@2@@std@@K@std@@@2@$0A@@std@@@std@@_N@std@@QAE@ABViterator@?$_Tree@V?$_Tmap_traits@V?$basic_string@DU?$char_traits@D@std@@V?$allocator@D@2@@std@@KU?$less@V?$basic_string@DU?$char_traits@D@std@@V?$allocator@D@2@@std@@@2@V?$allocator@U?$pair@$$CBV?$basic_string@DU?$char_traits@D@std@@V?$allocator@D@2@@std@@K@std@@@2@$0A@@std@@@1@AB_N@Z 04002160 f i MQ2Irc.obj
 0001:00001180       ?max_size@?$allocator@D@std@@QBEIXZ 04002180 f i MQ2Irc.obj
 0001:00001190       ?_Max@?$_Tree@V?$_Tmap_traits@V?$basic_string@DU?$char_traits@D@std@@V?$allocator@D@2@@std@@KU?$less@V?$basic_string@DU?$char_traits@D@std@@V?$allocator@D@2@@std@@@2@V?$allocator@U?$pair@$$CBV?$basic_string@DU?$char_traits@D@std@@V?$allocator@D@2@@std@@K@std@@@2@$0A@@std@@@std@@KAPAU_Node@?$_Tree_nod@V?$_Tmap_traits@V?$basic_string@DU?$char_traits@D@std@@V?$allocator@D@2@@std@@KU?$less@V?$basic_string@DU?$char_traits@D@std@@V?$allocator@D@2@@std@@@2@V?$allocator@U?$pair@$$CBV?$basic_string@DU?$char_traits@D@std@@V?$allocator@D@2@@std@@K@std@@@2@$0A@@std@@@2@PAU342@@Z 04002190 f i MQ2Irc.obj
 0001:000011b0       ?_Min@?$_Tree@V?$_Tmap_traits@V?$basic_string@DU?$char_traits@D@std@@V?$allocator@D@2@@std@@KU?$less@V?$basic_string@DU?$char_traits@D@std@@V?$allocator@D@2@@std@@@2@V?$allocator@U?$pair@$$CBV?$basic_string@DU?$char_traits@D@std@@V?$allocator@D@2@@std@@K@std@@@2@$0A@@std@@@std@@KAPAU_Node@?$_Tree_nod@V?$_Tmap_traits@V?$basic_string@DU?$char_traits@D@std@@V?$allocator@D@2@@std@@KU?$less@V?$basic_string@DU?$char_traits@D@std@@V?$allocator@D@2@@std@@@2@V?$allocator@U?$pair@$$CBV?$basic_string@DU?$char_traits@D@std@@V?$allocator@D@2@@std@@K@std@@@2@$0A@@std@@@2@PAU342@@Z 040021b0 f i MQ2Irc.obj
 0001:000011d0       ?max_size@?$allocator@U?$pair@$$CBV?$basic_string@DU?$char_traits@D@std@@V?$allocator@D@2@@std@@K@std@@@std@@QBEIXZ 040021d0 f i MQ2Irc.obj
 0001:000011e0       ?max_size@?$allocator@PAD@std@@QBEIXZ 040021e0 f i MQ2Irc.obj
 0001:000011f0       ??$_Destroy@U_Node@?$_List_nod@PADV?$allocator@PAD@std@@@std@@@std@@YAXPAU_Node@?$_List_nod@PADV?$allocator@PAD@std@@@0@@Z 040021f0 f i MQ2Irc.obj
 0001:00001200       ??$swap@D@std@@YAXAAD0@Z   04002200 f i MQ2Irc.obj
 0001:00001220       ??$_Destroy@PAU_Node@?$_Tree_nod@V?$_Tmap_traits@V?$basic_string@DU?$char_traits@D@std@@V?$allocator@D@2@@std@@KU?$less@V?$basic_string@DU?$char_traits@D@std@@V?$allocator@D@2@@std@@@2@V?$allocator@U?$pair@$$CBV?$basic_string@DU?$char_traits@D@std@@V?$allocator@D@2@@std@@K@std@@@2@$0A@@std@@@std@@@std@@YAXPAPAU_Node@?$_Tree_nod@V?$_Tmap_traits@V?$basic_string@DU?$char_traits@D@std@@V?$allocator@D@2@@std@@KU?$less@V?$basic_string@DU?$char_traits@D@std@@V?$allocator@D@2@@std@@@2@V?$allocator@U?$pair@$$CBV?$basic_string@DU?$char_traits@D@std@@V?$allocator@D@2@@std@@K@std@@@2@$0A@@std@@@0@@Z 04002220 f i MQ2Irc.obj
 0001:00001230       ??$?0PAD@?$allocator@PAU_Node@?$_List_nod@PADV?$allocator@PAD@std@@@std@@@std@@QAE@ABV?$allocator@PAD@1@@Z 04002230 f i MQ2Irc.obj
 0001:00001240       ??$_Allocate@U_Node@?$_List_nod@PADV?$allocator@PAD@std@@@std@@@std@@YAPAU_Node@?$_List_nod@PADV?$allocator@PAD@std@@@0@IPAU120@@Z 04002240 f i MQ2Irc.obj
 0001:000012a0       ??$_Construct@PAU_Node@?$_List_nod@PADV?$allocator@PAD@std@@@std@@PAU123@@std@@YAXPAPAU_Node@?$_List_nod@PADV?$allocator@PAD@std@@@0@ABQAU120@@Z 040022a0 f i MQ2Irc.obj
 0001:000012c0       ??$_Destroy@PAU_Node@?$_List_nod@PADV?$allocator@PAD@std@@@std@@@std@@YAXPAPAU_Node@?$_List_nod@PADV?$allocator@PAD@std@@@0@@Z 040022c0 f i MQ2Irc.obj
 0001:000012d0       ??$?0U?$pair@$$CBV?$basic_string@DU?$char_traits@D@std@@V?$allocator@D@2@@std@@K@std@@@?$allocator@PAU_Node@?$_Tree_nod@V?$_Tmap_traits@V?$basic_string@DU?$char_traits@D@std@@V?$allocator@D@2@@std@@KU?$less@V?$basic_string@DU?$char_traits@D@std@@V?$allocator@D@2@@std@@@2@V?$allocator@U?$pair@$$CBV?$basic_string@DU?$char_traits@D@std@@V?$allocator@D@2@@std@@K@std@@@2@$0A@@std@@@std@@@std@@QAE@ABV?$allocator@U?$pair@$$CBV?$basic_string@DU?$char_traits@D@std@@V?$allocator@D@2@@std@@K@std@@@1@@Z 040022d0 f i MQ2Irc.obj
 0001:000012e0       ??$?0PAD@?$allocator@U_Node@?$_List_nod@PADV?$allocator@PAD@std@@@std@@@std@@QAE@ABV?$allocator@PAD@1@@Z 040022e0 f i MQ2Irc.obj
 0001:000012f0       ??$_Construct@PADPAD@std@@YAXPAPADABQAD@Z 040022f0 f i MQ2Irc.obj
 0001:00001310       ??$_Allocate@D@std@@YAPADIPAD@Z 04002310 f i MQ2Irc.obj
 0001:00001370       ??$?0U?$pair@$$CBV?$basic_string@DU?$char_traits@D@std@@V?$allocator@D@2@@std@@K@std@@@?$allocator@U_Node@?$_Tree_nod@V?$_Tmap_traits@V?$basic_string@DU?$char_traits@D@std@@V?$allocator@D@2@@std@@KU?$less@V?$basic_string@DU?$char_traits@D@std@@V?$allocator@D@2@@std@@@2@V?$allocator@U?$pair@$$CBV?$basic_string@DU?$char_traits@D@std@@V?$allocator@D@2@@std@@K@std@@@2@$0A@@std@@@std@@@std@@QAE@ABV?$allocator@U?$pair@$$CBV?$basic_string@DU?$char_traits@D@std@@V?$allocator@D@2@@std@@K@std@@@1@@Z 04002370 f i MQ2Irc.obj
 0001:00001380       ??$_Allocate@U_Node@?$_Tree_nod@V?$_Tmap_traits@V?$basic_string@DU?$char_traits@D@std@@V?$allocator@D@2@@std@@KU?$less@V?$basic_string@DU?$char_traits@D@std@@V?$allocator@D@2@@std@@@2@V?$allocator@U?$pair@$$CBV?$basic_string@DU?$char_traits@D@std@@V?$allocator@D@2@@std@@K@std@@@2@$0A@@std@@@std@@@std@@YAPAU_Node@?$_Tree_nod@V?$_Tmap_traits@V?$basic_string@DU?$char_traits@D@std@@V?$allocator@D@2@@std@@KU?$less@V?$basic_string@DU?$char_traits@D@std@@V?$allocator@D@2@@std@@@2@V?$allocator@U?$pair@$$CBV?$basic_string@DU?$char_traits@D@std@@V?$allocator@D@2@@std@@K@std@@@2@$0A@@std@@@0@IPAU120@@Z 04002380 f i MQ2Irc.obj
 0001:000013e0       ??$_Construct@PAU_Node@?$_Tree_nod@V?$_Tmap_traits@V?$basic_string@DU?$char_traits@D@std@@V?$allocator@D@2@@std@@KU?$less@V?$basic_string@DU?$char_traits@D@std@@V?$allocator@D@2@@std@@@2@V?$allocator@U?$pair@$$CBV?$basic_string@DU?$char_traits@D@std@@V?$allocator@D@2@@std@@K@std@@@2@$0A@@std@@@std@@PAU123@@std@@YAXPAPAU_Node@?$_Tree_nod@V?$_Tmap_traits@V?$basic_string@DU?$char_traits@D@std@@V?$allocator@D@2@@std@@KU?$less@V?$basic_string@DU?$char_traits@D@std@@V?$allocator@D@2@@std@@@2@V?$allocator@U?$pair@$$CBV?$basic_string@DU?$char_traits@D@std@@V?$allocator@D@2@@std@@K@std@@@2@$0A@@std@@@0@ABQAU120@@Z 040023e0 f i MQ2Irc.obj
 0001:00001400       ??$?0PAD@?$allocator@V_Aux_cont@std@@@std@@QAE@ABV?$allocator@PAD@1@@Z 04002400 f i MQ2Irc.obj
 0001:00001410       ??$_Allocate@V_Aux_cont@std@@@std@@YAPAV_Aux_cont@0@IPAV10@@Z 04002410 f i MQ2Irc.obj
 0001:00001470       ??$?0U?$pair@$$CBV?$basic_string@DU?$char_traits@D@std@@V?$allocator@D@2@@std@@K@std@@@?$allocator@V_Aux_cont@std@@@std@@QAE@ABV?$allocator@U?$pair@$$CBV?$basic_string@DU?$char_traits@D@std@@V?$allocator@D@2@@std@@K@std@@@1@@Z 04002470 f i MQ2Irc.obj
 0001:00001480       ??0bad_alloc@std@@QAE@ABV01@@Z 04002480 f i MQ2Irc.obj
 0001:000014a0       ??$_Char_traits_cat@U?$char_traits@D@std@@@std@@YA?AU_Secure_char_traits_tag@0@XZ 040024a0 f i MQ2Irc.obj
 0001:000014b0       ??$copy_s@U?$char_traits@D@std@@@_Traits_helper@std@@YAPADPADIPBDIU_Secure_char_traits_tag@1@@Z 040024b0 f i MQ2Irc.obj
 0001:000014e0       ??$move_s@U?$char_traits@D@std@@@_Traits_helper@std@@YAPADPADIPBDIU_Secure_char_traits_tag@1@@Z 040024e0 f i MQ2Irc.obj
 0001:00001510       ??0CCustomWnd@MQ2Internal@@QAE@PAVCXStr@EQClasses@@@Z 04002510 f i MQ2Irc.obj
 0001:000015b0       ??1CCustomWnd@MQ2Internal@@QAE@XZ 040025b0 f i MQ2Irc.obj
 0001:000015d0       ??1CIRCWnd@@QAE@XZ         040025d0 f i MQ2Irc.obj
 0001:000015f0       ??_GCIRCWnd@@QAEPAXI@Z     040025f0 f i MQ2Irc.obj
 0001:00001630       ?GetUnused@?$CIndex@PAU_MQ2TypeMember@MQ2Internal@@@MQ2Internal@@QAEKXZ 04002630 f i MQ2Irc.obj
 0001:00001680       ?compare@?$basic_string@DU?$char_traits@D@std@@V?$allocator@D@2@@std@@QBEHIIPBDI@Z 04002680 f i MQ2Irc.obj
 0001:000016f0       ??0?$_String_val@DV?$allocator@D@std@@@std@@IAE@V?$allocator@D@1@@Z 040026f0 f i MQ2Irc.obj
 0001:00001700       ??0?$_String_val@DV?$allocator@D@std@@@std@@QAE@ABV01@@Z 04002700 f i MQ2Irc.obj
 0001:00001710       ?_Key@?$_Tree@V?$_Tmap_traits@V?$basic_string@DU?$char_traits@D@std@@V?$allocator@D@2@@std@@KU?$less@V?$basic_string@DU?$char_traits@D@std@@V?$allocator@D@2@@std@@@2@V?$allocator@U?$pair@$$CBV?$basic_string@DU?$char_traits@D@std@@V?$allocator@D@2@@std@@K@std@@@2@$0A@@std@@@std@@KAABV?$basic_string@DU?$char_traits@D@std@@V?$allocator@D@2@@2@PAU_Node@?$_Tree_nod@V?$_Tmap_traits@V?$basic_string@DU?$char_traits@D@std@@V?$allocator@D@2@@std@@KU?$less@V?$basic_string@DU?$char_traits@D@std@@V?$allocator@D@2@@std@@@2@V?$allocator@U?$pair@$$CBV?$basic_string@DU?$char_traits@D@std@@V?$allocator@D@2@@std@@K@std@@@2@$0A@@std@@@2@@Z 04002710 f i MQ2Irc.obj
 0001:00001720       ??1?$_Container_base_aux_alloc_real@V?$allocator@U?$pair@$$CBV?$basic_string@DU?$char_traits@D@std@@V?$allocator@D@2@@std@@K@std@@@std@@@std@@IAE@XZ 04002720 f i MQ2Irc.obj
 0001:00001730       ??1?$_Container_base_aux_alloc_real@V?$allocator@PAD@std@@@std@@IAE@XZ 04002730 f i MQ2Irc.obj
 0001:00001740       ?destroy@?$allocator@U_Node@?$_List_nod@PADV?$allocator@PAD@std@@@std@@@std@@QAEXPAU_Node@?$_List_nod@PADV?$allocator@PAD@std@@@2@@Z 04002740 f i MQ2Irc.obj
 0001:00001750       ??E?$_Iterator@$00@?$list@PADV?$allocator@PAD@std@@@std@@QAEAAV012@XZ 04002750 f i MQ2Irc.obj
 0001:00001790       ??D?$_Const_iterator@$00@?$list@PADV?$allocator@PAD@std@@@std@@QBEABQADXZ 04002790 f i MQ2Irc.obj
 0001:000017c0       ??E?$_Const_iterator@$00@?$list@PADV?$allocator@PAD@std@@@std@@QAE?AV012@H@Z 040027c0 f i MQ2Irc.obj
 0001:00001810       ??Diterator@?$_Tree@V?$_Tmap_traits@V?$basic_string@DU?$char_traits@D@std@@V?$allocator@D@2@@std@@KU?$less@V?$basic_string@DU?$char_traits@D@std@@V?$allocator@D@2@@std@@@2@V?$allocator@U?$pair@$$CBV?$basic_string@DU?$char_traits@D@std@@V?$allocator@D@2@@std@@K@std@@@2@$0A@@std@@@std@@QBEAAU?$pair@$$CBV?$basic_string@DU?$char_traits@D@std@@V?$allocator@D@2@@std@@K@2@XZ 04002810 f i MQ2Irc.obj
 0001:00001840       ??0?$_Bidit@PADHPBQADABQAD@std@@QAE@XZ 04002840 f i MQ2Irc.obj
 0001:00001850       ?_Eos@?$basic_string@DU?$char_traits@D@std@@V?$allocator@D@2@@std@@IAEXI@Z 04002850 f i MQ2Irc.obj
 0001:00001870       ?destroy@?$allocator@PAU_Node@?$_Tree_nod@V?$_Tmap_traits@V?$basic_string@DU?$char_traits@D@std@@V?$allocator@D@2@@std@@KU?$less@V?$basic_string@DU?$char_traits@D@std@@V?$allocator@D@2@@std@@@2@V?$allocator@U?$pair@$$CBV?$basic_string@DU?$char_traits@D@std@@V?$allocator@D@2@@std@@K@std@@@2@$0A@@std@@@std@@@std@@QAEXPAPAU_Node@?$_Tree_nod@V?$_Tmap_traits@V?$basic_string@DU?$char_traits@D@std@@V?$allocator@D@2@@std@@KU?$less@V?$basic_string@DU?$char_traits@D@std@@V?$allocator@D@2@@std@@@2@V?$allocator@U?$pair@$$CBV?$basic_string@DU?$char_traits@D@std@@V?$allocator@D@2@@std@@K@std@@@2@$0A@@std@@@2@@Z 04002870 f i MQ2Irc.obj
 0001:00001880       ?clear@?$list@PADV?$allocator@PAD@std@@@std@@QAEXXZ 04002880 f i MQ2Irc.obj
 0001:000018c0       ?allocate@?$allocator@U_Node@?$_List_nod@PADV?$allocator@PAD@std@@@std@@@std@@QAEPAU_Node@?$_List_nod@PADV?$allocator@PAD@std@@@2@I@Z 040028c0 f i MQ2Irc.obj
 0001:000018e0       ?construct@?$allocator@PAU_Node@?$_List_nod@PADV?$allocator@PAD@std@@@std@@@std@@QAEXPAPAU_Node@?$_List_nod@PADV?$allocator@PAD@std@@@2@ABQAU342@@Z 040028e0 f i MQ2Irc.obj
 0001:00001900       ?destroy@?$allocator@PAU_Node@?$_List_nod@PADV?$allocator@PAD@std@@@std@@@std@@QAEXPAPAU_Node@?$_List_nod@PADV?$allocator@PAD@std@@@2@@Z 04002900 f i MQ2Irc.obj
 0001:00001910       ??0?$_Const_iterator@$00@?$list@PADV?$allocator@PAD@std@@@std@@QAE@PAU_Node@?$_List_nod@PADV?$allocator@PAD@std@@@2@PBV12@@Z 04002910 f i MQ2Irc.obj
 0001:00001940       ??0?$_Bidit@U?$pair@$$CBV?$basic_string@DU?$char_traits@D@std@@V?$allocator@D@2@@std@@K@std@@HPBU12@ABU12@@std@@QAE@XZ 04002940 f i MQ2Irc.obj
 0001:00001950       ?max_size@?$basic_string@DU?$char_traits@D@std@@V?$allocator@D@2@@std@@QBEIXZ 04002950 f i MQ2Irc.obj
 0001:00001960       ?max_size@?$_Tree@V?$_Tmap_traits@V?$basic_string@DU?$char_traits@D@std@@V?$allocator@D@2@@std@@KU?$less@V?$basic_string@DU?$char_traits@D@std@@V?$allocator@D@2@@std@@@2@V?$allocator@U?$pair@$$CBV?$basic_string@DU?$char_traits@D@std@@V?$allocator@D@2@@std@@K@std@@@2@$0A@@std@@@std@@QBEIXZ 04002960 f i MQ2Irc.obj
 0001:00001970       ?_Lrotate@?$_Tree@V?$_Tmap_traits@V?$basic_string@DU?$char_traits@D@std@@V?$allocator@D@2@@std@@KU?$less@V?$basic_string@DU?$char_traits@D@std@@V?$allocator@D@2@@std@@@2@V?$allocator@U?$pair@$$CBV?$basic_string@DU?$char_traits@D@std@@V?$allocator@D@2@@std@@K@std@@@2@$0A@@std@@@std@@IAEXPAU_Node@?$_Tree_nod@V?$_Tmap_traits@V?$basic_string@DU?$char_traits@D@std@@V?$allocator@D@2@@std@@KU?$less@V?$basic_string@DU?$char_traits@D@std@@V?$allocator@D@2@@std@@@2@V?$allocator@U?$pair@$$CBV?$basic_string@DU?$char_traits@D@std@@V?$allocator@D@2@@std@@K@std@@@2@$0A@@std@@@2@@Z 04002970 f i MQ2Irc.obj
 0001:000019c0       ?max_size@?$list@PADV?$allocator@PAD@std@@@std@@QBEIXZ 040029c0 f i MQ2Irc.obj
 0001:000019d0       ?construct@?$allocator@PAD@std@@QAEXPAPADABQAD@Z 040029d0 f i MQ2Irc.obj
 0001:000019f0       ??0const_iterator@?$_Tree@V?$_Tmap_traits@V?$basic_string@DU?$char_traits@D@std@@V?$allocator@D@2@@std@@KU?$less@V?$basic_string@DU?$char_traits@D@std@@V?$allocator@D@2@@std@@@2@V?$allocator@U?$pair@$$CBV?$basic_string@DU?$char_traits@D@std@@V?$allocator@D@2@@std@@K@std@@@2@$0A@@std@@@std@@QAE@PAU_Node@?$_Tree_nod@V?$_Tmap_traits@V?$basic_string@DU?$char_traits@D@std@@V?$allocator@D@2@@std@@KU?$less@V?$basic_string@DU?$char_traits@D@std@@V?$allocator@D@2@@std@@@2@V?$allocator@U?$pair@$$CBV?$basic_string@DU?$char_traits@D@std@@V?$allocator@D@2@@std@@K@std@@@2@$0A@@std@@@2@PBV12@@Z 040029f0 f i MQ2Irc.obj
 0001:00001a20       ?_Dec@const_iterator@?$_Tree@V?$_Tmap_traits@V?$basic_string@DU?$char_traits@D@std@@V?$allocator@D@2@@std@@KU?$less@V?$basic_string@DU?$char_traits@D@std@@V?$allocator@D@2@@std@@@2@V?$allocator@U?$pair@$$CBV?$basic_string@DU?$char_traits@D@std@@V?$allocator@D@2@@std@@K@std@@@2@$0A@@std@@@std@@QAEXXZ 04002a20 f i MQ2Irc.obj
 0001:00001ab0       ?_Inc@const_iterator@?$_Tree@V?$_Tmap_traits@V?$basic_string@DU?$char_traits@D@std@@V?$allocator@D@2@@std@@KU?$less@V?$basic_string@DU?$char_traits@D@std@@V?$allocator@D@2@@std@@@2@V?$allocator@U?$pair@$$CBV?$basic_string@DU?$char_traits@D@std@@V?$allocator@D@2@@std@@K@std@@@2@$0A@@std@@@std@@QAEXXZ 04002ab0 f i MQ2Irc.obj
 0001:00001b20       ?allocate@?$allocator@D@std@@QAEPADI@Z 04002b20 f i MQ2Irc.obj
 0001:00001b40       ?allocate@?$allocator@U_Node@?$_Tree_nod@V?$_Tmap_traits@V?$basic_string@DU?$char_traits@D@std@@V?$allocator@D@2@@std@@KU?$less@V?$basic_string@DU?$char_traits@D@std@@V?$allocator@D@2@@std@@@2@V?$allocator@U?$pair@$$CBV?$basic_string@DU?$char_traits@D@std@@V?$allocator@D@2@@std@@K@std@@@2@$0A@@std@@@std@@@std@@QAEPAU_Node@?$_Tree_nod@V?$_Tmap_traits@V?$basic_string@DU?$char_traits@D@std@@V?$allocator@D@2@@std@@KU?$less@V?$basic_string@DU?$char_traits@D@std@@V?$allocator@D@2@@std@@@2@V?$allocator@U?$pair@$$CBV?$basic_string@DU?$char_traits@D@std@@V?$allocator@D@2@@std@@K@std@@@2@$0A@@std@@@2@I@Z 04002b40 f i MQ2Irc.obj
 0001:00001b60       ?construct@?$allocator@PAU_Node@?$_Tree_nod@V?$_Tmap_traits@V?$basic_string@DU?$char_traits@D@std@@V?$allocator@D@2@@std@@KU?$less@V?$basic_string@DU?$char_traits@D@std@@V?$allocator@D@2@@std@@@2@V?$allocator@U?$pair@$$CBV?$basic_string@DU?$char_traits@D@std@@V?$allocator@D@2@@std@@K@std@@@2@$0A@@std@@@std@@@std@@QAEXPAPAU_Node@?$_Tree_nod@V?$_Tmap_traits@V?$basic_string@DU?$char_traits@D@std@@V?$allocator@D@2@@std@@KU?$less@V?$basic_string@DU?$char_traits@D@std@@V?$allocator@D@2@@std@@@2@V?$allocator@U?$pair@$$CBV?$basic_string@DU?$char_traits@D@std@@V?$allocator@D@2@@std@@K@std@@@2@$0A@@std@@@2@ABQAU342@@Z 04002b60 f i MQ2Irc.obj
 0001:00001b80       ?allocate@?$allocator@V_Aux_cont@std@@@std@@QAEPAV_Aux_cont@2@I@Z 04002b80 f i MQ2Irc.obj
 0001:00001ba0       ??0?$_Container_base_aux_alloc_real@V?$allocator@U?$pair@$$CBV?$basic_string@DU?$char_traits@D@std@@V?$allocator@D@2@@std@@K@std@@@std@@@std@@IAE@V?$allocator@U?$pair@$$CBV?$basic_string@DU?$char_traits@D@std@@V?$allocator@D@2@@std@@K@std@@@1@@Z 04002ba0 f i MQ2Irc.obj
 0001:00001bd0       ??$copy_s@U?$char_traits@D@std@@@_Traits_helper@std@@YAPADPADIPBDI@Z 04002bd0 f i MQ2Irc.obj
 0001:00001c00       ??$move_s@U?$char_traits@D@std@@@_Traits_helper@std@@YAPADPADIPBDI@Z 04002c00 f i MQ2Irc.obj
 0001:00001c30       _OnCleanUI                 04002c30 f   MQ2Irc.obj
 0001:00001d80       ?compare@?$basic_string@DU?$char_traits@D@std@@V?$allocator@D@2@@std@@QBEHABV12@@Z 04002d80 f i MQ2Irc.obj
 0001:00001dc0       ??D?$_Iterator@$00@?$list@PADV?$allocator@PAD@std@@@std@@QBEAAPADXZ 04002dc0 f i MQ2Irc.obj
 0001:00001df0       ??E?$_Iterator@$00@?$list@PADV?$allocator@PAD@std@@@std@@QAE?AV012@H@Z 04002df0 f i MQ2Irc.obj
 0001:00001e40       ??1?$_List_nod@PADV?$allocator@PAD@std@@@std@@QAE@XZ 04002e40 f i MQ2Irc.obj
 0001:00001e50       ??1?$_Tmap_traits@V?$basic_string@DU?$char_traits@D@std@@V?$allocator@D@2@@std@@KU?$less@V?$basic_string@DU?$char_traits@D@std@@V?$allocator@D@2@@std@@@2@V?$allocator@U?$pair@$$CBV?$basic_string@DU?$char_traits@D@std@@V?$allocator@D@2@@std@@K@std@@@2@$0A@@std@@QAE@XZ 04002e50 f i MQ2Irc.obj
 0001:00001e60       ?_Tidy@?$basic_string@DU?$char_traits@D@std@@V?$allocator@D@2@@std@@IAEX_NI@Z 04002e60 f i MQ2Irc.obj
 0001:00001eb0       ?_Buynode@?$list@PADV?$allocator@PAD@std@@@std@@IAEPAU_Node@?$_List_nod@PADV?$allocator@PAD@std@@@2@XZ 04002eb0 f i MQ2Irc.obj
 0001:00001ed0       ?_Tidy@?$list@PADV?$allocator@PAD@std@@@std@@IAEXXZ 04002ed0 f i MQ2Irc.obj
 0001:00001f20       ??0?$_Iterator@$00@?$list@PADV?$allocator@PAD@std@@@std@@QAE@PAU_Node@?$_List_nod@PADV?$allocator@PAD@std@@@2@PBV12@@Z 04002f20 f i MQ2Irc.obj
 0001:00001f50       ??0?$_Const_iterator@$00@?$list@PADV?$allocator@PAD@std@@@std@@QAE@XZ 04002f50 f i MQ2Irc.obj
 0001:00001f60       ?erase@?$basic_string@DU?$char_traits@D@std@@V?$allocator@D@2@@std@@QAEAAV12@II@Z 04002f60 f i MQ2Irc.obj
 0001:00001ff0       ?_Buynode@?$list@PADV?$allocator@PAD@std@@@std@@IAEPAU_Node@?$_List_nod@PADV?$allocator@PAD@std@@@2@PAU342@0ABQAD@Z 04002ff0 f i MQ2Irc.obj
 0001:00002030       ??0iterator@?$_Tree@V?$_Tmap_traits@V?$basic_string@DU?$char_traits@D@std@@V?$allocator@D@2@@std@@KU?$less@V?$basic_string@DU?$char_traits@D@std@@V?$allocator@D@2@@std@@@2@V?$allocator@U?$pair@$$CBV?$basic_string@DU?$char_traits@D@std@@V?$allocator@D@2@@std@@K@std@@@2@$0A@@std@@@std@@QAE@PAU_Node@?$_Tree_nod@V?$_Tmap_traits@V?$basic_string@DU?$char_traits@D@std@@V?$allocator@D@2@@std@@KU?$less@V?$basic_string@DU?$char_traits@D@std@@V?$allocator@D@2@@std@@@2@V?$allocator@U?$pair@$$CBV?$basic_string@DU?$char_traits@D@std@@V?$allocator@D@2@@std@@K@std@@@2@$0A@@std@@@2@PBV12@@Z 04003030 f i MQ2Irc.obj
 0001:00002060       ??0const_iterator@?$_Tree@V?$_Tmap_traits@V?$basic_string@DU?$char_traits@D@std@@V?$allocator@D@2@@std@@KU?$less@V?$basic_string@DU?$char_traits@D@std@@V?$allocator@D@2@@std@@@2@V?$allocator@U?$pair@$$CBV?$basic_string@DU?$char_traits@D@std@@V?$allocator@D@2@@std@@K@std@@@2@$0A@@std@@@std@@QAE@XZ 04003060 f i MQ2Irc.obj
 0001:00002070       ??Econst_iterator@?$_Tree@V?$_Tmap_traits@V?$basic_string@DU?$char_traits@D@std@@V?$allocator@D@2@@std@@KU?$less@V?$basic_string@DU?$char_traits@D@std@@V?$allocator@D@2@@std@@@2@V?$allocator@U?$pair@$$CBV?$basic_string@DU?$char_traits@D@std@@V?$allocator@D@2@@std@@K@std@@@2@$0A@@std@@@std@@QAEAAV012@XZ 04003070 f i MQ2Irc.obj
 0001:00002080       ??Fconst_iterator@?$_Tree@V?$_Tmap_traits@V?$basic_string@DU?$char_traits@D@std@@V?$allocator@D@2@@std@@KU?$less@V?$basic_string@DU?$char_traits@D@std@@V?$allocator@D@2@@std@@@2@V?$allocator@U?$pair@$$CBV?$basic_string@DU?$char_traits@D@std@@V?$allocator@D@2@@std@@K@std@@@2@$0A@@std@@@std@@QAEAAV012@XZ 04003080 f i MQ2Irc.obj
 0001:00002090       ?_Copy@?$basic_string@DU?$char_traits@D@std@@V?$allocator@D@2@@std@@IAEXII@Z 04003090 f i MQ2Irc.obj
 0001:000021d0       ?_Make_iter@?$_Tree@V?$_Tmap_traits@V?$basic_string@DU?$char_traits@D@std@@V?$allocator@D@2@@std@@KU?$less@V?$basic_string@DU?$char_traits@D@std@@V?$allocator@D@2@@std@@@2@V?$allocator@U?$pair@$$CBV?$basic_string@DU?$char_traits@D@std@@V?$allocator@D@2@@std@@K@std@@@2@$0A@@std@@@std@@QBE?AViterator@12@Vconst_iterator@12@@Z 040031d0 f i MQ2Irc.obj
 0001:00002200       ?_Buynode@?$_Tree@V?$_Tmap_traits@V?$basic_string@DU?$char_traits@D@std@@V?$allocator@D@2@@std@@KU?$less@V?$basic_string@DU?$char_traits@D@std@@V?$allocator@D@2@@std@@@2@V?$allocator@U?$pair@$$CBV?$basic_string@DU?$char_traits@D@std@@V?$allocator@D@2@@std@@K@std@@@2@$0A@@std@@@std@@IAEPAU_Node@?$_Tree_nod@V?$_Tmap_traits@V?$basic_string@DU?$char_traits@D@std@@V?$allocator@D@2@@std@@KU?$less@V?$basic_string@DU?$char_traits@D@std@@V?$allocator@D@2@@std@@@2@V?$allocator@U?$pair@$$CBV?$basic_string@DU?$char_traits@D@std@@V?$allocator@D@2@@std@@K@std@@@2@$0A@@std@@@2@XZ 04003200 f i MQ2Irc.obj
 0001:00002240       ??Fiterator@?$_Tree@V?$_Tmap_traits@V?$basic_string@DU?$char_traits@D@std@@V?$allocator@D@2@@std@@KU?$less@V?$basic_string@DU?$char_traits@D@std@@V?$allocator@D@2@@std@@@2@V?$allocator@U?$pair@$$CBV?$basic_string@DU?$char_traits@D@std@@V?$allocator@D@2@@std@@K@std@@@2@$0A@@std@@@std@@QAEAAV012@XZ 04003240 f i MQ2Irc.obj
 0001:00002250       ??Econst_iterator@?$_Tree@V?$_Tmap_traits@V?$basic_string@DU?$char_traits@D@std@@V?$allocator@D@2@@std@@KU?$less@V?$basic_string@DU?$char_traits@D@std@@V?$allocator@D@2@@std@@@2@V?$allocator@U?$pair@$$CBV?$basic_string@DU?$char_traits@D@std@@V?$allocator@D@2@@std@@K@std@@@2@$0A@@std@@@std@@QAE?AV012@H@Z 04003250 f i MQ2Irc.obj
 0001:00002270       ??0?$_Container_base_aux_alloc_real@V?$allocator@PAD@std@@@std@@IAE@V?$allocator@PAD@1@@Z 04003270 f i MQ2Irc.obj
 0001:000022a0       ??0?$_Tmap_traits@V?$basic_string@DU?$char_traits@D@std@@V?$allocator@D@2@@std@@KU?$less@V?$basic_string@DU?$char_traits@D@std@@V?$allocator@D@2@@std@@@2@V?$allocator@U?$pair@$$CBV?$basic_string@DU?$char_traits@D@std@@V?$allocator@D@2@@std@@K@std@@@2@$0A@@std@@QAE@U?$less@V?$basic_string@DU?$char_traits@D@std@@V?$allocator@D@2@@std@@@1@V?$allocator@U?$pair@$$CBV?$basic_string@DU?$char_traits@D@std@@V?$allocator@D@2@@std@@K@std@@@1@@Z 040032a0 f i MQ2Irc.obj
 0001:000022d0       ??$?MDU?$char_traits@D@std@@V?$allocator@D@1@@std@@YA_NABV?$basic_string@DU?$char_traits@D@std@@V?$allocator@D@2@@0@0@Z 040032d0 f i MQ2Irc.obj
 0001:00002300       ?WndNotification@CIRCWnd@@QAEHPAVCXWnd@EQClasses@@IPAX@Z 04003300 f i MQ2Irc.obj
 0001:00002460       ??1?$basic_string@DU?$char_traits@D@std@@V?$allocator@D@2@@std@@QAE@XZ 04003460 f i MQ2Irc.obj
 0001:00002490       ?begin@?$list@PADV?$allocator@PAD@std@@@std@@QAE?AV?$_Iterator@$00@12@XZ 04003490 f i MQ2Irc.obj
 0001:000024b0       ?end@?$list@PADV?$allocator@PAD@std@@@std@@QAE?AV?$_Iterator@$00@12@XZ 040034b0 f i MQ2Irc.obj
 0001:000024d0       ??0?$_Iterator@$00@?$list@PADV?$allocator@PAD@std@@@std@@QAE@XZ 040034d0 f i MQ2Irc.obj
 0001:000024e0       ??1?$pair@$$CBV?$basic_string@DU?$char_traits@D@std@@V?$allocator@D@2@@std@@K@std@@QAE@XZ 040034e0 f i MQ2Irc.obj
 0001:00002510       ??1?$_List_ptr@PADV?$allocator@PAD@std@@@std@@QAE@XZ 04003510 f i MQ2Irc.obj
 0001:00002520       ??1?$_Tree_nod@V?$_Tmap_traits@V?$basic_string@DU?$char_traits@D@std@@V?$allocator@D@2@@std@@KU?$less@V?$basic_string@DU?$char_traits@D@std@@V?$allocator@D@2@@std@@@2@V?$allocator@U?$pair@$$CBV?$basic_string@DU?$char_traits@D@std@@V?$allocator@D@2@@std@@K@std@@@2@$0A@@std@@@std@@QAE@XZ 04003520 f i MQ2Irc.obj
 0001:00002530       ?end@?$_Tree@V?$_Tmap_traits@V?$basic_string@DU?$char_traits@D@std@@V?$allocator@D@2@@std@@KU?$less@V?$basic_string@DU?$char_traits@D@std@@V?$allocator@D@2@@std@@@2@V?$allocator@U?$pair@$$CBV?$basic_string@DU?$char_traits@D@std@@V?$allocator@D@2@@std@@K@std@@@2@$0A@@std@@@std@@QAE?AViterator@12@XZ 04003530 f i MQ2Irc.obj
 0001:00002550       ??R?$less@V?$basic_string@DU?$char_traits@D@std@@V?$allocator@D@2@@std@@@std@@QBE_NABV?$basic_string@DU?$char_traits@D@std@@V?$allocator@D@2@@1@0@Z 04003550 f i MQ2Irc.obj
 0001:00002590       ?_Make_iter@?$list@PADV?$allocator@PAD@std@@@std@@QBE?AV?$_Iterator@$00@12@V?$_Const_iterator@$00@12@@Z 04003590 f i MQ2Irc.obj
 0001:000025c0       ?_Grow@?$basic_string@DU?$char_traits@D@std@@V?$allocator@D@2@@std@@IAE_NI_N@Z 040035c0 f i MQ2Irc.obj
 0001:00002680       ?begin@?$_Tree@V?$_Tmap_traits@V?$basic_string@DU?$char_traits@D@std@@V?$allocator@D@2@@std@@KU?$less@V?$basic_string@DU?$char_traits@D@std@@V?$allocator@D@2@@std@@@2@V?$allocator@U?$pair@$$CBV?$basic_string@DU?$char_traits@D@std@@V?$allocator@D@2@@std@@K@std@@@2@$0A@@std@@@std@@QAE?AViterator@12@XZ 04003680 f i MQ2Irc.obj
 0001:000026a0       ?_Init@?$_Tree@V?$_Tmap_traits@V?$basic_string@DU?$char_traits@D@std@@V?$allocator@D@2@@std@@KU?$less@V?$basic_string@DU?$char_traits@D@std@@V?$allocator@D@2@@std@@@2@V?$allocator@U?$pair@$$CBV?$basic_string@DU?$char_traits@D@std@@V?$allocator@D@2@@std@@K@std@@@2@$0A@@std@@@std@@IAEXXZ 040036a0 f i MQ2Irc.obj
 0001:000026d0       ?_Lbound@?$_Tree@V?$_Tmap_traits@V?$basic_string@DU?$char_traits@D@std@@V?$allocator@D@2@@std@@KU?$less@V?$basic_string@DU?$char_traits@D@std@@V?$allocator@D@2@@std@@@2@V?$allocator@U?$pair@$$CBV?$basic_string@DU?$char_traits@D@std@@V?$allocator@D@2@@std@@K@std@@@2@$0A@@std@@@std@@IBEPAU_Node@?$_Tree_nod@V?$_Tmap_traits@V?$basic_string@DU?$char_traits@D@std@@V?$allocator@D@2@@std@@KU?$less@V?$basic_string@DU?$char_traits@D@std@@V?$allocator@D@2@@std@@@2@V?$allocator@U?$pair@$$CBV?$basic_string@DU?$char_traits@D@std@@V?$allocator@D@2@@std@@K@std@@@2@$0A@@std@@@2@ABV?$basic_string@DU?$char_traits@D@std@@V?$allocator@D@2@@2@@Z 040036d0 f i MQ2Irc.obj
 0001:00002760       ??0?$_List_nod@PADV?$allocator@PAD@std@@@std@@IAE@V?$allocator@PAD@1@@Z 04003760 f i MQ2Irc.obj
 0001:00002790       ??0?$_Tree_nod@V?$_Tmap_traits@V?$basic_string@DU?$char_traits@D@std@@V?$allocator@D@2@@std@@KU?$less@V?$basic_string@DU?$char_traits@D@std@@V?$allocator@D@2@@std@@@2@V?$allocator@U?$pair@$$CBV?$basic_string@DU?$char_traits@D@std@@V?$allocator@D@2@@std@@K@std@@@2@$0A@@std@@@std@@IAE@ABU?$less@V?$basic_string@DU?$char_traits@D@std@@V?$allocator@D@2@@std@@@1@V?$allocator@U?$pair@$$CBV?$basic_string@DU?$char_traits@D@std@@V?$allocator@D@2@@std@@K@std@@@1@@Z 04003790 f i MQ2Irc.obj
 0001:000027c0       ??1_Node@?$_Tree_nod@V?$_Tmap_traits@V?$basic_string@DU?$char_traits@D@std@@V?$allocator@D@2@@std@@KU?$less@V?$basic_string@DU?$char_traits@D@std@@V?$allocator@D@2@@std@@@2@V?$allocator@U?$pair@$$CBV?$basic_string@DU?$char_traits@D@std@@V?$allocator@D@2@@std@@K@std@@@2@$0A@@std@@@std@@QAE@XZ 040037c0 f i MQ2Irc.obj
 0001:000027f0       ??1logic_error@std@@UAE@XZ 040037f0 f i MQ2Irc.obj
 0001:00002830       ?c_str@?$basic_string@DU?$char_traits@D@std@@V?$allocator@D@2@@std@@QBEPBDXZ 04003830 f i MQ2Irc.obj
 0001:00002840       ?what@logic_error@std@@UBEPBDXZ 04003840 f i MQ2Irc.obj
 0001:00002850       ??_Glogic_error@std@@UAEPAXI@Z 04003850 f i MQ2Irc.obj
 0001:00002850       ??_Elogic_error@std@@UAEPAXI@Z 04003850 f i MQ2Irc.obj
 0001:000028a0       ??0CIRCWnd@@QAE@PAVCXStr@EQClasses@@@Z 040038a0 f i MQ2Irc.obj
 0001:00002960       ?IrcCmd@@YAXPAU_SPAWNINFO@EQData@@PAD@Z 04003960 f   MQ2Irc.obj
 0001:00003090       _SetGameState              04004090 f   MQ2Irc.obj
 0001:00003190       _OnReloadUI                04004190 f   MQ2Irc.obj
 0001:00003280       ?erase@?$list@PADV?$allocator@PAD@std@@@std@@QAE?AV?$_Iterator@$00@12@V?$_Const_iterator@$00@12@@Z 04004280 f i MQ2Irc.obj
 0001:00003300       ??1?$_List_val@PADV?$allocator@PAD@std@@@std@@QAE@XZ 04004300 f i MQ2Irc.obj
 0001:00003310       ??1?$_Tree_ptr@V?$_Tmap_traits@V?$basic_string@DU?$char_traits@D@std@@V?$allocator@D@2@@std@@KU?$less@V?$basic_string@DU?$char_traits@D@std@@V?$allocator@D@2@@std@@@2@V?$allocator@U?$pair@$$CBV?$basic_string@DU?$char_traits@D@std@@V?$allocator@D@2@@std@@K@std@@@2@$0A@@std@@@std@@QAE@XZ 04004310 f i MQ2Irc.obj
 0001:00003320       ?assign@?$basic_string@DU?$char_traits@D@std@@V?$allocator@D@2@@std@@QAEAAV12@ABV12@II@Z 04004320 f i MQ2Irc.obj
 0001:00003400       ?lower_bound@?$_Tree@V?$_Tmap_traits@V?$basic_string@DU?$char_traits@D@std@@V?$allocator@D@2@@std@@KU?$less@V?$basic_string@DU?$char_traits@D@std@@V?$allocator@D@2@@std@@@2@V?$allocator@U?$pair@$$CBV?$basic_string@DU?$char_traits@D@std@@V?$allocator@D@2@@std@@K@std@@@2@$0A@@std@@@std@@QAE?AViterator@12@ABV?$basic_string@DU?$char_traits@D@std@@V?$allocator@D@2@@2@@Z 04004400 f i MQ2Irc.obj
 0001:00003430       ?assign@?$basic_string@DU?$char_traits@D@std@@V?$allocator@D@2@@std@@QAEAAV12@PBDI@Z 04004430 f i MQ2Irc.obj
 0001:00003510       ??0?$_List_ptr@PADV?$allocator@PAD@std@@@std@@IAE@V?$allocator@PAD@1@@Z 04004510 f i MQ2Irc.obj
 0001:00003540       ??0?$_Tree_ptr@V?$_Tmap_traits@V?$basic_string@DU?$char_traits@D@std@@V?$allocator@D@2@@std@@KU?$less@V?$basic_string@DU?$char_traits@D@std@@V?$allocator@D@2@@std@@@2@V?$allocator@U?$pair@$$CBV?$basic_string@DU?$char_traits@D@std@@V?$allocator@D@2@@std@@K@std@@@2@$0A@@std@@@std@@IAE@ABU?$less@V?$basic_string@DU?$char_traits@D@std@@V?$allocator@D@2@@std@@@1@V?$allocator@U?$pair@$$CBV?$basic_string@DU?$char_traits@D@std@@V?$allocator@D@2@@std@@K@std@@@1@@Z 04004540 f i MQ2Irc.obj
 0001:00003570       ??_G_Node@?$_Tree_nod@V?$_Tmap_traits@V?$basic_string@DU?$char_traits@D@std@@V?$allocator@D@2@@std@@KU?$less@V?$basic_string@DU?$char_traits@D@std@@V?$allocator@D@2@@std@@@2@V?$allocator@U?$pair@$$CBV?$basic_string@DU?$char_traits@D@std@@V?$allocator@D@2@@std@@K@std@@@2@$0A@@std@@@std@@QAEPAXI@Z 04004570 f i MQ2Irc.obj
 0001:000035b0       ??0?$basic_string@DU?$char_traits@D@std@@V?$allocator@D@2@@std@@QAE@ABV01@@Z 040045b0 f i MQ2Irc.obj
 0001:000035e0       ??1?$list@PADV?$allocator@PAD@std@@@std@@QAE@XZ 040045e0 f i MQ2Irc.obj
 0001:00003600       ??1?$_Tree_val@V?$_Tmap_traits@V?$basic_string@DU?$char_traits@D@std@@V?$allocator@D@2@@std@@KU?$less@V?$basic_string@DU?$char_traits@D@std@@V?$allocator@D@2@@std@@@2@V?$allocator@U?$pair@$$CBV?$basic_string@DU?$char_traits@D@std@@V?$allocator@D@2@@std@@K@std@@@2@$0A@@std@@@std@@QAE@XZ 04004600 f i MQ2Irc.obj
 0001:00003610       ?assign@?$basic_string@DU?$char_traits@D@std@@V?$allocator@D@2@@std@@QAEAAV12@PBD@Z 04004610 f i MQ2Irc.obj
 0001:00003640       ??0?$_List_val@PADV?$allocator@PAD@std@@@std@@QAE@V?$allocator@PAD@1@@Z 04004640 f i MQ2Irc.obj
 0001:00003670       ??0?$pair@$$CBV?$basic_string@DU?$char_traits@D@std@@V?$allocator@D@2@@std@@K@std@@QAE@ABV?$basic_string@DU?$char_traits@D@std@@V?$allocator@D@2@@1@ABK@Z 04004670 f i MQ2Irc.obj
 0001:000036a0       ??0?$_Tree_val@V?$_Tmap_traits@V?$basic_string@DU?$char_traits@D@std@@V?$allocator@D@2@@std@@KU?$less@V?$basic_string@DU?$char_traits@D@std@@V?$allocator@D@2@@std@@@2@V?$allocator@U?$pair@$$CBV?$basic_string@DU?$char_traits@D@std@@V?$allocator@D@2@@std@@K@std@@@2@$0A@@std@@@std@@IAE@ABU?$less@V?$basic_string@DU?$char_traits@D@std@@V?$allocator@D@2@@std@@@1@V?$allocator@U?$pair@$$CBV?$basic_string@DU?$char_traits@D@std@@V?$allocator@D@2@@std@@K@std@@@1@@Z 040046a0 f i MQ2Irc.obj
 0001:000036d0       ??0?$pair@$$CBV?$basic_string@DU?$char_traits@D@std@@V?$allocator@D@2@@std@@K@std@@QAE@ABU01@@Z 040046d0 f i MQ2Irc.obj
 0001:00003700       ??$_Destroy@U_Node@?$_Tree_nod@V?$_Tmap_traits@V?$basic_string@DU?$char_traits@D@std@@V?$allocator@D@2@@std@@KU?$less@V?$basic_string@DU?$char_traits@D@std@@V?$allocator@D@2@@std@@@2@V?$allocator@U?$pair@$$CBV?$basic_string@DU?$char_traits@D@std@@V?$allocator@D@2@@std@@K@std@@@2@$0A@@std@@@std@@@std@@YAXPAU_Node@?$_Tree_nod@V?$_Tmap_traits@V?$basic_string@DU?$char_traits@D@std@@V?$allocator@D@2@@std@@KU?$less@V?$basic_string@DU?$char_traits@D@std@@V?$allocator@D@2@@std@@@2@V?$allocator@U?$pair@$$CBV?$basic_string@DU?$char_traits@D@std@@V?$allocator@D@2@@std@@K@std@@@2@$0A@@std@@@0@@Z 04004700 f i MQ2Irc.obj
 0001:00003730       ??0logic_error@std@@QAE@ABV?$basic_string@DU?$char_traits@D@std@@V?$allocator@D@2@@1@@Z 04004730 f i MQ2Irc.obj
 0001:00003790       ??0length_error@std@@QAE@ABV?$basic_string@DU?$char_traits@D@std@@V?$allocator@D@2@@1@@Z 04004790 f i MQ2Irc.obj
 0001:000037b0       ??1length_error@std@@UAE@XZ 040047b0 f i MQ2Irc.obj
 0001:000037f0       ??_Elength_error@std@@UAEPAXI@Z 040047f0 f i MQ2Irc.obj
 0001:000037f0       ??_Glength_error@std@@UAEPAXI@Z 040047f0 f i MQ2Irc.obj
 0001:00003840       ??0out_of_range@std@@QAE@ABV?$basic_string@DU?$char_traits@D@std@@V?$allocator@D@2@@1@@Z 04004840 f i MQ2Irc.obj
 0001:00003860       ??1out_of_range@std@@UAE@XZ 04004860 f i MQ2Irc.obj
 0001:000038a0       ??_Eout_of_range@std@@UAEPAXI@Z 040048a0 f i MQ2Irc.obj
 0001:000038a0       ??_Gout_of_range@std@@UAEPAXI@Z 040048a0 f i MQ2Irc.obj
 0001:000038f0       ??0?$basic_string@DU?$char_traits@D@std@@V?$allocator@D@2@@std@@QAE@PBD@Z 040048f0 f i MQ2Irc.obj
 0001:00003930       ??0?$list@PADV?$allocator@PAD@std@@@std@@QAE@XZ 04004930 f i MQ2Irc.obj
 0001:00003990       ??0?$_Tree@V?$_Tmap_traits@V?$basic_string@DU?$char_traits@D@std@@V?$allocator@D@2@@std@@KU?$less@V?$basic_string@DU?$char_traits@D@std@@V?$allocator@D@2@@std@@@2@V?$allocator@U?$pair@$$CBV?$basic_string@DU?$char_traits@D@std@@V?$allocator@D@2@@std@@K@std@@@2@$0A@@std@@@std@@QAE@ABU?$less@V?$basic_string@DU?$char_traits@D@std@@V?$allocator@D@2@@std@@@1@ABV?$allocator@U?$pair@$$CBV?$basic_string@DU?$char_traits@D@std@@V?$allocator@D@2@@std@@K@std@@@1@@Z 04004990 f i MQ2Irc.obj
 0001:00003a10       ?_Incsize@?$list@PADV?$allocator@PAD@std@@@std@@IAEXI@Z 04004a10 f i MQ2Irc.obj
 0001:00003ab0       ??0logic_error@std@@QAE@ABV01@@Z 04004ab0 f i MQ2Irc.obj
 0001:00003b20       ??0length_error@std@@QAE@ABV01@@Z 04004b20 f i MQ2Irc.obj
 0001:00003b40       ?destroy@?$allocator@U_Node@?$_Tree_nod@V?$_Tmap_traits@V?$basic_string@DU?$char_traits@D@std@@V?$allocator@D@2@@std@@KU?$less@V?$basic_string@DU?$char_traits@D@std@@V?$allocator@D@2@@std@@@2@V?$allocator@U?$pair@$$CBV?$basic_string@DU?$char_traits@D@std@@V?$allocator@D@2@@std@@K@std@@@2@$0A@@std@@@std@@@std@@QAEXPAU_Node@?$_Tree_nod@V?$_Tmap_traits@V?$basic_string@DU?$char_traits@D@std@@V?$allocator@D@2@@std@@KU?$less@V?$basic_string@DU?$char_traits@D@std@@V?$allocator@D@2@@std@@@2@V?$allocator@U?$pair@$$CBV?$basic_string@DU?$char_traits@D@std@@V?$allocator@D@2@@std@@K@std@@@2@$0A@@std@@@2@@Z 04004b40 f i MQ2Irc.obj
 0001:00003b70       ??0_Node@?$_Tree_nod@V?$_Tmap_traits@V?$basic_string@DU?$char_traits@D@std@@V?$allocator@D@2@@std@@KU?$less@V?$basic_string@DU?$char_traits@D@std@@V?$allocator@D@2@@std@@@2@V?$allocator@U?$pair@$$CBV?$basic_string@DU?$char_traits@D@std@@V?$allocator@D@2@@std@@K@std@@@2@$0A@@std@@@std@@QAE@PAU012@00ABU?$pair@$$CBV?$basic_string@DU?$char_traits@D@std@@V?$allocator@D@2@@std@@K@2@D@Z 04004b70 f i MQ2Irc.obj
 0001:00003bd0       ?_Insert@?$list@PADV?$allocator@PAD@std@@@std@@QAEXV?$_Const_iterator@$00@12@ABQAD@Z 04004bd0 f i MQ2Irc.obj
 0001:00003c10       ?erase@?$_Tree@V?$_Tmap_traits@V?$basic_string@DU?$char_traits@D@std@@V?$allocator@D@2@@std@@KU?$less@V?$basic_string@DU?$char_traits@D@std@@V?$allocator@D@2@@std@@@2@V?$allocator@U?$pair@$$CBV?$basic_string@DU?$char_traits@D@std@@V?$allocator@D@2@@std@@K@std@@@2@$0A@@std@@@std@@QAE?AViterator@12@Vconst_iterator@12@@Z 04004c10 f i MQ2Irc.obj
 0001:00003ef0       ??0out_of_range@std@@QAE@ABV01@@Z 04004ef0 f i MQ2Irc.obj
 0001:00003f10       ?_Buynode@?$_Tree@V?$_Tmap_traits@V?$basic_string@DU?$char_traits@D@std@@V?$allocator@D@2@@std@@KU?$less@V?$basic_string@DU?$char_traits@D@std@@V?$allocator@D@2@@std@@@2@V?$allocator@U?$pair@$$CBV?$basic_string@DU?$char_traits@D@std@@V?$allocator@D@2@@std@@K@std@@@2@$0A@@std@@@std@@IAEPAU_Node@?$_Tree_nod@V?$_Tmap_traits@V?$basic_string@DU?$char_traits@D@std@@V?$allocator@D@2@@std@@KU?$less@V?$basic_string@DU?$char_traits@D@std@@V?$allocator@D@2@@std@@@2@V?$allocator@U?$pair@$$CBV?$basic_string@DU?$char_traits@D@std@@V?$allocator@D@2@@std@@K@std@@@2@$0A@@std@@@2@PAU342@00ABU?$pair@$$CBV?$basic_string@DU?$char_traits@D@std@@V?$allocator@D@2@@std@@K@2@D@Z 04004f10 f i MQ2Irc.obj
 0001:00003fa0       ?_Erase@?$_Tree@V?$_Tmap_traits@V?$basic_string@DU?$char_traits@D@std@@V?$allocator@D@2@@std@@KU?$less@V?$basic_string@DU?$char_traits@D@std@@V?$allocator@D@2@@std@@@2@V?$allocator@U?$pair@$$CBV?$basic_string@DU?$char_traits@D@std@@V?$allocator@D@2@@std@@K@std@@@2@$0A@@std@@@std@@IAEXPAU_Node@?$_Tree_nod@V?$_Tmap_traits@V?$basic_string@DU?$char_traits@D@std@@V?$allocator@D@2@@std@@KU?$less@V?$basic_string@DU?$char_traits@D@std@@V?$allocator@D@2@@std@@@2@V?$allocator@U?$pair@$$CBV?$basic_string@DU?$char_traits@D@std@@V?$allocator@D@2@@std@@K@std@@@2@$0A@@std@@@2@@Z 04004fa0 f i MQ2Irc.obj
 0001:00004000       ?push_front@?$list@PADV?$allocator@PAD@std@@@std@@QAEXABQAD@Z 04005000 f i MQ2Irc.obj
 0001:00004040       ?_Insert@?$_Tree@V?$_Tmap_traits@V?$basic_string@DU?$char_traits@D@std@@V?$allocator@D@2@@std@@KU?$less@V?$basic_string@DU?$char_traits@D@std@@V?$allocator@D@2@@std@@@2@V?$allocator@U?$pair@$$CBV?$basic_string@DU?$char_traits@D@std@@V?$allocator@D@2@@std@@K@std@@@2@$0A@@std@@@std@@IAE?AViterator@12@_NPAU_Node@?$_Tree_nod@V?$_Tmap_traits@V?$basic_string@DU?$char_traits@D@std@@V?$allocator@D@2@@std@@KU?$less@V?$basic_string@DU?$char_traits@D@std@@V?$allocator@D@2@@std@@@2@V?$allocator@U?$pair@$$CBV?$basic_string@DU?$char_traits@D@std@@V?$allocator@D@2@@std@@K@std@@@2@$0A@@std@@@2@ABU?$pair@$$CBV?$basic_string@DU?$char_traits@D@std@@V?$allocator@D@2@@std@@K@2@@Z 04005040 f i MQ2Irc.obj
 0001:00004230       ?clear@?$_Tree@V?$_Tmap_traits@V?$basic_string@DU?$char_traits@D@std@@V?$allocator@D@2@@std@@KU?$less@V?$basic_string@DU?$char_traits@D@std@@V?$allocator@D@2@@std@@@2@V?$allocator@U?$pair@$$CBV?$basic_string@DU?$char_traits@D@std@@V?$allocator@D@2@@std@@K@std@@@2@$0A@@std@@@std@@QAEXXZ 04005230 f i MQ2Irc.obj
 0001:00004260       ?parse@@YAPADPAD@Z         04005260 f   MQ2Irc.obj
 0001:00005250       _OnPulse                   04006250 f   MQ2Irc.obj
 0001:000052e0       ?insert@?$_Tree@V?$_Tmap_traits@V?$basic_string@DU?$char_traits@D@std@@V?$allocator@D@2@@std@@KU?$less@V?$basic_string@DU?$char_traits@D@std@@V?$allocator@D@2@@std@@@2@V?$allocator@U?$pair@$$CBV?$basic_string@DU?$char_traits@D@std@@V?$allocator@D@2@@std@@K@std@@@2@$0A@@std@@@std@@QAE?AU?$pair@Viterator@?$_Tree@V?$_Tmap_traits@V?$basic_string@DU?$char_traits@D@std@@V?$allocator@D@2@@std@@KU?$less@V?$basic_string@DU?$char_traits@D@std@@V?$allocator@D@2@@std@@@2@V?$allocator@U?$pair@$$CBV?$basic_string@DU?$char_traits@D@std@@V?$allocator@D@2@@std@@K@std@@@2@$0A@@std@@@std@@_N@2@ABU?$pair@$$CBV?$basic_string@DU?$char_traits@D@std@@V?$allocator@D@2@@std@@K@2@@Z 040062e0 f i MQ2Irc.obj
 0001:00005440       ?erase@?$_Tree@V?$_Tmap_traits@V?$basic_string@DU?$char_traits@D@std@@V?$allocator@D@2@@std@@KU?$less@V?$basic_string@DU?$char_traits@D@std@@V?$allocator@D@2@@std@@@2@V?$allocator@U?$pair@$$CBV?$basic_string@DU?$char_traits@D@std@@V?$allocator@D@2@@std@@K@std@@@2@$0A@@std@@@std@@QAE?AViterator@12@Vconst_iterator@12@0@Z 04006440 f i MQ2Irc.obj
 0001:00005520       ?insert@?$_Tree@V?$_Tmap_traits@V?$basic_string@DU?$char_traits@D@std@@V?$allocator@D@2@@std@@KU?$less@V?$basic_string@DU?$char_traits@D@std@@V?$allocator@D@2@@std@@@2@V?$allocator@U?$pair@$$CBV?$basic_string@DU?$char_traits@D@std@@V?$allocator@D@2@@std@@K@std@@@2@$0A@@std@@@std@@QAE?AViterator@12@Vconst_iterator@12@ABU?$pair@$$CBV?$basic_string@DU?$char_traits@D@std@@V?$allocator@D@2@@std@@K@2@@Z 04006520 f i MQ2Irc.obj
 0001:00005750       ?_Tidy@?$_Tree@V?$_Tmap_traits@V?$basic_string@DU?$char_traits@D@std@@V?$allocator@D@2@@std@@KU?$less@V?$basic_string@DU?$char_traits@D@std@@V?$allocator@D@2@@std@@@2@V?$allocator@U?$pair@$$CBV?$basic_string@DU?$char_traits@D@std@@V?$allocator@D@2@@std@@K@std@@@2@$0A@@std@@@std@@IAEXXZ 04006750 f i MQ2Irc.obj
 0001:00005790       ??A?$map@V?$basic_string@DU?$char_traits@D@std@@V?$allocator@D@2@@std@@KU?$less@V?$basic_string@DU?$char_traits@D@std@@V?$allocator@D@2@@std@@@2@V?$allocator@U?$pair@$$CBV?$basic_string@DU?$char_traits@D@std@@V?$allocator@D@2@@std@@K@std@@@2@@std@@QAEAAKABV?$basic_string@DU?$char_traits@D@std@@V?$allocator@D@2@@1@@Z 04006790 f i MQ2Irc.obj
 0001:000058b0       ??1?$_Tree@V?$_Tmap_traits@V?$basic_string@DU?$char_traits@D@std@@V?$allocator@D@2@@std@@KU?$less@V?$basic_string@DU?$char_traits@D@std@@V?$allocator@D@2@@std@@@2@V?$allocator@U?$pair@$$CBV?$basic_string@DU?$char_traits@D@std@@V?$allocator@D@2@@std@@K@std@@@2@$0A@@std@@@std@@QAE@XZ 040068b0 f i MQ2Irc.obj
 0001:00005920       ?AddMember@MQ2Type@MQ2Internal@@IAEHKPAD@Z 04006920 f i MQ2Irc.obj
 0001:00005a80       ??1?$map@V?$basic_string@DU?$char_traits@D@std@@V?$allocator@D@2@@std@@KU?$less@V?$basic_string@DU?$char_traits@D@std@@V?$allocator@D@2@@std@@@2@V?$allocator@U?$pair@$$CBV?$basic_string@DU?$char_traits@D@std@@V?$allocator@D@2@@std@@K@std@@@2@@std@@QAE@XZ 04006a80 f i MQ2Irc.obj
 0001:00005a90       ??0?$map@V?$basic_string@DU?$char_traits@D@std@@V?$allocator@D@2@@std@@KU?$less@V?$basic_string@DU?$char_traits@D@std@@V?$allocator@D@2@@std@@@2@V?$allocator@U?$pair@$$CBV?$basic_string@DU?$char_traits@D@std@@V?$allocator@D@2@@std@@K@std@@@2@@std@@QAE@XZ 04006a90 f i MQ2Irc.obj
 0001:00005ab0       ??0MQ2Type@MQ2Internal@@QAE@PAD@Z 04006ab0 f i MQ2Irc.obj
 0001:00005b40       ?InitVariable@MQ2Type@MQ2Internal@@UAEXAAU_MQ2VarPtr@2@@Z 04006b40 f i MQ2Irc.obj
 0001:00005b50       ?FreeVariable@MQ2Type@MQ2Internal@@UAEXAAU_MQ2VarPtr@2@@Z 04006b50 f i MQ2Irc.obj
 0001:00005b60       ?ToString@MQ2Type@MQ2Internal@@UAE_NU_MQ2VarPtr@2@PAD@Z 04006b60 f i MQ2Irc.obj
 0001:00005b80       ??1MQ2Type@MQ2Internal@@QAE@XZ 04006b80 f i MQ2Irc.obj
 0001:00005c20       ??0MQ2IrcType@@QAE@XZ      04006c20 f i MQ2Irc.obj
 0001:00005ca0       ?ToString@MQ2IrcType@@UAE_NU_MQ2VarPtr@MQ2Internal@@PAD@Z 04006ca0 f i MQ2Irc.obj
 0001:00005ce0       ?FromData@MQ2IrcType@@UAE_NAAU_MQ2VarPtr@MQ2Internal@@AAU_MQ2TypeVar@3@@Z 04006ce0 f i MQ2Irc.obj
 0001:00005cf0       ?FromString@MQ2IrcType@@UAE_NAAU_MQ2VarPtr@MQ2Internal@@PAD@Z 04006cf0 f i MQ2Irc.obj
 0001:00005d00       ?FindMember@MQ2Type@MQ2Internal@@QAEPAU_MQ2TypeMember@2@PAD@Z 04006d00 f i MQ2Irc.obj
 0001:00005dc0       ?GetMember@MQ2IrcType@@UAE_NU_MQ2VarPtr@MQ2Internal@@PAD1AAU_MQ2TypeVar@3@@Z 04006dc0 f i MQ2Irc.obj
 0001:00005eb0       ??1MQ2IrcType@@QAE@XZ      04006eb0 f i MQ2Irc.obj
 0001:00005ec0       _InitializePlugin          04006ec0 f   MQ2Irc.obj
 0001:00006210       ??_GMQ2IrcType@@QAEPAXI@Z  04007210 f i MQ2Irc.obj
 0001:00006240       _ShutdownPlugin            04007240 f   MQ2Irc.obj
 0001:000062ba       _send@16                   040072ba f   wsock32:WSOCK32.dll
 0001:000062c0       _ioctlsocket@12            040072c0 f   wsock32:WSOCK32.dll
 0001:000062c6       _connect@12                040072c6 f   wsock32:WSOCK32.dll
 0001:000062cc       _htons@4                   040072cc f   wsock32:WSOCK32.dll
 0001:000062d2       _socket@12                 040072d2 f   wsock32:WSOCK32.dll
 0001:000062d8       _WSACleanup@0              040072d8 f   wsock32:WSOCK32.dll
 0001:000062de       _gethostbyname@4           040072de f   wsock32:WSOCK32.dll
 0001:000062e4       _WSAStartup@8              040072e4 f   wsock32:WSOCK32.dll
 0001:000062ea       _recv@16                   040072ea f   wsock32:WSOCK32.dll
 0001:000062f0       _EnterCriticalSection@4    040072f0 f   kernel32:KERNEL32.dll
 0001:000062f6       _LeaveCriticalSection@4    040072f6 f   kernel32:KERNEL32.dll
 0001:000062fc       _Sleep@4                   040072fc f   kernel32:KERNEL32.dll
 0001:00006302       _CreateThread@24           04007302 f   kernel32:KERNEL32.dll
 0001:00006308       _WritePrivateProfileStringA@16 04007308 f   kernel32:KERNEL32.dll
 0001:0000630e       _GetPrivateProfileStringA@24 0400730e f   kernel32:KERNEL32.dll
 0001:00006314       _InitializeCriticalSection@4 04007314 f   kernel32:KERNEL32.dll
 0001:0000631a       _DeleteCriticalSection@4   0400731a f   kernel32:KERNEL32.dll
 0001:00006320       _GetPrivateProfileIntA@16  04007320 f   kernel32:KERNEL32.dll
 0001:00006326       _DebugSpewAlways           04007326 f   mq2main:MQ2Main.dll
 0001:0000632c       _WriteChatColor            0400732c f   mq2main:MQ2Main.dll
 0001:00006332       ??1CXStr@EQClasses@@QAE@XZ 04007332 f   mq2main:MQ2Main.dll
 0001:00006338       ?SetVScrollPos@CXWnd@EQClasses@@QAEHH@Z 04007338 f   mq2main:MQ2Main.dll
 0001:0000633e       ?AppendSTML@CStmlWnd@EQClasses@@QAEAAVCXSize@2@PAV32@VCXStr@2@@Z 0400733e f   mq2main:MQ2Main.dll
 0001:00006344       ??0CXStr@EQClasses@@QAE@ABV01@@Z 04007344 f   mq2main:MQ2Main.dll
 0001:0000634a       ??0CXStr@EQClasses@@QAE@PBD@Z 0400734a f   mq2main:MQ2Main.dll
 0001:00006350       _MQToSTML                  04007350 f   mq2main:MQ2Main.dll
 0001:00006356       _CheckChatForEvent         04007356 f   mq2main:MQ2Main.dll
 0001:0000635c       _StripMQChat               0400735c f   mq2main:MQ2Main.dll
 0001:00006362       ?Show@CXWnd@EQClasses@@QAEH_N0@Z 04007362 f   mq2main:MQ2Main.dll
 0001:00006368       _SetCXStr                  04007368 f   mq2main:MQ2Main.dll
 0001:0000636e       _GetArg                    0400736e f   mq2main:MQ2Main.dll
 0001:00006374       ??1CSidlScreenWnd@EQClasses@@QAE@XZ 04007374 f   mq2main:MQ2Main.dll
 0001:0000637a       ?CreateChildrenFromSidl@CSidlScreenWnd@EQClasses@@QAEXXZ 0400737a f   mq2main:MQ2Main.dll
 0001:00006380       ??0CSidlScreenWnd@EQClasses@@QAE@PAVCXWnd@1@PAVCXStr@1@HHPAD@Z 04007380 f   mq2main:MQ2Main.dll
 0001:00006386       ?WndNotification@CSidlScreenWnd@EQClasses@@QAEHPAVCXWnd@2@IPAX@Z 04007386 f   mq2main:MQ2Main.dll
 0001:0000638c       _DebugSpew                 0400738c f   mq2main:MQ2Main.dll
 0001:00006392       ?ClrFocus@CXWnd@EQClasses@@QAEXXZ 04007392 f   mq2main:MQ2Main.dll
 0001:00006398       _GetCXStr                  04007398 f   mq2main:MQ2Main.dll
 0001:0000639e       ?SetMaxChars@CEditBaseWnd@EQClasses@@QAEXH@Z 0400739e f   mq2main:MQ2Main.dll
 0001:000063a4       ?GetChildItem@CSidlScreenWnd@EQClasses@@QAEPAVCXWnd@2@PAD@Z 040073a4 f   mq2main:MQ2Main.dll
 0001:000063aa       _AddMQ2Type                040073aa f   mq2main:MQ2Main.dll
 0001:000063b0       _RemoveMQ2Type             040073b0 f   mq2main:MQ2Main.dll
 0001:000063b6       _AddMQ2Data                040073b6 f   mq2main:MQ2Main.dll
 0001:000063bc       _AddCommand                040073bc f   mq2main:MQ2Main.dll
 0001:000063c2       _RemoveMQ2Data             040073c2 f   mq2main:MQ2Main.dll
 0001:000063c8       _RemoveCommand             040073c8 f   mq2main:MQ2Main.dll
 0001:000063ce       ??0invalid_argument@std@@QAE@ABV?$basic_string@DU?$char_traits@D@std@@V?$allocator@D@2@@1@@Z 040073ce f i libcpmt:string.obj
 0001:000063eb       ??1invalid_argument@std@@UAE@XZ 040073eb f i libcpmt:string.obj
 0001:000063f6       ??_Ginvalid_argument@std@@UAEPAXI@Z 040073f6 f i libcpmt:string.obj
 0001:000063f6       ??_Einvalid_argument@std@@UAEPAXI@Z 040073f6 f i libcpmt:string.obj
 0001:0000641d       ?_Xlen@_String_base@std@@SAXXZ 0400741d f   libcpmt:string.obj
 0001:00006455       ?_Xran@_String_base@std@@SAXXZ 04007455 f   libcpmt:string.obj
 0001:0000648d       ?_Xinvarg@_String_base@std@@SAXXZ 0400748d f   libcpmt:string.obj
 0001:000064c5       ??0invalid_argument@std@@QAE@ABV01@@Z 040074c5 f i libcpmt:string.obj
 0001:000064e2       ??_U@YAPAXI@Z              040074e2 f   libcpmt:newaop.obj
 0001:00006500       _strchr                    04007500 f   LIBCMT:strchr.obj
 0001:00006506       ___from_strstr_to_strchr   04007506     LIBCMT:strchr.obj
 0001:000065be       ??0exception@std@@QAE@XZ   040075be f   LIBCMT:stdexcpt.obj
 0001:000065cf       ??0exception@std@@QAE@ABQBD@Z 040075cf f   LIBCMT:stdexcpt.obj
 0001:00006622       ??0exception@std@@QAE@ABQBDH@Z 04007622 f   LIBCMT:stdexcpt.obj
 0001:0000663f       ??0exception@std@@QAE@ABV01@@Z 0400763f f   LIBCMT:stdexcpt.obj
 0001:0000669c       ??4exception@std@@QAEAAV01@ABV01@@Z 0400769c f   LIBCMT:stdexcpt.obj
 0001:000066f7       ??1exception@std@@UAE@XZ   040076f7 f   LIBCMT:stdexcpt.obj
 0001:0000670d       ?what@exception@std@@UBEPBDXZ 0400770d f   LIBCMT:stdexcpt.obj
 0001:0000671a       ??0bad_cast@std@@QAE@PBD@Z 0400771a f   LIBCMT:stdexcpt.obj
 0001:00006738       ??0bad_cast@std@@QAE@ABV01@@Z 04007738 f   LIBCMT:stdexcpt.obj
 0001:00006755       ??1bad_cast@std@@UAE@XZ    04007755 f   LIBCMT:stdexcpt.obj
 0001:00006760       ??0bad_typeid@std@@QAE@PBD@Z 04007760 f   LIBCMT:stdexcpt.obj
 0001:0000677e       ??0bad_typeid@std@@QAE@ABV01@@Z 0400777e f   LIBCMT:stdexcpt.obj
 0001:0000679b       ??1bad_typeid@std@@UAE@XZ  0400779b f   LIBCMT:stdexcpt.obj
 0001:000067a6       ??0__non_rtti_object@std@@QAE@PBD@Z 040077a6 f   LIBCMT:stdexcpt.obj
 0001:000067c3       ??0__non_rtti_object@std@@QAE@ABV01@@Z 040077c3 f   LIBCMT:stdexcpt.obj
 0001:000067e0       ??1__non_rtti_object@std@@UAE@XZ 040077e0 f   LIBCMT:stdexcpt.obj
 0001:000067eb       ??_Eexception@std@@UAEPAXI@Z 040077eb f i LIBCMT:stdexcpt.obj
 0001:000067eb       ??_Gexception@std@@UAEPAXI@Z 040077eb f i LIBCMT:stdexcpt.obj
 0001:0000680c       ??_Gbad_cast@std@@UAEPAXI@Z 0400780c f i LIBCMT:stdexcpt.obj
 0001:0000680c       ??_Ebad_cast@std@@UAEPAXI@Z 0400780c f i LIBCMT:stdexcpt.obj
 0001:00006833       ??_Ebad_typeid@std@@UAEPAXI@Z 04007833 f i LIBCMT:stdexcpt.obj
 0001:00006833       ??_Gbad_typeid@std@@UAEPAXI@Z 04007833 f i LIBCMT:stdexcpt.obj
 0001:0000685a       ??_E__non_rtti_object@std@@UAEPAXI@Z 0400785a f i LIBCMT:stdexcpt.obj
 0001:0000685a       ??_G__non_rtti_object@std@@UAEPAXI@Z 0400785a f i LIBCMT:stdexcpt.obj
 0001:00006881       ?name@type_info@@QBEPBDPAU__type_info_node@@@Z 04007881 f   LIBCMT:typinfo.obj
 0001:00006895       ??1type_info@@UAE@XZ       04007895 f   LIBCMT:typinfo.obj
 0001:000068a5       ??_Gtype_info@@UAEPAXI@Z   040078a5 f i LIBCMT:typinfo.obj
 0001:000068a5       ??_Etype_info@@UAEPAXI@Z   040078a5 f i LIBCMT:typinfo.obj
 0001:000068c6       ?_name_internal_method@type_info@@QBEPBDPAU__type_info_node@@@Z 040078c6 f   LIBCMT:typinfo.obj
 0001:000068da       ?_type_info_dtor_internal_method@type_info@@QAEXXZ 040078da f   LIBCMT:typinfo.obj
 0001:000068e4       ??8type_info@@QBE_NABV0@@Z 040078e4 f   LIBCMT:typinfo.obj
 0001:00006904       ??9type_info@@QBE_NABV0@@Z 04007904 f   LIBCMT:typinfo.obj
 0001:00006925       ?before@type_info@@QBEHABV1@@Z 04007925 f   LIBCMT:typinfo.obj
 0001:00006949       ?raw_name@type_info@@QBEPBDXZ 04007949 f   LIBCMT:typinfo.obj
 0001:0000694d       ??0type_info@@AAE@ABV0@@Z  0400794d f   LIBCMT:typinfo.obj
 0001:00006958       ??4type_info@@AAEAAV0@ABV0@@Z 04007958 f   LIBCMT:typinfo.obj
 0001:0000695d       ??3@YAXPAX@Z               0400795d f   LIBCMT:delete.obj
 0001:00006968       _memcpy_s                  04007968 f   LIBCMT:memcpy_s.obj
 0001:000069e5       _memmove_s                 040079e5 f   LIBCMT:memmove_s.obj
 0001:00006a42       ??0bad_alloc@std@@QAE@XZ   04007a42 f i LIBCMT:new.obj
 0001:00006a5d       ??2@YAPAXI@Z               04007a5d f   LIBCMT:new.obj
 0001:00006ac2       _sprintf                   04007ac2 f   LIBCMT:sprintf.obj
 0001:00006b3f       __sprintf_l                04007b3f f   LIBCMT:sprintf.obj
 0001:00006b5b       _sprintf_s                 04007b5b f   LIBCMT:sprintf.obj
 0001:00006b79       __sprintf_s_l              04007b79 f   LIBCMT:sprintf.obj
 0001:00006b98       __snprintf_s               04007b98 f   LIBCMT:sprintf.obj
 0001:00006bb9       __snprintf_s_l             04007bb9 f   LIBCMT:sprintf.obj
 0001:00006bdb       __sprintf_p                04007bdb f   LIBCMT:sprintf.obj
 0001:00006bf9       __sprintf_p_l              04007bf9 f   LIBCMT:sprintf.obj
 0001:00006c18       __scprintf                 04007c18 f   LIBCMT:sprintf.obj
 0001:00006c2d       __scprintf_p               04007c2d f   LIBCMT:sprintf.obj
 0001:00006c42       __scprintf_l               04007c42 f   LIBCMT:sprintf.obj
 0001:00006c5b       __scprintf_p_l             04007c5b f   LIBCMT:sprintf.obj
 0001:00006c74       ?_JumpToContinuation@@YGXPAXPAUEHRegistrationNode@@@Z 04007c74 f   LIBCMT:_trnsctrl_.obj
 0001:00006ca6       ?_CallMemberFunction0@@YGXPAX0@Z 04007ca6 f   LIBCMT:_trnsctrl_.obj
 0001:00006cad       ?_CallMemberFunction1@@YGXPAX00@Z 04007cad f   LIBCMT:_trnsctrl_.obj
 0001:00006cb4       ?_CallMemberFunction2@@YGXPAX00H@Z 04007cb4 f   LIBCMT:_trnsctrl_.obj
 0001:00006cbb       ?_UnwindNestedFrames@@YGXPAUEHRegistrationNode@@PAUEHExceptionRecord@@@Z 04007cbb f   LIBCMT:_trnsctrl_.obj
 0001:00006d0f       ___CxxFrameHandler         04007d0f f   LIBCMT:_trnsctrl_.obj
 0001:00006d45       ___CxxFrameHandler3        04007d45 f   LIBCMT:_trnsctrl_.obj
 0001:00006d7b       ___CxxFrameHandler2        04007d7b f   LIBCMT:_trnsctrl_.obj
 0001:00006db1       ___CxxLongjmpUnwind@4      04007db1 f   LIBCMT:_trnsctrl_.obj
 0001:00006e03       ?_CallSETranslator@@YAHPAUEHExceptionRecord@@PAUEHRegistrationNode@@PAX2PBU_s_FuncInfo@@H1@Z 04007e03 f   LIBCMT:_trnsctrl_.obj
 0001:00006f79       ?_GetRangeOfTrysToCheck@@YAPBU_s_TryBlockMapEntry@@PBU_s_FuncInfo@@HHPAI1@Z 04007f79 f   LIBCMT:_trnsctrl_.obj
 0001:00006fee       __CreateFrameInfo          04007fee f   LIBCMT:_trnsctrl_.obj
 0001:0000701a       __IsExceptionObjectToBeDestroyed 0400801a f   LIBCMT:_trnsctrl_.obj
 0001:00007041       __FindAndUnlinkFrame       04008041 f   LIBCMT:_trnsctrl_.obj
 0001:00007093       ?_CallCatchBlock2@@YAPAXPAUEHRegistrationNode@@PBU_s_FuncInfo@@PAXHK@Z 04008093 f   LIBCMT:_trnsctrl_.obj
 0001:000070f3       _atol                      040080f3 f   LIBCMT:atox.obj
 0001:00007109       __atol_l                   04008109 f   LIBCMT:atox.obj
 0001:00007122       _atoi                      04008122 f   LIBCMT:atox.obj
 0001:0000712d       __atoi_l                   0400812d f   LIBCMT:atox.obj
 0001:00007138       __atoi64                   04008138 f   LIBCMT:atox.obj
 0001:0000714e       __atoi64_l                 0400814e f   LIBCMT:atox.obj
 0001:00007170       __alloca_probe             04008170     LIBCMT:chkstk.obj
 0001:00007170       __chkstk                   04008170 f   LIBCMT:chkstk.obj
 0001:000071a0       _memset                    040081a0 f   LIBCMT:memset.obj
 0001:0000721a       _free                      0400821a f   LIBCMT:free.obj
 0001:000072a8       __initp_misc_invarg        040082a8 f   LIBCMT:invarg.obj
 0001:000072b7       __invoke_watson            040082b7 f   LIBCMT:invarg.obj
 0001:000073df       __set_invalid_parameter_handler 040083df f   LIBCMT:invarg.obj
 0001:00007406       __get_invalid_parameter_handler 04008406 f   LIBCMT:invarg.obj
 0001:00007413       ?_invoke_watson@@YAXPBG00II@Z 04008413 f   LIBCMT:invarg.obj
 0001:0000741e       __invalid_parameter        0400841e f   LIBCMT:invarg.obj
 0001:00007444       __invalid_parameter_noinfo 04008444 f   LIBCMT:invarg.obj
 0001:00007454       ?_invalid_parameter@@YAXPBG00II@Z 04008454 f   LIBCMT:invarg.obj
 0001:0000745f       _V6_HeapAlloc              0400845f f   LIBCMT:malloc.obj
 0001:000074ae       __heap_alloc               040084ae f i LIBCMT:malloc.obj
 0001:00007528       _malloc                    04008528 f   LIBCMT:malloc.obj
 0001:00007600       _memcpy                    04008600 f   LIBCMT:memcpy.obj
 0001:00007965       __CxxThrowException@8      04008965 f   LIBCMT:throw.obj
 0001:000079c0       _strncpy                   040089c0 f   LIBCMT:strncpy.obj
 0001:00007ae4       __purecall                 04008ae4 f   LIBCMT:purevirt.obj
 0001:00007b0e       __set_purecall_handler     04008b0e f   LIBCMT:purevirt.obj
 0001:00007b35       __get_purecall_handler     04008b35 f   LIBCMT:purevirt.obj
 0001:00007bfc       ___onexitinit              04008bfc f   LIBCMT:onexit.obj
 0001:00007c2d       __onexit                   04008c2d f   LIBCMT:onexit.obj
 0001:00007c69       _atexit                    04008c69 f   LIBCMT:onexit.obj
 0001:00007c80       __CRT_INIT@12              04008c80 f   LIBCMT:dllcrt0.obj
 0001:00007eab       __DllMainCRTStartup@12     04008eab f   LIBCMT:dllcrt0.obj
 0001:00007ed0       _strlen                    04008ed0 f   LIBCMT:strlen.obj
 0001:00007f5b       @__security_check_cookie@4 04008f5b f   LIBCMT:secchk.obj
 0001:00007f6a       __EH_prolog3               04008f6a f   LIBCMT:ehprolg3.obj
 0001:00007f9d       __EH_prolog3_catch         04008f9d f   LIBCMT:ehprolg3.obj
 0001:00007fd3       __EH_prolog3_GS            04008fd3 f   LIBCMT:ehprolg3.obj
 0001:00008009       __EH_prolog3_catch_GS      04009009 f   LIBCMT:ehprolg3.obj
 0001:00008042       __EH_epilog3               04009042 f   LIBCMT:ehprolg3.obj
 0001:00008056       __EH_epilog3_GS            04009056 f   LIBCMT:ehprolg3.obj
 0001:00008065       __EH_epilog3_catch_GS      04009065 f   LIBCMT:ehprolg3.obj
 0001:00008074       _strcpy_s                  04009074 f   LIBCMT:strcpy_s.obj
 0001:000080dc       __invoke_watson_if_error   040090dc f i LIBCMT:typname.obj
 0001:00008100       ?_Type_info_dtor@type_info@@CAXPAV1@@Z 04009100 f   LIBCMT:typname.obj
 0001:00008170       ?_Name_base@type_info@@CAPBDPBV1@PAU__type_info_node@@@Z 04009170 f   LIBCMT:typname.obj
 0001:00008265       ?_Type_info_dtor_internal@type_info@@CAXPAV1@@Z 04009265 f   LIBCMT:typname.obj
 0001:000082d5       ___unDNameHelper           040092d5 f   LIBCMT:typname.obj
 0001:00008308       ?_Name_base_internal@type_info@@CAPBDPBV1@PAU__type_info_node@@@Z 04009308 f   LIBCMT:typname.obj
 0001:00008417       ___clean_type_info_names_internal 04009417 f   LIBCMT:typname.obj
 0001:00008470       _strcmp                    04009470 f   LIBCMT:strcmp.obj
 0001:000084f8       __get_errno_from_oserr     040094f8 f   LIBCMT:dosmap.obj
 0001:0000853a       __errno                    0400953a f   LIBCMT:dosmap.obj
 0001:0000854d       ___doserrno                0400954d f   LIBCMT:dosmap.obj
 0001:00008560       __dosmaperr                04009560 f   LIBCMT:dosmap.obj
 0001:00008583       __set_errno                04009583 f   LIBCMT:dosmap.obj
 0001:000085a4       __get_errno                040095a4 f   LIBCMT:dosmap.obj
 0001:000085d3       __set_doserrno             040095d3 f   LIBCMT:dosmap.obj
 0001:000085f4       __get_doserrno             040095f4 f   LIBCMT:dosmap.obj
 0001:00008630       _memmove                   04009630 f   LIBCMT:memmove.obj
 0001:00008995       __initp_heap_handler       04009995 f   LIBCMT:handler.obj
 0001:000089a4       ?_set_new_handler@@YAP6AHI@ZP6AHI@Z@Z 040099a4 f   LIBCMT:handler.obj
 0001:000089da       ?_set_new_handler@@YAP6AHI@ZH@Z 040099da f   LIBCMT:handler.obj
 0001:000089e3       ?_query_new_handler@@YAP6AHI@ZXZ 040099e3 f   LIBCMT:handler.obj
 0001:000089f0       __callnewh                 040099f0 f   LIBCMT:handler.obj
 0001:00008a18       __flsbuf                   04009a18 f   LIBCMT:_flsbuf.obj
 0001:00008b7c       ??0_LocaleUpdate@@QAE@PAUlocaleinfo_struct@@@Z 04009b7c f i LIBCMT:output.obj
 0001:00008c03       ??1_LocaleUpdate@@QAE@XZ   04009c03 f i LIBCMT:output.obj
 0001:00008c11       ?GetLocaleT@_LocaleUpdate@@QAEPAUlocaleinfo_struct@@XZ 04009c11 f i LIBCMT:output.obj
 0001:00008cba       _get_int_arg               04009cba f i LIBCMT:output.obj
 0001:00008ccc       _get_int64_arg             04009ccc f i LIBCMT:output.obj
 0001:00008ce1       _get_short_arg             04009ce1 f i LIBCMT:output.obj
 0001:00008cf4       __output_l                 04009cf4 f   LIBCMT:output.obj
 0001:0000988c       __vsprintf_l               0400a88c f   LIBCMT:vsprintf.obj
 0001:0000990a       _vsprintf                  0400a90a f   LIBCMT:vsprintf.obj
 0001:00009924       __vscprintf_helper         0400a924 f   LIBCMT:vsprintf.obj
 0001:0000997b       __vscprintf                0400a97b f   LIBCMT:vsprintf.obj
 0001:00009997       __vscprintf_l              0400a997 f   LIBCMT:vsprintf.obj
 0001:000099b4       __vscprintf_p              0400a9b4 f   LIBCMT:vsprintf.obj
 0001:000099d0       __vscprintf_p_l            0400a9d0 f   LIBCMT:vsprintf.obj
 0001:000099ed       __vsnprintf_helper         0400a9ed f   LIBCMT:vsnprnc.obj
 0001:00009ab9       __vsnprintf_c              0400aab9 f   LIBCMT:vsnprnc.obj
 0001:00009ae2       __vsnprintf_c_l            0400aae2 f   LIBCMT:vsnprnc.obj
 0001:00009b0c       __vsprintf_s_l             0400ab0c f   LIBCMT:vsnprnc.obj
 0001:00009b94       _vsprintf_s                0400ab94 f   LIBCMT:vsnprnc.obj
 0001:00009bb1       __vsnprintf_s_l            0400abb1 f   LIBCMT:vsnprnc.obj
 0001:00009cb8       __vsnprintf_s              0400acb8 f   LIBCMT:vsnprnc.obj
 0001:00009cd8       __vsprintf_p               0400acd8 f   LIBCMT:vsnprnc.obj
 0001:00009d01       __vsprintf_p_l             0400ad01 f   LIBCMT:vsnprnc.obj
 0001:00009d2b       ??0bad_exception@std@@QAE@PBD@Z 0400ad2b f i LIBCMT:frame.obj
 0001:00009d49       ??1bad_exception@std@@UAE@XZ 0400ad49 f i LIBCMT:frame.obj
 0001:00009d54       ??_Gbad_exception@std@@UAEPAXI@Z 0400ad54 f i LIBCMT:frame.obj
 0001:00009d54       ??_Ebad_exception@std@@UAEPAXI@Z 0400ad54 f i LIBCMT:frame.obj
 0001:00009d7b       ___TypeMatch               0400ad7b f   LIBCMT:frame.obj
 0001:00009dda       ___FrameUnwindFilter       0400adda f   LIBCMT:frame.obj
 0001:00009e23       ___FrameUnwindToState      0400ae23 f   LIBCMT:frame.obj
 0001:00009f49       ___DestructExceptionObject 0400af49 f   LIBCMT:frame.obj
 0001:00009f9e       ___AdjustPointer           0400af9e f   LIBCMT:frame.obj
 0001:00009fc7       ?__uncaught_exception@@YA_NXZ 0400afc7 f   LIBCMT:frame.obj
 0001:00009fda       ___CxxRegisterExceptionObject 0400afda f   LIBCMT:frame.obj
 0001:0000a091       ___CxxDetectRethrow        0400b091 f   LIBCMT:frame.obj
 0001:0000a0e3       ___CxxUnregisterExceptionObject 0400b0e3 f   LIBCMT:frame.obj
 0001:0000a222       ___CxxQueryExceptionSize   0400b222 f   LIBCMT:frame.obj
 0001:0000a226       ___CxxCallUnwindDtor       0400b226 f   LIBCMT:frame.obj
 0001:0000a258       ___CxxCallUnwindDelDtor    0400b258 f   LIBCMT:frame.obj
 0001:0000a28b       ___CxxCallUnwindStdDelDtor 0400b28b f   LIBCMT:frame.obj
 0001:0000a2bd       ___CxxCallUnwindVecDtor    0400b2bd f   LIBCMT:frame.obj
 0001:0000a3ee       ?_is_exception_typeof@@YAHABVtype_info@@PAU_EXCEPTION_POINTERS@@@Z 0400b3ee f   LIBCMT:frame.obj
 0001:0000a610       ___BuildCatchObjectHelper  0400b610 f   LIBCMT:frame.obj
 0001:0000a78f       ___BuildCatchObject        0400b78f f   LIBCMT:frame.obj
 0001:0000a821       ___CxxExceptionFilter      0400b821 f   LIBCMT:frame.obj
 0001:0000ae0f       ??0bad_exception@std@@QAE@ABV01@@Z 0400be0f f i LIBCMT:frame.obj
 0001:0000ae2c       ___InternalCxxFrameHandler 0400be2c f   LIBCMT:frame.obj
 0001:0000af12       __crt_wait_module_handle   0400bf12 f i LIBCMT:tidtable.obj
 0001:0000af2c       __encode_pointer           0400bf2c f   LIBCMT:tidtable.obj
 0001:0000af9e       __encoded_null             0400bf9e f   LIBCMT:tidtable.obj
 0001:0000afa7       __decode_pointer           0400bfa7 f   LIBCMT:tidtable.obj
 0001:0000b019       ___crtTlsAlloc@4           0400c019 f   LIBCMT:tidtable.obj
 0001:0000b022       ___fls_getvalue@4          0400c022 f   LIBCMT:tidtable.obj
 0001:0000b03c       ___get_flsindex            0400c03c f   LIBCMT:tidtable.obj
 0001:0000b042       ___set_flsgetvalue         0400c042 f   LIBCMT:tidtable.obj
 0001:0000b076       ___fls_setvalue@8          0400c076 f   LIBCMT:tidtable.obj
 0001:0000b093       __mtterm                   0400c093 f   LIBCMT:tidtable.obj
 0001:0000b0d0       __initptd                  0400c0d0 f   LIBCMT:tidtable.obj
 0001:0000b1b7       __getptd_noexit            0400c1b7 f   LIBCMT:tidtable.obj
 0001:0000b230       __getptd                   0400c230 f   LIBCMT:tidtable.obj
 0001:0000b24a       __freefls@4                0400c24a f   LIBCMT:tidtable.obj
 0001:0000b379       __freeptd                  0400c379 f   LIBCMT:tidtable.obj
 0001:0000b3e7       ___threadid                0400c3e7 f   LIBCMT:tidtable.obj
 0001:0000b3ed       ___threadhandle            0400c3ed f   LIBCMT:tidtable.obj
 0001:0000b3f3       __mtinit                   0400c3f3 f   LIBCMT:tidtable.obj
 0001:0000b580       ?terminate@@YAXXZ          0400c580 f   LIBCMT:hooks.obj
 0001:0000b5b9       ?unexpected@@YAXXZ         0400c5b9 f   LIBCMT:hooks.obj
 0001:0000b5cc       ?_inconsistency@@YAXXZ     0400c5cc f   LIBCMT:hooks.obj
 0001:0000b604       __initp_eh_hooks           0400c604 f   LIBCMT:hooks.obj
 0001:0000b620       __CallSettingFrame@12      0400c620 f   LIBCMT:lowhelpr.obj
 0001:0000b647       __NLG_Return               0400c647     LIBCMT:lowhelpr.obj
 0001:0000b89b       _strtol                    0400c89b f   LIBCMT:strtol.obj
 0001:0000b8c6       __strtol_l                 0400c8c6 f   LIBCMT:strtol.obj
 0001:0000b8e3       _strtoul                   0400c8e3 f   LIBCMT:strtol.obj
 0001:0000b90f       __strtoul_l                0400c90f f   LIBCMT:strtol.obj
 0001:0000bbc3       __strtoi64                 0400cbc3 f   LIBCMT:strtoq.obj
 0001:0000bbee       __strtoi64_l               0400cbee f   LIBCMT:strtoq.obj
 0001:0000bc0b       __strtoui64                0400cc0b f   LIBCMT:strtoq.obj
 0001:0000bc37       __strtoui64_l              0400cc37 f   LIBCMT:strtoq.obj
 0001:0000bcab       __VEC_memzero              0400ccab f   LIBCMT:p4_memset.obj
 0001:0000bd8a       __get_sse2_info            0400cd8a f   LIBCMT:cpu_disp.obj
 0001:0000bdec       ___sse2_available_init     0400cdec f   LIBCMT:cpu_disp.obj
 0001:0000bdf9       ___heap_select             0400cdf9 f   LIBCMT:heapinit.obj
 0001:0000bdfd       __heap_init                0400cdfd f   LIBCMT:heapinit.obj
 0001:0000be2d       __heap_term                0400ce2d f   LIBCMT:heapinit.obj
 0001:0000bea1       __get_heap_handle          0400cea1 f   LIBCMT:heapinit.obj
 0001:0000bea7       __mtinitlocks              0400cea7 f   LIBCMT:mlock.obj
 0001:0000bef2       __mtdeletelocks            0400cef2 f   LIBCMT:mlock.obj
 0001:0000bf49       __unlock                   0400cf49 f   LIBCMT:mlock.obj
 0001:0000bf60       __lockerr_exit             0400cf60 f   LIBCMT:mlock.obj
 0001:0000bf78       __mtinitlocknum            0400cf78 f   LIBCMT:mlock.obj
 0001:0000c03b       __lock                     0400d03b f   LIBCMT:mlock.obj
 0001:0000c06e       __get_sbh_threshold        0400d06e f   LIBCMT:sbheap.obj
 0001:0000c08f       __set_amblksiz             0400d08f f   LIBCMT:sbheap.obj
 0001:0000c0da       __get_amblksiz             0400d0da f   LIBCMT:sbheap.obj
 0001:0000c11b       ___sbh_heap_init           0400d11b f   LIBCMT:sbheap.obj
 0001:0000c169       ___sbh_find_block          0400d169 f   LIBCMT:sbheap.obj
 0001:0000c199       ___sbh_free_block          0400d199 f   LIBCMT:sbheap.obj
 0001:0000c4af       ___sbh_alloc_new_region    0400d4af f   LIBCMT:sbheap.obj
 0001:0000c55f       ___sbh_alloc_new_group     0400d55f f   LIBCMT:sbheap.obj
 0001:0000c667       ___sbh_resize_block        0400d667 f   LIBCMT:sbheap.obj
 0001:0000c948       ___sbh_heapmin             0400d948 f   LIBCMT:sbheap.obj
 0001:0000ca15       ___sbh_heap_check          0400da15 f   LIBCMT:sbheap.obj
 0001:0000ccf9       __set_sbh_threshold        0400dcf9 f   LIBCMT:sbheap.obj
 0001:0000cda8       ___sbh_alloc_block         0400dda8 f   LIBCMT:sbheap.obj
 0001:0000d090       __SEH_prolog4              0400e090 f   LIBCMT:sehprolg4.obj
 0001:0000d0d5       __SEH_epilog4              0400e0d5 f   LIBCMT:sehprolg4.obj
 0001:0000d120       __except_handler4          0400e120 f   LIBCMT:chandler4.obj
 0001:0000d2ac       __crt_debugger_hook        0400e2ac f   LIBCMT:dbghook.obj
 0001:0000d2b4       __crt_waiting_on_module_handle 0400e2b4 f   LIBCMT:crt0dat.obj
 0001:0000d2e4       __amsg_exit                0400e2e4 f   LIBCMT:crt0dat.obj
 0001:0000d30d       ___crtCorExitProcess       0400e30d f   LIBCMT:crt0dat.obj
 0001:0000d338       ___crtExitProcess          0400e338 f   LIBCMT:crt0dat.obj
 0001:0000d350       __lockexit                 0400e350 f   LIBCMT:crt0dat.obj
 0001:0000d359       __unlockexit               0400e359 f   LIBCMT:crt0dat.obj
 0001:0000d37f       __initterm_e               0400e37f f   LIBCMT:crt0dat.obj
 0001:0000d3a3       __get_wpgmptr              0400e3a3 f   LIBCMT:crt0dat.obj
 0001:0000d3df       __get_pgmptr               0400e3df f   LIBCMT:crt0dat.obj
 0001:0000d41b       __cinit                    0400e41b f   LIBCMT:crt0dat.obj
 0001:0000d5cc       _exit                      0400e5cc f   LIBCMT:crt0dat.obj
 0001:0000d5e2       __exit                     0400e5e2 f   LIBCMT:crt0dat.obj
 0001:0000d5f8       __cexit                    0400e5f8 f   LIBCMT:crt0dat.obj
 0001:0000d607       __c_exit                   0400e607 f   LIBCMT:crt0dat.obj
 0001:0000d616       __init_pointers            0400e616 f   LIBCMT:crt0dat.obj
 0001:0000d664       __NMSG_WRITE               0400e664 f   LIBCMT:crt0msg.obj
 0001:0000d80f       __GET_RTERRMSG             0400e80f f   LIBCMT:crt0msg.obj
 0001:0000d835       __FF_MSGBANNER             0400e835 f   LIBCMT:crt0msg.obj
 0001:0000d8f5       __VEC_memcpy               0400e8f5 f   LIBCMT:p4_memcpy.obj
 0001:0000d9d8       _abort                     0400e9d8 f   LIBCMT:abort.obj
 0001:0000daef       __set_abort_behavior       0400eaef f   LIBCMT:abort.obj
 0001:0000db10       ___getlocaleinfo           0400eb10 f   LIBCMT:inithelp.obj
 0001:0000dc8f       __initp_misc_purevirt      0400ec8f f   LIBCMT:inithelp.obj
 0001:0000dc9e       _wait_a_bit                0400ec9e f i LIBCMT:crtheap.obj
 0001:0000dcc4       __set_malloc_crt_max_wait  0400ecc4 f   LIBCMT:crtheap.obj
 0001:0000dcd9       __malloc_crt               0400ecd9 f   LIBCMT:crtheap.obj
 0001:0000dd1e       __calloc_crt               0400ed1e f   LIBCMT:crtheap.obj
 0001:0000dd6a       __realloc_crt              0400ed6a f   LIBCMT:crtheap.obj
 0001:0000ddb8       __recalloc_crt             0400edb8 f   LIBCMT:crtheap.obj
 0001:0000de0a       __msize                    0400ee0a f   LIBCMT:msize.obj
 0001:0000dead       __ioinit                   0400eead f   LIBCMT:ioinit.obj
 0001:0000e101       __ioterm                   0400f101 f   LIBCMT:ioinit.obj
 0001:0000e14f       __setenvp                  0400f14f f   LIBCMT:stdenvp.obj
 0001:0000e22d       __set_pgmptr               0400f22d f i LIBCMT:stdargv.obj
 0001:0000e3d6       __setargv                  0400f3d6 f   LIBCMT:stdargv.obj
 0001:0000e491       ___crtGetEnvironmentStringsA 0400f491 f   LIBCMT:a_env.obj
 0001:0000e5c8       __RTC_Initialize           0400f5c8 f   LIBCMT:_initsect_.obj
 0001:0000e5ee       __RTC_Terminate            0400f5ee f   LIBCMT:_initsect_.obj
 0001:0000e614       __initp_misc_winxfltr      0400f614 f   LIBCMT:winxfltr.obj
 0001:0000e64a       __XcptFilter               0400f64a f   LIBCMT:winxfltr.obj
 0001:0000e7aa       ___CppXcptFilter           0400f7aa f   LIBCMT:winxfltr.obj
 0001:0000e7ca       ___security_init_cookie    0400f7ca f   LIBCMT:gs_support.obj
 0001:0000e860       ___report_gsfailure        0400f860 f   LIBCMT:gs_report.obj
 0001:0000e966       ??0Block@HeapManager@@QAE@XZ 0400f966 f i LIBCMT:undname.obj
 0001:0000e96c       ?Constructor@HeapManager@@QAEXP6APAXI@ZP6AXPAX@Z@Z 0400f96c f i LIBCMT:undname.obj
 0001:0000e98b       ?Destructor@HeapManager@@QAEXXZ 0400f98b f i LIBCMT:undname.obj
 0001:0000e9b3       ?getNumberOfDimensions@UnDecorator@@CAHXZ 0400f9b3 f   LIBCMT:undname.obj
 0001:0000ea16       ?getTypeEncoding@UnDecorator@@CAHXZ 0400fa16 f i LIBCMT:undname.obj
 0001:0000ef02       ?doUnderScore@UnDecorator@@SAHXZ 0400ff02 f i LIBCMT:undname.obj
 0001:0000ef0d       ?doMSKeywords@UnDecorator@@SAHXZ 0400ff0d f i LIBCMT:undname.obj
 0001:0000ef1a       ?doPtr64@UnDecorator@@SAHXZ 0400ff1a f i LIBCMT:undname.obj
 0001:0000ef28       ?doFunctionReturns@UnDecorator@@SAHXZ 0400ff28 f i LIBCMT:undname.obj
 0001:0000ef36       ?doAllocationModel@UnDecorator@@SAHXZ 0400ff36 f i LIBCMT:undname.obj
 0001:0000ef44       ?doAllocationLanguage@UnDecorator@@SAHXZ 0400ff44 f i LIBCMT:undname.obj
 0001:0000ef52       ?doThisTypes@UnDecorator@@SAHXZ 0400ff52 f i LIBCMT:undname.obj
 0001:0000ef64       ?doAccessSpecifiers@UnDecorator@@SAHXZ 0400ff64 f i LIBCMT:undname.obj
 0001:0000ef72       ?doThrowTypes@UnDecorator@@SAHXZ 0400ff72 f i LIBCMT:undname.obj
 0001:0000ef80       ?doMemberTypes@UnDecorator@@SAHXZ 0400ff80 f i LIBCMT:undname.obj
 0001:0000ef8e       ?doNameOnly@UnDecorator@@SAHXZ 0400ff8e f i LIBCMT:undname.obj
 0001:0000ef99       ?doTypeOnly@UnDecorator@@SAHXZ 0400ff99 f i LIBCMT:undname.obj
 0001:0000efa4       ?haveTemplateParameters@UnDecorator@@SAHXZ 0400ffa4 f i LIBCMT:undname.obj
 0001:0000efaf       ?doEcsu@UnDecorator@@SAHXZ 0400ffaf f i LIBCMT:undname.obj
 0001:0000efbd       ?doNoIdentCharCheck@UnDecorator@@SAHXZ 0400ffbd f i LIBCMT:undname.obj
 0001:0000efc8       ?doEllipsis@UnDecorator@@SAHXZ 0400ffc8 f i LIBCMT:undname.obj
 0001:0000efd6       ?UScore@UnDecorator@@SAPBDW4Tokens@@@Z 0400ffd6 f   LIBCMT:undname.obj
 0001:0000eff4       ?getMemory@HeapManager@@QAEPAXIH@Z 0400fff4 f   LIBCMT:undname.obj
 0001:0000f07c       ??0DName@@QAE@XZ           0401007c f i LIBCMT:undname.obj
 0001:0000f08d       ??0DName@@QAE@ABV0@@Z      0401008d f i LIBCMT:undname.obj
 0001:0000f0a5       ?isValid@DName@@QBEHXZ     040100a5 f i LIBCMT:undname.obj
 0001:0000f0af       ?isEmpty@DName@@QBEHXZ     040100af f i LIBCMT:undname.obj
 0001:0000f0b7       ?status@DName@@QBE?AW4DNameStatus@@XZ 040100b7 f i LIBCMT:undname.obj
 0001:0000f0bc       ?setPtrRef@DName@@QAEAAV1@XZ 040100bc f i LIBCMT:undname.obj
 0001:0000f0c6       ?isPtrRef@DName@@QBEHXZ    040100c6 f i LIBCMT:undname.obj
 0001:0000f0d0       ?isUDC@DName@@QBEHXZ       040100d0 f i LIBCMT:undname.obj
 0001:0000f0e1       ?setIsUDC@DName@@QAEXXZ    040100e1 f i LIBCMT:undname.obj
 0001:0000f0ee       ?isUDTThunk@DName@@QBEHXZ  040100ee f i LIBCMT:undname.obj
 0001:0000f0ff       ?setIsArray@DName@@QAEXXZ  040100ff f i LIBCMT:undname.obj
 0001:0000f107       ?isArray@DName@@QBEHXZ     04010107 f i LIBCMT:undname.obj
 0001:0000f111       ?isNoTE@DName@@QBEHXZ      04010111 f i LIBCMT:undname.obj
 0001:0000f11b       ?setIsNoTE@DName@@QAEXXZ   0401011b f i LIBCMT:undname.obj
 0001:0000f123       ?isPinPtr@DName@@QBEHXZ    04010123 f i LIBCMT:undname.obj
 0001:0000f12d       ?setIsPinPtr@DName@@QAEXXZ 0401012d f i LIBCMT:undname.obj
 0001:0000f135       ?isComArray@DName@@QBEHXZ  04010135 f i LIBCMT:undname.obj
 0001:0000f13f       ?setIsComArray@DName@@QAEXXZ 0401013f f i LIBCMT:undname.obj
 0001:0000f147       ?isVCallThunk@DName@@QBEHXZ 04010147 f i LIBCMT:undname.obj
 0001:0000f151       ?setIsVCallThunk@DName@@QAEXXZ 04010151 f i LIBCMT:undname.obj
 0001:0000f159       ?length@DName@@QBEHXZ      04010159 f i LIBCMT:undname.obj
 0001:0000f166       ?getLastChar@DName@@QBEDXZ 04010166 f i LIBCMT:undname.obj
 0001:0000f174       ?getString@DName@@QBEPADPAD0@Z 04010174 f i LIBCMT:undname.obj
 0001:0000f18c       ??_5DName@@QAEAAV0@ABV0@@Z 0401018c f   LIBCMT:undname.obj
 0001:0000f1ab       ??4DName@@QAEAAV0@ABV0@@Z  040101ab f   LIBCMT:undname.obj
 0001:0000f1c3       ?isFull@Replicator@@QBEHXZ 040101c3 f i LIBCMT:undname.obj
 0001:0000f1cc       ??0Replicator@@QAE@XZ      040101cc f i LIBCMT:undname.obj
 0001:0000f1d2       ??0DNameNode@@IAE@XZ       040101d2 f   LIBCMT:undname.obj
 0001:0000f1db       ??0charNode@@QAE@D@Z       040101db f   LIBCMT:undname.obj
 0001:0000f1f2       ?length@charNode@@UBEHXZ   040101f2 f i LIBCMT:undname.obj
 0001:0000f1f6       ?getLastChar@charNode@@UBEDXZ 040101f6 f i LIBCMT:undname.obj
 0001:0000f1fa       ?getString@charNode@@UBEPADPAD0@Z 040101fa f i LIBCMT:undname.obj
 0001:0000f211       ??0pDNameNode@@QAE@PAVDName@@@Z 04010211 f   LIBCMT:undname.obj
 0001:0000f23b       ?length@pDNameNode@@UBEHXZ 0401023b f i LIBCMT:undname.obj
 0001:0000f251       ?getLastChar@pDNameNode@@UBEDXZ 04010251 f i LIBCMT:undname.obj
 0001:0000f268       ?getString@pDNameNode@@UBEPADPAD0@Z 04010268 f i LIBCMT:undname.obj
 0001:0000f281       ??0DNameStatusNode@@AAE@W4DNameStatus@@@Z 04010281 f   LIBCMT:undname.obj
 0001:0000f2a6       ?length@DNameStatusNode@@UBEHXZ 040102a6 f i LIBCMT:undname.obj
 0001:0000f2aa       ?getLastChar@DNameStatusNode@@UBEDXZ 040102aa f i LIBCMT:undname.obj
 0001:0000f2b6       ?make@DNameStatusNode@@SAPAV1@W4DNameStatus@@@Z 040102b6 f i LIBCMT:undname.obj
 0001:0000f33c       ??0pairNode@@QAE@PAVDNameNode@@0@Z 0401033c f   LIBCMT:undname.obj
 0001:0000f35d       ?length@pairNode@@UBEHXZ   0401035d f i LIBCMT:undname.obj
 0001:0000f388       ?getLastChar@pairNode@@UBEDXZ 04010388 f i LIBCMT:undname.obj
 0001:0000f3a4       ?getString@pairNode@@UBEPADPAD0@Z 040103a4 f i LIBCMT:undname.obj
 0001:0000f41e       ??0UnDecorator@@QAE@PADPBDHP6APADJ@ZK@Z 0401041e f i LIBCMT:undname.obj
 0001:0000f48d       ?getDataIndirectType@UnDecorator@@CA?AVDName@@XZ 0401048d f i LIBCMT:undname.obj
 0001:0000f4c2       ?getThisType@UnDecorator@@CA?AVDName@@XZ 040104c2 f i LIBCMT:undname.obj
 0001:0000f4f8       ??2@YAPAXIAAVHeapManager@@H@Z 040104f8 f i LIBCMT:undname.obj
 0001:0000f50f       ?getStringHelper@@YAPADPAD00H@Z 0401050f f i LIBCMT:undname.obj
 0001:0000f546       ??0DName@@QAE@PAV0@@Z      04010546 f   LIBCMT:undname.obj
 0001:0000f599       ??0DName@@QAE@W4DNameStatus@@@Z 04010599 f   LIBCMT:undname.obj
 0001:0000f5de       ?getString@DName@@QBEPADPADH@Z 040105de f i LIBCMT:undname.obj
 0001:0000f636       ?append@DName@@AAEXPAVDNameNode@@@Z 04010636 f   LIBCMT:undname.obj
 0001:0000f675       ??4DName@@QAEAAV0@PAV0@@Z  04010675 f   LIBCMT:undname.obj
 0001:0000f6c2       ??4DName@@QAEAAV0@W4DNameStatus@@@Z 040106c2 f   LIBCMT:undname.obj
 0001:0000f6f9       ??YReplicator@@QAEAAV0@ABVDName@@@Z 040106f9 f   LIBCMT:undname.obj
 0001:0000f743       ??AReplicator@@QBE?AVDName@@H@Z 04010743 f   LIBCMT:undname.obj
 0001:0000f783       ??0pcharNode@@QAE@PBDH@Z   04010783 f   LIBCMT:undname.obj
 0001:0000f7da       ?length@pcharNode@@UBEHXZ  040107da f i LIBCMT:undname.obj
 0001:0000f7de       ?getLastChar@pcharNode@@UBEDXZ 040107de f i LIBCMT:undname.obj
 0001:0000f7f0       ?getString@pcharNode@@UBEPADPAD0@Z 040107f0 f i LIBCMT:undname.obj
 0001:0000f80d       ?getString@DNameStatusNode@@UBEPADPAD0@Z 0401080d f i LIBCMT:undname.obj
 0001:0000f836       ?getReturnType@UnDecorator@@CA?AVDName@@PAV2@@Z 04010836 f   LIBCMT:undname.obj
 0001:0000f867       ?getStorageConvention@UnDecorator@@CA?AVDName@@XZ 04010867 f i LIBCMT:undname.obj
 0001:0000f87a       ??YDName@@QAEAAV0@W4DNameStatus@@@Z 0401087a f   LIBCMT:undname.obj
 0001:0000f8bc       ?doPchar@DName@@AAEXPBDH@Z 040108bc f   LIBCMT:undname.obj
 0001:0000f938       ??0DName@@QAE@D@Z          04010938 f   LIBCMT:undname.obj
 0001:0000f965       ??0DName@@QAE@PBD@Z        04010965 f   LIBCMT:undname.obj
 0001:0000f99e       ??0DName@@QAE@AAPBDD@Z     0401099e f   LIBCMT:undname.obj
 0001:0000fa5d       ??0DName@@QAE@_K@Z         04010a5d f   LIBCMT:undname.obj
 0001:0000facb       ??0DName@@QAE@_J@Z         04010acb f   LIBCMT:undname.obj
 0001:0000fb66       ??HDName@@QBE?AV0@W4DNameStatus@@@Z 04010b66 f   LIBCMT:undname.obj
 0001:0000fb8a       ??YDName@@QAEAAV0@ABV0@@Z  04010b8a f   LIBCMT:undname.obj
 0001:0000fbcd       ??YDName@@QAEAAV0@PAV0@@Z  04010bcd f   LIBCMT:undname.obj
 0001:0000fc34       ??4DName@@QAEAAV0@D@Z      04010c34 f i LIBCMT:undname.obj
 0001:0000fc61       ??4DName@@QAEAAV0@PBD@Z    04010c61 f   LIBCMT:undname.obj
 0001:0000fc96       ?getCallingConvention@UnDecorator@@CA?AVDName@@XZ 04010c96 f   LIBCMT:undname.obj
 0001:0000fd40       ?getVCallThunkType@UnDecorator@@CA?AVDName@@XZ 04010d40 f i LIBCMT:undname.obj
 0001:0000fd79       ??HDName@@QBE?AV0@ABV0@@Z  04010d79 f   LIBCMT:undname.obj
 0001:0000fd9d       ??HDName@@QBE?AV0@PAV0@@Z  04010d9d f   LIBCMT:undname.obj
 0001:0000fdc1       ??YDName@@QAEAAV0@D@Z      04010dc1 f   LIBCMT:undname.obj
 0001:0000fe13       ??YDName@@QAEAAV0@PBD@Z    04010e13 f   LIBCMT:undname.obj
 0001:0000fe77       ?getArgumentList@UnDecorator@@CA?AVDName@@XZ 04010e77 f   LIBCMT:undname.obj
 0001:0000ff79       ?getVdispMapType@UnDecorator@@CA?AVDName@@ABV2@@Z 04010f79 f i LIBCMT:undname.obj
 0001:0000ffcd       ??H@YA?AVDName@@DABV0@@Z   04010fcd f i LIBCMT:undname.obj
 0001:0000fff1       ??H@YA?AVDName@@W4DNameStatus@@ABV0@@Z 04010ff1 f i LIBCMT:undname.obj
 0001:00010015       ??H@YA?AVDName@@PBDABV0@@Z 04011015 f i LIBCMT:undname.obj
 0001:00010039       ??HDName@@QBE?AV0@D@Z      04011039 f   LIBCMT:undname.obj
 0001:0001005d       ??HDName@@QBE?AV0@PBD@Z    0401105d f   LIBCMT:undname.obj
 0001:00010081       ?getDimension@UnDecorator@@CA?AVDName@@_N@Z 04011081 f   LIBCMT:undname.obj
 0001:000101d3       ?getEnumType@UnDecorator@@CA?AVDName@@XZ 040111d3 f i LIBCMT:undname.obj
 0001:000102a7       ?getArgumentTypes@UnDecorator@@CA?AVDName@@XZ 040112a7 f   LIBCMT:undname.obj
 0001:00010383       ?getThrowTypes@UnDecorator@@CA?AVDName@@XZ 04011383 f   LIBCMT:undname.obj
 0001:00010402       ?getExtendedDataIndirectType@UnDecorator@@CA?AVDName@@AADAA_NH@Z 04011402 f   LIBCMT:undname.obj
 0001:0001057f       ?getArrayType@UnDecorator@@CA?AVDName@@ABV2@@Z 0401157f f i LIBCMT:undname.obj
 0001:000106f9       ?getLexicalFrame@UnDecorator@@CA?AVDName@@XZ 040116f9 f i LIBCMT:undname.obj
 0001:0001072c       ?getDisplacement@UnDecorator@@CA?AVDName@@XZ 0401172c f i LIBCMT:undname.obj
 0001:00010742       ?getCallIndex@UnDecorator@@CA?AVDName@@XZ 04011742 f i LIBCMT:undname.obj
 0001:00010758       ?getGuardNumber@UnDecorator@@CA?AVDName@@XZ 04011758 f i LIBCMT:undname.obj
 0001:0001076e       ?getVfTableType@UnDecorator@@CA?AVDName@@ABV2@@Z 0401176e f i LIBCMT:undname.obj
 0001:000108a5       ?getStringEncoding@UnDecorator@@CA?AVDName@@PADH@Z 040118a5 f   LIBCMT:undname.obj
 0001:00010949       ?getSignedDimension@UnDecorator@@CA?AVDName@@XZ 04011949 f   LIBCMT:undname.obj
 0001:0001099b       ?getTemplateConstant@UnDecorator@@CA?AVDName@@XZ 0401199b f   LIBCMT:undname.obj
 0001:00010c68       ?getPtrRefDataType@UnDecorator@@CA?AVDName@@ABV2@H@Z 04011c68 f i LIBCMT:undname.obj
 0001:00010d46       ?getVbTableType@UnDecorator@@CA?AVDName@@ABV2@@Z 04011d46 f i LIBCMT:undname.obj
 0001:00010d5d       ?getTemplateArgumentList@UnDecorator@@CA?AVDName@@XZ 04011d5d f   LIBCMT:undname.obj
 0001:00010f21       ?getOperatorName@UnDecorator@@CA?AVDName@@_NPA_N@Z 04011f21 f i LIBCMT:undname.obj
 0001:000114be       ?getTemplateName@UnDecorator@@CA?AVDName@@_N@Z 040124be f   LIBCMT:undname.obj
 0001:00011605       ?getZName@UnDecorator@@CA?AVDName@@_N0@Z 04012605 f   LIBCMT:undname.obj
 0001:000117fb       ?getScopedName@UnDecorator@@CA?AVDName@@XZ 040127fb f   LIBCMT:undname.obj
 0001:000118cc       ?getECSUName@UnDecorator@@CA?AVDName@@XZ 040128cc f i LIBCMT:undname.obj
 0001:000118df       ?getECSUDataType@UnDecorator@@CA?AVDName@@XZ 040128df f   LIBCMT:undname.obj
 0001:000119e6       ?getSymbolName@UnDecorator@@CA?AVDName@@XZ 040129e6 f i LIBCMT:undname.obj
 0001:00011a30       ?getBasedType@UnDecorator@@CA?AVDName@@XZ 04012a30 f   LIBCMT:undname.obj
 0001:00011ac8       ?composeDeclaration@UnDecorator@@CA?AVDName@@ABV2@@Z 04012ac8 f i LIBCMT:undname.obj
 0001:00012663       ?getDecoratedName@UnDecorator@@CA?AVDName@@XZ 04013663 f   LIBCMT:undname.obj
 0001:0001287b       ?getScope@UnDecorator@@CA?AVDName@@XZ 0401387b f   LIBCMT:undname.obj
 0001:00012aeb       ?getFunctionIndirectType@UnDecorator@@CA?AVDName@@ABV2@@Z 04013aeb f   LIBCMT:undname.obj
 0001:00012e3f       ?getDataIndirectType@UnDecorator@@CA?AVDName@@ABV2@D0H@Z 04013e3f f   LIBCMT:undname.obj
 0001:00013306       ??BUnDecorator@@QAEPADXZ   04014306 f i LIBCMT:undname.obj
 0001:00013437       ?getPtrRefType@UnDecorator@@CA?AVDName@@ABV2@0D@Z 04014437 f   LIBCMT:undname.obj
 0001:00013530       ?getPointerType@UnDecorator@@CA?AVDName@@ABV2@0@Z 04014530 f i LIBCMT:undname.obj
 0001:0001354d       ?getPointerTypeArray@UnDecorator@@CA?AVDName@@ABV2@0@Z 0401454d f i LIBCMT:undname.obj
 0001:0001356a       ?getReferenceType@UnDecorator@@CA?AVDName@@ABV2@0@Z 0401456a f i LIBCMT:undname.obj
 0001:00013587       ___unDName                 04014587 f   LIBCMT:undname.obj
 0001:00013621       ___unDNameEx               04014621 f   LIBCMT:undname.obj
 0001:000136bb       ?getBasicDataType@UnDecorator@@CA?AVDName@@ABV2@@Z 040146bb f   LIBCMT:undname.obj
 0001:00013a72       ?getPrimaryDataType@UnDecorator@@CA?AVDName@@ABV2@@Z 04014a72 f   LIBCMT:undname.obj
 0001:00013baa       ?getDataType@UnDecorator@@CA?AVDName@@PAV2@@Z 04014baa f   LIBCMT:undname.obj
 0001:00013c6a       ?getExternalDataType@UnDecorator@@CA?AVDName@@ABV2@@Z 04014c6a f i LIBCMT:undname.obj
 0001:00013cd8       __local_unwind4            04014cd8 f   LIBCMT:exsup4.obj
 0001:00013dae       __seh_longjmp_unwind4@4    04014dae f   LIBCMT:exsup4.obj
 0001:00013dca       @_EH4_CallFilterFunc@8     04014dca f   LIBCMT:exsup4.obj
 0001:00013de1       @_EH4_TransferToHandler@8  04014de1 f   LIBCMT:exsup4.obj
 0001:00013dfa       @_EH4_GlobalUnwind@4       04014dfa f   LIBCMT:exsup4.obj
 0001:00013e14       @_EH4_LocalUnwind@16       04014e14 f   LIBCMT:exsup4.obj
 0001:00013e2b       __lseeki64_nolock          04014e2b f   LIBCMT:lseeki64.obj
 0001:00013eb0       __lseeki64                 04014eb0 f   LIBCMT:lseeki64.obj
 0001:00013fc9       __write_nolock             04014fc9 f   LIBCMT:write.obj
 0001:000146fc       __write                    040156fc f   LIBCMT:write.obj
 0001:000147d8       __getbuf                   040157d8 f   LIBCMT:_getbuf.obj
 0001:00014821       __isatty                   04015821 f   LIBCMT:isatty.obj
 0001:00014885       ___iob_func                04015885 f   LIBCMT:_file.obj
 0001:0001488b       ___initstdio               0401588b f   LIBCMT:_file.obj
 0001:0001493c       ___endstdio                0401593c f   LIBCMT:_file.obj
 0001:0001495c       __lock_file                0401595c f   LIBCMT:_file.obj
 0001:0001499d       __lock_file2               0401599d f   LIBCMT:_file.obj
 0001:000149cf       __unlock_file              040159cf f   LIBCMT:_file.obj
 0001:00014a0b       __unlock_file2             04015a0b f   LIBCMT:_file.obj
 0001:00014a3a       __fileno                   04015a3a f   LIBCMT:fileno.obj
 0001:00014c92       ___updatetmbcinfo          04015c92 f   LIBCMT:mbctype.obj
 0001:00014db2       __setmbcp_nolock           04015db2 f   LIBCMT:mbctype.obj
 0001:00014f97       __getmbcp                  04015f97 f   LIBCMT:mbctype.obj
 0001:00014fd5       __setmbcp                  04015fd5 f   LIBCMT:mbctype.obj
 0001:0001516f       ___initmbctable            0401616f f   LIBCMT:mbctype.obj
 0001:0001518d       ____setlc_active_func      0401618d f   LIBCMT:setlocal.obj
 0001:00015193       ____unguarded_readlc_active_add_func 04016193 f   LIBCMT:setlocal.obj
 0001:00015199       ___freetlocinfo            04016199 f   LIBCMT:setlocal.obj
 0001:000152e2       ___addlocaleref            040162e2 f   LIBCMT:setlocal.obj
 0001:00015371       ___removelocaleref         04016371 f   LIBCMT:setlocal.obj
 0001:0001546e       ___updatetlocinfo          0401646e f   LIBCMT:setlocal.obj
 0001:000154e4       __configthreadlocale       040164e4 f   LIBCMT:setlocal.obj
 0001:000155a1       __free_locale              040165a1 f   LIBCMT:setlocal.obj
 0001:00015663       ___free_locale             04016663 f   LIBCMT:setlocal.obj
 0001:0001566e       __get_current_locale       0401666e f   LIBCMT:setlocal.obj
 0001:0001571d       ___get_current_locale      0401671d f   LIBCMT:setlocal.obj
 0001:00015722       ___init_dummy              04016722 f   LIBCMT:setlocal.obj
 0001:00015725       __strcats                  04016725 f   LIBCMT:setlocal.obj
 0001:00015765       ___lc_strtolc              04016765 f   LIBCMT:setlocal.obj
 0001:0001588e       ___lc_lctostr              0401688e f   LIBCMT:setlocal.obj
 0001:00015a78       __expandlocale             04016a78 f   LIBCMT:setlocal.obj
 0001:000161c6       __create_locale            040171c6 f   LIBCMT:setlocal.obj
 0001:000162bb       ___create_locale           040172bb f   LIBCMT:setlocal.obj
 0001:000162c6       _setlocale                 040172c6 f   LIBCMT:setlocal.obj
 0001:00016436       __initp_misc_cfltcvt_tab   04017436 f   LIBCMT:cmiscdat.obj
 0001:00016457       _printf                    04017457 f   LIBCMT:printf.obj
 0001:00016506       __printf_l                 04017506 f   LIBCMT:printf.obj
 0001:0001651f       __printf_s_l               0401751f f   LIBCMT:printf.obj
 0001:00016538       _printf_s                  04017538 f   LIBCMT:printf.obj
 0001:00016550       __printf_p_l               04017550 f   LIBCMT:printf.obj
 0001:00016569       __printf_p                 04017569 f   LIBCMT:printf.obj
 0001:00016581       __set_printf_count_output  04017581 f   LIBCMT:printf.obj
 0001:000165ab       __get_printf_count_output  040175ab f   LIBCMT:printf.obj
 0001:000165c1       __wctomb_s_l               040175c1 f   LIBCMT:wctomb.obj
 0001:0001672d       _wctomb_s                  0401772d f   LIBCMT:wctomb.obj
 0001:0001674a       __wctomb_l                 0401774a f   LIBCMT:wctomb.obj
 0001:0001679b       _wctomb                    0401779b f   LIBCMT:wctomb.obj
 0001:000167cd       __isleadbyte_l             040177cd f i LIBCMT:_wctype.obj
 0001:00016805       _isleadbyte                04017805 f i LIBCMT:_wctype.obj
 0001:00016818       __iswalpha_l               04017818 f i LIBCMT:_wctype.obj
 0001:00016832       _iswalpha                  04017832 f i LIBCMT:_wctype.obj
 0001:00016848       __iswupper_l               04017848 f i LIBCMT:_wctype.obj
 0001:0001685f       _iswupper                  0401785f f i LIBCMT:_wctype.obj
 0001:00016872       __iswlower_l               04017872 f i LIBCMT:_wctype.obj
 0001:00016889       _iswlower                  04017889 f i LIBCMT:_wctype.obj
 0001:0001689c       __iswdigit_l               0401789c f i LIBCMT:_wctype.obj
 0001:000168b3       _iswdigit                  040178b3 f i LIBCMT:_wctype.obj
 0001:000168c6       __iswxdigit_l              040178c6 f i LIBCMT:_wctype.obj
 0001:000168e0       _iswxdigit                 040178e0 f i LIBCMT:_wctype.obj
 0001:000168f6       __iswspace_l               040178f6 f i LIBCMT:_wctype.obj
 0001:0001690d       _iswspace                  0401790d f i LIBCMT:_wctype.obj
 0001:00016920       __iswpunct_l               04017920 f i LIBCMT:_wctype.obj
 0001:00016937       _iswpunct                  04017937 f i LIBCMT:_wctype.obj
 0001:0001694a       __iswalnum_l               0401794a f i LIBCMT:_wctype.obj
 0001:00016964       _iswalnum                  04017964 f i LIBCMT:_wctype.obj
 0001:0001697a       __iswprint_l               0401797a f i LIBCMT:_wctype.obj
 0001:00016994       _iswprint                  04017994 f i LIBCMT:_wctype.obj
 0001:000169aa       __iswgraph_l               040179aa f i LIBCMT:_wctype.obj
 0001:000169c4       _iswgraph                  040179c4 f i LIBCMT:_wctype.obj
 0001:000169da       __iswcntrl_l               040179da f i LIBCMT:_wctype.obj
 0001:000169f1       _iswcntrl                  040179f1 f i LIBCMT:_wctype.obj
 0001:00016a04       _iswascii                  04017a04 f i LIBCMT:_wctype.obj
 0001:00016a18       __iswcsym_l                04017a18 f i LIBCMT:_wctype.obj
 0001:00016a42       ___iswcsym                 04017a42 f i LIBCMT:_wctype.obj
 0001:00016a68       __iswcsymf_l               04017a68 f i LIBCMT:_wctype.obj
 0001:00016a92       ___iswcsymf                04017a92 f i LIBCMT:_wctype.obj
 0001:00016ac0       __aulldvrm                 04017ac0 f   LIBCMT:ulldvrm.obj
 0001:00016b55       __validate_param_reuseA    04017b55 f   LIBCMT:outputp.obj
 0001:00016d26       _get_crtdouble_arg         04017d26 f i LIBCMT:outputp.obj
 0001:00016d3b       __output_p_l               04017d3b f   LIBCMT:outputp.obj
 0001:000180a1       __output_s_l               040190a1 f   LIBCMT:outputs.obj
 0001:00018c71       ?_ValidateRead@@YAHPBXI@Z  04019c71 f   LIBCMT:validate.obj
 0001:00018c83       ?_ValidateWrite@@YAHPAXI@Z 04019c83 f   LIBCMT:validate.obj
 0001:00018c95       ?_ValidateExecute@@YAHP6GHXZ@Z 04019c95 f   LIBCMT:validate.obj
 0001:00018ca8       __global_unwind2           04019ca8 f   LIBCMT:exsup.obj
 0001:00018d0d       __local_unwind2            04019d0d f   LIBCMT:exsup.obj
 0001:00018d91       __abnormal_termination     04019d91 f   LIBCMT:exsup.obj
 0001:00018db4       __NLG_Notify1              04019db4 f   LIBCMT:exsup.obj
 0001:00018dbd       __NLG_Notify               04019dbd f   LIBCMT:exsup.obj
 0001:00018dd4       __NLG_Dispatch2            04019dd4     LIBCMT:exsup.obj
 0001:00018dd4       __NLG_Dispatch             04019dd4     LIBCMT:exsup.obj
 0001:00018ddc       __NLG_Call                 04019ddc f   LIBCMT:exsup.obj
 0001:00018dde       __NLG_Return2              04019dde     LIBCMT:exsup.obj
 0001:00018ddf       __isctype_l                04019ddf f   LIBCMT:isctype.obj
 0001:00018e97       __isctype                  04019e97 f   LIBCMT:isctype.obj
 0001:00018ed0       __allmul                   04019ed0 f   LIBCMT:llmul.obj
 0001:00018f04       __initp_misc_initcrit      04019f04 f   LIBCMT:initcrit.obj
 0001:00018f13       ___crtInitCritSecAndSpinCount 04019f13 f   LIBCMT:initcrit.obj
 0001:00018f80       __ValidateImageBase        04019f80 f   LIBCMT:pesect.obj
 0001:00018fc0       __FindPESection            04019fc0 f   LIBCMT:pesect.obj
 0001:00019010       __IsNonwritableInCurrentImage 0401a010 f   LIBCMT:pesect.obj
 0001:000190cd       __initp_misc_winsig        0401a0cd f   LIBCMT:winsig.obj
 0001:000191bd       ___get_sigabrt             0401a1bd f   LIBCMT:winsig.obj
 0001:000191ca       ___fpecode                 0401a1ca f   LIBCMT:winsig.obj
 0001:000191d3       ___pxcptinfoptrs           0401a1d3 f   LIBCMT:winsig.obj
 0001:000191dc       _signal                    0401a1dc f   LIBCMT:winsig.obj
 0001:00019419       _raise                     0401a419 f   LIBCMT:winsig.obj
 0001:000195c9       __initp_misc_rand_s        0401a5c9 f   LIBCMT:rand_s.obj
 0001:000195d8       _rand_s                    0401a5d8 f   LIBCMT:rand_s.obj
 0001:000196e0       ___crtMessageBoxA          0401a6e0 f   LIBCMT:crtmbox.obj
 0001:00019849       _strcat_s                  0401a849 f   LIBCMT:strcat_s.obj
 0001:000198bd       _strncpy_s                 0401a8bd f   LIBCMT:strncpy_s.obj
 0001:00019972       __set_error_mode           0401a972 f   LIBCMT:errmode.obj
 0001:000199bd       ___set_app_type            0401a9bd f   LIBCMT:errmode.obj
 0001:000199cc       ___get_app_type            0401a9cc f   LIBCMT:errmode.obj
 0001:000199d2       __isalpha_l                0401a9d2 f i LIBCMT:_ctype.obj
 0001:00019a28       _isalpha                   0401aa28 f i LIBCMT:_ctype.obj
 0001:00019a58       __isupper_l                0401aa58 f i LIBCMT:_ctype.obj
 0001:00019aa9       _isupper                   0401aaa9 f i LIBCMT:_ctype.obj
 0001:00019ad7       __islower_l                0401aad7 f i LIBCMT:_ctype.obj
 0001:00019b28       _islower                   0401ab28 f i LIBCMT:_ctype.obj
 0001:00019b56       __isdigit_l                0401ab56 f i LIBCMT:_ctype.obj
 0001:00019ba7       _isdigit                   0401aba7 f i LIBCMT:_ctype.obj
 0001:00019bd5       __isxdigit_l               0401abd5 f i LIBCMT:_ctype.obj
 0001:00019c2b       _isxdigit                  0401ac2b f i LIBCMT:_ctype.obj
 0001:00019c5b       __isspace_l                0401ac5b f i LIBCMT:_ctype.obj
 0001:00019cac       _isspace                   0401acac f i LIBCMT:_ctype.obj
 0001:00019cda       __ispunct_l                0401acda f i LIBCMT:_ctype.obj
 0001:00019d2b       _ispunct                   0401ad2b f i LIBCMT:_ctype.obj
 0001:00019d59       __isalnum_l                0401ad59 f i LIBCMT:_ctype.obj
 0001:00019daf       _isalnum                   0401adaf f i LIBCMT:_ctype.obj
 0001:00019ddf       __isprint_l                0401addf f i LIBCMT:_ctype.obj
 0001:00019e35       _isprint                   0401ae35 f i LIBCMT:_ctype.obj
 0001:00019e65       __isgraph_l                0401ae65 f i LIBCMT:_ctype.obj
 0001:00019ebb       _isgraph                   0401aebb f i LIBCMT:_ctype.obj
 0001:00019eeb       __iscntrl_l                0401aeeb f i LIBCMT:_ctype.obj
 0001:00019f3c       _iscntrl                   0401af3c f i LIBCMT:_ctype.obj
 0001:00019f6a       ___isascii                 0401af6a f i LIBCMT:_ctype.obj
 0001:00019f7c       ___toascii                 0401af7c f i LIBCMT:_ctype.obj
 0001:00019f89       __iscsymf_l                0401af89 f i LIBCMT:_ctype.obj
 0001:00019fac       ___iscsymf                 0401afac f i LIBCMT:_ctype.obj
 0001:00019fcb       __iscsym_l                 0401afcb f i LIBCMT:_ctype.obj
 0001:00019fee       ___iscsym                  0401afee f i LIBCMT:_ctype.obj
 0001:0001a028       ___crtGetLocaleInfoW       0401b028 f   LIBCMT:w_loc.obj
 0001:0001a05c       __MarkAllocaS              0401b05c f i LIBCMT:a_loc.obj
 0001:0001a072       __freea                    0401b072 f i LIBCMT:a_loc.obj
 0001:0001a1d1       ___crtGetLocaleInfoA       0401b1d1 f   LIBCMT:a_loc.obj
 0001:0001a20e       __calloc_impl              0401b20e f   LIBCMT:calloc_impl.obj
 0001:0001a32c       _realloc                   0401b32c f   LIBCMT:realloc.obj
 0001:0001a547       __recalloc                 0401b547 f   LIBCMT:recalloc.obj
 0001:0001a615       __ismbbkalnum_l            0401b615 f   LIBCMT:ismbbyte.obj
 0001:0001a62e       __ismbbkalnum              0401b62e f   LIBCMT:ismbbyte.obj
 0001:0001a646       __ismbbkprint_l            0401b646 f   LIBCMT:ismbbyte.obj
 0001:0001a65f       __ismbbkprint              0401b65f f   LIBCMT:ismbbyte.obj
 0001:0001a677       __ismbbkpunct_l            0401b677 f   LIBCMT:ismbbyte.obj
 0001:0001a690       __ismbbkpunct              0401b690 f   LIBCMT:ismbbyte.obj
 0001:0001a6a8       __ismbbalnum_l             0401b6a8 f   LIBCMT:ismbbyte.obj
 0001:0001a6c4       __ismbbalnum               0401b6c4 f   LIBCMT:ismbbyte.obj
 0001:0001a6df       __ismbbalpha_l             0401b6df f   LIBCMT:ismbbyte.obj
 0001:0001a6fb       __ismbbalpha               0401b6fb f   LIBCMT:ismbbyte.obj
 0001:0001a716       __ismbbgraph_l             0401b716 f   LIBCMT:ismbbyte.obj
 0001:0001a732       __ismbbgraph               0401b732 f   LIBCMT:ismbbyte.obj
 0001:0001a74d       __ismbbprint_l             0401b74d f   LIBCMT:ismbbyte.obj
 0001:0001a769       __ismbbprint               0401b769 f   LIBCMT:ismbbyte.obj
 0001:0001a784       __ismbbpunct_l             0401b784 f   LIBCMT:ismbbyte.obj
 0001:0001a79d       __ismbbpunct               0401b79d f   LIBCMT:ismbbyte.obj
 0001:0001a7b5       __ismbblead_l              0401b7b5 f   LIBCMT:ismbbyte.obj
 0001:0001a7ce       __ismbblead                0401b7ce f   LIBCMT:ismbbyte.obj
 0001:0001a7e6       __ismbbtrail_l             0401b7e6 f   LIBCMT:ismbbyte.obj
 0001:0001a7ff       __ismbbtrail               0401b7ff f   LIBCMT:ismbbyte.obj
 0001:0001a817       __ismbbkana_l              0401b817 f   LIBCMT:ismbbyte.obj
 0001:0001a86c       __ismbbkana                0401b86c f   LIBCMT:ismbbyte.obj
 0001:0001a87f       __set_osfhnd               0401b87f f   LIBCMT:osfinfo.obj
 0001:0001a900       __free_osfhnd              0401b900 f   LIBCMT:osfinfo.obj
 0001:0001a986       __get_osfhandle            0401b986 f   LIBCMT:osfinfo.obj
 0001:0001a9fd       ___lock_fhandle            0401b9fd f   LIBCMT:osfinfo.obj
 0001:0001aa9d       __unlock_fhandle           0401ba9d f   LIBCMT:osfinfo.obj
 0001:0001aac4       __alloc_osfhnd             0401bac4 f   LIBCMT:osfinfo.obj
 0001:0001ac5e       __open_osfhandle           0401bc5e f   LIBCMT:osfinfo.obj
 0001:0001ad74       __putwch_nolock            0401bd74 f   LIBCMT:putwch.obj
 0001:0001ae39       __cputws                   0401be39 f   LIBCMT:putwch.obj
 0001:0001aed8       __putwch                   0401bed8 f   LIBCMT:putwch.obj
 0001:0001af1e       __mbtowc_l                 0401bf1e f   LIBCMT:mbtowc.obj
 0001:0001b035       _mbtowc                    0401c035 f   LIBCMT:mbtowc.obj
 0001:0001b04f       __fcloseall                0401c04f f   LIBCMT:closeall.obj
 0001:0001b0ee       __flush                    0401c0ee f   LIBCMT:fflush.obj
 0001:0001b156       __fflush_nolock            0401c156 f   LIBCMT:fflush.obj
 0001:0001b278       _fflush                    0401c278 f   LIBCMT:fflush.obj
 0001:0001b2cb       __flushall                 0401c2cb f   LIBCMT:fflush.obj
 0001:0001b697       ___crtLCMapStringA         0401c697 f   LIBCMT:a_map.obj
 0001:0001b896       ___crtGetStringTypeA       0401c896 f   LIBCMT:a_str.obj
 0001:0001b8d8       ___pwctype_func            0401c8d8 f   LIBCMT:ctype.obj
 0001:0001b8de       ___pctype_func             0401c8de f   LIBCMT:ctype.obj
 0001:0001bd22       ___free_lc_time            0401cd22 f   LIBCMT:inittime.obj
 0001:0001beb7       ___init_time               0401ceb7 f   LIBCMT:inittime.obj
 0001:0001bf63       ___free_lconv_num          0401cf63 f   LIBCMT:initnum.obj
 0001:0001bfa8       ___init_numeric            0401cfa8 f   LIBCMT:initnum.obj
 0001:0001c1a5       ___free_lconv_mon          0401d1a5 f   LIBCMT:initmon.obj
 0001:0001c233       ___init_monetary           0401d233 f   LIBCMT:initmon.obj
 0001:0001c4f9       ___init_ctype              0401d4f9 f   LIBCMT:initctyp.obj
 0001:0001c89b       ____mb_cur_max_func        0401d89b f   LIBCMT:initctyp.obj
 0001:0001c8c4       ____mb_cur_max_l_func      0401d8c4 f   LIBCMT:initctyp.obj
 0001:0001c8e0       ____lc_codepage_func       0401d8e0 f   LIBCMT:initctyp.obj
 0001:0001c906       ____lc_collate_cp_func     0401d906 f   LIBCMT:initctyp.obj
 0001:0001c92c       ____lc_handle_func         0401d92c f   LIBCMT:initctyp.obj
 0001:0001c952       ___init_collate            0401d952 f   LIBCMT:initcoll.obj
 0001:0001c955       __Getdays_l                0401d955 f   LIBCMT:strftime.obj
 0001:0001ca55       __Getdays                  0401da55 f   LIBCMT:strftime.obj
 0001:0001ca5e       __Getmonths_l              0401da5e f   LIBCMT:strftime.obj
 0001:0001cb5e       __Getmonths                0401db5e f   LIBCMT:strftime.obj
 0001:0001cb67       __Gettnames_l              0401db67 f   LIBCMT:strftime.obj
 0001:0001cebe       __Gettnames                0401debe f   LIBCMT:strftime.obj
 0001:0001d7e1       __Strftime_l               0401e7e1 f   LIBCMT:strftime.obj
 0001:0001d985       __strftime_l               0401e985 f   LIBCMT:strftime.obj
 0001:0001d9a5       _strftime                  0401e9a5 f   LIBCMT:strftime.obj
 0001:0001d9c4       __Strftime                 0401e9c4 f   LIBCMT:strftime.obj
 0001:0001d9e4       _localeconv                0401e9e4 f   LIBCMT:lconv.obj
 0001:0001da10       _strcspn                   0401ea10 f   LIBCMT:strcspn.obj
 0001:0001e051       ___get_qualified_locale    0401f051 f   LIBCMT:getqloc.obj
 0001:0001f7b8       _memcmp                    040207b8 f   LIBCMT:memcmp.obj
 0001:00020e38       _strncmp                   04021e38 f   LIBCMT:strncmp.obj
 0001:00020f00       _strpbrk                   04021f00 f   LIBCMT:strpbrk.obj
 0001:00020f40       __fptrap                   04021f40 f   LIBCMT:crt0fp.obj
 0001:00020f49       __stbuf                    04021f49 f   LIBCMT:_sftbuf.obj
 0001:00020fe5       __ftbuf                    04021fe5 f   LIBCMT:_sftbuf.obj
 0001:00021019       _vprintf_helper            04022019 f   LIBCMT:vprintf.obj
 0001:000210a9       __vprintf_l                040220a9 f   LIBCMT:vprintf.obj
 0001:000210c6       __vprintf_s_l              040220c6 f   LIBCMT:vprintf.obj
 0001:000210e3       __vprintf_p_l              040220e3 f   LIBCMT:vprintf.obj
 0001:00021100       _vprintf                   04022100 f   LIBCMT:vprintf.obj
 0001:0002111c       _vprintf_s                 0402211c f   LIBCMT:vprintf.obj
 0001:00021138       __vprintf_p                04022138 f   LIBCMT:vprintf.obj
 0001:00021154       __iswctype_l               04022154 f   LIBCMT:iswctype.obj
 0001:000211de       _iswctype                  040221de f   LIBCMT:iswctype.obj
 0001:00021254       _is_wctype                 04022254 f   LIBCMT:iswctype.obj
 0001:00021260       __alloca_probe_16          04022260 f   LIBCMT:alloca16.obj
 0001:00021276       __alloca_probe_8           04022276     LIBCMT:alloca16.obj
 0001:0002128c       ___initconin               0402228c f   LIBCMT:initcon.obj
 0001:000212ab       ___initconout              040222ab f   LIBCMT:initcon.obj
 0001:000212ca       ___termcon                 040222ca f   LIBCMT:initcon.obj
 0001:000212f7       _wcslen                    040222f7 f   LIBCMT:wcslen.obj
 0001:00021311       __fclose_nolock            04022311 f   LIBCMT:fclose.obj
 0001:00021388       _fclose                    04022388 f   LIBCMT:fclose.obj
 0001:00021404       __commit                   04022404 f   LIBCMT:commit.obj
 0001:000214e5       ___ansicp                  040224e5 f   LIBCMT:convrtcp.obj
 0001:0002152e       ___convertcp               0402252e f   LIBCMT:convrtcp.obj
 0001:000216e2       __get_daylight             040226e2 f   LIBCMT:timeset.obj
 0001:0002171b       __get_dstbias              0402271b f   LIBCMT:timeset.obj
 0001:00021754       __get_timezone             04022754 f   LIBCMT:timeset.obj
 0001:0002178d       __get_tzname               0402278d f   LIBCMT:timeset.obj
 0001:00021831       ___daylight                04022831 f   LIBCMT:timeset.obj
 0001:00021837       ___dstbias                 04022837 f   LIBCMT:timeset.obj
 0001:0002183d       ___timezone                0402283d f   LIBCMT:timeset.obj
 0001:00021843       ___tzname                  04022843 f   LIBCMT:timeset.obj
 0001:00021849       __set_daylight             04022849 f i LIBCMT:tzset.obj
 0001:0002185a       __set_dstbias              0402285a f i LIBCMT:tzset.obj
 0001:0002186b       __set_timezone             0402286b f i LIBCMT:tzset.obj
 0001:00021f91       ___tzset                   04022f91 f   LIBCMT:tzset.obj
 0001:00021fe0       __tzset                    04022fe0 f   LIBCMT:tzset.obj
 0001:00022018       __isindst                  04023018 f   LIBCMT:tzset.obj
 0001:00022059       ___ascii_stricmp           04023059 f   LIBCMT:stricmp.obj
 0001:00022092       __stricmp_l                04023092 f   LIBCMT:stricmp.obj
 0001:00022167       __stricmp                  04023167 f   LIBCMT:stricmp.obj
 0001:000221b9       __strnicmp_l               040231b9 f   LIBCMT:strnicmp.obj
 0001:000222ab       __strnicmp                 040232ab f   LIBCMT:strnicmp.obj
 0001:000223e6       __itoa_s                   040233e6 f   LIBCMT:xtoas.obj
 0001:00022410       __ltoa_s                   04023410 f   LIBCMT:xtoas.obj
 0001:00022437       __ultoa_s                  04023437 f   LIBCMT:xtoas.obj
 0001:00022549       __i64toa_s                 04023549 f   LIBCMT:xtoas.obj
 0001:0002257e       __ui64toa_s                0402357e f   LIBCMT:xtoas.obj
 0001:000225c0       ___crtGetStringTypeW       040235c0 f   LIBCMT:w_str.obj
 0001:000225fe       __close_nolock             040235fe f   LIBCMT:close.obj
 0001:0002269a       __close                    0402369a f   LIBCMT:close.obj
 0001:00022767       __freebuf                  04023767 f   LIBCMT:_freebuf.obj
 0001:00022798       __getenv_helper_nolock     04023798 f   LIBCMT:getenv.obj
 0001:00022958       _getenv                    04023958 f   LIBCMT:getenv.obj
 0001:000229db       _getenv_s                  040239db f   LIBCMT:getenv.obj
 0001:00022ab3       __dupenv_s                 04023ab3 f   LIBCMT:getenv.obj
 0001:00022b99       __tolower                  04023b99 f   LIBCMT:tolower.obj
 0001:00022ba6       __tolower_l                04023ba6 f   LIBCMT:tolower.obj
 0001:00022cbb       _tolower                   04023cbb f   LIBCMT:tolower.obj
 0001:00022cf0       ___ascii_strnicmp          04023cf0 f   LIBCMT:_strnicm.obj
 0001:00022d51       __mbsnbicoll_l             04023d51 f   LIBCMT:mbsnbico.obj
 0001:00022e3f       __mbsnbicoll               04023e3f f   LIBCMT:mbsnbico.obj
 0001:00022e59       ___wtomb_environ           04023e59 f   LIBCMT:wtombenv.obj
 0001:00022ef0       _calloc                    04023ef0 f   LIBCMT:calloc.obj
 0001:00022f30       _strnlen                   04023f30 f   LIBCMT:strlen_s.obj
 0001:000232db       ___crtCompareStringA       040242db f   LIBCMT:a_cmp.obj
 0001:0002331d       __strnicoll_l              0402431d f   LIBCMT:strnicol.obj
 0001:00023417       __strnicoll                04024417 f   LIBCMT:strnicol.obj
 0001:000234ec       ___crtsetenv               040244ec f   LIBCMT:setenv.obj
 0001:00023737       __strdup                   04024737 f   LIBCMT:strdup.obj
 0001:0002378c       __mbschr_l                 0402478c f   LIBCMT:mbschr.obj
 0001:00023848       __mbschr                   04024848 f   LIBCMT:mbschr.obj
 0001:00023860       _RtlUnwind@16              04024860 f   kernel32:KERNEL32.dll
 0001:00023866       _GetLastError@0            04024866 f   kernel32:KERNEL32.dll
 0001:0002386c       _HeapFree@12               0402486c f   kernel32:KERNEL32.dll
 0001:00023872       _TerminateProcess@8        04024872 f   kernel32:KERNEL32.dll
 0001:00023878       _GetCurrentProcess@0       04024878 f   kernel32:KERNEL32.dll
 0001:0002387e       _UnhandledExceptionFilter@4 0402487e f   kernel32:KERNEL32.dll
 0001:00023884       _SetUnhandledExceptionFilter@4 04024884 f   kernel32:KERNEL32.dll
 0001:0002388a       _IsDebuggerPresent@0       0402488a f   kernel32:KERNEL32.dll
 0001:00023890       _HeapAlloc@12              04024890 f   kernel32:KERNEL32.dll
 0001:00023896       _RaiseException@16         04024896 f   kernel32:KERNEL32.dll
 0001:0002389c       _GetCurrentThreadId@0      0402489c f   kernel32:KERNEL32.dll
 0001:000238a2       _GetCommandLineA@0         040248a2 f   kernel32:KERNEL32.dll
 0001:000238a8       _GetModuleHandleW@4        040248a8 f   kernel32:KERNEL32.dll
 0001:000238ae       _GetProcAddress@8          040248ae f   kernel32:KERNEL32.dll
 0001:000238b4       _TlsGetValue@4             040248b4 f   kernel32:KERNEL32.dll
 0001:000238ba       _TlsAlloc@0                040248ba f   kernel32:KERNEL32.dll
 0001:000238c0       _TlsSetValue@8             040248c0 f   kernel32:KERNEL32.dll
 0001:000238c6       _TlsFree@4                 040248c6 f   kernel32:KERNEL32.dll
 0001:000238cc       _InterlockedIncrement@4    040248cc f   kernel32:KERNEL32.dll
 0001:000238d2       _SetLastError@4            040248d2 f   kernel32:KERNEL32.dll
 0001:000238d8       _InterlockedDecrement@4    040248d8 f   kernel32:KERNEL32.dll
 0001:000238de       _GetCurrentThread@0        040248de f   kernel32:KERNEL32.dll
 0001:000238e4       _HeapCreate@12             040248e4 f   kernel32:KERNEL32.dll
 0001:000238ea       _HeapDestroy@4             040248ea f   kernel32:KERNEL32.dll
 0001:000238f0       _VirtualFree@12            040248f0 f   kernel32:KERNEL32.dll
 0001:000238f6       _FatalAppExitA@8           040248f6 f   kernel32:KERNEL32.dll
 0001:000238fc       _VirtualAlloc@16           040248fc f   kernel32:KERNEL32.dll
 0001:00023902       _HeapReAlloc@16            04024902 f   kernel32:KERNEL32.dll
 0001:00023908       _ExitProcess@4             04024908 f   kernel32:KERNEL32.dll
 0001:0002390e       _WriteFile@20              0402490e f   kernel32:KERNEL32.dll
 0001:00023914       _GetStdHandle@4            04024914 f   kernel32:KERNEL32.dll
 0001:0002391a       _GetModuleFileNameA@12     0402491a f   kernel32:KERNEL32.dll
 0001:00023920       _HeapSize@12               04024920 f   kernel32:KERNEL32.dll
 0001:00023926       _SetHandleCount@4          04024926 f   kernel32:KERNEL32.dll
 0001:0002392c       _GetFileType@4             0402492c f   kernel32:KERNEL32.dll
 0001:00023932       _GetStartupInfoA@4         04024932 f   kernel32:KERNEL32.dll
 0001:00023938       _FreeEnvironmentStringsA@4 04024938 f   kernel32:KERNEL32.dll
 0001:0002393e       _GetEnvironmentStrings@0   0402493e f   kernel32:KERNEL32.dll
 0001:00023944       _FreeEnvironmentStringsW@4 04024944 f   kernel32:KERNEL32.dll
 0001:0002394a       _WideCharToMultiByte@32    0402494a f   kernel32:KERNEL32.dll
 0001:00023950       _GetEnvironmentStringsW@0  04024950 f   kernel32:KERNEL32.dll
 0001:00023956       _QueryPerformanceCounter@4 04024956 f   kernel32:KERNEL32.dll
 0001:0002395c       _GetTickCount@0            0402495c f   kernel32:KERNEL32.dll
 0001:00023962       _GetCurrentProcessId@0     04024962 f   kernel32:KERNEL32.dll
 0001:00023968       _GetSystemTimeAsFileTime@4 04024968 f   kernel32:KERNEL32.dll
 0001:0002396e       _SetFilePointer@16         0402496e f   kernel32:KERNEL32.dll
 0001:00023974       _GetConsoleCP@0            04024974 f   kernel32:KERNEL32.dll
 0001:0002397a       _GetConsoleMode@8          0402497a f   kernel32:KERNEL32.dll
 0001:00023980       _GetCPInfo@8               04024980 f   kernel32:KERNEL32.dll
 0001:00023986       _GetACP@0                  04024986 f   kernel32:KERNEL32.dll
 0001:0002398c       _GetOEMCP@0                0402498c f   kernel32:KERNEL32.dll
 0001:00023992       _IsValidCodePage@4         04024992 f   kernel32:KERNEL32.dll
 0001:00023998       _InitializeCriticalSectionAndSpinCount@8 04024998 f   kernel32:KERNEL32.dll
 0001:0002399e       _SetConsoleCtrlHandler@8   0402499e f   kernel32:KERNEL32.dll
 0001:000239a4       _FreeLibrary@4             040249a4 f   kernel32:KERNEL32.dll
 0001:000239aa       _InterlockedExchange@8     040249aa f   kernel32:KERNEL32.dll
 0001:000239b0       _LoadLibraryA@4            040249b0 f   kernel32:KERNEL32.dll
 0001:000239b6       _GetLocaleInfoW@16         040249b6 f   kernel32:KERNEL32.dll
 0001:000239bc       _GetLocaleInfoA@16         040249bc f   kernel32:KERNEL32.dll
 0001:000239c2       _SetStdHandle@8            040249c2 f   kernel32:KERNEL32.dll
 0001:000239c8       _WriteConsoleA@20          040249c8 f   kernel32:KERNEL32.dll
 0001:000239ce       _GetConsoleOutputCP@0      040249ce f   kernel32:KERNEL32.dll
 0001:000239d4       _WriteConsoleW@20          040249d4 f   kernel32:KERNEL32.dll
 0001:000239da       _MultiByteToWideChar@24    040249da f   kernel32:KERNEL32.dll
 0001:000239e0       _LCMapStringA@24           040249e0 f   kernel32:KERNEL32.dll
 0001:000239e6       _LCMapStringW@24           040249e6 f   kernel32:KERNEL32.dll
 0001:000239ec       _GetStringTypeA@20         040249ec f   kernel32:KERNEL32.dll
 0001:000239f2       _GetStringTypeW@16         040249f2 f   kernel32:KERNEL32.dll
 0001:000239f8       _GetTimeFormatA@24         040249f8 f   kernel32:KERNEL32.dll
 0001:000239fe       _GetDateFormatA@24         040249fe f   kernel32:KERNEL32.dll
 0001:00023a04       _GetUserDefaultLCID@0      04024a04 f   kernel32:KERNEL32.dll
 0001:00023a0a       _EnumSystemLocalesA@8      04024a0a f   kernel32:KERNEL32.dll
 0001:00023a10       _IsValidLocale@8           04024a10 f   kernel32:KERNEL32.dll
 0001:00023a16       _CreateFileA@28            04024a16 f   kernel32:KERNEL32.dll
 0001:00023a1c       _CloseHandle@4             04024a1c f   kernel32:KERNEL32.dll
 0001:00023a22       _FlushFileBuffers@4        04024a22 f   kernel32:KERNEL32.dll
 0001:00023a28       _GetTimeZoneInformation@4  04024a28 f   kernel32:KERNEL32.dll
 0001:00023a2e       _CompareStringA@24         04024a2e f   kernel32:KERNEL32.dll
 0001:00023a34       _CompareStringW@24         04024a34 f   kernel32:KERNEL32.dll
 0001:00023a3a       _SetEnvironmentVariableA@8 04024a3a f   kernel32:KERNEL32.dll
 0001:00023a84       _itoa                      04024a84 f   LIBCMT:xtoa.obj
 0001:00023a84       __itoa                     04024a84 f   LIBCMT:xtoa.obj
 0001:00023aae       __ltoa                     04024aae f   LIBCMT:xtoa.obj
 0001:00023ad5       __ultoa                    04024ad5 f   LIBCMT:xtoa.obj
 0001:00023b5e       __i64toa                   04024b5e f   LIBCMT:xtoa.obj
 0001:00023b91       __ui64toa                  04024b91 f   LIBCMT:xtoa.obj
 0001:00023d2c       __strupr_s_l               04024d2c f   LIBCMT:strupr.obj
 0001:00023d61       __strupr_s                 04024d61 f   LIBCMT:strupr.obj
 0001:00023d78       __strupr_l                 04024d78 f   LIBCMT:strupr.obj
 0001:00023d92       _strupr                    04024d92 f   LIBCMT:strupr.obj
 0001:00023d92       __strupr                   04024d92 f   LIBCMT:strupr.obj
 0002:00000000       __imp__GetProcAddress@8    04026000     kernel32:KERNEL32.dll
 0002:00000004       __imp__CompareStringW@24   04026004     kernel32:KERNEL32.dll
 0002:00000008       __imp__CompareStringA@24   04026008     kernel32:KERNEL32.dll
 0002:0000000c       __imp__GetTimeZoneInformation@4 0402600c     kernel32:KERNEL32.dll
 0002:00000010       __imp__FlushFileBuffers@4  04026010     kernel32:KERNEL32.dll
 0002:00000014       __imp__CloseHandle@4       04026014     kernel32:KERNEL32.dll
 0002:00000018       __imp__CreateFileA@28      04026018     kernel32:KERNEL32.dll
 0002:0000001c       __imp__IsValidLocale@8     0402601c     kernel32:KERNEL32.dll
 0002:00000020       __imp__EnumSystemLocalesA@8 04026020     kernel32:KERNEL32.dll
 0002:00000024       __imp__GetUserDefaultLCID@0 04026024     kernel32:KERNEL32.dll
 0002:00000028       __imp__EnterCriticalSection@4 04026028     kernel32:KERNEL32.dll
 0002:0000002c       __imp__LeaveCriticalSection@4 0402602c     kernel32:KERNEL32.dll
 0002:00000030       __imp__Sleep@4             04026030     kernel32:KERNEL32.dll
 0002:00000034       __imp__CreateThread@24     04026034     kernel32:KERNEL32.dll
 0002:00000038       __imp__WritePrivateProfileStringA@16 04026038     kernel32:KERNEL32.dll
 0002:0000003c       __imp__GetPrivateProfileStringA@24 0402603c     kernel32:KERNEL32.dll
 0002:00000040       __imp__InitializeCriticalSection@4 04026040     kernel32:KERNEL32.dll
 0002:00000044       __imp__DeleteCriticalSection@4 04026044     kernel32:KERNEL32.dll
 0002:00000048       __imp__GetPrivateProfileIntA@16 04026048     kernel32:KERNEL32.dll
 0002:0000004c       __imp__GetDateFormatA@24   0402604c     kernel32:KERNEL32.dll
 0002:00000050       __imp__GetTimeFormatA@24   04026050     kernel32:KERNEL32.dll
 0002:00000054       __imp__GetStringTypeW@16   04026054     kernel32:KERNEL32.dll
 0002:00000058       __imp__GetStringTypeA@20   04026058     kernel32:KERNEL32.dll
 0002:0000005c       __imp__LCMapStringW@24     0402605c     kernel32:KERNEL32.dll
 0002:00000060       __imp__LCMapStringA@24     04026060     kernel32:KERNEL32.dll
 0002:00000064       __imp__MultiByteToWideChar@24 04026064     kernel32:KERNEL32.dll
 0002:00000068       __imp__WriteConsoleW@20    04026068     kernel32:KERNEL32.dll
 0002:0000006c       __imp__GetConsoleOutputCP@0 0402606c     kernel32:KERNEL32.dll
 0002:00000070       __imp__WriteConsoleA@20    04026070     kernel32:KERNEL32.dll
 0002:00000074       __imp__SetStdHandle@8      04026074     kernel32:KERNEL32.dll
 0002:00000078       __imp__GetLocaleInfoA@16   04026078     kernel32:KERNEL32.dll
 0002:0000007c       __imp__GetLocaleInfoW@16   0402607c     kernel32:KERNEL32.dll
 0002:00000080       __imp__LoadLibraryA@4      04026080     kernel32:KERNEL32.dll
 0002:00000084       __imp__InterlockedExchange@8 04026084     kernel32:KERNEL32.dll
 0002:00000088       __imp__FreeLibrary@4       04026088     kernel32:KERNEL32.dll
 0002:0000008c       __imp__SetConsoleCtrlHandler@8 0402608c     kernel32:KERNEL32.dll
 0002:00000090       __imp__InitializeCriticalSectionAndSpinCount@8 04026090     kernel32:KERNEL32.dll
 0002:00000094       __imp__IsValidCodePage@4   04026094     kernel32:KERNEL32.dll
 0002:00000098       __imp__GetOEMCP@0          04026098     kernel32:KERNEL32.dll
 0002:0000009c       __imp__GetACP@0            0402609c     kernel32:KERNEL32.dll
 0002:000000a0       __imp__GetCPInfo@8         040260a0     kernel32:KERNEL32.dll
 0002:000000a4       __imp__GetConsoleMode@8    040260a4     kernel32:KERNEL32.dll
 0002:000000a8       __imp__GetConsoleCP@0      040260a8     kernel32:KERNEL32.dll
 0002:000000ac       __imp__SetFilePointer@16   040260ac     kernel32:KERNEL32.dll
 0002:000000b0       __imp__GetSystemTimeAsFileTime@4 040260b0     kernel32:KERNEL32.dll
 0002:000000b4       __imp__GetCurrentProcessId@0 040260b4     kernel32:KERNEL32.dll
 0002:000000b8       __imp__GetTickCount@0      040260b8     kernel32:KERNEL32.dll
 0002:000000bc       __imp__QueryPerformanceCounter@4 040260bc     kernel32:KERNEL32.dll
 0002:000000c0       __imp__GetEnvironmentStringsW@0 040260c0     kernel32:KERNEL32.dll
 0002:000000c4       __imp__WideCharToMultiByte@32 040260c4     kernel32:KERNEL32.dll
 0002:000000c8       __imp__FreeEnvironmentStringsW@4 040260c8     kernel32:KERNEL32.dll
 0002:000000cc       __imp__GetEnvironmentStrings@0 040260cc     kernel32:KERNEL32.dll
 0002:000000d0       __imp__RtlUnwind@16        040260d0     kernel32:KERNEL32.dll
 0002:000000d4       __imp__GetLastError@0      040260d4     kernel32:KERNEL32.dll
 0002:000000d8       __imp__HeapFree@12         040260d8     kernel32:KERNEL32.dll
 0002:000000dc       __imp__TerminateProcess@8  040260dc     kernel32:KERNEL32.dll
 0002:000000e0       __imp__GetCurrentProcess@0 040260e0     kernel32:KERNEL32.dll
 0002:000000e4       __imp__UnhandledExceptionFilter@4 040260e4     kernel32:KERNEL32.dll
 0002:000000e8       __imp__SetUnhandledExceptionFilter@4 040260e8     kernel32:KERNEL32.dll
 0002:000000ec       __imp__IsDebuggerPresent@0 040260ec     kernel32:KERNEL32.dll
 0002:000000f0       __imp__HeapAlloc@12        040260f0     kernel32:KERNEL32.dll
 0002:000000f4       __imp__RaiseException@16   040260f4     kernel32:KERNEL32.dll
 0002:000000f8       __imp__GetCurrentThreadId@0 040260f8     kernel32:KERNEL32.dll
 0002:000000fc       __imp__GetCommandLineA@0   040260fc     kernel32:KERNEL32.dll
 0002:00000100       __imp__GetModuleHandleW@4  04026100     kernel32:KERNEL32.dll
 0002:00000104       __imp__SetEnvironmentVariableA@8 04026104     kernel32:KERNEL32.dll
 0002:00000108       __imp__TlsGetValue@4       04026108     kernel32:KERNEL32.dll
 0002:0000010c       __imp__TlsAlloc@0          0402610c     kernel32:KERNEL32.dll
 0002:00000110       __imp__TlsSetValue@8       04026110     kernel32:KERNEL32.dll
 0002:00000114       __imp__TlsFree@4           04026114     kernel32:KERNEL32.dll
 0002:00000118       __imp__InterlockedIncrement@4 04026118     kernel32:KERNEL32.dll
 0002:0000011c       __imp__SetLastError@4      0402611c     kernel32:KERNEL32.dll
 0002:00000120       __imp__InterlockedDecrement@4 04026120     kernel32:KERNEL32.dll
 0002:00000124       __imp__GetCurrentThread@0  04026124     kernel32:KERNEL32.dll
 0002:00000128       __imp__HeapCreate@12       04026128     kernel32:KERNEL32.dll
 0002:0000012c       __imp__HeapDestroy@4       0402612c     kernel32:KERNEL32.dll
 0002:00000130       __imp__VirtualFree@12      04026130     kernel32:KERNEL32.dll
 0002:00000134       __imp__FatalAppExitA@8     04026134     kernel32:KERNEL32.dll
 0002:00000138       __imp__VirtualAlloc@16     04026138     kernel32:KERNEL32.dll
 0002:0000013c       __imp__HeapReAlloc@16      0402613c     kernel32:KERNEL32.dll
 0002:00000140       __imp__ExitProcess@4       04026140     kernel32:KERNEL32.dll
 0002:00000144       __imp__WriteFile@20        04026144     kernel32:KERNEL32.dll
 0002:00000148       __imp__GetStdHandle@4      04026148     kernel32:KERNEL32.dll
 0002:0000014c       __imp__GetModuleFileNameA@12 0402614c     kernel32:KERNEL32.dll
 0002:00000150       __imp__HeapSize@12         04026150     kernel32:KERNEL32.dll
 0002:00000154       __imp__SetHandleCount@4    04026154     kernel32:KERNEL32.dll
 0002:00000158       __imp__GetFileType@4       04026158     kernel32:KERNEL32.dll
 0002:0000015c       __imp__GetStartupInfoA@4   0402615c     kernel32:KERNEL32.dll
 0002:00000160       __imp__FreeEnvironmentStringsA@4 04026160     kernel32:KERNEL32.dll
 0002:00000164       \177KERNEL32_NULL_THUNK_DATA 04026164     kernel32:KERNEL32.dll
 0002:00000168       __imp__RemoveCommand       04026168     mq2main:MQ2Main.dll
 0002:0000016c       __imp__RemoveMQ2Data       0402616c     mq2main:MQ2Main.dll
 0002:00000170       __imp__AddCommand          04026170     mq2main:MQ2Main.dll
 0002:00000174       __imp__AddMQ2Data          04026174     mq2main:MQ2Main.dll
 0002:00000178       __imp__DataTypeTemp        04026178     mq2main:MQ2Main.dll
 0002:0000017c       __imp__pStringType         0402617c     mq2main:MQ2Main.dll
 0002:00000180       __imp__pIntType            04026180     mq2main:MQ2Main.dll
 0002:00000184       __imp__RemoveMQ2Type       04026184     mq2main:MQ2Main.dll
 0002:00000188       __imp__AddMQ2Type          04026188     mq2main:MQ2Main.dll
 0002:0000018c       __imp_?GetChildItem@CSidlScreenWnd@EQClasses@@QAEPAVCXWnd@2@PAD@Z 0402618c     mq2main:MQ2Main.dll
 0002:00000190       __imp_?SetMaxChars@CEditBaseWnd@EQClasses@@QAEXH@Z 04026190     mq2main:MQ2Main.dll
 0002:00000194       __imp__GetCXStr            04026194     mq2main:MQ2Main.dll
 0002:00000198       __imp_?ClrFocus@CXWnd@EQClasses@@QAEXXZ 04026198     mq2main:MQ2Main.dll
 0002:0000019c       __imp__DebugSpew           0402619c     mq2main:MQ2Main.dll
 0002:000001a0       __imp_?WndNotification@CSidlScreenWnd@EQClasses@@QAEHPAVCXWnd@2@IPAX@Z 040261a0     mq2main:MQ2Main.dll
 0002:000001a4       __imp_??0CSidlScreenWnd@EQClasses@@QAE@PAVCXWnd@1@PAVCXStr@1@HHPAD@Z 040261a4     mq2main:MQ2Main.dll
 0002:000001a8       __imp_?CreateChildrenFromSidl@CSidlScreenWnd@EQClasses@@QAEXXZ 040261a8     mq2main:MQ2Main.dll
 0002:000001ac       __imp_??1CSidlScreenWnd@EQClasses@@QAE@XZ 040261ac     mq2main:MQ2Main.dll
 0002:000001b0       __imp__GetArg              040261b0     mq2main:MQ2Main.dll
 0002:000001b4       __imp__SetCXStr            040261b4     mq2main:MQ2Main.dll
 0002:000001b8       __imp_?Show@CXWnd@EQClasses@@QAEH_N0@Z 040261b8     mq2main:MQ2Main.dll
 0002:000001bc       __imp__StripMQChat         040261bc     mq2main:MQ2Main.dll
 0002:000001c0       __imp__CheckChatForEvent   040261c0     mq2main:MQ2Main.dll
 0002:000001c4       __imp__MQToSTML            040261c4     mq2main:MQ2Main.dll
 0002:000001c8       __imp_??0CXStr@EQClasses@@QAE@PBD@Z 040261c8     mq2main:MQ2Main.dll
 0002:000001cc       __imp_??0CXStr@EQClasses@@QAE@ABV01@@Z 040261cc     mq2main:MQ2Main.dll
 0002:000001d0       __imp_?AppendSTML@CStmlWnd@EQClasses@@QAEAAVCXSize@2@PAV32@VCXStr@2@@Z 040261d0     mq2main:MQ2Main.dll
 0002:000001d4       __imp_?SetVScrollPos@CXWnd@EQClasses@@QAEHH@Z 040261d4     mq2main:MQ2Main.dll
 0002:000001d8       __imp_??1CXStr@EQClasses@@QAE@XZ 040261d8     mq2main:MQ2Main.dll
 0002:000001dc       __imp__WriteChatColor      040261dc     mq2main:MQ2Main.dll
 0002:000001e0       __imp__DebugSpewAlways     040261e0     mq2main:MQ2Main.dll
 0002:000001e4       __imp__gszINIPath          040261e4     mq2main:MQ2Main.dll
 0002:000001e8       \177MQ2Main_NULL_THUNK_DATA 040261e8     mq2main:MQ2Main.dll
 0002:000001ec       __imp__recv@16             040261ec     wsock32:WSOCK32.dll
 0002:000001f0       __imp__WSAStartup@8        040261f0     wsock32:WSOCK32.dll
 0002:000001f4       __imp__gethostbyname@4     040261f4     wsock32:WSOCK32.dll
 0002:000001f8       __imp__WSACleanup@0        040261f8     wsock32:WSOCK32.dll
 0002:000001fc       __imp__socket@12           040261fc     wsock32:WSOCK32.dll
 0002:00000200       __imp__htons@4             04026200     wsock32:WSOCK32.dll
 0002:00000204       __imp__connect@12          04026204     wsock32:WSOCK32.dll
 0002:00000208       __imp__ioctlsocket@12      04026208     wsock32:WSOCK32.dll
 0002:0000020c       __imp__send@16             0402620c     wsock32:WSOCK32.dll
 0002:00000210       \177WSOCK32_NULL_THUNK_DATA 04026210     wsock32:WSOCK32.dll
 0002:00000214       ___xc_a                    04026214     LIBCMT:crt0init.obj
 0002:00000220       ___xc_z                    04026220     LIBCMT:crt0init.obj
 0002:00000224       ___xi_a                    04026224     LIBCMT:crt0init.obj
 0002:00000238       ___xi_z                    04026238     LIBCMT:crt0init.obj
 0002:0000023c       ___xp_a                    0402623c     LIBCMT:crt0init.obj
 0002:00000248       ___xp_z                    04026248     LIBCMT:crt0init.obj
 0002:0000024c       ___xt_a                    0402624c     LIBCMT:crt0init.obj
 0002:00000250       ___xt_z                    04026250     LIBCMT:crt0init.obj
 0002:0000027c       ??_C@_03BMIBANNE@ber?$AA@  0402627c     MQ2Irc.obj
 0002:00000280       ??_C@_09MHCCJHFP@Berserker?$AA@ 04026280     MQ2Irc.obj
 0002:0000028c       ??_C@_03FCHAHFJA@bst?$AA@  0402628c     MQ2Irc.obj
 0002:00000290       ??_C@_09KINPMODP@Beastlord?$AA@ 04026290     MQ2Irc.obj
 0002:0000029c       ??_C@_03NONKPJJM@enc?$AA@  0402629c     MQ2Irc.obj
 0002:000002a0       ??_C@_09EEJIJECG@Enchanter?$AA@ 040262a0     MQ2Irc.obj
 0002:000002ac       ??_C@_03HEFOFDEK@mag?$AA@  040262ac     MQ2Irc.obj
 0002:000002b0       ??_C@_04EPDGEGDL@Mage?$AA@ 040262b0     MQ2Irc.obj
 0002:000002b8       ??_C@_03LKIFNJBF@wiz?$AA@  040262b8     MQ2Irc.obj
 0002:000002bc       ??_C@_06MNAGNDLP@Wizard?$AA@ 040262bc     MQ2Irc.obj
 0002:000002c4       ??_C@_03FIOJBHM@nec?$AA@   040262c4     MQ2Irc.obj
 0002:000002c8       ??_C@_0M@OEPIPDJH@Necromancer?$AA@ 040262c8     MQ2Irc.obj
 0002:000002d4       ??_C@_03DBKGKAOD@shm?$AA@  040262d4     MQ2Irc.obj
 0002:000002d8       ??_C@_06ELHMMIIB@Shaman?$AA@ 040262d8     MQ2Irc.obj
 0002:000002e0       ??_C@_03HGLKDJIJ@rog?$AA@  040262e0     MQ2Irc.obj
 0002:000002e4       ??_C@_05PIFIONNP@Rogue?$AA@ 040262e4     MQ2Irc.obj
 0002:000002ec       ??_C@_03BJHAANPG@brd?$AA@  040262ec     MQ2Irc.obj
 0002:000002f0       ??_C@_04MOJAIBDA@Bard?$AA@ 040262f0     MQ2Irc.obj
 0002:000002f8       ??_C@_03NDLHFLHL@mnk?$AA@  040262f8     MQ2Irc.obj
 0002:000002fc       ??_C@_04DOLLCHAJ@Monk?$AA@ 040262fc     MQ2Irc.obj
 0002:00000304       ??_C@_03GPMCHBDK@dru?$AA@  04026304     MQ2Irc.obj
 0002:00000308       ??_C@_05EDJAKLCL@Druid?$AA@ 04026308     MQ2Irc.obj
 0002:00000310       ??_C@_03OAGEBLKK@shd?$AA@  04026310     MQ2Irc.obj
 0002:00000314       ??_C@_0N@ICIHEJOD@Shadowknight?$AA@ 04026314     MQ2Irc.obj
 0002:00000324       ??_C@_03HHHIFDLO@rng?$AA@  04026324     MQ2Irc.obj
 0002:00000328       ??_C@_06MGJHBAMJ@Ranger?$AA@ 04026328     MQ2Irc.obj
 0002:00000330       ??_C@_03DFNJAFMD@pal?$AA@  04026330     MQ2Irc.obj
 0002:00000334       ??_C@_07DBGCNDAP@Paladin?$AA@ 04026334     MQ2Irc.obj
 0002:0000033c       ??_C@_03KLOMFBDO@clr?$AA@  0402633c     MQ2Irc.obj
 0002:00000340       ??_C@_06PBHENIKF@Cleric?$AA@ 04026340     MQ2Irc.obj
 0002:00000348       ??_C@_03HMEPACKF@war?$AA@  04026348     MQ2Irc.obj
 0002:0000034c       ??_C@_07DFKLKNJN@Warrior?$AA@ 0402634c     MQ2Irc.obj
 0002:00000354       ??_C@_00CNPNBAHC@?$AA@     04026354     MQ2Irc.obj
 0002:00000358       ??_C@_0P@GHFPNOJB@bad?5allocation?$AA@ 04026358     MQ2Irc.obj
 0002:00000368       ?collate@?$_Locbase@H@std@@2HB 04026368     MQ2Irc.obj
 0002:0000036c       ?ctype@?$_Locbase@H@std@@2HB 0402636c     MQ2Irc.obj
 0002:00000370       ?monetary@?$_Locbase@H@std@@2HB 04026370     MQ2Irc.obj
 0002:00000374       ?numeric@?$_Locbase@H@std@@2HB 04026374     MQ2Irc.obj
 0002:00000378       ?time@?$_Locbase@H@std@@2HB 04026378     MQ2Irc.obj
 0002:0000037c       ?messages@?$_Locbase@H@std@@2HB 0402637c     MQ2Irc.obj
 0002:00000380       ?all@?$_Locbase@H@std@@2HB 04026380     MQ2Irc.obj
 0002:00000384       ?none@?$_Locbase@H@std@@2HB 04026384     MQ2Irc.obj
 0002:00000388       ?table_size@?$ctype@D@std@@2IB 04026388     MQ2Irc.obj
 0002:0000038c       ?skipws@?$_Iosb@H@std@@2W4_Fmtflags@12@B 0402638c     MQ2Irc.obj
 0002:00000390       ?unitbuf@?$_Iosb@H@std@@2W4_Fmtflags@12@B 04026390     MQ2Irc.obj
 0002:00000394       ?uppercase@?$_Iosb@H@std@@2W4_Fmtflags@12@B 04026394     MQ2Irc.obj
 0002:00000398       ?showbase@?$_Iosb@H@std@@2W4_Fmtflags@12@B 04026398     MQ2Irc.obj
 0002:0000039c       ?showpoint@?$_Iosb@H@std@@2W4_Fmtflags@12@B 0402639c     MQ2Irc.obj
 0002:000003a0       ?showpos@?$_Iosb@H@std@@2W4_Fmtflags@12@B 040263a0     MQ2Irc.obj
 0002:000003a4       ?left@?$_Iosb@H@std@@2W4_Fmtflags@12@B 040263a4     MQ2Irc.obj
 0002:000003a8       ?right@?$_Iosb@H@std@@2W4_Fmtflags@12@B 040263a8     MQ2Irc.obj
 0002:000003ac       ?internal@?$_Iosb@H@std@@2W4_Fmtflags@12@B 040263ac     MQ2Irc.obj
 0002:000003b0       ?dec@?$_Iosb@H@std@@2W4_Fmtflags@12@B 040263b0     MQ2Irc.obj
 0002:000003b4       ?oct@?$_Iosb@H@std@@2W4_Fmtflags@12@B 040263b4     MQ2Irc.obj
 0002:000003b8       ?hex@?$_Iosb@H@std@@2W4_Fmtflags@12@B 040263b8     MQ2Irc.obj
 0002:000003bc       ?scientific@?$_Iosb@H@std@@2W4_Fmtflags@12@B 040263bc     MQ2Irc.obj
 0002:000003c0       ?fixed@?$_Iosb@H@std@@2W4_Fmtflags@12@B 040263c0     MQ2Irc.obj
 0002:000003c4       ?hexfloat@?$_Iosb@H@std@@2W4_Fmtflags@12@B 040263c4     MQ2Irc.obj
 0002:000003c8       ?boolalpha@?$_Iosb@H@std@@2W4_Fmtflags@12@B 040263c8     MQ2Irc.obj
 0002:000003cc       ?_Stdio@?$_Iosb@H@std@@2W4_Fmtflags@12@B 040263cc     MQ2Irc.obj
 0002:000003d0       ?adjustfield@?$_Iosb@H@std@@2W4_Fmtflags@12@B 040263d0     MQ2Irc.obj
 0002:000003d4       ?basefield@?$_Iosb@H@std@@2W4_Fmtflags@12@B 040263d4     MQ2Irc.obj
 0002:000003d8       ?floatfield@?$_Iosb@H@std@@2W4_Fmtflags@12@B 040263d8     MQ2Irc.obj
 0002:000003dc       ?goodbit@?$_Iosb@H@std@@2W4_Iostate@12@B 040263dc     MQ2Irc.obj
 0002:000003e0       ?eofbit@?$_Iosb@H@std@@2W4_Iostate@12@B 040263e0     MQ2Irc.obj
 0002:000003e4       ?failbit@?$_Iosb@H@std@@2W4_Iostate@12@B 040263e4     MQ2Irc.obj
 0002:000003e8       ?badbit@?$_Iosb@H@std@@2W4_Iostate@12@B 040263e8     MQ2Irc.obj
 0002:000003ec       ?_Hardfail@?$_Iosb@H@std@@2W4_Iostate@12@B 040263ec     MQ2Irc.obj
 0002:000003f0       ?in@?$_Iosb@H@std@@2W4_Openmode@12@B 040263f0     MQ2Irc.obj
 0002:000003f4       ?out@?$_Iosb@H@std@@2W4_Openmode@12@B 040263f4     MQ2Irc.obj
 0002:000003f8       ?ate@?$_Iosb@H@std@@2W4_Openmode@12@B 040263f8     MQ2Irc.obj
 0002:000003fc       ?app@?$_Iosb@H@std@@2W4_Openmode@12@B 040263fc     MQ2Irc.obj
 0002:00000400       ?trunc@?$_Iosb@H@std@@2W4_Openmode@12@B 04026400     MQ2Irc.obj
 0002:00000404       ?_Nocreate@?$_Iosb@H@std@@2W4_Openmode@12@B 04026404     MQ2Irc.obj
 0002:00000408       ?_Noreplace@?$_Iosb@H@std@@2W4_Openmode@12@B 04026408     MQ2Irc.obj
 0002:0000040c       ?binary@?$_Iosb@H@std@@2W4_Openmode@12@B 0402640c     MQ2Irc.obj
 0002:00000410       ?beg@?$_Iosb@H@std@@2W4_Seekdir@12@B 04026410     MQ2Irc.obj
 0002:00000414       ?cur@?$_Iosb@H@std@@2W4_Seekdir@12@B 04026414     MQ2Irc.obj
 0002:00000418       ?end@?$_Iosb@H@std@@2W4_Seekdir@12@B 04026418     MQ2Irc.obj
 0002:00000420       ??_7bad_alloc@std@@6B@     04026420     MQ2Irc.obj
 0002:00000428       ??_C@_0BD@GHJBOHNK@?$CFs?5Module?5Unloaded?$AA@ 04026428     MQ2Irc.obj
 0002:0000043c       ??_C@_09KADMDAPI@?$CFs?2?$CFs?4ini?$AA@ 0402643c     MQ2Irc.obj
 0002:00000448       ??_C@_0BB@OIFMLBEG@?$CFs?5Module?5Loaded?$AA@ 04026448     MQ2Irc.obj
 0002:0000045c       ??_C@_06KEMFJHGB@MQ2Irc?$AA@ 0402645c     MQ2Irc.obj
 0002:00000464       ??_C@_04NKJDMFKO@?$DMbr?$DO?$AA@ 04026464     MQ2Irc.obj
 0002:0000046c       ??_C@_03CCLAEDDF@Yes?$AA@  0402646c     MQ2Irc.obj
 0002:00000470       ??_C@_09MMLADEDC@JOIN?5?$CFs?6?$AA?$AA@ 04026470     MQ2Irc.obj
 0002:0000047c       ??_C@_0BE@OPAFEIMN@USER?5?$CFs?5?$CFs?5?$CFs?5?3?$CFs?6?$AA?$AA@ 0402647c     MQ2Irc.obj
 0002:00000490       ??_C@_09HFLJNOKN@NICK?5?$CFs?6?$AA?$AA@ 04026490     MQ2Irc.obj
 0002:0000049c       ??_C@_0BN@IBOOKNEC@?$AHr?$CD?$AHx?5MQ2Irc?5Status?3?5OFFLINE?$AA@ 0402649c     MQ2Irc.obj
 0002:000004bc       ??_C@_0DA@HLCALIAO@?$AHr?$CD?$AHx?5MQ2Irc?5Status?3?5ONLINE?5?9?5?$CFs@ 040264bc     MQ2Irc.obj
 0002:000004ec       ??_C@_0BD@JMHPKKLF@?$AHr?$CD?$AHx?5Socket?5error?$AA@ 040264ec     MQ2Irc.obj
 0002:00000500       ??_C@_0BK@JEIKIAPE@?$AHr?$CD?$AHx?5gethostbyname?5error?$AA@ 04026500     MQ2Irc.obj
 0002:0000051c       ??_C@_07HAOKNHOC@?$CFs?5?$FL?$CFs?$FN?$AA@ 0402651c     MQ2Irc.obj
 0002:00000524       ??_C@_08HCLDDKNF@Realname?$AA@ 04026524     MQ2Irc.obj
 0002:00000530       ??_C@_08GBJFCIEI@Username?$AA@ 04026530     MQ2Irc.obj
 0002:0000053c       ??_C@_08EEOHOBEO@Settings?$AA@ 0402653c     MQ2Irc.obj
 0002:00000548       ??_C@_07NGFJPNPN@Version?$AA@ 04026548     MQ2Irc.obj
 0002:00000550       ??_C@_02DKCKIIND@?$CFs?$AA@ 04026550     MQ2Irc.obj
 0002:00000554       ??_C@_04FEKIJBFG@Nick?$AA@ 04026554     MQ2Irc.obj
 0002:0000055c       ??_C@_08JIICLOKA@What?9Ini?$AA@ 0402655c     MQ2Irc.obj
 0002:00000568       ??_C@_04GKHHBCKJ@Chan?$AA@ 04026568     MQ2Irc.obj
 0002:00000570       ??_C@_0M@FINFEPHI@?$CDmacroquest?$AA@ 04026570     MQ2Irc.obj
 0002:0000057c       ??_C@_04HOKNCALA@Port?$AA@ 0402657c     MQ2Irc.obj
 0002:00000584       ??_C@_04HCBNNLKP@6667?$AA@ 04026584     MQ2Irc.obj
 0002:0000058c       ??_C@_0N@LNPCLCEH@Last?5Connect?$AA@ 0402658c     MQ2Irc.obj
 0002:0000059c       ??_C@_06LGMEBDBC@Server?$AA@ 0402659c     MQ2Irc.obj
 0002:000005a4       ??_C@_0N@FINECCCH@irc?4ipdn?4org?$AA@ 040265a4     MQ2Irc.obj
 0002:000005b4       ??_C@_0DI@NHOMDELM@?$AHr?$CD?$AHx?5Already?5trying?5to?5connect?$CB@ 040265b4     MQ2Irc.obj
 0002:000005ec       ??_C@_0DK@FAHKOLHK@?$AHr?$CD?$AHx?5Already?5connected?4?5Use?5?1i?5@ 040265ec     MQ2Irc.obj
 0002:00000628       ??_C@_09PECHAJJL@ChatRight?$AA@ 04026628     MQ2Irc.obj
 0002:00000634       ??_C@_08NGGHNOAC@ChatLeft?$AA@ 04026634     MQ2Irc.obj
 0002:00000640       ??_C@_0L@CLABEOBI@ChatBottom?$AA@ 04026640     MQ2Irc.obj
 0002:0000064c       ??_C@_07GCLHBAPE@ChatTop?$AA@ 0402664c     MQ2Irc.obj
 0002:00000654       ??_C@_0BI@PIANHHKO@MQ2WndTest?3?3OnCleanUI?$CI?$CJ?$AA@ 04026654     MQ2Irc.obj
 0002:0000066c       ??_C@_0CA@KEGGDNJM@CIRCWnd?5message?5?$CFXh?0?5value?3?5?$CFXh?$AA@ 0402666c     MQ2Irc.obj
 0002:0000068c       ??_C@_0CB@NEPPOCNP@InputBox?5message?5?$CFXh?0?5value?3?5?$CFXh@ 0402668c     MQ2Irc.obj
 0002:000006b0       ??_C@_0BC@NLEAOBDC@?$AHg?$DM?$AHw?$CFs?$AHg?$DO?$AH?9w?5?$CFs?$AA?$AA@ 040266b0     MQ2Irc.obj
 0002:000006c4       ??_C@_0BB@KMANODHI@PRIVMSG?5?$CFs?5?3?$CFs?6?$AA?$AA@ 040266c4     MQ2Irc.obj
 0002:000006d8       ??_C@_0CE@IGECLMDL@?$AHr?$CD?$AH?9w?5You?5are?5not?5on?5any?5channe@ 040266d8     MQ2Irc.obj
 0002:00000700       ??_7logic_error@std@@6B@   04026700     MQ2Irc.obj
 0002:00000708       ??_C@_0M@HIABHLGI@CWChatInput?$AA@ 04026708     MQ2Irc.obj
 0002:00000714       ??_C@_0N@MBBPKPEE@CWChatOutput?$AA@ 04026714     MQ2Irc.obj
 0002:00000724       ??_C@_0DH@ONKDBLED@?$AHr?$CD?$AH?9w?5Invalid?5Command?0?5?1i?5help?5@ 04026724     MQ2Irc.obj
 0002:0000075c       ??_C@_0BM@DOOGEFCJ@?$AHb?$FL?$AH?9rmsg?$AHb?$CI?$AHr?$CFs?$AHb?$CJ?$FN?$AH?9w?5?$CFs?$AA?$AA@ 0402675c     MQ2Irc.obj
 0002:00000778       ??_C@_03GGAHOJCI@MSG?$AA@  04026778     MQ2Irc.obj
 0002:0000077c       ??_C@_0CA@GKHFBFGL@?$AHr?$CD?$AH?9w?5Now?5speaking?5in?5?$AHw?$CFs?$AH?9w?4?$AA@ 0402677c     MQ2Irc.obj
 0002:0000079c       ??_C@_01MMEEDKFM@X?$AA@    0402679c     MQ2Irc.obj
 0002:000007a0       ??_C@_0L@EHDDOEHB@NAMES?5?$CFs?6?$AA?$AA@ 040267a0     MQ2Irc.obj
 0002:000007ac       ??_C@_05JAEFIFOF@NAMES?$AA@ 040267ac     MQ2Irc.obj
 0002:000007b4       ??_C@_03BNCCIBEF@SAY?$AA@  040267b4     MQ2Irc.obj
 0002:000007b8       ??_C@_0BM@KMMFHDHJ@?$AHb?$FL?$AH?9yraw?$AHb?$CI?$AHy?$CFs?$AHb?$CJ?$FN?$AH?9w?5?$CFs?$AA?$AA@ 040267b8     MQ2Irc.obj
 0002:000007d4       ??_C@_04EEOBCCDC@?$CFs?6?$AA?$AA@ 040267d4     MQ2Irc.obj
 0002:000007dc       ??_C@_03DLBNMLKO@RAW?$AA@  040267dc     MQ2Irc.obj
 0002:000007e0       ??_C@_0DE@GBPHNMHP@?$AHr?$CD?$AHx?5Connection?5Closed?0?5you?5can@ 040267e0     MQ2Irc.obj
 0002:00000814       ??_C@_0L@MGEIHOBM@QUIT?5?3?$CFs?6?$AA?$AA@ 04026814     MQ2Irc.obj
 0002:00000820       ??_C@_04GBOBDPBG@QUIT?$AA@ 04026820     MQ2Irc.obj
 0002:00000828       ??_C@_0FD@MGMGFEGC@?$AHr?$CD?$AHx?5Supported?5Commands?3?6?$AHr?$CD?$AHx?5@ 04026828     MQ2Irc.obj
 0002:0000087c       ??_C@_04DOKPJKJF@HELP?$AA@ 0402687c     MQ2Irc.obj
 0002:00000884       ??_C@_0L@BHMEAIDM@WHOIS?5?$CFs?6?$AA?$AA@ 04026884     MQ2Irc.obj
 0002:00000890       ??_C@_05BKJPIFCI@WHOIS?$AA@ 04026890     MQ2Irc.obj
 0002:00000898       ??_C@_09NGIBBAHM@PART?5?$CFs?6?$AA?$AA@ 04026898     MQ2Irc.obj
 0002:000008a4       ??_C@_04JDIJJKPP@PART?$AA@ 040268a4     MQ2Irc.obj
 0002:000008ac       ??_C@_04PJFINEKF@JOIN?$AA@ 040268ac     MQ2Irc.obj
 0002:000008b4       ??_C@_04FJFDFMCK@NICK?$AA@ 040268b4     MQ2Irc.obj
 0002:000008c0       ??_C@_0EN@MIIFOGPL@?$AHr?$CD?$AHx?5You?5are?5not?5connected?4?5Ple@ 040268c0     MQ2Irc.obj
 0002:00000910       ??_C@_0L@CNKDMAL@ChatWindow?$AA@ 04026910     MQ2Irc.obj
 0002:00000920       ??_7length_error@std@@6B@  04026920     MQ2Irc.obj
 0002:0000092c       ??_7out_of_range@std@@6B@  0402692c     MQ2Irc.obj
 0002:00000934       ??_C@_0BB@MOGOBHAF@list?$DMT?$DO?5too?5long?$AA@ 04026934     MQ2Irc.obj
 0002:00000948       ??_C@_0BM@PAPJHAGI@invalid?5map?1set?$DMT?$DO?5iterator?$AA@ 04026948     MQ2Irc.obj
 0002:00000964       ??_C@_0BE@JONHPENG@map?1set?$DMT?$DO?5too?5long?$AA@ 04026964     MQ2Irc.obj
 0002:00000978       ??_C@_0BG@KDPMAMMF@DEBUG?5param?$FL?$CFi?$FN?5?$DN?5?$CFs?$AA?$AA@ 04026978     MQ2Irc.obj
 0002:00000990       ??_C@_0BF@ICCHHPAI@DEBUG?3?5command?5?$DN?5?$CFs?$AA?$AA@ 04026990     MQ2Irc.obj
 0002:000009a8       ??_C@_0CB@PNDBLIFE@DEBUG?5Couldnt?5parse?5correctly?4?4?4@ 040269a8     MQ2Irc.obj
 0002:000009cc       ??_C@_0BL@BEEOEMOB@?$AHr?$CD?$AH?9w?5End?5of?5?1names?5list?$AA?$AA@ 040269cc     MQ2Irc.obj
 0002:000009e8       ??_C@_0CD@GKDHDDAL@?$AHr?$CD?$AH?9w?5Names?5on?5?$AHw?$CFs?$AH?9w?6?$AHr?$CD?$AH?9w?5?$CF@ 040269e8     MQ2Irc.obj
 0002:00000a0c       ??_C@_0BH@JJIHBOND@?$AHr?$CD?$AH?9w?5Set?5by?5?$AHw?$CFs?$AH?9w?$AA?$AA@ 04026a0c     MQ2Irc.obj
 0002:00000a24       ??_C@_0BO@IFCMICAP@?$AHr?$CD?$AH?9w?5Topic?5for?5?$AHw?$CFs?$AH?9w?3?5?$CFs?$AA?$AA@ 04026a24     MQ2Irc.obj
 0002:00000a44       ??_C@_0CD@IELMPKNN@?$AHr?$CD?$AH?9w?5Not?5registered?5with?5serve@ 04026a44     MQ2Irc.obj
 0002:00000a68       ??_C@_0O@BAALHCMD@?$AHr?$CD?$AH?9w?5?$CFs?5?$CFs?$AA?$AA@ 04026a68     MQ2Irc.obj
 0002:00000a78       ??_C@_0BA@IIBHGGKM@?$AHr?$CD?$AHw?5?$CFs?$AH?9w?5?$CFs?$AA?$AA@ 04026a78     MQ2Irc.obj
 0002:00000a88       ??_C@_0BN@PCEPBOOM@?$AHr?$CD?$AHw?5?$CFs?$AH?9w?5?$CFs?5seconds?5idle?$AA?$AA@ 04026a88     MQ2Irc.obj
 0002:00000aa8       ??_C@_0CA@GOGIJDLN@?$AHr?$CD?$AHw?5?$CFs?$AH?9w?5connecting?5from?5?$CFs?$AA?$AA@ 04026aa8     MQ2Irc.obj
 0002:00000ac8       ??_C@_0BF@CCNMBBFA@?$AHr?$CD?$AHw?5?$CFs?$AH?9w?5?$CFs?5?$CI?$CFs?$CJ?$AA?$AA@ 04026ac8     MQ2Irc.obj
 0002:00000ae0       ??_C@_0BI@JNLHHIPN@?$AHr?$CD?$AHw?5?$CFs?$AH?9w?5?$CFs?$EA?$CFs?5?$CI?$CFs?$CJ?$AA?$AA@ 04026ae0     MQ2Irc.obj
 0002:00000af8       ??_C@_0BL@DAAHDHCA@?$AHr?$CD?$AH?9w?5Server?5has?5no?5MOTD?$AA?$AA@ 04026af8     MQ2Irc.obj
 0002:00000b14       ??_C@_0DB@ECNDLDBB@?$AHr?$CD?$AH?9w?5Server?5doesn?8t?5recognize?5@ 04026b14     MQ2Irc.obj
 0002:00000b48       ??_C@_0P@NAABLAIC@?$AHr?$CD?$AH?9w?5?$CFs?3?5?$CFs?$AA?$AA@ 04026b48     MQ2Irc.obj
 0002:00000b58       ??_C@_06HCDKOPNE@?$CFs?5?$CFs?$AA?$AA@ 04026b58     MQ2Irc.obj
 0002:00000b60       ??_C@_0BJ@BFLBMFGI@?$AHr?$CD?$AH?9w?5Server?5error?3?5?$CFs?$AA?$AA@ 04026b60     MQ2Irc.obj
 0002:00000b7c       ??_C@_05MBDEGLCK@ERROR?$AA@ 04026b7c     MQ2Irc.obj
 0002:00000b84       ??_C@_0BL@MIJMCNOB@?$AHr?$CK?$AHw?5?$CFs?$AH?9w?5quit?5IRC?5?$CI?$CFs?$CJ?$AA?$AA@ 04026b84     MQ2Irc.obj
 0002:00000ba0       ??_C@_0CL@IHDFODCE@?$AHr?$CK?$AHw?5?$CFs?$AH?9w?5kicked?5from?5?$CFs?5by?5?$AHw@ 04026ba0     MQ2Irc.obj
 0002:00000bcc       ??_C@_04JBLDNDFK@KICK?$AA@ 04026bcc     MQ2Irc.obj
 0002:00000bd4       ??_C@_0CN@BHECBPDE@?$AHr?$CK?$AHw?5?$CFs?$AH?9w?5changed?5topic?5on?5?$AHw?$CF@ 04026bd4     MQ2Irc.obj
 0002:00000c04       ??_C@_05GMJDHOAO@TOPIC?$AA@ 04026c04     MQ2Irc.obj
 0002:00000c0c       ??_C@_0BP@IEDMANBP@?$AHb?$FL?$AHo?$CFs?$AHb?$CI?$AH?9onotice?$AHb?$CJ?$FN?$AH?9w?5?$CFs?$AA?$AA@ 04026c0c     MQ2Irc.obj
 0002:00000c2c       ??_C@_06FMPEGAHJ@NOTICE?$AA@ 04026c2c     MQ2Irc.obj
 0002:00000c34       ??_C@_0BL@NGAJCACD@?$AHg?$DM?$AH?9w?$CFs?$AHg?1?$AH?9w?$CFs?$AHg?$DO?$AH?9w?5?$CFs?$AA?$AA@ 04026c34     MQ2Irc.obj
 0002:00000c50       ??_C@_0BD@HADCGBEO@?$AHg?$DM?$AH?9w?$CFs?$AHg?$DO?$AH?9w?5?$CFs?$AA?$AA@ 04026c50     MQ2Irc.obj
 0002:00000c64       ??_C@_0BM@FHADGGCN@?$AHb?$FL?$AHp?$CFs?$AHb?$CI?$AH?9pmsg?$AHb?$CJ?$FN?$AH?9w?5?$CFs?$AA?$AA@ 04026c64     MQ2Irc.obj
 0002:00000c80       ??_C@_0CB@JFFCFEPM@?$AHb?$FL?$AHo?$CFs?$AHb?$CI?$AH?9octcp?$AHb?$CJ?$FN?$AH?9w?5VERSION@ 04026c80     MQ2Irc.obj
 0002:00000ca4       ??_C@_0BK@LCIDABOC@NOTICE?5?$CFs?5?3?$ABVERSION?5?$CFs?$AB?6?$AA?$AA@ 04026ca4     MQ2Irc.obj
 0002:00000cc0       ??_C@_09FIFJGJNN@?$ABVERSION?$AB?$AA@ 04026cc0     MQ2Irc.obj
 0002:00000ccc       ??_C@_07FMAJIDMK@PRIVMSG?$AA@ 04026ccc     MQ2Irc.obj
 0002:00000cd4       ??_C@_02KOPDJAMB@?$CC?5?$AA@ 04026cd4     MQ2Irc.obj
 0002:00000cd8       ??_C@_01CLKCMJKC@?5?$AA@   04026cd8     MQ2Irc.obj
 0002:00000cdc       ??_C@_0BG@NDJCAICE@?$AHr?$CK?$AHw?5?$CFs?5set?5mode?5?$CC?$AHw?$AA@ 04026cdc     MQ2Irc.obj
 0002:00000cf4       ??_C@_04KAFEECCN@MODE?$AA@ 04026cf4     MQ2Irc.obj
 0002:00000cfc       ??_C@_0BF@CPEAPNNK@?$AHr?$CK?$AHw?5?$CFs?$AH?9w?5left?5?$CFs?$AA?$AA@ 04026cfc     MQ2Irc.obj
 0002:00000d14       ??_C@_0CC@KEIFHKKM@?$AHr?$CD?$AH?9w?5No?5longer?5on?5any?5channels@ 04026d14     MQ2Irc.obj
 0002:00000d38       ??_C@_0BA@HAJKFDHN@No?5Channel?5?$FL?$CFs?$FN?$AA@ 04026d38     MQ2Irc.obj
 0002:00000d48       ??_C@_0BI@NJMEAMFO@?$AHr?$CK?$AHw?5?$CFs?$AH?9w?5joined?5?$CFs?4?$AA?$AA@ 04026d48     MQ2Irc.obj
 0002:00000d60       ??_C@_0CI@IOGOIPFC@?$AHr?$CK?$AH?9w?5?$CFs?5changed?5nickname?5to?5?$AHw@ 04026d60     MQ2Irc.obj
 0002:00000d88       ??_C@_03BPOAKJOG@?$CFs?$AA?$AA@ 04026d88     MQ2Irc.obj
 0002:00000d8c       ??_C@_09GDGBGJNJ@PONG?5?$CFs?6?$AA?$AA@ 04026d8c     MQ2Irc.obj
 0002:00000d98       ??_C@_04CCOOKJJG@PING?$AA@ 04026d98     MQ2Irc.obj
 0002:00000da0       ??_C@_0BJ@FOAMIIIL@?$AHr?$CD?$AHx?5Could?5not?5connect?4?$AA@ 04026da0     MQ2Irc.obj
 0002:00000dbc       ??_C@_0BB@OAHEIPHO@?$AHr?$CD?$AHx?5Connected?$CB?$AA@ 04026dbc     MQ2Irc.obj
 0002:00000dd4       ??_7MQ2Type@MQ2Internal@@6B@ 04026dd4     MQ2Irc.obj
 0002:00000dec       ??_C@_07DMJBFPJJ@Channel?$AA@ 04026dec     MQ2Irc.obj
 0002:00000df8       ??_7MQ2IrcType@@6B@        04026df8     MQ2Irc.obj
 0002:00000e10       ??_C@_03IBDABMDA@irc?$AA@  04026e10     MQ2Irc.obj
 0002:00000e14       ??_C@_05MAJJAKPI@FALSE?$AA@ 04026e14     MQ2Irc.obj
 0002:00000e1c       ??_C@_04HCDDPBNL@TRUE?$AA@ 04026e1c     MQ2Irc.obj
 0002:00000e24       ??_C@_06NKBIBOFB@UseWnd?$AA@ 04026e24     MQ2Irc.obj
 0002:00000e2c       ??_C@_02JINPPBEP@No?$AA@   04026e2c     MQ2Irc.obj
 0002:00000e30       ??_C@_06MMOGAEPF@mq2irc?$AA@ 04026e30     MQ2Irc.obj
 0002:00000e38       ??_C@_0O@GMFDBKHL@MQ2Irc?5120703?$AA@ 04026e38     MQ2Irc.obj
 0002:00000e48       ??_C@_0EO@MNLIOLFP@?$AHr?$CD?$AHx?5To?5connect?5to?5a?5server?0?5ty@ 04026e48     MQ2Irc.obj
 0002:00000e98       ??_C@_0CF@BICMEJAI@?$AHr?$CD?$AHx?5?1i?5help?5for?5a?5list?5of?5comm@ 04026e98     MQ2Irc.obj
 0002:00000ec0       ??_C@_0DM@MCKNFLFL@?$AHr?$CD?$AHx?5MQ2Irc?5loaded?0?5all?5command@ 04026ec0     MQ2Irc.obj
 0002:00000efc       ??_C@_0BC@CBADGLFB@Loading?5MQ2Irc?4?4?4?$AA@ 04026efc     MQ2Irc.obj
 0002:00000f10       ??_C@_03CBACLDAO@Irc?$AA@  04026f10     MQ2Irc.obj
 0002:00000f14       ??_C@_08NAAOHBGK@?1istatus?$AA@ 04026f14     MQ2Irc.obj
 0002:00000f20       ??_C@_09GILPAKMD@?1iconnect?$AA@ 04026f20     MQ2Irc.obj
 0002:00000f2c       ??_C@_02IHJAPHNO@?1i?$AA@  04026f2c     MQ2Irc.obj
 0002:00000f30       ??_C@_0BE@NHLCIDOL@Initializing?5MQ2Irc?$AA@ 04026f30     MQ2Irc.obj
 0002:00000f44       ??_C@_0BF@BNHCNDGA@Shutting?5down?5MQ2Irc?$AA@ 04026f44     MQ2Irc.obj
 0002:00000f60       ??_7invalid_argument@std@@6B@ 04026f60     libcpmt:string.obj
 0002:00000f68       ??_C@_0BA@JFNIOLAK@string?5too?5long?$AA@ 04026f68     libcpmt:string.obj
 0002:00000f78       ??_C@_0BI@CFPLBAOH@invalid?5string?5position?$AA@ 04026f78     libcpmt:string.obj
 0002:00000f90       ??_C@_0BI@ILCMCLF@invalid?5string?5argument?$AA@ 04026f90     libcpmt:string.obj
 0002:00000fac       ??_7exception@std@@6B@     04026fac     LIBCMT:stdexcpt.obj
 0002:00000fb4       ??_C@_0BC@EOODALEL@Unknown?5exception?$AA@ 04026fb4     LIBCMT:stdexcpt.obj
 0002:00000fcc       ??_7bad_cast@std@@6B@      04026fcc     LIBCMT:stdexcpt.obj
 0002:00000fd8       ??_7bad_typeid@std@@6B@    04026fd8     LIBCMT:stdexcpt.obj
 0002:00000fe4       ??_7__non_rtti_object@std@@6B@ 04026fe4     LIBCMT:stdexcpt.obj
 0002:00000ff0       ??_7type_info@@6B@         04026ff0     LIBCMT:typinfo.obj
 0002:00000ff4       ?ProcessDetach@NativeDll@<CrtImplementationDetails>@@0IB 04026ff4     LIBCMT:_trnsctrl_.obj
 0002:00000ff8       ?ProcessAttach@NativeDll@<CrtImplementationDetails>@@0IB 04026ff8     LIBCMT:_trnsctrl_.obj
 0002:00000ffc       ?ThreadAttach@NativeDll@<CrtImplementationDetails>@@0IB 04026ffc     LIBCMT:_trnsctrl_.obj
 0002:00001000       ?ThreadDetach@NativeDll@<CrtImplementationDetails>@@0IB 04027000     LIBCMT:_trnsctrl_.obj
 0002:00001004       ?ProcessVerifier@NativeDll@<CrtImplementationDetails>@@0IB 04027004     LIBCMT:_trnsctrl_.obj
 0002:00001028       __pRawDllMain              04027028     LIBCMT:dllcrt0.obj
 0002:00001028       __pDefaultRawDllMain       04027028     LIBCMT:dllcrt0.obj
 0002:0000102c       ??_C@_1O@CEDCILHN@?$AA?$CI?$AAn?$AAu?$AAl?$AAl?$AA?$CJ?$AA?$AA@ 0402702c     LIBCMT:output.obj
 0002:0000103c       ??_C@_06OJHGLDPL@?$CInull?$CJ?$AA@ 0402703c     LIBCMT:output.obj
 0002:00001048       ___lookuptable             04027048     LIBCMT:output.obj
 0002:000010a4       __pDestructExceptionObject 040270a4     LIBCMT:frame.obj
 0002:000010ac       ??_7bad_exception@std@@6B@ 040270ac     LIBCMT:frame.obj
 0002:000010b4       ??_C@_0O@DPKOEFFH@bad?5exception?$AA@ 040270b4     LIBCMT:frame.obj
 0002:000010c4       ??_C@_0O@NLDKAIKN@EncodePointer?$AA@ 040270c4     LIBCMT:tidtable.obj
 0002:000010d4       ??_C@_1BK@DBDEIDLH@?$AAK?$AAE?$AAR?$AAN?$AAE?$AAL?$AA3?$AA2?$AA?4?$AAD?$AAL?$AAL?$AA?$AA@ 040270d4     LIBCMT:tidtable.obj
 0002:000010f0       ??_C@_0O@KBPMFGHI@DecodePointer?$AA@ 040270f0     LIBCMT:tidtable.obj
 0002:00001100       ??_C@_07PEJMOBNF@FlsFree?$AA@ 04027100     LIBCMT:tidtable.obj
 0002:00001108       ??_C@_0M@JCPCPOEF@FlsSetValue?$AA@ 04027108     LIBCMT:tidtable.obj
 0002:00001114       ??_C@_0M@GDNOONDI@FlsGetValue?$AA@ 04027114     LIBCMT:tidtable.obj
 0002:00001120       ??_C@_08KNHFBNJ@FlsAlloc?$AA@ 04027120     LIBCMT:tidtable.obj
 0002:0000112c       ??_C@_0P@MIGLKIOC@CorExitProcess?$AA@ 0402712c     LIBCMT:crt0dat.obj
 0002:0000113c       ??_C@_1BI@BGOHAHKC@?$AAm?$AAs?$AAc?$AAo?$AAr?$AAe?$AAe?$AA?4?$AAd?$AAl?$AAl?$AA?$AA@ 0402713c     LIBCMT:crt0dat.obj
 0002:00001154       ??_C@_0P@GGKDKEEG@runtime?5error?5?$AA@ 04027154     LIBCMT:crt0msg.obj
 0002:00001164       ??_C@_02PCIJFNDE@?$AN?6?$AA@ 04027164     LIBCMT:crt0msg.obj
 0002:00001168       ??_C@_0O@MJNIPGOH@TLOSS?5error?$AN?6?$AA@ 04027168     LIBCMT:crt0msg.obj
 0002:00001178       ??_C@_0N@BONNPDHF@SING?5error?$AN?6?$AA@ 04027178     LIBCMT:crt0msg.obj
 0002:00001188       ??_C@_0P@MBDAJNE@DOMAIN?5error?$AN?6?$AA@ 04027188     LIBCMT:crt0msg.obj
 0002:00001198       ??_C@_0JL@DFDOOABL@R6034?$AN?6An?5application?5has?5made?5a@ 04027198     LIBCMT:crt0msg.obj
 0002:00001238       ??_C@_0PH@EPAFIJ@R6033?$AN?6?9?5Attempt?5to?5use?5MSIL?5cod@ 04027238     LIBCMT:crt0msg.obj
 0002:00001330       ??_C@_0DD@BKEEABMM@R6032?$AN?6?9?5not?5enough?5space?5for?5lo@ 04027330     LIBCMT:crt0msg.obj
 0002:00001368       ??_C@_0GD@OFKILIED@R6031?$AN?6?9?5Attempt?5to?5initialize?5t@ 04027368     LIBCMT:crt0msg.obj
 0002:000013cc       ??_C@_0BP@LPMHJOKI@R6030?$AN?6?9?5CRT?5not?5initialized?$AN?6?$AA@ 040273cc     LIBCMT:crt0msg.obj
 0002:000013ec       ??_C@_0CF@KJDAIALP@R6028?$AN?6?9?5unable?5to?5initialize?5he@ 040273ec     LIBCMT:crt0msg.obj
 0002:00001414       ??_C@_0DF@GAKBPDFP@R6027?$AN?6?9?5not?5enough?5space?5for?5lo@ 04027414     LIBCMT:crt0msg.obj
 0002:0000144c       ??_C@_0DF@IBLNNAIG@R6026?$AN?6?9?5not?5enough?5space?5for?5st@ 0402744c     LIBCMT:crt0msg.obj
 0002:00001484       ??_C@_0CG@IOHKGFNJ@R6025?$AN?6?9?5pure?5virtual?5function?5c@ 04027484     LIBCMT:crt0msg.obj
 0002:000014ac       ??_C@_0DF@JIJJFJDC@R6024?$AN?6?9?5not?5enough?5space?5for?5_o@ 040274ac     LIBCMT:crt0msg.obj
 0002:000014e4       ??_C@_0CJ@EGEJHFME@R6019?$AN?6?9?5unable?5to?5open?5console?5@ 040274e4     LIBCMT:crt0msg.obj
 0002:00001510       ??_C@_0CB@GNHNIELH@R6018?$AN?6?9?5unexpected?5heap?5error?$AN?6@ 04027510     LIBCMT:crt0msg.obj
 0002:00001534       ??_C@_0CN@FOLDKNG@R6017?$AN?6?9?5unexpected?5multithread?5@ 04027534     LIBCMT:crt0msg.obj
 0002:00001564       ??_C@_0CM@FAHFJNHO@R6016?$AN?6?9?5not?5enough?5space?5for?5th@ 04027564     LIBCMT:crt0msg.obj
 0002:00001590       ??_C@_0JG@LBKMGKLD@?$AN?6This?5application?5has?5requested@ 04027590     LIBCMT:crt0msg.obj
 0002:00001628       ??_C@_0CM@FLCNIPKK@R6009?$AN?6?9?5not?5enough?5space?5for?5en@ 04027628     LIBCMT:crt0msg.obj
 0002:00001654       ??_C@_0CK@KMMJOAPP@R6008?$AN?6?9?5not?5enough?5space?5for?5ar@ 04027654     LIBCMT:crt0msg.obj
 0002:00001680       ??_C@_0CN@LEKKICBM@R6002?$AN?6?9?5floating?5point?5support?5@ 04027680     LIBCMT:crt0msg.obj
 0002:000016b0       ??_C@_0CF@GOGNBNAK@Microsoft?5Visual?5C?$CL?$CL?5Runtime?5Lib@ 040276b0     LIBCMT:crt0msg.obj
 0002:000016d8       ??_C@_02PHMGELLB@?6?6?$AA@ 040276d8     LIBCMT:crt0msg.obj
 0002:000016dc       ??_C@_03KHICJKCI@?4?4?4?$AA@ 040276dc     LIBCMT:crt0msg.obj
 0002:000016e0       ??_C@_0BH@DNAGHKFM@?$DMprogram?5name?5unknown?$DO?$AA@ 040276e0     LIBCMT:crt0msg.obj
 0002:000016f8       ??_C@_0BK@OFGJDLJJ@Runtime?5Error?$CB?6?6Program?3?5?$AA@ 040276f8     LIBCMT:crt0msg.obj
 0002:00001718       __XcptActTab               04027718     LIBCMT:winxfltr.obj
 0002:00001798       ??_C@_0BK@CFCOFLF@?5Complete?5Object?5Locator?8?$AA@ 04027798     LIBCMT:undname.obj
 0002:000017b4       ??_C@_0BN@MECKDCOJ@?5Class?5Hierarchy?5Descriptor?8?$AA@ 040277b4     LIBCMT:undname.obj
 0002:000017d4       ??_C@_0BD@LGICGFMM@?5Base?5Class?5Array?8?$AA@ 040277d4     LIBCMT:undname.obj
 0002:000017e8       ??_C@_0BM@LDKODKLH@?5Base?5Class?5Descriptor?5at?5?$CI?$AA@ 040277e8     LIBCMT:undname.obj
 0002:00001804       ??_C@_0BC@DAFEJGAK@?5Type?5Descriptor?8?$AA@ 04027804     LIBCMT:undname.obj
 0002:00001818       ??_C@_0BM@PMGGMLDN@?$GAlocal?5static?5thread?5guard?8?$AA@ 04027818     LIBCMT:undname.obj
 0002:00001834       ??_C@_0CL@FGIJHLCE@?$GAmanaged?5vector?5copy?5constructor@ 04027834     LIBCMT:undname.obj
 0002:00001860       ??_C@_0CJ@GJELGAMM@?$GAvector?5vbase?5copy?5constructor?5i@ 04027860     LIBCMT:undname.obj
 0002:0000188c       ??_C@_0CD@CGAJBKEJ@?$GAvector?5copy?5constructor?5iterato@ 0402788c     LIBCMT:undname.obj
 0002:000018b0       ??_C@_0CB@PDBIFEP@?$GAdynamic?5atexit?5destructor?5for?5?8@ 040278b0     LIBCMT:undname.obj
 0002:000018d4       ??_C@_0BL@CLIPGLGB@?$GAdynamic?5initializer?5for?5?8?$AA@ 040278d4     LIBCMT:undname.obj
 0002:000018f0       ??_C@_0CM@FCBBDIGB@?$GAeh?5vector?5vbase?5copy?5constructo@ 040278f0     LIBCMT:undname.obj
 0002:0000191c       ??_C@_0CG@HLDDJMAG@?$GAeh?5vector?5copy?5constructor?5iter@ 0402791c     LIBCMT:undname.obj
 0002:00001944       ??_C@_0CF@IMGKMJNO@?$GAmanaged?5vector?5destructor?5itera@ 04027944     LIBCMT:undname.obj
 0002:0000196c       ??_C@_0CG@CFDHKGGD@?$GAmanaged?5vector?5constructor?5iter@ 0402796c     LIBCMT:undname.obj
 0002:00001994       ??_C@_0BN@CKNJLHMB@?$GAplacement?5delete?$FL?$FN?5closure?8?$AA@ 04027994     LIBCMT:undname.obj
 0002:000019b4       ??_C@_0BL@CNOONJFP@?$GAplacement?5delete?5closure?8?$AA@ 040279b4     LIBCMT:undname.obj
 0002:000019d0       ??_C@_0P@HJKNJFNN@?$GAomni?5callsig?8?$AA@ 040279d0     LIBCMT:undname.obj
 0002:000019e0       ??_C@_09LBNFPBCA@?5delete?$FL?$FN?$AA@ 040279e0     LIBCMT:undname.obj
 0002:000019ec       ??_C@_06FHBGPFGH@?5new?$FL?$FN?$AA@ 040279ec     LIBCMT:undname.obj
 0002:000019f4       ??_C@_0CE@IIHCMGGL@?$GAlocal?5vftable?5constructor?5closu@ 040279f4     LIBCMT:undname.obj
 0002:00001a18       ??_C@_0BA@KKLDJDLB@?$GAlocal?5vftable?8?$AA@ 04027a18     LIBCMT:undname.obj
 0002:00001a28       ??_C@_05KHLCHHI@?$GARTTI?$AA@ 04027a28     LIBCMT:undname.obj
 0002:00001a30       ??_C@_03KLGMFNMG@?$GAEH?$AA@ 04027a30     LIBCMT:undname.obj
 0002:00001a34       ??_C@_0BA@KBCDOMBN@?$GAudt?5returning?8?$AA@ 04027a34     LIBCMT:undname.obj
 0002:00001a44       ??_C@_0BL@LLKPOHJI@?$GAcopy?5constructor?5closure?8?$AA@ 04027a44     LIBCMT:undname.obj
 0002:00001a60       ??_C@_0CH@OOJPLCPH@?$GAeh?5vector?5vbase?5constructor?5ite@ 04027a60     LIBCMT:undname.obj
 0002:00001a88       ??_C@_0CA@GCEOPDGL@?$GAeh?5vector?5destructor?5iterator?8?$AA@ 04027a88     LIBCMT:undname.obj
 0002:00001aa8       ??_C@_0CB@JONCMFFK@?$GAeh?5vector?5constructor?5iterator?8@ 04027aa8     LIBCMT:undname.obj
 0002:00001acc       ??_C@_0BL@NILFHHPC@?$GAvirtual?5displacement?5map?8?$AA@ 04027acc     LIBCMT:undname.obj
 0002:00001ae8       ??_C@_0CE@IKBNEHA@?$GAvector?5vbase?5constructor?5iterat@ 04027ae8     LIBCMT:undname.obj
 0002:00001b0c       ??_C@_0BN@LFPFMEDL@?$GAvector?5destructor?5iterator?8?$AA@ 04027b0c     LIBCMT:undname.obj
 0002:00001b2c       ??_C@_0BO@PFGOCPJJ@?$GAvector?5constructor?5iterator?8?$AA@ 04027b2c     LIBCMT:undname.obj
 0002:00001b4c       ??_C@_0BN@IMDCHIKM@?$GAscalar?5deleting?5destructor?8?$AA@ 04027b4c     LIBCMT:undname.obj
 0002:00001b6c       ??_C@_0BO@OBMKPJIG@?$GAdefault?5constructor?5closure?8?$AA@ 04027b6c     LIBCMT:undname.obj
 0002:00001b8c       ??_C@_0BN@DEGPLNFK@?$GAvector?5deleting?5destructor?8?$AA@ 04027b8c     LIBCMT:undname.obj
 0002:00001bac       ??_C@_0BD@JDLKDPAB@?$GAvbase?5destructor?8?$AA@ 04027bac     LIBCMT:undname.obj
 0002:00001bc0       ??_C@_08OBABFOLI@?$GAstring?8?$AA@ 04027bc0     LIBCMT:undname.obj
 0002:00001bcc       ??_C@_0BF@KDPPACIK@?$GAlocal?5static?5guard?8?$AA@ 04027bcc     LIBCMT:undname.obj
 0002:00001be4       ??_C@_08LLFFHHDJ@?$GAtypeof?8?$AA@ 04027be4     LIBCMT:undname.obj
 0002:00001bf0       ??_C@_07FEEIOKP@?$GAvcall?8?$AA@ 04027bf0     LIBCMT:undname.obj
 0002:00001bf8       ??_C@_09BLBHBJP@?$GAvbtable?8?$AA@ 04027bf8     LIBCMT:undname.obj
 0002:00001c04       ??_C@_09IFPLHPGF@?$GAvftable?8?$AA@ 04027c04     LIBCMT:undname.obj
 0002:00001c10       ??_C@_02MHEGNOJ@?$FO?$DN?$AA@ 04027c10     LIBCMT:undname.obj
 0002:00001c14       ??_C@_02DHLNPPGH@?$HM?$DN?$AA@ 04027c14     LIBCMT:undname.obj
 0002:00001c18       ??_C@_02FGJGFEAB@?$CG?$DN?$AA@ 04027c18     LIBCMT:undname.obj
 0002:00001c1c       ??_C@_03CDNPDDLA@?$DM?$DM?$DN?$AA@ 04027c1c     LIBCMT:undname.obj
 0002:00001c20       ??_C@_03IKFCCPFF@?$DO?$DO?$DN?$AA@ 04027c20     LIBCMT:undname.obj
 0002:00001c24       ??_C@_02FENAOKFI@?$CF?$DN?$AA@ 04027c24     LIBCMT:undname.obj
 0002:00001c28       ??_C@_02FJEHGPIO@?1?$DN?$AA@ 04027c28     LIBCMT:undname.obj
 0002:00001c2c       ??_C@_02FKMDLLOA@?9?$DN?$AA@ 04027c2c     LIBCMT:undname.obj
 0002:00001c30       ??_C@_02FOEOMHFC@?$CL?$DN?$AA@ 04027c30     LIBCMT:undname.obj
 0002:00001c34       ??_C@_02FPIMKNGF@?$CK?$DN?$AA@ 04027c34     LIBCMT:undname.obj
 0002:00001c38       ??_C@_02NONPIBCD@?$HM?$HM?$AA@ 04027c38     LIBCMT:undname.obj
 0002:00001c3c       ??_C@_02PPKAJPJL@?$CG?$CG?$AA@ 04027c3c     LIBCMT:undname.obj
 0002:00001c40       ??_C@_01DNKMNLPK@?$HM?$AA@ 04027c40     LIBCMT:undname.obj
 0002:00001c44       ??_C@_01JKBOJNNK@?$FO?$AA@ 04027c44     LIBCMT:undname.obj
 0002:00001c48       ??_C@_01PJKLJHI@?$HO?$AA@  04027c48     LIBCMT:undname.obj
 0002:00001c4c       ??_C@_02HCKGKOFO@?$CI?$CJ?$AA@ 04027c4c     LIBCMT:undname.obj
 0002:00001c50       ??_C@_01IHBHIGKO@?0?$AA@   04027c50     LIBCMT:undname.obj
 0002:00001c54       ??_C@_02EEKDKGMJ@?$DO?$DN?$AA@ 04027c54     LIBCMT:undname.obj
 0002:00001c58       ??_C@_01PPODPGHN@?$DO?$AA@ 04027c58     LIBCMT:undname.obj
 0002:00001c5c       ??_C@_02EHCHHCKH@?$DM?$DN?$AA@ 04027c5c     LIBCMT:undname.obj
 0002:00001c60       ??_C@_01MNNFJEPP@?$DM?$AA@ 04027c60     LIBCMT:undname.obj
 0002:00001c64       ??_C@_01FGNFDNOH@?$CF?$AA@ 04027c64     LIBCMT:undname.obj
 0002:00001c68       ??_C@_01KMDKNFGN@?1?$AA@   04027c68     LIBCMT:undname.obj
 0002:00001c6c       ??_C@_03MNHNFDLC@?9?$DO?$CK?$AA@ 04027c6c     LIBCMT:undname.obj
 0002:00001c70       ??_C@_01HNPIGOCE@?$CG?$AA@ 04027c70     LIBCMT:undname.obj
 0002:00001c74       ??_C@_01MIFGBAGJ@?$CL?$AA@ 04027c74     LIBCMT:undname.obj
 0002:00001c78       ??_C@_01JOAMLHOP@?9?$AA@   04027c78     LIBCMT:undname.obj
 0002:00001c7c       ??_C@_02BAABKJLB@?9?9?$AA@ 04027c7c     LIBCMT:undname.obj
 0002:00001c80       ??_C@_02ECNGHCIF@?$CL?$CL?$AA@ 04027c80     LIBCMT:undname.obj
 0002:00001c84       ??_C@_01NBENCBCI@?$CK?$AA@ 04027c84     LIBCMT:undname.obj
 0002:00001c88       ??_C@_02HBOOOICD@?9?$DO?$AA@ 04027c88     LIBCMT:undname.obj
 0002:00001c8c       ??_C@_08LHJFAFGD@operator?$AA@ 04027c8c     LIBCMT:undname.obj
 0002:00001c98       ??_C@_02GPECMEKF@?$FL?$FN?$AA@ 04027c98     LIBCMT:undname.obj
 0002:00001c9c       ??_C@_02FDNJECIE@?$CB?$DN?$AA@ 04027c9c     LIBCMT:undname.obj
 0002:00001ca0       ??_C@_02EGOFBIJA@?$DN?$DN?$AA@ 04027ca0     LIBCMT:undname.obj
 0002:00001ca4       ??_C@_01DCLJPIOD@?$CB?$AA@ 04027ca4     LIBCMT:undname.obj
 0002:00001ca8       ??_C@_02FODMEDOG@?$DM?$DM?$AA@ 04027ca8     LIBCMT:undname.obj
 0002:00001cac       ??_C@_02GPIOPFAK@?$DO?$DO?$AA@ 04027cac     LIBCMT:undname.obj
 0002:00001cb0       ??_C@_01NEMOKFLO@?$DN?$AA@ 04027cb0     LIBCMT:undname.obj
 0002:00001cb4       ??_C@_07FPCDHGMM@?5delete?$AA@ 04027cb4     LIBCMT:undname.obj
 0002:00001cbc       ??_C@_04NIHEBCM@?5new?$AA@ 04027cbc     LIBCMT:undname.obj
 0002:00001cc4       ??_C@_0M@GFIIJFMG@__unaligned?$AA@ 04027cc4     LIBCMT:undname.obj
 0002:00001cd0       ??_C@_0L@PILCLIHE@__restrict?$AA@ 04027cd0     LIBCMT:undname.obj
 0002:00001cdc       ??_C@_07JOMMBBKO@__ptr64?$AA@ 04027cdc     LIBCMT:undname.obj
 0002:00001ce4       ??_C@_09HIJEGCPM@__clrcall?$AA@ 04027ce4     LIBCMT:undname.obj
 0002:00001cf0       ??_C@_0L@JMKHOMEK@__fastcall?$AA@ 04027cf0     LIBCMT:undname.obj
 0002:00001cfc       ??_C@_0L@NPHFGOKO@__thiscall?$AA@ 04027cfc     LIBCMT:undname.obj
 0002:00001d08       ??_C@_09IFJBGAPI@__stdcall?$AA@ 04027d08     LIBCMT:undname.obj
 0002:00001d14       ??_C@_08GHMPAG@__pascal?$AA@ 04027d14     LIBCMT:undname.obj
 0002:00001d20       ??_C@_07KOLFKCDI@__cdecl?$AA@ 04027d20     LIBCMT:undname.obj
 0002:00001d28       ??_C@_08EHJDFFNH@__based?$CI?$AA@ 04027d28     LIBCMT:undname.obj
 0002:00001eb8       ??_7DNameNode@@6B@         04027eb8     LIBCMT:undname.obj
 0002:00001ec4       ??_7charNode@@6B@          04027ec4     LIBCMT:undname.obj
 0002:00001ed0       ??_7pDNameNode@@6B@        04027ed0     LIBCMT:undname.obj
 0002:00001edc       ??_7DNameStatusNode@@6B@   04027edc     LIBCMT:undname.obj
 0002:00001ee8       ??_7pairNode@@6B@          04027ee8     LIBCMT:undname.obj
 0002:00001ef4       ??_7pcharNode@@6B@         04027ef4     LIBCMT:undname.obj
 0002:00001f00       ??_C@_04OKOHEJBO@?5?$DP?$DP?5?$AA@ 04027f00     LIBCMT:undname.obj
 0002:00001f08       ??_C@_06EEGAIFAK@?$HLflat?$HN?$AA@ 04027f08     LIBCMT:undname.obj
 0002:00001f10       ??_C@_05JIBOFOHK@?$HLfor?5?$AA@ 04027f10     LIBCMT:undname.obj
 0002:00001f18       ??_C@_0BN@IBLMMFAP@?$GAnon?9type?9template?9parameter?$AA@ 04027f18     LIBCMT:undname.obj
 0002:00001f38       ??_C@_09EBBEKKIH@unsigned?5?$AA@ 04027f38     LIBCMT:undname.obj
 0002:00001f44       ??_C@_05CJIMAING@long?5?$AA@ 04027f44     LIBCMT:undname.obj
 0002:00001f4c       ??_C@_04LAHKHJMA@int?5?$AA@ 04027f4c     LIBCMT:undname.obj
 0002:00001f54       ??_C@_06EHJMALKF@short?5?$AA@ 04027f54     LIBCMT:undname.obj
 0002:00001f5c       ??_C@_05CIHEBHNO@char?5?$AA@ 04027f5c     LIBCMT:undname.obj
 0002:00001f64       ??_C@_04GKJNKENE@void?$AA@ 04027f64     LIBCMT:undname.obj
 0002:00001f6c       ??_C@_0L@EGPHHEKN@?$DMellipsis?$DO?$AA@ 04027f6c     LIBCMT:undname.obj
 0002:00001f78       ??_C@_0M@ELJOJFFH@?0?$DMellipsis?$DO?$AA@ 04027f78     LIBCMT:undname.obj
 0002:00001f84       ??_C@_04EENFHACM@?0?4?4?4?$AA@ 04027f84     LIBCMT:undname.obj
 0002:00001f8c       ??_C@_07HDJPLPEK@?5throw?$CI?$AA@ 04027f8c     LIBCMT:undname.obj
 0002:00001f94       ??_C@_02GOGNNPBN@?$CJ?$FL?$AA@ 04027f94     LIBCMT:undname.obj
 0002:00001f98       ??_C@_02MDINNEEG@s?5?$AA@  04027f98     LIBCMT:undname.obj
 0002:00001f9c       ??_C@_0BE@EODMJLIF@?$GAtemplate?9parameter?$AA@ 04027f9c     LIBCMT:undname.obj
 0002:00001fb0       ??_C@_01GEODFPGF@?8?$AA@   04027fb0     LIBCMT:undname.obj
 0002:00001fb4       ??_C@_04HIBGFPH@NULL?$AA@  04027fb4     LIBCMT:undname.obj
 0002:00001fbc       ??_C@_0O@GKABPPIF@cli?3?3pin_ptr?$DM?$AA@ 04027fbc     LIBCMT:undname.obj
 0002:00001fcc       ??_C@_0M@EALIELKG@cli?3?3array?$DM?$AA@ 04027fcc     LIBCMT:undname.obj
 0002:00001fd8       ??_C@_05BEFAKPML@void?5?$AA@ 04027fd8     LIBCMT:undname.obj
 0002:00001fe0       ??_C@_02OHHJMEON@?8?8?$AA@ 04027fe0     LIBCMT:undname.obj
 0002:00001fe4       ??_C@_0BG@JNJLAMPM@?$GAanonymous?5namespace?8?$AA@ 04027fe4     LIBCMT:undname.obj
 0002:00001ffc       ??_C@_01NLNLIGKH@?$GA?$AA@ 04027ffc     LIBCMT:undname.obj
 0002:00002000       ??_C@_0O@KHGCOMHP@generic?9type?9?$AA@ 04028000     LIBCMT:undname.obj
 0002:00002010       ??_C@_0BE@JAEOCHPE@template?9parameter?9?$AA@ 04028010     LIBCMT:undname.obj
 0002:00002024       ??_C@_02MOLJINC@?3?3?$AA@  04028024     LIBCMT:undname.obj
 0002:00002028       ??_C@_0P@GCIFDJCJ@?$GAunknown?5ecsu?8?$AA@ 04028028     LIBCMT:undname.obj
 0002:00002038       ??_C@_06MOJHIBMG@union?5?$AA@ 04028038     LIBCMT:undname.obj
 0002:00002040       ??_C@_07DIBCDNGL@struct?5?$AA@ 04028040     LIBCMT:undname.obj
 0002:00002048       ??_C@_06LJBABKPM@class?5?$AA@ 04028048     LIBCMT:undname.obj
 0002:00002050       ??_C@_05LJGMCFOG@enum?5?$AA@ 04028050     LIBCMT:undname.obj
 0002:00002058       ??_C@_08KOFANOFK@coclass?5?$AA@ 04028058     LIBCMT:undname.obj
 0002:00002064       ??_C@_0N@DLIEFKNA@cointerface?5?$AA@ 04028064     LIBCMT:undname.obj
 0002:00002074       ??_C@_02KCKGHPCA@?$CJ?5?$AA@ 04028074     LIBCMT:undname.obj
 0002:00002078       ??_C@_0M@DHNBOJMP@extern?5?$CCC?$CC?5?$AA@ 04028078     LIBCMT:undname.obj
 0002:00002084       ??_C@_08KJLFOPNE@?$FLthunk?$FN?3?$AA@ 04028084     LIBCMT:undname.obj
 0002:00002090       ??_C@_08GPDDCMKI@public?3?5?$AA@ 04028090     LIBCMT:undname.obj
 0002:0000209c       ??_C@_0M@GAIFPFIP@protected?3?5?$AA@ 0402809c     LIBCMT:undname.obj
 0002:000020a8       ??_C@_09LAPHOOG@private?3?5?$AA@ 040280a8     LIBCMT:undname.obj
 0002:000020b4       ??_C@_08NIEOINHE@virtual?5?$AA@ 040280b4     LIBCMT:undname.obj
 0002:000020c0       ??_C@_07PGOEDBHP@static?5?$AA@ 040280c0     LIBCMT:undname.obj
 0002:000020c8       ??_C@_0DA@HGFJFBBE@?$GAtemplate?5static?5data?5member?5des@ 040280c8     LIBCMT:undname.obj
 0002:000020f8       ??_C@_0DB@ILEFOCIJ@?$GAtemplate?5static?5data?5member?5con@ 040280f8     LIBCMT:undname.obj
 0002:0000212c       ??_C@_0CB@KJDOOODE@?$GAlocal?5static?5destructor?5helper?8@ 0402812c     LIBCMT:undname.obj
 0002:00002150       ??_C@_0L@HNGCOGAE@?$GAadjustor?$HL?$AA@ 04028150     LIBCMT:undname.obj
 0002:0000215c       ??_C@_0L@GHPFDFH@?$GAvtordisp?$HL?$AA@ 0402815c     LIBCMT:undname.obj
 0002:00002168       ??_C@_0N@CBHHHENL@?$GAvtordispex?$HL?$AA@ 04028168     LIBCMT:undname.obj
 0002:00002178       ??_C@_02IGFCGPIL@?$HN?8?$AA@ 04028178     LIBCMT:undname.obj
 0002:0000217c       ??_C@_03OPGICMGF@?$HN?8?5?$AA@ 0402817c     LIBCMT:undname.obj
 0002:00002180       ??_C@_06LIJLOJAG@const?5?$AA@ 04028180     LIBCMT:undname.obj
 0002:00002188       ??_C@_09GAIEOBLP@volatile?5?$AA@ 04028188     LIBCMT:undname.obj
 0002:00002194       ??_C@_04HEJADOOB@CV?3?5?$AA@ 04028194     LIBCMT:undname.obj
 0002:0000219c       ??_C@_08PABEKFH@volatile?$AA@ 0402819c     LIBCMT:undname.obj
 0002:000021a8       ??_C@_09EFNPDFFP@?5volatile?$AA@ 040281a8     LIBCMT:undname.obj
 0002:000021b4       ??_C@_05BNCCCJPP@const?$AA@ 040281b4     LIBCMT:undname.obj
 0002:000021bc       ??_C@_07EDHNAJHC@signed?5?$AA@ 040281bc     LIBCMT:undname.obj
 0002:000021c4       ??_C@_06BNJCAIGJ@double?$AA@ 040281c4     LIBCMT:undname.obj
 0002:000021cc       ??_C@_07NFANNNEC@UNKNOWN?$AA@ 040281cc     LIBCMT:undname.obj
 0002:000021d4       ??_C@_08GAHOLHEO@__int128?$AA@ 040281d4     LIBCMT:undname.obj
 0002:000021e0       ??_C@_04DDKJGDCM@bool?$AA@ 040281e0     LIBCMT:undname.obj
 0002:000021e8       ??_C@_07CLGGIAMF@wchar_t?$AA@ 040281e8     LIBCMT:undname.obj
 0002:000021f0       ??_C@_07LFCOJCAC@__int64?$AA@ 040281f0     LIBCMT:undname.obj
 0002:000021f8       ??_C@_07ICFHOGAF@__int16?$AA@ 040281f8     LIBCMT:undname.obj
 0002:00002200       ??_C@_07OFLPPHGP@__int32?$AA@ 04028200     LIBCMT:undname.obj
 0002:00002208       ??_C@_06EBGKOKIG@__int8?$AA@ 04028208     LIBCMT:undname.obj
 0002:00002210       ??_C@_06GCICPBLB@__w64?5?$AA@ 04028210     LIBCMT:undname.obj
 0002:00002218       ??_C@_05KNFBNCOH@float?$AA@ 04028218     LIBCMT:undname.obj
 0002:00002220       ??_C@_04GOKPGOLB@long?$AA@ 04028220     LIBCMT:undname.obj
 0002:00002228       ??_C@_03JBIPMCLC@int?$AA@  04028228     LIBCMT:undname.obj
 0002:0000222c       ??_C@_05BFKKPKCG@short?$AA@ 0402822c     LIBCMT:undname.obj
 0002:00002234       ??_C@_04ENMBGAPA@char?$AA@ 04028234     LIBCMT:undname.obj
 0002:0000223c       ??_C@_07LCBHPJJN@LC_TIME?$AA@ 0402823c     LIBCMT:setlocal.obj
 0002:00002244       ??_C@_0L@DLHIECNL@LC_NUMERIC?$AA@ 04028244     LIBCMT:setlocal.obj
 0002:00002250       ??_C@_0M@MIENIKLA@LC_MONETARY?$AA@ 04028250     LIBCMT:setlocal.obj
 0002:0000225c       ??_C@_08EADHIDAD@LC_CTYPE?$AA@ 0402825c     LIBCMT:setlocal.obj
 0002:00002268       ??_C@_0L@KFJHEKIK@LC_COLLATE?$AA@ 04028268     LIBCMT:setlocal.obj
 0002:00002274       ??_C@_06NEFDFEKB@LC_ALL?$AA@ 04028274     LIBCMT:setlocal.obj
 0002:00002280       ___lc_category             04028280     LIBCMT:setlocal.obj
 0002:00002348       ??_C@_03EGDHDPFD@_?4?0?$AA@ 04028348     LIBCMT:setlocal.obj
 0002:0000234c       ??_C@_01LFCBOECM@?4?$AA@   0402834c     LIBCMT:setlocal.obj
 0002:00002350       ??_C@_01IDAFKMJL@_?$AA@    04028350     LIBCMT:setlocal.obj
 0002:00002354       ??_C@_01ICJEACDI@?$DL?$AA@ 04028354     LIBCMT:setlocal.obj
 0002:00002358       ??_C@_01GFHCPBMG@C?$AA@    04028358     LIBCMT:setlocal.obj
 0002:0000235c       ??_C@_02BALPLPBG@?$DN?$DL?$AA@ 0402835c     LIBCMT:setlocal.obj
 0002:00002360       ___lookuptable_s           04028360     LIBCMT:outputs.obj
 0002:000023bc       ??_C@_0BC@JEAENNKH@SystemFunction036?$AA@ 040283bc     LIBCMT:rand_s.obj
 0002:000023d0       ??_C@_0N@JJPEKNFO@ADVAPI32?4DLL?$AA@ 040283d0     LIBCMT:rand_s.obj
 0002:000023e0       ??_C@_0BI@DFKBFLJE@GetProcessWindowStation?$AA@ 040283e0     LIBCMT:crtmbox.obj
 0002:000023f8       ??_C@_0BK@CIDNPOGP@GetUserObjectInformationA?$AA@ 040283f8     LIBCMT:crtmbox.obj
 0002:00002414       ??_C@_0BD@HHGDFDBJ@GetLastActivePopup?$AA@ 04028414     LIBCMT:crtmbox.obj
 0002:00002428       ??_C@_0BA@HNOPNCHB@GetActiveWindow?$AA@ 04028428     LIBCMT:crtmbox.obj
 0002:00002438       ??_C@_0M@CHKKJDAI@MessageBoxA?$AA@ 04028438     LIBCMT:crtmbox.obj
 0002:00002444       ??_C@_0L@NDEGIDAG@USER32?4DLL?$AA@ 04028444     LIBCMT:crtmbox.obj
 0002:00002450       ??_C@_13NOLLCAOD@?$AA?$AA?$AA?$AA@ 04028450     LIBCMT:a_map.obj
 0002:00002458       ___newctype                04028458     LIBCMT:ctype.obj
 0002:00002758       __wctype                   04028758     LIBCMT:ctype.obj
 0002:00002960       ___newclmap                04028960     LIBCMT:ctype.obj
 0002:00002ae0       ___newcumap                04028ae0     LIBCMT:ctype.obj
 0002:00002c60       ??_C@_08JCCMCCIL@HH?3mm?3ss?$AA@ 04028c60     LIBCMT:strftime.obj
 0002:00002c6c       ??_C@_0BE@CKGJFCPC@dddd?0?5MMMM?5dd?0?5yyyy?$AA@ 04028c6c     LIBCMT:strftime.obj
 0002:00002c80       ??_C@_08BPBNCDIB@MM?1dd?1yy?$AA@ 04028c80     LIBCMT:strftime.obj
 0002:00002c8c       ??_C@_02CJNFDJBF@PM?$AA@   04028c8c     LIBCMT:strftime.obj
 0002:00002c90       ??_C@_02DEDBPAFC@AM?$AA@   04028c90     LIBCMT:strftime.obj
 0002:00002c94       ??_C@_08EDHMEBNP@December?$AA@ 04028c94     LIBCMT:strftime.obj
 0002:00002ca0       ??_C@_08HCHEGEOA@November?$AA@ 04028ca0     LIBCMT:strftime.obj
 0002:00002cac       ??_C@_07JJNFCEND@October?$AA@ 04028cac     LIBCMT:strftime.obj
 0002:00002cb4       ??_C@_09BHHEALKD@September?$AA@ 04028cb4     LIBCMT:strftime.obj
 0002:00002cc0       ??_C@_06LBBHFDDG@August?$AA@ 04028cc0     LIBCMT:strftime.obj
 0002:00002cc8       ??_C@_04MIEPOIFP@July?$AA@ 04028cc8     LIBCMT:strftime.obj
 0002:00002cd0       ??_C@_04CNLMGBGM@June?$AA@ 04028cd0     LIBCMT:strftime.obj
 0002:00002cd8       ??_C@_05DMJDNLEJ@April?$AA@ 04028cd8     LIBCMT:strftime.obj
 0002:00002ce0       ??_C@_05HPCKOFNC@March?$AA@ 04028ce0     LIBCMT:strftime.obj
 0002:00002ce8       ??_C@_08GNJGEPFN@February?$AA@ 04028ce8     LIBCMT:strftime.obj
 0002:00002cf4       ??_C@_07CGJPFGJA@January?$AA@ 04028cf4     LIBCMT:strftime.obj
 0002:00002cfc       ??_C@_03MKABNOCG@Dec?$AA@  04028cfc     LIBCMT:strftime.obj
 0002:00002d00       ??_C@_03JPJOFNIA@Nov?$AA@  04028d00     LIBCMT:strftime.obj
 0002:00002d04       ??_C@_03BMAOKBAD@Oct?$AA@  04028d04     LIBCMT:strftime.obj
 0002:00002d08       ??_C@_03GGCAPAJC@Sep?$AA@  04028d08     LIBCMT:strftime.obj
 0002:00002d0c       ??_C@_03IFJFEIGA@Aug?$AA@  04028d0c     LIBCMT:strftime.obj
 0002:00002d10       ??_C@_03LBGABGKK@Jul?$AA@  04028d10     LIBCMT:strftime.obj
 0002:00002d14       ??_C@_03IDFGHECI@Jun?$AA@  04028d14     LIBCMT:strftime.obj
 0002:00002d18       ??_C@_03CNMDKL@May?$AA@    04028d18     LIBCMT:strftime.obj
 0002:00002d1c       ??_C@_03LEOLGMJP@Apr?$AA@  04028d1c     LIBCMT:strftime.obj
 0002:00002d20       ??_C@_03ODNJBKGA@Mar?$AA@  04028d20     LIBCMT:strftime.obj
 0002:00002d24       ??_C@_03HJBDCHOM@Feb?$AA@  04028d24     LIBCMT:strftime.obj
 0002:00002d28       ??_C@_03JIHJHPIE@Jan?$AA@  04028d28     LIBCMT:strftime.obj
 0002:00002d2c       ??_C@_08INBOOONO@Saturday?$AA@ 04028d2c     LIBCMT:strftime.obj
 0002:00002d38       ??_C@_06JECMNKMI@Friday?$AA@ 04028d38     LIBCMT:strftime.obj
 0002:00002d40       ??_C@_08HACCIKIA@Thursday?$AA@ 04028d40     LIBCMT:strftime.obj
 0002:00002d4c       ??_C@_09DLIGFAKA@Wednesday?$AA@ 04028d4c     LIBCMT:strftime.obj
 0002:00002d58       ??_C@_07BAAGCFCM@Tuesday?$AA@ 04028d58     LIBCMT:strftime.obj
 0002:00002d60       ??_C@_06JLEDEDGH@Monday?$AA@ 04028d60     LIBCMT:strftime.obj
 0002:00002d68       ??_C@_06OOPIFAJ@Sunday?$AA@ 04028d68     LIBCMT:strftime.obj
 0002:00002d70       ??_C@_03FEFJNEK@Sat?$AA@   04028d70     LIBCMT:strftime.obj
 0002:00002d74       ??_C@_03IDIOELNC@Fri?$AA@  04028d74     LIBCMT:strftime.obj
 0002:00002d78       ??_C@_03IOFIKPDN@Thu?$AA@  04028d78     LIBCMT:strftime.obj
 0002:00002d7c       ??_C@_03MHOMLAJA@Wed?$AA@  04028d7c     LIBCMT:strftime.obj
 0002:00002d80       ??_C@_03NAGEINEP@Tue?$AA@  04028d80     LIBCMT:strftime.obj
 0002:00002d84       ??_C@_03PDAGKDH@Mon?$AA@   04028d84     LIBCMT:strftime.obj
 0002:00002d88       ??_C@_03KOEHGMDN@Sun?$AA@  04028d88     LIBCMT:strftime.obj
 0002:00002d8c       ??_C@_03EBAPMIKO@a?1p?$AA@ 04028d8c     LIBCMT:strftime.obj
 0002:00002d90       ??_C@_05JAMEPDIN@am?1pm?$AA@ 04028d90     LIBCMT:strftime.obj
 0002:00002d98       ??_C@_0O@FMJNFNKE@united?9states?$AA@ 04028d98     LIBCMT:getqloc.obj
 0002:00002da8       ??_C@_0P@NDHFFKCA@united?9kingdom?$AA@ 04028da8     LIBCMT:getqloc.obj
 0002:00002db8       ??_C@_0BC@HHDADLGF@trinidad?5?$CG?5tobago?$AA@ 04028db8     LIBCMT:getqloc.obj
 0002:00002dcc       ??_C@_0M@IOAEBDAC@south?9korea?$AA@ 04028dcc     LIBCMT:getqloc.obj
 0002:00002dd8       ??_C@_0N@FIELFKIJ@south?9africa?$AA@ 04028dd8     LIBCMT:getqloc.obj
 0002:00002de8       ??_C@_0M@OPNDHCMC@south?5korea?$AA@ 04028de8     LIBCMT:getqloc.obj
 0002:00002df4       ??_C@_0N@MDEOEPFI@south?5africa?$AA@ 04028df4     LIBCMT:getqloc.obj
 0002:00002e04       ??_C@_06FKAPCJLB@slovak?$AA@ 04028e04     LIBCMT:getqloc.obj
 0002:00002e0c       ??_C@_0M@EFJANOAL@puerto?9rico?$AA@ 04028e0c     LIBCMT:getqloc.obj
 0002:00002e18       ??_C@_08PGOJKDAI@pr?9china?$AA@ 04028e18     LIBCMT:getqloc.obj
 0002:00002e24       ??_C@_08JHDOMCMI@pr?5china?$AA@ 04028e24     LIBCMT:getqloc.obj
 0002:00002e30       ??_C@_02JHCHFBLL@nz?$AA@   04028e30     LIBCMT:getqloc.obj
 0002:00002e34       ??_C@_0M@LINHDHKP@new?9zealand?$AA@ 04028e34     LIBCMT:getqloc.obj
 0002:00002e40       ??_C@_09IIIPPBDB@hong?9kong?$AA@ 04028e40     LIBCMT:getqloc.obj
 0002:00002e4c       ??_C@_07HJLCKBG@holland?$AA@ 04028e4c     LIBCMT:getqloc.obj
 0002:00002e54       ??_C@_0O@LEHGMHAG@great?5britain?$AA@ 04028e54     LIBCMT:getqloc.obj
 0002:00002e64       ??_C@_07FACOMELA@england?$AA@ 04028e64     LIBCMT:getqloc.obj
 0002:00002e6c       ??_C@_05JIHCEICB@czech?$AA@ 04028e6c     LIBCMT:getqloc.obj
 0002:00002e74       ??_C@_05BBJOBLGB@china?$AA@ 04028e74     LIBCMT:getqloc.obj
 0002:00002e7c       ??_C@_07GPKPHICP@britain?$AA@ 04028e7c     LIBCMT:getqloc.obj
 0002:00002e84       ??_C@_07MHIPBHMG@america?$AA@ 04028e84     LIBCMT:getqloc.obj
 0002:00002e8c       ??_C@_03KIALPMKC@usa?$AA@  04028e8c     LIBCMT:getqloc.obj
 0002:00002e90       ??_C@_02FGJGKGGD@us?$AA@   04028e90     LIBCMT:getqloc.obj
 0002:00002e94       ??_C@_02NEINDODK@uk?$AA@   04028e94     LIBCMT:getqloc.obj
 0002:00002e98       ??_C@_05JMPCFJFJ@swiss?$AA@ 04028e98     LIBCMT:getqloc.obj
 0002:00002ea0       ??_C@_0BA@HLOCPIOD@swedish?9finland?$AA@ 04028ea0     LIBCMT:getqloc.obj
 0002:00002eb0       ??_C@_0BC@PKCNIABK@spanish?9venezuela?$AA@ 04028eb0     LIBCMT:getqloc.obj
 0002:00002ec4       ??_C@_0BA@GBHHMIJI@spanish?9uruguay?$AA@ 04028ec4     LIBCMT:getqloc.obj
 0002:00002ed4       ??_C@_0BE@BHDOHPMC@spanish?9puerto?5rico?$AA@ 04028ed4     LIBCMT:getqloc.obj
 0002:00002ee8       ??_C@_0N@KMOIDGGN@spanish?9peru?$AA@ 04028ee8     LIBCMT:getqloc.obj
 0002:00002ef8       ??_C@_0BB@HMHLPGPH@spanish?9paraguay?$AA@ 04028ef8     LIBCMT:getqloc.obj
 0002:00002f0c       ??_C@_0P@MCPKNGFD@spanish?9panama?$AA@ 04028f0c     LIBCMT:getqloc.obj
 0002:00002f1c       ??_C@_0BC@IHOHGAIL@spanish?9nicaragua?$AA@ 04028f1c     LIBCMT:getqloc.obj
 0002:00002f30       ??_C@_0P@KLMJDNFJ@spanish?9modern?$AA@ 04028f30     LIBCMT:getqloc.obj
 0002:00002f40       ??_C@_0BA@BPAPGBCM@spanish?9mexican?$AA@ 04028f40     LIBCMT:getqloc.obj
 0002:00002f50       ??_C@_0BB@PDECHHHE@spanish?9honduras?$AA@ 04028f50     LIBCMT:getqloc.obj
 0002:00002f64       ??_C@_0BC@KLHKFGDB@spanish?9guatemala?$AA@ 04028f64     LIBCMT:getqloc.obj
 0002:00002f78       ??_C@_0BE@MFOOKJAI@spanish?9el?5salvador?$AA@ 04028f78     LIBCMT:getqloc.obj
 0002:00002f8c       ??_C@_0BA@FCOKFPFC@spanish?9ecuador?$AA@ 04028f8c     LIBCMT:getqloc.obj
 0002:00002f9c       ??_C@_0BL@PLMGIMOO@spanish?9dominican?5republic?$AA@ 04028f9c     LIBCMT:getqloc.obj
 0002:00002fb8       ??_C@_0BD@HLGDNMHB@spanish?9costa?5rica?$AA@ 04028fb8     LIBCMT:getqloc.obj
 0002:00002fcc       ??_C@_0BB@PKCBKCPE@spanish?9colombia?$AA@ 04028fcc     LIBCMT:getqloc.obj
 0002:00002fe0       ??_C@_0O@MCBIJGNE@spanish?9chile?$AA@ 04028fe0     LIBCMT:getqloc.obj
 0002:00002ff0       ??_C@_0BA@BEFEIGJJ@spanish?9bolivia?$AA@ 04028ff0     LIBCMT:getqloc.obj
 0002:00003000       ??_C@_0BC@EMECMPD@spanish?9argentina?$AA@ 04029000     LIBCMT:getqloc.obj
 0002:00003014       ??_C@_0BF@EALFLENP@portuguese?9brazilian?$AA@ 04029014     LIBCMT:getqloc.obj
 0002:0000302c       ??_C@_0BC@HBLEBLNN@norwegian?9nynorsk?$AA@ 0402902c     LIBCMT:getqloc.obj
 0002:00003040       ??_C@_0BB@HMACDDCK@norwegian?9bokmal?$AA@ 04029040     LIBCMT:getqloc.obj
 0002:00003054       ??_C@_09BAFFPPHE@norwegian?$AA@ 04029054     LIBCMT:getqloc.obj
 0002:00003060       ??_C@_0O@EAJFJDFG@italian?9swiss?$AA@ 04029060     LIBCMT:getqloc.obj
 0002:00003070       ??_C@_0O@CNOMPGD@irish?9english?$AA@ 04029070     LIBCMT:getqloc.obj
 0002:00003080       ??_C@_0N@EDHBGCKG@german?9swiss?$AA@ 04029080     LIBCMT:getqloc.obj
 0002:00003090       ??_C@_0BC@JACMHNBP@german?9luxembourg?$AA@ 04029090     LIBCMT:getqloc.obj
 0002:000030a4       ??_C@_0BE@HBGMGFEG@german?9lichtenstein?$AA@ 040290a4     LIBCMT:getqloc.obj
 0002:000030b8       ??_C@_0BA@HKKBIBKL@german?9austrian?$AA@ 040290b8     LIBCMT:getqloc.obj
 0002:000030c8       ??_C@_0N@GCAEPEBK@french?9swiss?$AA@ 040290c8     LIBCMT:getqloc.obj
 0002:000030d8       ??_C@_0BC@DJFJJCK@french?9luxembourg?$AA@ 040290d8     LIBCMT:getqloc.obj
 0002:000030ec       ??_C@_0BA@NNCEDFIC@french?9canadian?$AA@ 040290ec     LIBCMT:getqloc.obj
 0002:000030fc       ??_C@_0P@CMPOCLM@french?9belgian?$AA@ 040290fc     LIBCMT:getqloc.obj
 0002:0000310c       ??_C@_0M@GHHDJOK@english?9usa?$AA@ 0402910c     LIBCMT:getqloc.obj
 0002:00003118       ??_C@_0L@PLDJKEIL@english?9us?$AA@ 04029118     LIBCMT:getqloc.obj
 0002:00003124       ??_C@_0L@HJCCDMNC@english?9uk?$AA@ 04029124     LIBCMT:getqloc.obj
 0002:00003130       ??_C@_0BK@CKLIAGJB@english?9trinidad?5y?5tobago?$AA@ 04029130     LIBCMT:getqloc.obj
 0002:0000314c       ??_C@_0BF@JMJMGNNF@english?9south?5africa?$AA@ 0402914c     LIBCMT:getqloc.obj
 0002:00003164       ??_C@_0L@DKIIFDFD@english?9nz?$AA@ 04029164     LIBCMT:getqloc.obj
 0002:00003170       ??_C@_0BA@ONHGJCLH@english?9jamaica?$AA@ 04029170     LIBCMT:getqloc.obj
 0002:00003180       ??_C@_0M@HJBGHOPO@english?9ire?$AA@ 04029180     LIBCMT:getqloc.obj
 0002:0000318c       ??_C@_0BC@LFEKMIFB@english?9caribbean?$AA@ 0402918c     LIBCMT:getqloc.obj
 0002:000031a0       ??_C@_0M@OLDPFKHI@english?9can?$AA@ 040291a0     LIBCMT:getqloc.obj
 0002:000031ac       ??_C@_0P@OMDEHBMP@english?9belize?$AA@ 040291ac     LIBCMT:getqloc.obj
 0002:000031bc       ??_C@_0M@KFHFPFED@english?9aus?$AA@ 040291bc     LIBCMT:getqloc.obj
 0002:000031c8       ??_C@_0BB@MNMBKDFE@english?9american?$AA@ 040291c8     LIBCMT:getqloc.obj
 0002:000031dc       ??_C@_0O@KIDLNNBA@dutch?9belgian?$AA@ 040291dc     LIBCMT:getqloc.obj
 0002:000031ec       ??_C@_0BE@JBKABBMH@chinese?9traditional?$AA@ 040291ec     LIBCMT:getqloc.obj
 0002:00003200       ??_C@_0BC@MJJMPKCG@chinese?9singapore?$AA@ 04029200     LIBCMT:getqloc.obj
 0002:00003214       ??_C@_0BD@FDKADDCP@chinese?9simplified?$AA@ 04029214     LIBCMT:getqloc.obj
 0002:00003228       ??_C@_0BB@DBEFDDME@chinese?9hongkong?$AA@ 04029228     LIBCMT:getqloc.obj
 0002:0000323c       ??_C@_07DHNMFMCI@chinese?$AA@ 0402923c     LIBCMT:getqloc.obj
 0002:00003244       ??_C@_03FNDDCHI@chi?$AA@   04029244     LIBCMT:getqloc.obj
 0002:00003248       ??_C@_03BMMIADDJ@chh?$AA@  04029248     LIBCMT:getqloc.obj
 0002:0000324c       ??_C@_08OAIPJDGI@canadian?$AA@ 0402924c     LIBCMT:getqloc.obj
 0002:00003258       ??_C@_07HBPMNPNJ@belgian?$AA@ 04029258     LIBCMT:getqloc.obj
 0002:00003260       ??_C@_0L@OEKOPBEL@australian?$AA@ 04029260     LIBCMT:getqloc.obj
 0002:0000326c       ??_C@_0BB@MEIMBEDG@american?9english?$AA@ 0402926c     LIBCMT:getqloc.obj
 0002:00003280       ??_C@_0BB@DFMDPDGB@american?5english?$AA@ 04029280     LIBCMT:getqloc.obj
 0002:00003294       ??_C@_08IJLOKOLL@american?$AA@ 04029294     LIBCMT:getqloc.obj
 0002:000032a0       ___rg_language             040292a0     LIBCMT:getqloc.obj
 0002:000034a8       ___rg_country              040294a8     LIBCMT:getqloc.obj
 0002:00003560       ___rglangidNotDefault      04029560     LIBCMT:getqloc.obj
 0002:00003574       ??_C@_01GBGANLPD@0?$AA@    04029574     LIBCMT:getqloc.obj
 0002:00003578       ??_C@_03NFKLAGEF@OCP?$AA@  04029578     LIBCMT:getqloc.obj
 0002:0000357c       ??_C@_03DFHEHBHG@ACP?$AA@  0402957c     LIBCMT:getqloc.obj
 0002:00003580       ??_C@_0BC@NFIEMBLL@Norwegian?9Nynorsk?$AA@ 04029580     LIBCMT:getqloc.obj
 0002:00003594       ??_C@_06GDENEHCP@CONIN$?$AA@ 04029594     LIBCMT:initcon.obj
 0002:0000359c       ??_C@_07GPDNMNG@CONOUT$?$AA@ 0402959c     LIBCMT:initcon.obj
 0002:000035a4       ___dnames                  040295a4     LIBCMT:timeset.obj
 0002:000035bc       ___mnames                  040295bc     LIBCMT:timeset.obj
 0002:000035e4       ??_C@_02CLFPBFFP@TZ?$AA@   040295e4     LIBCMT:tzset.obj
 0002:000035e8       __load_config_used         040295e8     LIBCMT:loadcfg.obj
 0002:00003698       ??_R4bad_alloc@std@@6B@    04029698     MQ2Irc.obj
 0002:000036ac       ??_R3bad_alloc@std@@8      040296ac     MQ2Irc.obj
 0002:000036bc       ??_R2bad_alloc@std@@8      040296bc     MQ2Irc.obj
 0002:000036c8       ??_R1A@?0A@EA@bad_alloc@std@@8 040296c8     MQ2Irc.obj
 0002:000036e4       ??_R1A@?0A@EA@exception@std@@8 040296e4     MQ2Irc.obj
 0002:00003700       ??_R3exception@std@@8      04029700     MQ2Irc.obj
 0002:00003710       ??_R2exception@std@@8      04029710     MQ2Irc.obj
 0002:00003718       ??_R4logic_error@std@@6B@  04029718     MQ2Irc.obj
 0002:0000372c       ??_R3logic_error@std@@8    0402972c     MQ2Irc.obj
 0002:0000373c       ??_R2logic_error@std@@8    0402973c     MQ2Irc.obj
 0002:00003748       ??_R1A@?0A@EA@logic_error@std@@8 04029748     MQ2Irc.obj
 0002:00003764       ??_R4length_error@std@@6B@ 04029764     MQ2Irc.obj
 0002:00003778       ??_R3length_error@std@@8   04029778     MQ2Irc.obj
 0002:00003788       ??_R2length_error@std@@8   04029788     MQ2Irc.obj
 0002:00003798       ??_R1A@?0A@EA@length_error@std@@8 04029798     MQ2Irc.obj
 0002:000037b4       ??_R4out_of_range@std@@6B@ 040297b4     MQ2Irc.obj
 0002:000037c8       ??_R3out_of_range@std@@8   040297c8     MQ2Irc.obj
 0002:000037d8       ??_R2out_of_range@std@@8   040297d8     MQ2Irc.obj
 0002:000037e8       ??_R1A@?0A@EA@out_of_range@std@@8 040297e8     MQ2Irc.obj
 0002:00003804       ??_R4MQ2Type@MQ2Internal@@6B@ 04029804     MQ2Irc.obj
 0002:00003818       ??_R3MQ2Type@MQ2Internal@@8 04029818     MQ2Irc.obj
 0002:00003828       ??_R2MQ2Type@MQ2Internal@@8 04029828     MQ2Irc.obj
 0002:00003830       ??_R1A@?0A@EA@MQ2Type@MQ2Internal@@8 04029830     MQ2Irc.obj
 0002:0000384c       ??_R4MQ2IrcType@@6B@       0402984c     MQ2Irc.obj
 0002:00003860       ??_R3MQ2IrcType@@8         04029860     MQ2Irc.obj
 0002:00003870       ??_R2MQ2IrcType@@8         04029870     MQ2Irc.obj
 0002:0000387c       ??_R1A@?0A@EA@MQ2IrcType@@8 0402987c     MQ2Irc.obj
 0002:00003898       ??_R4invalid_argument@std@@6B@ 04029898     libcpmt:string.obj
 0002:000038ac       ??_R3invalid_argument@std@@8 040298ac     libcpmt:string.obj
 0002:000038bc       ??_R2invalid_argument@std@@8 040298bc     libcpmt:string.obj
 0002:000038cc       ??_R1A@?0A@EA@invalid_argument@std@@8 040298cc     libcpmt:string.obj
 0002:000038e8       ??_R4exception@std@@6B@    040298e8     LIBCMT:stdexcpt.obj
 0002:000038fc       ??_R4bad_cast@std@@6B@     040298fc     LIBCMT:stdexcpt.obj
 0002:00003910       ??_R3bad_cast@std@@8       04029910     LIBCMT:stdexcpt.obj
 0002:00003920       ??_R2bad_cast@std@@8       04029920     LIBCMT:stdexcpt.obj
 0002:0000392c       ??_R1A@?0A@EA@bad_cast@std@@8 0402992c     LIBCMT:stdexcpt.obj
 0002:00003948       ??_R4bad_typeid@std@@6B@   04029948     LIBCMT:stdexcpt.obj
 0002:0000395c       ??_R3bad_typeid@std@@8     0402995c     LIBCMT:stdexcpt.obj
 0002:0000396c       ??_R2bad_typeid@std@@8     0402996c     LIBCMT:stdexcpt.obj
 0002:00003978       ??_R1A@?0A@EA@bad_typeid@std@@8 04029978     LIBCMT:stdexcpt.obj
 0002:00003994       ??_R4__non_rtti_object@std@@6B@ 04029994     LIBCMT:stdexcpt.obj
 0002:000039a8       ??_R3__non_rtti_object@std@@8 040299a8     LIBCMT:stdexcpt.obj
 0002:000039b8       ??_R2__non_rtti_object@std@@8 040299b8     LIBCMT:stdexcpt.obj
 0002:000039c8       ??_R1A@?0A@EA@__non_rtti_object@std@@8 040299c8     LIBCMT:stdexcpt.obj
 0002:000039e4       ??_R4type_info@@6B@        040299e4     LIBCMT:typinfo.obj
 0002:000039f8       ??_R3type_info@@8          040299f8     LIBCMT:typinfo.obj
 0002:00003a08       ??_R2type_info@@8          04029a08     LIBCMT:typinfo.obj
 0002:00003a10       ??_R1A@?0A@EA@type_info@@8 04029a10     LIBCMT:typinfo.obj
 0002:00003a2c       ??_R4bad_exception@std@@6B@ 04029a2c     LIBCMT:frame.obj
 0002:00003a40       ??_R3bad_exception@std@@8  04029a40     LIBCMT:frame.obj
 0002:00003a50       ??_R2bad_exception@std@@8  04029a50     LIBCMT:frame.obj
 0002:00003a5c       ??_R1A@?0A@EA@bad_exception@std@@8 04029a5c     LIBCMT:frame.obj
 0002:00003a80       ___safe_se_handler_table   04029a80     <linker-defined>
 0002:00003af0       ___rtc_iaa                 04029af0     LIBCMT:_initsect_.obj
 0002:00003af4       ___rtc_izz                 04029af4     LIBCMT:_initsect_.obj
 0002:00003af8       ___rtc_taa                 04029af8     LIBCMT:_initsect_.obj
 0002:00003afc       ___rtc_tzz                 04029afc     LIBCMT:_initsect_.obj
 0002:00003b2c       __TI2?AVbad_alloc@std@@    04029b2c     MQ2Irc.obj
 0002:00003b3c       __CTA2?AVbad_alloc@std@@   04029b3c     MQ2Irc.obj
 0002:00003b48       __CT??_R0?AVbad_alloc@std@@@8??0bad_alloc@std@@QAE@ABV01@@Z12 04029b48     MQ2Irc.obj
 0002:00003b64       __CT??_R0?AVexception@std@@@8??0exception@std@@QAE@ABV01@@Z12 04029b64     MQ2Irc.obj
 0002:00003ce8       __TI3?AVlength_error@std@@ 04029ce8     MQ2Irc.obj
 0002:00003d24       __CTA3?AVlength_error@std@@ 04029d24     MQ2Irc.obj
 0002:00003d34       __CT??_R0?AVlength_error@std@@@8??0length_error@std@@QAE@ABV01@@Z40 04029d34     MQ2Irc.obj
 0002:00003d50       __CT??_R0?AVlogic_error@std@@@8??0logic_error@std@@QAE@ABV01@@Z40 04029d50     MQ2Irc.obj
 0002:00003d98       __TI3?AVout_of_range@std@@ 04029d98     MQ2Irc.obj
 0002:00003dd4       __CTA3?AVout_of_range@std@@ 04029dd4     MQ2Irc.obj
 0002:00003de4       __CT??_R0?AVout_of_range@std@@@8??0out_of_range@std@@QAE@ABV01@@Z40 04029de4     MQ2Irc.obj
 0002:00004020       __TI3?AVinvalid_argument@std@@ 0402a020     libcpmt:string.obj
 0002:0000405c       __CTA3?AVinvalid_argument@std@@ 0402a05c     libcpmt:string.obj
 0002:0000406c       __CT??_R0?AVinvalid_argument@std@@@8??0invalid_argument@std@@QAE@ABV01@@Z40 0402a06c     libcpmt:string.obj
 0002:0000432c       __TI2?AVbad_exception@std@@ 0402a32c     LIBCMT:frame.obj
 0002:0000433c       __CTA2?AVbad_exception@std@@ 0402a33c     LIBCMT:frame.obj
 0002:00004348       __CT??_R0?AVbad_exception@std@@@8??0bad_exception@std@@QAE@ABV01@@Z12 0402a348     LIBCMT:frame.obj
 0002:0000496c       __IMPORT_DESCRIPTOR_WSOCK32 0402a96c     wsock32:WSOCK32.dll
 0002:00004980       __IMPORT_DESCRIPTOR_KERNEL32 0402a980     kernel32:KERNEL32.dll
 0002:00004994       __IMPORT_DESCRIPTOR_MQ2Main 0402a994     mq2main:MQ2Main.dll
 0002:000049a8       __NULL_IMPORT_DESCRIPTOR   0402a9a8     wsock32:WSOCK32.dll
 0003:00000004       ?IRCChatColor@@3KA         0402c004     MQ2Irc.obj
 0003:00000118       ??_R0?AVbad_alloc@std@@@8  0402c118     MQ2Irc.obj
 0003:00000134       ??_R0?AVexception@std@@@8  0402c134     MQ2Irc.obj
 0003:00000150       ??_R0?AVlogic_error@std@@@8 0402c150     MQ2Irc.obj
 0003:00000170       ??_R0?AVlength_error@std@@@8 0402c170     MQ2Irc.obj
 0003:00000190       ??_R0?AVout_of_range@std@@@8 0402c190     MQ2Irc.obj
 0003:000001b0       ??_R0?AVMQ2Type@MQ2Internal@@@8 0402c1b0     MQ2Irc.obj
 0003:000001d4       ??_R0?AVMQ2IrcType@@@8     0402c1d4     MQ2Irc.obj
 0003:000001f4       ??_R0?AVinvalid_argument@std@@@8 0402c1f4     libcpmt:string.obj
 0003:00000224       ??_R0?AVbad_cast@std@@@8   0402c224     LIBCMT:stdexcpt.obj
 0003:00000240       ??_R0?AVbad_typeid@std@@@8 0402c240     LIBCMT:stdexcpt.obj
 0003:00000260       ??_R0?AV__non_rtti_object@std@@@8 0402c260     LIBCMT:stdexcpt.obj
 0003:00000288       ??_R0?AVtype_info@@@8      0402c288     LIBCMT:typinfo.obj
 0003:00000430       ___nullstring              0402c430     LIBCMT:output.obj
 0003:00000434       ___wnullstring             0402c434     LIBCMT:output.obj
 0003:0000043c       ??_R0?AVbad_exception@std@@@8 0402c43c     LIBCMT:frame.obj
 0003:0000045c       ___flsindex                0402c45c     LIBCMT:tidtable.obj
 0003:00000460       ___getvalueindex           0402c460     LIBCMT:tidtable.obj
 0003:00000464       ___security_cookie         0402c464     LIBCMT:gs_cookie.obj
 0003:00000468       ___security_cookie_complement 0402c468     LIBCMT:gs_cookie.obj
 0003:00000470       __amblksiz                 0402c470     LIBCMT:heapinit.obj
 0003:00000598       __aexit_rtn                0402c598     LIBCMT:crt0dat.obj
 0003:00000658       ___abort_behavior          0402c658     LIBCMT:abort.obj
 0003:00000660       ___badioinfo               0402c660     LIBCMT:ioinit.obj
 0003:000006a0       __First_FPE_Indx           0402c6a0     LIBCMT:winxfltr.obj
 0003:000006a4       __Num_FPE                  0402c6a4     LIBCMT:winxfltr.obj
 0003:000006a8       __XcptActTabSize           0402c6a8     LIBCMT:winxfltr.obj
 0003:000006ac       __XcptActTabCount          0402c6ac     LIBCMT:winxfltr.obj
 0003:000006b0       __iob                      0402c6b0     LIBCMT:_file.obj
 0003:00000930       ___initialmbcinfo          0402c930     LIBCMT:mbctype.obj
 0003:00000b50       __mbctype                  0402cb50     LIBCMT:mbctype.obj
 0003:00000c58       __mbcasemap                0402cc58     LIBCMT:mbctype.obj
 0003:00000d58       ___ptmbcinfo               0402cd58     LIBCMT:mbctype.obj
 0003:00000e54       ___globallocalestatus      0402ce54     LIBCMT:glstatus.obj
 0003:00000e58       ___clocalestr              0402ce58     LIBCMT:nlsdata2.obj
 0003:00000e60       ___initiallocinfo          0402ce60     LIBCMT:nlsdata2.obj
 0003:00000f38       ___ptlocinfo               0402cf38     LIBCMT:nlsdata2.obj
 0003:00000f3c       ___lc_clike                0402cf3c     LIBCMT:nlsdata2.obj
 0003:00000f40       ___initiallocalestructinfo 0402cf40     LIBCMT:nlsdata2.obj
 0003:00000f48       __cfltcvt_tab              0402cf48     LIBCMT:cmiscdat.obj
 0003:00000f70       __NLG_Destination          0402cf70     LIBCMT:exsup.obj
 0003:00000f84       __pctype                   0402cf84     LIBCMT:ctype.obj
 0003:00000f88       __pwctype                  0402cf88     LIBCMT:ctype.obj
 0003:00000f90       ___lc_time_c               0402cf90     LIBCMT:strftime.obj
 0003:00001048       ___lc_time_curr            0402d048     LIBCMT:strftime.obj
 0003:0000104c       ___lconv_static_decimal    0402d04c     LIBCMT:lconv.obj
 0003:00001050       ___lconv_c                 0402d050     LIBCMT:lconv.obj
 0003:00001080       ___lconv                   0402d080     LIBCMT:lconv.obj
 0003:00001084       ___mb_cur_max              0402d084     LIBCMT:nlsdata1.obj
 0003:00001088       ___decimal_point           0402d088     LIBCMT:nlsdata1.obj
 0003:0000108c       ___decimal_point_length    0402d08c     LIBCMT:nlsdata1.obj
 0003:00001090       __coninpfh                 0402d090     LIBCMT:initcon.obj
 0003:00001094       __confh                    0402d094     LIBCMT:initcon.obj
 0003:00001098       __timezone                 0402d098     LIBCMT:timeset.obj
 0003:0000109c       __daylight                 0402d09c     LIBCMT:timeset.obj
 0003:000010a0       __dstbias                  0402d0a0     LIBCMT:timeset.obj
 0003:00001128       __tzname                   0402d128     LIBCMT:timeset.obj
 0003:00001148       __lpdays                   0402d148     LIBCMT:days.obj
 0003:0000117c       __days                     0402d17c     LIBCMT:days.obj
 0003:000011c0       ?pchan@@3PAXA              0402d1c0     MQ2Irc.obj
 0003:000011c4       ?theSocket@@3IA            0402d1c4     MQ2Irc.obj
 0003:000011c8       ?nret@@3HA                 0402d1c8     MQ2Irc.obj
 0003:000011cc       ?ConnectCS@@3U_RTL_CRITICAL_SECTION@@A 0402d1cc     MQ2Irc.obj
 0003:000011e4       ?sockVersion@@3GA          0402d1e4     MQ2Irc.obj
 0003:000011e8       ?hostEntry@@3PAUhostent@@A 0402d1e8     MQ2Irc.obj
 0003:000011f0       ?wsaData@@3UWSAData@@A     0402d1f0     MQ2Irc.obj
 0003:00001380       ?buff@@3PADA               0402d380     MQ2Irc.obj
 0003:00001580       ?serverInfo@@3Usockaddr_in@@A 0402d580     MQ2Irc.obj
 0003:00001590       ?INIFileName@@3PADA        0402d590     MQ2Irc.obj
 0003:00001694       ?irctop@@3KA               0402d694     MQ2Irc.obj
 0003:00001698       ?szIrcServer@@3PADA        0402d698     MQ2Irc.obj
 0003:00001e98       ?szIrcNick@@3PADA          0402de98     MQ2Irc.obj
 0003:00002698       ?szIrcPort@@3PADA          0402e698     MQ2Irc.obj
 0003:00002e98       ?szIrcChan@@3PADA          0402ee98     MQ2Irc.obj
 0003:00003698       ?IrcServer@@3PADA          0402f698     MQ2Irc.obj
 0003:00003e98       ?IrcNick@@3PADA            0402fe98     MQ2Irc.obj
 0003:00004698       ?IrcPort@@3PADA            04030698     MQ2Irc.obj
 0003:00004e98       ?IrcChan@@3PADA            04030e98     MQ2Irc.obj
 0003:00005698       ?Version@@3PADA            04031698     MQ2Irc.obj
 0003:00005e98       ?Username@@3PADA           04031e98     MQ2Irc.obj
 0003:00006698       ?Realname@@3PADA           04032698     MQ2Irc.obj
 0003:00006e98       ?UseWnd@@3PADA             04032e98     MQ2Irc.obj
 0003:00007698       ?ircbottom@@3KA            04033698     MQ2Irc.obj
 0003:0000769c       ?ircleft@@3KA              0403369c     MQ2Irc.obj
 0003:000076a0       ?ircright@@3KA             040336a0     MQ2Irc.obj
 0003:000076a4       ?bConnecting@@3_NA         040336a4     MQ2Irc.obj
 0003:000076a5       ?bTriedConnect@@3_NA       040336a5     MQ2Irc.obj
 0003:000076a6       ?bConnected@@3_NA          040336a6     MQ2Irc.obj
 0003:000076a8       ?MyWnd@@3PAVCIRCWnd@@A     040336a8     MQ2Irc.obj
 0003:000076ac       ?pIrcType@@3PAVMQ2IrcType@@A 040336ac     MQ2Irc.obj
 0003:000076b0       ?channels@@3V?$list@PADV?$allocator@PAD@std@@@std@@A 040336b0     MQ2Irc.obj
 0003:000076cc       ?ireadbuf@@3PADA           040336cc     MQ2Irc.obj
 0003:000076d0       ?mychan@@3V?$_Iterator@$00@?$list@PADV?$allocator@PAD@std@@@std@@A 040336d0     MQ2Irc.obj
 0003:000076e8       ___pInvalidArgHandler      040336e8     LIBCMT:invarg.obj
 0003:000076f0       __aenvptr                  040336f0     LIBCMT:dllcrt0.obj
 0003:000076f4       __wenvptr                  040336f4     LIBCMT:dllcrt0.obj
 0003:000076f8       ___error_mode              040336f8     LIBCMT:dllcrt0.obj
 0003:000076fc       ___app_type                040336fc     LIBCMT:dllcrt0.obj
 0003:00007708       ?_pnhHeap@@3P6AHI@ZA       04033708     LIBCMT:handler.obj
 0003:0000770c       _gpFlsAlloc                0403370c     LIBCMT:tidtable.obj
 0003:00007710       _gpFlsGetValue             04033710     LIBCMT:tidtable.obj
 0003:00007714       _gpFlsSetValue             04033714     LIBCMT:tidtable.obj
 0003:00007718       _gpFlsFree                 04033718     LIBCMT:tidtable.obj
 0003:0000771c       ?__pInconsistency@@3P6AXXZA 0403371c     LIBCMT:hooks.obj
 0003:00007720       __crtheap                  04033720     LIBCMT:heapinit.obj
 0003:00007878       ___sbh_pHeaderDefer        04033878     LIBCMT:sbheap.obj
 0003:0000787c       __umaskval                 0403387c     LIBCMT:crt0dat.obj
 0003:00007880       ___argc                    04033880     LIBCMT:crt0dat.obj
 0003:00007884       ___argv                    04033884     LIBCMT:crt0dat.obj
 0003:00007888       ___wargv                   04033888     LIBCMT:crt0dat.obj
 0003:0000788c       __environ                  0403388c     LIBCMT:crt0dat.obj
 0003:00007890       ___initenv                 04033890     LIBCMT:crt0dat.obj
 0003:00007894       __wenviron                 04033894     LIBCMT:crt0dat.obj
 0003:00007898       ___winitenv                04033898     LIBCMT:crt0dat.obj
 0003:0000789c       __pgmptr                   0403389c     LIBCMT:crt0dat.obj
 0003:000078a0       __wpgmptr                  040338a0     LIBCMT:crt0dat.obj
 0003:000078a4       __exitflag                 040338a4     LIBCMT:crt0dat.obj
 0003:000078a8       __C_Termination_Done       040338a8     LIBCMT:crt0dat.obj
 0003:000078ac       __C_Exit_Done              040338ac     LIBCMT:crt0dat.obj
 0003:00007bc4       __newmode                  04033bc4     LIBCMT:_newmode.obj
 0003:00007bd0       ___pPurecall               04033bd0     LIBCMT:inithelp.obj
 0003:00007bd4       __maxwait                  04033bd4     LIBCMT:crtheap.obj
 0003:00008020       ?pArgList@UnDecorator@@0PAVReplicator@@A 04034020     LIBCMT:undname.obj
 0003:00008024       ?pZNameList@UnDecorator@@0PAVReplicator@@A 04034024     LIBCMT:undname.obj
 0003:00008028       ?pTemplateArgList@UnDecorator@@0PAVReplicator@@A 04034028     LIBCMT:undname.obj
 0003:0000802c       ?gName@UnDecorator@@0PBDB  0403402c     LIBCMT:undname.obj
 0003:00008030       ?name@UnDecorator@@0PBDB   04034030     LIBCMT:undname.obj
 0003:00008034       ?outputString@UnDecorator@@0PADA 04034034     LIBCMT:undname.obj
 0003:00008038       ?maxStringLength@UnDecorator@@0HA 04034038     LIBCMT:undname.obj
 0003:0000803c       ?disableFlags@UnDecorator@@0KA 0403403c     LIBCMT:undname.obj
 0003:00008040       ?m_pGetParameter@UnDecorator@@0P6APADJ@ZA 04034040     LIBCMT:undname.obj
 0003:00008044       ?fExplicitTemplateParams@UnDecorator@@0_NA 04034044     LIBCMT:undname.obj
 0003:00008045       ?fGetTemplateArgumentList@UnDecorator@@0_NA 04034045     LIBCMT:undname.obj
 0003:00008048       ?nodes@?1??make@DNameStatusNode@@SAPAV2@W4DNameStatus@@@Z@4PAV2@A 04034048     LIBCMT:undname.obj
 0003:00008078       ??_B?1??make@DNameStatusNode@@SAPAV1@W4DNameStatus@@@Z@51 04034078     LIBCMT:undname.obj
 0003:0000807c       __cflush                   0403407c     LIBCMT:_file.obj
 0003:00008084       ___mbulinfo                04034084     LIBCMT:mbctype.obj
 0003:00008090       ___mbcodepage              04034090     LIBCMT:mbctype.obj
 0003:00008094       ___ismbcodepage            04034094     LIBCMT:mbctype.obj
 0003:00008098       ___mblcid                  04034098     LIBCMT:mbctype.obj
 0003:0000809c       ___locale_changed          0403409c     LIBCMT:setlocal.obj
 0003:000080a0       ___lc_handle               040340a0     LIBCMT:nlsdata2.obj
 0003:000080b8       ___lc_codepage             040340b8     LIBCMT:nlsdata2.obj
 0003:000080bc       ___lc_collate_cp           040340bc     LIBCMT:nlsdata2.obj
 0003:00008100       ___lconv_static_null       04034100     LIBCMT:lconv.obj
 0003:00008104       __stdbuf                   04034104     LIBCMT:_sftbuf.obj
 0003:000081cc       ___setlc_active            040341cc     <common>
 0003:000081d0       ___unguarded_readlc_active 040341d0     <common>
 0003:000081d4       ___piob                    040341d4     <common>
 0003:000081e0       __bufin                    040341e0     <common>
 0003:000091e0       __nstream                  040351e0     <common>
 0003:000091e4       __nhandle                  040351e4     <common>
 0003:00009200       ___pioinfo                 04035200     <common>
 0003:00009300       ___env_initialized         04035300     <common>
 0003:00009304       ___onexitend               04035304     <common>
 0003:00009308       ___onexitbegin             04035308     <common>
 0003:0000930c       ___mbctype_initialized     0403530c     <common>
 0003:00009310       __FPinit                   04035310     <common>
 0003:00009314       ___dyn_tls_init_callback   04035314     <common>
 0003:00009318       __debugger_hook_dummy      04035318     <common>
 0003:0000931c       ___sbh_initialized         0403531c     <common>
 0003:00009320       ___sbh_cntHeaderList       04035320     <common>
 0003:00009324       ___sbh_pHeaderList         04035324     <common>
 0003:00009328       ___sbh_threshold           04035328     <common>
 0003:0000932c       ___sbh_pHeaderScan         0403532c     <common>
 0003:00009330       ___sbh_sizeHeaderList      04035330     <common>
 0003:00009334       ___sbh_indGroupDefer       04035334     <common>
 0003:00009338       ___active_heap             04035338     <common>
 0003:0000933c       ___sse2_available          0403533c     <common>
 0003:00009340       __acmdln                   04035340     <common>

 entry point at        0001:00007eab

 Static symbols

 0001:fffff000       __unwindfunclet$??0logic_error@std@@QAE@ABV01@@Z$0 04000000 f   libcpmt:string.obj
 0001:fffff000       __ehhandler$?_Copy@?$basic_string@DU?$char_traits@D@std@@V?$allocator@D@2@@std@@IAEXII@Z 04000000 f   libcpmt:string.obj
 0001:fffff000       __unwindfunclet$??0logic_error@std@@QAE@ABV?$basic_string@DU?$char_traits@D@std@@V?$allocator@D@2@@1@@Z$0 04000000 f   libcpmt:string.obj
 0001:fffff008       __ehhandler$??0logic_error@std@@QAE@ABV01@@Z 04000008 f   libcpmt:string.obj
 0001:fffff008       __ehhandler$??0logic_error@std@@QAE@ABV?$basic_string@DU?$char_traits@D@std@@V?$allocator@D@2@@1@@Z 04000008 f   libcpmt:string.obj
 0001:fffff059       __catch$?_Copy@?$basic_string@DU?$char_traits@D@std@@V?$allocator@D@2@@std@@IAEXII@Z$0 04000059 f   libcpmt:string.obj
 0001:fffff0ca       __catch$?_Copy@?$basic_string@DU?$char_traits@D@std@@V?$allocator@D@2@@std@@IAEXII@Z$1 040000ca f   libcpmt:string.obj
 0001:00002103       __catch$?_Copy@?$basic_string@DU?$char_traits@D@std@@V?$allocator@D@2@@std@@IAEXII@Z$0 04003103 f i MQ2Irc.obj
 0001:00002193       __catch$?_Copy@?$basic_string@DU?$char_traits@D@std@@V?$allocator@D@2@@std@@IAEXII@Z$1 04003193 f i MQ2Irc.obj
 0001:00003f82       __catch$?_Buynode@?$_Tree@V?$_Tmap_traits@V?$basic_string@DU?$char_traits@D@std@@V?$allocator@D@2@@std@@KU?$less@V?$basic_string@DU?$char_traits@D@std@@V?$allocator@D@2@@std@@@2@V?$allocator@U?$pair@$$CBV?$basic_string@DU?$char_traits@D@std@@V?$allocator@D@2@@std@@K@std@@@2@$0A@@std@@@std@@IAEPAU_Node@?$_Tree_nod@V?$_Tmap_traits@V?$basic_string@DU?$char_traits@D@std@@V?$allocator@D@2@@std@@KU?$less@V?$basic_string@DU?$char_traits@D@std@@V?$allocator@D@2@@std@@@2@V?$allocator@U?$pair@$$CBV?$basic_string@DU?$char_traits@D@std@@V?$allocator@D@2@@std@@K@std@@@2@$0A@@std@@@2@PAU342@00ABU?$pair@$$CBV?$basic_string@DU?$char_traits@D@std@@V?$allocator@D@2@@std@@K@2@D@Z$0 04004f82 f i MQ2Irc.obj
 0001:00006dd0       ?CatchGuardHandler@@YA?AW4_EXCEPTION_DISPOSITION@@PAUEHExceptionRecord@@PAUCatchGuardRN@@PAX2@Z 04007dd0 f   LIBCMT:_trnsctrl_.obj
 0001:00006eda       ?TranslatorGuardHandler@@YA?AW4_EXCEPTION_DISPOSITION@@PAUEHExceptionRecord@@PAUTranslatorGuardRN@@PAX2@Z 04007eda f   LIBCMT:_trnsctrl_.obj
 0001:00007b42       __onexit_nolock            04008b42 f   LIBCMT:onexit.obj
 0001:00007db5       ___DllMainCRTStartup       04008db5 f   LIBCMT:dllcrt0.obj
 0001:00008c14       _write_char                04009c14 f   LIBCMT:output.obj
 0001:00008c47       _write_multi_char          04009c47 f   LIBCMT:output.obj
 0001:00008c6d       _write_string              04009c6d f   LIBCMT:output.obj
 0001:00009f04       ?ExFilterRethrow@@YAHPAU_EXCEPTION_POINTERS@@@Z 0400af04 f   LIBCMT:frame.obj
 0001:0000a2f8       ?IsInExceptionSpec@@YAEPAUEHExceptionRecord@@PBU_s_ESTypeList@@@Z 0400b2f8 f   LIBCMT:frame.obj
 0001:0000a373       ?CallUnexpected@@YAXPBU_s_ESTypeList@@@Z 0400b373 f   LIBCMT:frame.obj
 0001:0000a3a4       __catch$?CallUnexpected@@YAXPBU_s_ESTypeList@@@Z$0 0400b3a4 f   LIBCMT:frame.obj
 0001:0000a3bc       ?Is_bad_exception_allowed@@YAEPBU_s_ESTypeList@@@Z 0400b3bc f   LIBCMT:frame.obj
 0001:0000a474       ?CallCatchBlock@@YAPAXPAUEHExceptionRecord@@PAUEHRegistrationNode@@PAU_CONTEXT@@PBU_s_FuncInfo@@PAXHK@Z 0400b474 f   LIBCMT:frame.obj
 0001:0000a966       ?CatchIt@@YAXPAUEHExceptionRecord@@PAUEHRegistrationNode@@PAU_CONTEXT@@PAXPBU_s_FuncInfo@@PBU_s_HandlerType@@PBU_s_CatchableType@@PBU_s_TryBlockMapEntry@@H1E@Z 0400b966 f   LIBCMT:frame.obj
 0001:0000a9d4       ?FindHandlerForForeignException@@YAXPAUEHExceptionRecord@@PAUEHRegistrationNode@@PAU_CONTEXT@@PAXPBU_s_FuncInfo@@HH1@Z 0400b9d4 f   LIBCMT:frame.obj
 0001:0000aac8       ?FindHandler@@YAXPAUEHExceptionRecord@@PAUEHRegistrationNode@@PAU_CONTEXT@@PAXPBU_s_FuncInfo@@EH1@Z 0400bac8 f   LIBCMT:frame.obj
 0001:0000b66c       ?strtoxl@@YAKPAUlocaleinfo_struct@@PBDPAPBDHH@Z 0400c66c f   LIBCMT:strtol.obj
 0001:0000b92c       ?strtoxq@@YA_KPAUlocaleinfo_struct@@PBDPAPBDHH@Z 0400c92c f   LIBCMT:strtoq.obj
 0001:0000bc54       _fastzero_I                0400cc54 f   LIBCMT:p4_memset.obj
 0001:0000bd3a       _has_osfxsr_set            0400cd3a f   LIBCMT:cpu_disp.obj
 0001:0000d0f0       _ValidateLocalCookies      0400e0f0 f   LIBCMT:chandler4.obj
 0001:0000d362       __initterm                 0400e362 f   LIBCMT:crt0dat.obj
 0001:0000d4a0       _doexit                    0400e4a0 f   LIBCMT:crt0dat.obj
 0001:0000d86e       _fastcopy_I                0400e86e f   LIBCMT:p4_memcpy.obj
 0001:0000e23c       _parse_cmdline             0400f23c f   LIBCMT:stdargv.obj
 0001:0000e615       _xcptlookup                0400f615 f   LIBCMT:winxfltr.obj
 0001:0000f3d0       ?und_strlen@@YAIPBD@Z      040103d0 f   LIBCMT:undname.obj
 0001:0000f3de       ?und_memcpy@@YAXPADPBDI@Z  040103de f   LIBCMT:undname.obj
 0001:0000f3f4       ?und_strncmp@@YAIPBD0I@Z   040103f4 f   LIBCMT:undname.obj
 0001:00013d68       __unwind_handler4          04014d68 f   LIBCMT:exsup4.obj
 0001:00014a6c       ?CPtoLCID@@YAHH@Z          04015a6c f   LIBCMT:mbctype.obj
 0001:00014a9b       ?setSBCS@@YAXPAUthreadmbcinfostruct@@@Z 04015a9b f   LIBCMT:mbctype.obj
 0001:00014aff       ?setSBUpLow@@YAXPAUthreadmbcinfostruct@@@Z 04015aff f   LIBCMT:mbctype.obj
 0001:00014d36       ?getSystemCP@@YAHH@Z       04015d36 f   LIBCMT:mbctype.obj
 0001:0001540a       __copytlocinfo_nolock      0401640a f   LIBCMT:setlocal.obj
 0001:00015430       __updatetlocinfoEx_nolock  04016430 f   LIBCMT:setlocal.obj
 0001:0001554e       _sync_legacy_variables_lk  0401654e f   LIBCMT:setlocal.obj
 0001:000158fb       __setlocale_get_all        040168fb f   LIBCMT:setlocal.obj
 0001:00015ca9       __setlocale_set_cat        04016ca9 f   LIBCMT:setlocal.obj
 0001:00015fab       __setlocale_nolock         04016fab f   LIBCMT:setlocal.obj
 0001:00016c80       _write_char                04017c80 f   LIBCMT:outputp.obj
 0001:00016cb3       _write_multi_char          04017cb3 f   LIBCMT:outputp.obj
 0001:00016cd9       _write_string              04017cd9 f   LIBCMT:outputp.obj
 0001:00017ffb       _write_char                04018ffb f   LIBCMT:outputs.obj
 0001:0001802e       _write_multi_char          0401902e f   LIBCMT:outputs.obj
 0001:00018054       _write_string              04019054 f   LIBCMT:outputs.obj
 0001:00018cc8       __unwind_handler           04019cc8 f   LIBCMT:exsup.obj
 0001:000190eb       _ctrlevent_capture@4       0401a0eb f   LIBCMT:winsig.obj
 0001:00019186       _siglookup                 0401a186 f   LIBCMT:winsig.obj
 0001:0001a00f       ?__crtGetLocaleInfoW_stat@@YAHPAUlocaleinfo_struct@@KKPA_WHH@Z 0401b00f f   LIBCMT:w_loc.obj
 0001:0001a092       ?__crtGetLocaleInfoA_stat@@YAHPAUlocaleinfo_struct@@KKPADHH@Z 0401b092 f   LIBCMT:a_loc.obj
 0001:0001a5c2       ?x_ismbbtype_l@@YAHPAUlocaleinfo_struct@@IHH@Z 0401b5c2 f   LIBCMT:ismbbyte.obj
 0001:0001b19e       _flsall                    0401c19e f   LIBCMT:fflush.obj
 0001:0001b2d4       ?strncnt@@YAHPBDH@Z        0401c2d4 f   LIBCMT:a_map.obj
 0001:0001b2f2       ?__crtLCMapStringA_stat@@YAHPAUlocaleinfo_struct@@KKPBDHPADHHH@Z 0401c2f2 f   LIBCMT:a_map.obj
 0001:0001b6dc       ?__crtGetStringTypeA_stat@@YAHPAUlocaleinfo_struct@@KPBDHPAGHHH@Z 0401c6dc f   LIBCMT:a_str.obj
 0001:0001b907       __get_lc_time              0401c907 f   LIBCMT:inittime.obj
 0001:0001bf30       _fix_grouping              0401cf30 f   LIBCMT:initnum.obj
 0001:0001c172       _fix_grouping              0401d172 f   LIBCMT:initmon.obj
 0001:0001cec7       ?_store_str@@YAXPADPAPADPAI@Z 0401dec7 f   LIBCMT:strftime.obj
 0001:0001cee7       ?_store_number@@YAXHPAPADPAI@Z 0401dee7 f   LIBCMT:strftime.obj
 0001:0001cf1d       ?_store_num@@YAXHHPAPADPAII@Z 0401df1d f   LIBCMT:strftime.obj
 0001:0001cf98       ?_expandtime@@YAHPAUlocaleinfo_struct@@DPBUtm@@PAPADPAIPAU__lc_time_data@@I@Z 0401df98 f   LIBCMT:strftime.obj
 0001:0001d380       ?_store_winword@@YAHPAUlocaleinfo_struct@@HPBUtm@@PAPADPAIPAU__lc_time_data@@@Z 0401e380 f   LIBCMT:strftime.obj
 0001:0001da56       _TranslateName             0401ea56 f   LIBCMT:getqloc.obj
 0001:0001dab8       _GetLcidFromDefault        0401eab8 f   LIBCMT:getqloc.obj
 0001:0001dacc       _ProcessCodePage           0401eacc f   LIBCMT:getqloc.obj
 0001:0001db70       _TestDefaultCountry        0401eb70 f   LIBCMT:getqloc.obj
 0001:0001db94       _LcidFromHexString         0401eb94 f   LIBCMT:getqloc.obj
 0001:0001dbc8       _GetPrimaryLen             0401ebc8 f   LIBCMT:getqloc.obj
 0001:0001dbe3       _CountryEnumProc@4         0401ebe3 f   LIBCMT:getqloc.obj
 0001:0001dc7b       _TestDefaultLanguage       0401ec7b f   LIBCMT:getqloc.obj
 0001:0001dcef       _LangCountryEnumProc@4     0401ecef f   LIBCMT:getqloc.obj
 0001:0001dec1       _LanguageEnumProc@4        0401eec1 f   LIBCMT:getqloc.obj
 0001:0001df82       _GetLcidFromCountry        0401ef82 f   LIBCMT:getqloc.obj
 0001:0001dfae       _GetLcidFromLangCountry    0401efae f   LIBCMT:getqloc.obj
 0001:0001e015       _GetLcidFromLanguage       0401f015 f   LIBCMT:getqloc.obj
 0001:0001e242       _cmpResult                 0401f242 f   LIBCMT:memcmp.obj
 0001:0001e254       _cmpBYTE                   0401f254 f   LIBCMT:memcmp.obj
 0001:0001e26c       _cmpWORD                   0401f26c f   LIBCMT:memcmp.obj
 0001:0001e2ac       _cmpDWORD                  0401f2ac f   LIBCMT:memcmp.obj
 0001:0001e324       _unaligned_memcmp          0401f324 f   LIBCMT:memcmp.obj
 0001:0002187c       __tzset_nolock             0402287c f   LIBCMT:tzset.obj
 0001:00021bc2       _cvtdate                   04022bc2 f   LIBCMT:tzset.obj
 0001:00021db9       __isindst_nolock           04022db9 f   LIBCMT:tzset.obj
 0001:00022309       _xtoa_s@20                 04023309 f   LIBCMT:xtoas.obj
 0001:00022451       @x64toa_s@24               04023451 f   LIBCMT:xtoas.obj
 0001:0002259d       ?__crtGetStringTypeW_stat@@YAHPAUlocaleinfo_struct@@KPB_WHPAGHH@Z 0402359d f   LIBCMT:w_str.obj
 0001:0002281f       __getenv_s_helper          0402381f f   LIBCMT:getenv.obj
 0001:000228b4       __dupenv_s_helper          040238b4 f   LIBCMT:getenv.obj
 0001:00022f4d       ?strncnt@@YAHPBDH@Z        04023f4d f   LIBCMT:a_cmp.obj
 0001:00022f6b       ?__crtCompareStringA_stat@@YAHPAUlocaleinfo_struct@@KKPBDH1HH@Z 04023f6b f   LIBCMT:a_cmp.obj
 0001:00023440       _findenv                   04024440 f   LIBCMT:setenv.obj
 0001:00023492       _copy_environ              04024492 f   LIBCMT:setenv.obj
 0001:00023a40       _xtoa@16                   04024a40 f   LIBCMT:xtoa.obj
 0001:00023aef       @x64toa@20                 04024aef f   LIBCMT:xtoa.obj
 0001:00023bae       ?_strupr_s_l_stat@@YAHPADIPAUlocaleinfo_struct@@@Z 04024bae f   LIBCMT:strupr.obj
 0001:00023e00       __unwindfunclet$?ircout@@YAXPAD@Z$0 04024e00 f   MQ2Irc.obj
 0001:00023e0c       __ehhandler$?ircout@@YAXPAD@Z 04024e0c f   MQ2Irc.obj
 0001:00023e20       __unwindfunclet$??0CCustomWnd@MQ2Internal@@QAE@PAVCXStr@EQClasses@@@Z$0 04024e20 f   MQ2Irc.obj
 0001:00023e29       __ehhandler$??0CCustomWnd@MQ2Internal@@QAE@PAVCXStr@EQClasses@@@Z 04024e29 f   MQ2Irc.obj
 0001:00023e40       __ehhandler$?_Copy@?$basic_string@DU?$char_traits@D@std@@V?$allocator@D@2@@std@@IAEXII@Z 04024e40 f   MQ2Irc.obj
 0001:00023e50       __unwindfunclet$??0CIRCWnd@@QAE@PAVCXStr@EQClasses@@@Z$0 04024e50 f   MQ2Irc.obj
 0001:00023e58       __ehhandler$??0CIRCWnd@@QAE@PAVCXStr@EQClasses@@@Z 04024e58 f   MQ2Irc.obj
 0001:00023e70       __unwindfunclet$??0logic_error@std@@QAE@ABV?$basic_string@DU?$char_traits@D@std@@V?$allocator@D@2@@1@@Z$0 04024e70 f   MQ2Irc.obj
 0001:00023e78       __ehhandler$??0logic_error@std@@QAE@ABV?$basic_string@DU?$char_traits@D@std@@V?$allocator@D@2@@1@@Z 04024e78 f   MQ2Irc.obj
 0001:00023e90       __unwindfunclet$??0?$list@PADV?$allocator@PAD@std@@@std@@QAE@XZ$0 04024e90 f   MQ2Irc.obj
 0001:00023e98       __ehhandler$??0?$list@PADV?$allocator@PAD@std@@@std@@QAE@XZ 04024e98 f   MQ2Irc.obj
 0001:00023eb0       __unwindfunclet$??0?$_Tree@V?$_Tmap_traits@V?$basic_string@DU?$char_traits@D@std@@V?$allocator@D@2@@std@@KU?$less@V?$basic_string@DU?$char_traits@D@std@@V?$allocator@D@2@@std@@@2@V?$allocator@U?$pair@$$CBV?$basic_string@DU?$char_traits@D@std@@V?$allocator@D@2@@std@@K@std@@@2@$0A@@std@@@std@@QAE@ABU?$less@V?$basic_string@DU?$char_traits@D@std@@V?$allocator@D@2@@std@@@1@ABV?$allocator@U?$pair@$$CBV?$basic_string@DU?$char_traits@D@std@@V?$allocator@D@2@@std@@K@std@@@1@@Z$0 04024eb0 f   MQ2Irc.obj
 0001:00023eb8       __ehhandler$??0?$_Tree@V?$_Tmap_traits@V?$basic_string@DU?$char_traits@D@std@@V?$allocator@D@2@@std@@KU?$less@V?$basic_string@DU?$char_traits@D@std@@V?$allocator@D@2@@std@@@2@V?$allocator@U?$pair@$$CBV?$basic_string@DU?$char_traits@D@std@@V?$allocator@D@2@@std@@K@std@@@2@$0A@@std@@@std@@QAE@ABU?$less@V?$basic_string@DU?$char_traits@D@std@@V?$allocator@D@2@@std@@@1@ABV?$allocator@U?$pair@$$CBV?$basic_string@DU?$char_traits@D@std@@V?$allocator@D@2@@std@@K@std@@@1@@Z 04024eb8 f   MQ2Irc.obj
 0001:00023ed0       __unwindfunclet$?_Incsize@?$list@PADV?$allocator@PAD@std@@@std@@IAEXI@Z$0 04024ed0 f   MQ2Irc.obj
 0001:00023ed8       __ehhandler$?_Incsize@?$list@PADV?$allocator@PAD@std@@@std@@IAEXI@Z 04024ed8 f   MQ2Irc.obj
 0001:00023ef0       __unwindfunclet$??0logic_error@std@@QAE@ABV01@@Z$0 04024ef0 f   MQ2Irc.obj
 0001:00023ef8       __ehhandler$??0logic_error@std@@QAE@ABV01@@Z 04024ef8 f   MQ2Irc.obj
 0001:00023f10       __unwindfunclet$?erase@?$_Tree@V?$_Tmap_traits@V?$basic_string@DU?$char_traits@D@std@@V?$allocator@D@2@@std@@KU?$less@V?$basic_string@DU?$char_traits@D@std@@V?$allocator@D@2@@std@@@2@V?$allocator@U?$pair@$$CBV?$basic_string@DU?$char_traits@D@std@@V?$allocator@D@2@@std@@K@std@@@2@$0A@@std@@@std@@QAE?AViterator@12@Vconst_iterator@12@@Z$0 04024f10 f   MQ2Irc.obj
 0001:00023f18       __ehhandler$?erase@?$_Tree@V?$_Tmap_traits@V?$basic_string@DU?$char_traits@D@std@@V?$allocator@D@2@@std@@KU?$less@V?$basic_string@DU?$char_traits@D@std@@V?$allocator@D@2@@std@@@2@V?$allocator@U?$pair@$$CBV?$basic_string@DU?$char_traits@D@std@@V?$allocator@D@2@@std@@K@std@@@2@$0A@@std@@@std@@QAE?AViterator@12@Vconst_iterator@12@@Z 04024f18 f   MQ2Irc.obj
 0001:00023f30       __unwindfunclet$?_Buynode@?$_Tree@V?$_Tmap_traits@V?$basic_string@DU?$char_traits@D@std@@V?$allocator@D@2@@std@@KU?$less@V?$basic_string@DU?$char_traits@D@std@@V?$allocator@D@2@@std@@@2@V?$allocator@U?$pair@$$CBV?$basic_string@DU?$char_traits@D@std@@V?$allocator@D@2@@std@@K@std@@@2@$0A@@std@@@std@@IAEPAU_Node@?$_Tree_nod@V?$_Tmap_traits@V?$basic_string@DU?$char_traits@D@std@@V?$allocator@D@2@@std@@KU?$less@V?$basic_string@DU?$char_traits@D@std@@V?$allocator@D@2@@std@@@2@V?$allocator@U?$pair@$$CBV?$basic_string@DU?$char_traits@D@std@@V?$allocator@D@2@@std@@K@std@@@2@$0A@@std@@@2@PAU342@00ABU?$pair@$$CBV?$basic_string@DU?$char_traits@D@std@@V?$allocator@D@2@@std@@K@2@D@Z$2 04024f30 f   MQ2Irc.obj
 0001:00023f41       __ehhandler$?_Buynode@?$_Tree@V?$_Tmap_traits@V?$basic_string@DU?$char_traits@D@std@@V?$allocator@D@2@@std@@KU?$less@V?$basic_string@DU?$char_traits@D@std@@V?$allocator@D@2@@std@@@2@V?$allocator@U?$pair@$$CBV?$basic_string@DU?$char_traits@D@std@@V?$allocator@D@2@@std@@K@std@@@2@$0A@@std@@@std@@IAEPAU_Node@?$_Tree_nod@V?$_Tmap_traits@V?$basic_string@DU?$char_traits@D@std@@V?$allocator@D@2@@std@@KU?$less@V?$basic_string@DU?$char_traits@D@std@@V?$allocator@D@2@@std@@@2@V?$allocator@U?$pair@$$CBV?$basic_string@DU?$char_traits@D@std@@V?$allocator@D@2@@std@@K@std@@@2@$0A@@std@@@2@PAU342@00ABU?$pair@$$CBV?$basic_string@DU?$char_traits@D@std@@V?$allocator@D@2@@std@@K@2@D@Z 04024f41 f   MQ2Irc.obj
 0001:00023f50       __unwindfunclet$?_Insert@?$_Tree@V?$_Tmap_traits@V?$basic_string@DU?$char_traits@D@std@@V?$allocator@D@2@@std@@KU?$less@V?$basic_string@DU?$char_traits@D@std@@V?$allocator@D@2@@std@@@2@V?$allocator@U?$pair@$$CBV?$basic_string@DU?$char_traits@D@std@@V?$allocator@D@2@@std@@K@std@@@2@$0A@@std@@@std@@IAE?AViterator@12@_NPAU_Node@?$_Tree_nod@V?$_Tmap_traits@V?$basic_string@DU?$char_traits@D@std@@V?$allocator@D@2@@std@@KU?$less@V?$basic_string@DU?$char_traits@D@std@@V?$allocator@D@2@@std@@@2@V?$allocator@U?$pair@$$CBV?$basic_string@DU?$char_traits@D@std@@V?$allocator@D@2@@std@@K@std@@@2@$0A@@std@@@2@ABU?$pair@$$CBV?$basic_string@DU?$char_traits@D@std@@V?$allocator@D@2@@std@@K@2@@Z$0 04024f50 f   MQ2Irc.obj
 0001:00023f58       __ehhandler$?_Insert@?$_Tree@V?$_Tmap_traits@V?$basic_string@DU?$char_traits@D@std@@V?$allocator@D@2@@std@@KU?$less@V?$basic_string@DU?$char_traits@D@std@@V?$allocator@D@2@@std@@@2@V?$allocator@U?$pair@$$CBV?$basic_string@DU?$char_traits@D@std@@V?$allocator@D@2@@std@@K@std@@@2@$0A@@std@@@std@@IAE?AViterator@12@_NPAU_Node@?$_Tree_nod@V?$_Tmap_traits@V?$basic_string@DU?$char_traits@D@std@@V?$allocator@D@2@@std@@KU?$less@V?$basic_string@DU?$char_traits@D@std@@V?$allocator@D@2@@std@@@2@V?$allocator@U?$pair@$$CBV?$basic_string@DU?$char_traits@D@std@@V?$allocator@D@2@@std@@K@std@@@2@$0A@@std@@@2@ABU?$pair@$$CBV?$basic_string@DU?$char_traits@D@std@@V?$allocator@D@2@@std@@K@2@@Z 04024f58 f   MQ2Irc.obj
 0001:00023f70       __unwindfunclet$??A?$map@V?$basic_string@DU?$char_traits@D@std@@V?$allocator@D@2@@std@@KU?$less@V?$basic_string@DU?$char_traits@D@std@@V?$allocator@D@2@@std@@@2@V?$allocator@U?$pair@$$CBV?$basic_string@DU?$char_traits@D@std@@V?$allocator@D@2@@std@@K@std@@@2@@std@@QAEAAKABV?$basic_string@DU?$char_traits@D@std@@V?$allocator@D@2@@1@@Z$0 04024f70 f   MQ2Irc.obj
 0001:00023f78       __ehhandler$??A?$map@V?$basic_string@DU?$char_traits@D@std@@V?$allocator@D@2@@std@@KU?$less@V?$basic_string@DU?$char_traits@D@std@@V?$allocator@D@2@@std@@@2@V?$allocator@U?$pair@$$CBV?$basic_string@DU?$char_traits@D@std@@V?$allocator@D@2@@std@@K@std@@@2@@std@@QAEAAKABV?$basic_string@DU?$char_traits@D@std@@V?$allocator@D@2@@1@@Z 04024f78 f   MQ2Irc.obj
 0001:00023f90       __unwindfunclet$??1?$_Tree@V?$_Tmap_traits@V?$basic_string@DU?$char_traits@D@std@@V?$allocator@D@2@@std@@KU?$less@V?$basic_string@DU?$char_traits@D@std@@V?$allocator@D@2@@std@@@2@V?$allocator@U?$pair@$$CBV?$basic_string@DU?$char_traits@D@std@@V?$allocator@D@2@@std@@K@std@@@2@$0A@@std@@@std@@QAE@XZ$0 04024f90 f   MQ2Irc.obj
 0001:00023f98       __ehhandler$??1?$_Tree@V?$_Tmap_traits@V?$basic_string@DU?$char_traits@D@std@@V?$allocator@D@2@@std@@KU?$less@V?$basic_string@DU?$char_traits@D@std@@V?$allocator@D@2@@std@@@2@V?$allocator@U?$pair@$$CBV?$basic_string@DU?$char_traits@D@std@@V?$allocator@D@2@@std@@K@std@@@2@$0A@@std@@@std@@QAE@XZ 04024f98 f   MQ2Irc.obj
 0001:00023fb0       __unwindfunclet$?AddMember@MQ2Type@MQ2Internal@@IAEHKPAD@Z$0 04024fb0 f   MQ2Irc.obj
 0001:00023fb8       __unwindfunclet$?AddMember@MQ2Type@MQ2Internal@@IAEHKPAD@Z$1 04024fb8 f   MQ2Irc.obj
 0001:00023fc0       __ehhandler$?AddMember@MQ2Type@MQ2Internal@@IAEHKPAD@Z 04024fc0 f   MQ2Irc.obj
 0001:00023fd0       __unwindfunclet$??0MQ2Type@MQ2Internal@@QAE@PAD@Z$0 04024fd0 f   MQ2Irc.obj
 0001:00023fdb       __ehhandler$??0MQ2Type@MQ2Internal@@QAE@PAD@Z 04024fdb f   MQ2Irc.obj
 0001:00023ff0       __unwindfunclet$??1MQ2Type@MQ2Internal@@QAE@XZ$0 04024ff0 f   MQ2Irc.obj
 0001:00023ffb       __ehhandler$??1MQ2Type@MQ2Internal@@QAE@XZ 04024ffb f   MQ2Irc.obj
 0001:00024010       __unwindfunclet$??0MQ2IrcType@@QAE@XZ$0 04025010 f   MQ2Irc.obj
 0001:00024018       __ehhandler$??0MQ2IrcType@@QAE@XZ 04025018 f   MQ2Irc.obj
 0001:00024030       __unwindfunclet$?FindMember@MQ2Type@MQ2Internal@@QAEPAU_MQ2TypeMember@2@PAD@Z$0 04025030 f   MQ2Irc.obj
 0001:00024038       __ehhandler$?FindMember@MQ2Type@MQ2Internal@@QAEPAU_MQ2TypeMember@2@PAD@Z 04025038 f   MQ2Irc.obj
 0001:00024042       __unwindfunclet$?_Xlen@_String_base@std@@SAXXZ$0 04025042 f   libcpmt:string.obj
 0001:0002404a       __ehhandler$?_Xlen@_String_base@std@@SAXXZ 0402504a f   libcpmt:string.obj
 0001:00024065       __unwindfunclet$?_Xran@_String_base@std@@SAXXZ$0 04025065 f   libcpmt:string.obj
 0001:0002406d       __ehhandler$?_Xran@_String_base@std@@SAXXZ 0402506d f   libcpmt:string.obj
 0001:00024088       __unwindfunclet$?_Xinvarg@_String_base@std@@SAXXZ$0 04025088 f   libcpmt:string.obj
 0001:00024090       __ehhandler$?_Xinvarg@_String_base@std@@SAXXZ 04025090 f   libcpmt:string.obj
 0001:000240ab       __ehhandler$?CallUnexpected@@YAXPBU_s_ESTypeList@@@Z 040250ab f   LIBCMT:frame.obj
 0001:000240d0       ??__Eireadbuf@@YAXXZ       040250d0 f   MQ2Irc.obj
 0001:000240f0       ??__Echannels@@YAXXZ       040250f0 f   MQ2Irc.obj
 0001:00024110       ??__Fchannels@@YAXXZ       04025110 f   MQ2Irc.obj
 0001:00024127       ??__Fnomem@?5???2@YAPAXI@Z@YAXXZ 04025127 f   LIBCMT:new.obj

 Exports

  ordinal    name

        1    _InitializePlugin
               exported name: InitializePlugin
        2    _OnCleanUI
               exported name: OnCleanUI
        3    _OnPulse
               exported name: OnPulse
        4    _OnReloadUI
               exported name: OnReloadUI
        5    _SetGameState
               exported name: SetGameState
        6    _ShutdownPlugin
               exported name: ShutdownPlugin
