 MQ2Map

 Timestamp is 4d3d7ccd (Mon Jan 24 08:21:17 2011)

 Preferred load address is 04000000

 Start         Length     Name                   Class
 0001:00000000 0002bcaeH .text                   CODE
 0001:0002bcb0 000001c6H .text$x                 CODE
 0001:0002be80 00000083H .text$yc                CODE
 0001:0002bf10 0000003eH .text$yd                CODE
 0002:00000000 0000021cH .idata$5                DATA
 0002:0000021c 00000004H .CRT$XCA                DATA
 0002:00000220 0000000cH .CRT$XCU                DATA
 0002:0000022c 00000004H .CRT$XCZ                DATA
 0002:00000230 00000004H .CRT$XIA                DATA
 0002:00000234 00000014H .CRT$XIC                DATA
 0002:00000248 00000004H .CRT$XIZ                DATA
 0002:0000024c 00000004H .CRT$XPA                DATA
 0002:00000250 00000004H .CRT$XPX                DATA
 0002:00000254 00000004H .CRT$XPXA               DATA
 0002:00000258 00000004H .CRT$XPZ                DATA
 0002:0000025c 00000004H .CRT$XTA                DATA
 0002:00000260 00000004H .CRT$XTZ                DATA
 0002:00000270 000047c0H .rdata                  DATA
 0002:00004a30 00000065H .rdata$debug            DATA
 0002:00004a98 0000034cH .rdata$r                DATA
 0002:00004df0 00000050H .rdata$sxdata           DATA
 0002:00004e40 00000004H .rtc$IAA                DATA
 0002:00004e44 00000004H .rtc$IZZ                DATA
 0002:00004e48 00000004H .rtc$TAA                DATA
 0002:00004e4c 00000004H .rtc$TZZ                DATA
 0002:00004e50 00000cf4H .xdata$x                DATA
 0002:00005b44 00000028H .idata$2                DATA
 0002:00005b6c 00000014H .idata$3                DATA
 0002:00005b80 0000021cH .idata$4                DATA
 0002:00005d9c 00000a50H .idata$6                DATA
 0002:000067f0 000000e2H .edata                  DATA
 0003:00000000 0000acc0H .data                   DATA
 0003:0000acc0 00004a24H .bss                    DATA

  Address         Publics by Value              Rva+Base       Lib:Object

 0000:00000000       __except_list              00000000     <absolute>
 0000:00000014       ___safe_se_handler_count   00000014     <absolute>
 0000:00000000       ___ImageBase               04000000     <linker-defined>
 0001:00000050       _DllMain@12                04001050 f   MQ2Map.obj
 0001:000000b0       ?CMyMapViewWnd__Destructor@@YAKH@Z 040010b0 f   MQ2Map.obj
 0001:00000110       ?RButtonDown@@YA_NXZ       04001110 f   MQ2Map.obj
 0001:00000150       ?CMyMapViewWnd__HandleRButtonDown@@YAXKK@Z 04001150 f   MQ2Map.obj
 0001:00000170       ?CMyMapViewWnd__PostDraw@@YAXXZ 04001170 f   MQ2Map.obj
 0001:00000190       ?StealVFTable@CMyMapViewWnd@@SAXXZ 04001190 f i MQ2Map.obj
 0001:00000200       ?RestoreVFTable@CMyMapViewWnd@@SAXXZ 04001200 f i MQ2Map.obj
 0001:00000230       ?Constructor_Trampoline@CMyMapViewWnd@@QAEKPAVCXWnd@EQClasses@@@Z 04001230 f   MQ2Map.obj
 0001:00000250       _ShutdownPlugin            04001250 f   MQ2Map.obj
 0001:000002f0       _OnAddSpawn                040012f0 f   MQ2Map.obj
 0001:00000340       _OnRemoveSpawn             04001340 f   MQ2Map.obj
 0001:00000380       _SetGameState              04001380 f   MQ2Map.obj
 0001:00000390       _OnAddGroundItem           04001390 f   MQ2Map.obj
 0001:000003c0       _OnRemoveGroundItem        040013c0 f   MQ2Map.obj
 0001:000003f0       ?Constructor_Detour@CMyMapViewWnd@@QAEKPAVCXWnd@EQClasses@@@Z 040013f0 f i MQ2Map.obj
 0001:00000470       _InitializePlugin          04001470 f   MQ2Map.obj
 0001:00000680       ?strstr@@YAPADPADPBD@Z     04001680 f i MQ2MapAPI.obj
 0001:00000690       _cosf                      04001690 f i MQ2MapAPI.obj
 0001:000006b0       _sinf                      040016b0 f i MQ2MapAPI.obj
 0001:000006d0       ??0bad_alloc@std@@QAE@PBD@Z 040016d0 f i MQ2MapAPI.obj
 0001:000006f0       ??1bad_alloc@std@@UAE@XZ   040016f0 f i MQ2MapAPI.obj
 0001:00000700       ??_Gbad_alloc@std@@UAEPAXI@Z 04001700 f i MQ2MapAPI.obj
 0001:00000700       ??_Ebad_alloc@std@@UAEPAXI@Z 04001700 f i MQ2MapAPI.obj
 0001:00000730       ??2@YAPAXIPAX@Z            04001730 f i MQ2MapAPI.obj
 0001:00000740       ??3@YAXPAX0@Z              04001740 f i MQ2MapAPI.obj
 0001:00000750       ?assign@?$char_traits@D@std@@SAXAADABD@Z 04001750 f i MQ2MapAPI.obj
 0001:00000760       ?length@?$char_traits@D@std@@SAIPBD@Z 04001760 f i MQ2MapAPI.obj
 0001:00000780       ?_Copy_s@?$char_traits@D@std@@SAPADPADIPBDI@Z 04001780 f i MQ2MapAPI.obj
 0001:000007b0       ?_Move_s@?$char_traits@D@std@@SAPADPADIPBDI@Z 040017b0 f i MQ2MapAPI.obj
 0001:000007e0       ??0_Aux_cont@std@@QAE@QBV_Container_base_aux@1@@Z 040017e0 f i MQ2MapAPI.obj
 0001:000007f0       ?_Getcont@_Aux_cont@std@@QBEPBV_Container_base_aux@2@XZ 040017f0 f i MQ2MapAPI.obj
 0001:00000800       ??0_Container_base_aux@std@@QAE@XZ 04001800 f i MQ2MapAPI.obj
 0001:00000810       ??1_Container_base_aux@std@@QAE@XZ 04001810 f i MQ2MapAPI.obj
 0001:00000820       ??0_Iterator_base_aux@std@@QAE@XZ 04001820 f i MQ2MapAPI.obj
 0001:00000830       ?_Set_container@_Iterator_base_aux@std@@QAEXQBV_Container_base_aux@2@@Z 04001830 f i MQ2MapAPI.obj
 0001:00000840       ?_Getmycont@_Iterator_base_aux@std@@QBEPBV_Container_base_aux@2@XZ 04001840 f i MQ2MapAPI.obj
 0001:00000850       ?_Same_container@_Iterator_base_aux@std@@QBE_NABV12@@Z 04001850 f i MQ2MapAPI.obj
 0001:00000870       ?_Has_container@_Iterator_base_aux@std@@QBE_NXZ 04001870 f i MQ2MapAPI.obj
 0001:00000cf0       ?InitLine@@YAPAU_MAPLINE@EQUIStructs@@XZ 04001cf0 f i MQ2MapAPI.obj
 0001:00000d30       ?DeleteLine@@YAXPAU_MAPLINE@EQUIStructs@@@Z 04001d30 f i MQ2MapAPI.obj
 0001:00000d70       ?InitSpawn@@YAPAU_MAPSPAWN@@XZ 04001d70 f i MQ2MapAPI.obj
 0001:00000da0       ?DeleteSpawn@@YAXPAU_MAPSPAWN@@@Z 04001da0 f i MQ2MapAPI.obj
 0001:00000de0       ?MapInit@@YAXXZ            04001de0 f   MQ2MapAPI.obj
 0001:000010c0       ?MapAttach@@YAXXZ          040020c0 f   MQ2MapAPI.obj
 0001:00001160       ?MapDetach@@YAXXZ          04002160 f   MQ2MapAPI.obj
 0001:000011c0       ?MapHighlight@@YAKPAU_SEARCHSPAWN@MQ2Internal@@@Z 040021c0 f   MQ2MapAPI.obj
 0001:00001240       ?GenerateSpawnName@@YAPADPAU_SPAWNINFO@EQData@@PAD@Z 04002240 f   MQ2MapAPI.obj
 0001:000015a0       ?CanDisplaySpawn@@YAHW4eSpawnType@MQ2Internal@@PAU_SPAWNINFO@EQData@@@Z 040025a0 f   MQ2MapAPI.obj
 0001:00001820       ?GetSpawnColor@@YAKW4eSpawnType@MQ2Internal@@PAU_SPAWNINFO@EQData@@@Z 04002820 f i MQ2MapAPI.obj
 0001:00001960       ?GenerateVector@@YAPAU_MAPLINE@EQUIStructs@@PAU_MAPSPAWN@@@Z 04002960 f   MQ2MapAPI.obj
 0001:00001ac0       ?size@?$basic_string@DU?$char_traits@D@std@@V?$allocator@D@2@@std@@QBEIXZ 04002ac0 f i MQ2MapAPI.obj
 0001:00001ad0       ?_Myptr@?$basic_string@DU?$char_traits@D@std@@V?$allocator@D@2@@std@@IBEPBDXZ 04002ad0 f i MQ2MapAPI.obj
 0001:00001ae0       ??0?$allocator@D@std@@QAE@XZ 04002ae0 f i MQ2MapAPI.obj
 0001:00001af0       ??0?$allocator@U?$pair@$$CBKPAU_MAPSPAWN@@@std@@@std@@QAE@XZ 04002af0 f i MQ2MapAPI.obj
 0001:00001b00       ??R?$less@K@std@@QBE_NABK0@Z 04002b00 f i MQ2MapAPI.obj
 0001:00001b20       ??0?$allocator@U?$pair@QAU_MAPLABEL@EQUIStructs@@PAU_MAPSPAWN@@@std@@@std@@QAE@XZ 04002b20 f i MQ2MapAPI.obj
 0001:00001b30       ??R?$less@PAU_MAPLABEL@EQUIStructs@@@std@@QBE_NABQAU_MAPLABEL@EQUIStructs@@0@Z 04002b30 f i MQ2MapAPI.obj
 0001:00001b50       ??8const_iterator@?$_Tree@V?$_Tmap_traits@KPAU_MAPSPAWN@@U?$less@K@std@@V?$allocator@U?$pair@$$CBKPAU_MAPSPAWN@@@std@@@3@$0A@@std@@@std@@QBE_NABV012@@Z 04002b50 f i MQ2MapAPI.obj
 0001:00001b80       ?_Mynode@const_iterator@?$_Tree@V?$_Tmap_traits@KPAU_MAPSPAWN@@U?$less@K@std@@V?$allocator@U?$pair@$$CBKPAU_MAPSPAWN@@@std@@@3@$0A@@std@@@std@@QBEPAU_Node@?$_Tree_nod@V?$_Tmap_traits@KPAU_MAPSPAWN@@U?$less@K@std@@V?$allocator@U?$pair@$$CBKPAU_MAPSPAWN@@@std@@@3@$0A@@std@@@3@XZ 04002b80 f i MQ2MapAPI.obj
 0001:00001b90       ??0?$pair@$$CBKPAU_MAPSPAWN@@@std@@QAE@ABKABQAU_MAPSPAWN@@@Z 04002b90 f i MQ2MapAPI.obj
 0001:00001bb0       ??8const_iterator@?$_Tree@V?$_Tmap_traits@PAU_MAPLABEL@EQUIStructs@@PAU_MAPSPAWN@@U?$less@PAU_MAPLABEL@EQUIStructs@@@std@@V?$allocator@U?$pair@QAU_MAPLABEL@EQUIStructs@@PAU_MAPSPAWN@@@std@@@5@$0A@@std@@@std@@QBE_NABV012@@Z 04002bb0 f i MQ2MapAPI.obj
 0001:00001be0       ?_Mynode@const_iterator@?$_Tree@V?$_Tmap_traits@PAU_MAPLABEL@EQUIStructs@@PAU_MAPSPAWN@@U?$less@PAU_MAPLABEL@EQUIStructs@@@std@@V?$allocator@U?$pair@QAU_MAPLABEL@EQUIStructs@@PAU_MAPSPAWN@@@std@@@5@$0A@@std@@@std@@QBEPAU_Node@?$_Tree_nod@V?$_Tmap_traits@PAU_MAPLABEL@EQUIStructs@@PAU_MAPSPAWN@@U?$less@PAU_MAPLABEL@EQUIStructs@@@std@@V?$allocator@U?$pair@QAU_MAPLABEL@EQUIStructs@@PAU_MAPSPAWN@@@std@@@5@$0A@@std@@@3@XZ 04002be0 f i MQ2MapAPI.obj
 0001:00001bf0       ??0?$pair@QAU_MAPLABEL@EQUIStructs@@PAU_MAPSPAWN@@@std@@QAE@ABQAU_MAPLABEL@EQUIStructs@@ABQAU_MAPSPAWN@@@Z 04002bf0 f i MQ2MapAPI.obj
 0001:00001c10       ?_Myptr@?$basic_string@DU?$char_traits@D@std@@V?$allocator@D@2@@std@@IAEPADXZ 04002c10 f i MQ2MapAPI.obj
 0001:00001c20       ??0?$allocator@D@std@@QAE@ABV01@@Z 04002c20 f i MQ2MapAPI.obj
 0001:00001c30       ?deallocate@?$allocator@D@std@@QAEXPADI@Z 04002c30 f i MQ2MapAPI.obj
 0001:00001c40       ?deallocate@?$allocator@V_Aux_cont@std@@@std@@QAEXPAV_Aux_cont@2@I@Z 04002c40 f i MQ2MapAPI.obj
 0001:00001c50       ?_Isnil@?$_Tree@V?$_Tmap_traits@KPAU_MAPSPAWN@@U?$less@K@std@@V?$allocator@U?$pair@$$CBKPAU_MAPSPAWN@@@std@@@3@$0A@@std@@@std@@KAAADPAU_Node@?$_Tree_nod@V?$_Tmap_traits@KPAU_MAPSPAWN@@U?$less@K@std@@V?$allocator@U?$pair@$$CBKPAU_MAPSPAWN@@@std@@@3@$0A@@std@@@2@@Z 04002c50 f i MQ2MapAPI.obj
 0001:00001c60       ?_Left@?$_Tree@V?$_Tmap_traits@KPAU_MAPSPAWN@@U?$less@K@std@@V?$allocator@U?$pair@$$CBKPAU_MAPSPAWN@@@std@@@3@$0A@@std@@@std@@KAAAPAU_Node@?$_Tree_nod@V?$_Tmap_traits@KPAU_MAPSPAWN@@U?$less@K@std@@V?$allocator@U?$pair@$$CBKPAU_MAPSPAWN@@@std@@@3@$0A@@std@@@2@PAU342@@Z 04002c60 f i MQ2MapAPI.obj
 0001:00001c70       ?_Parent@?$_Tree@V?$_Tmap_traits@KPAU_MAPSPAWN@@U?$less@K@std@@V?$allocator@U?$pair@$$CBKPAU_MAPSPAWN@@@std@@@3@$0A@@std@@@std@@KAAAPAU_Node@?$_Tree_nod@V?$_Tmap_traits@KPAU_MAPSPAWN@@U?$less@K@std@@V?$allocator@U?$pair@$$CBKPAU_MAPSPAWN@@@std@@@3@$0A@@std@@@2@PAU342@@Z 04002c70 f i MQ2MapAPI.obj
 0001:00001c80       ?_Right@?$_Tree@V?$_Tmap_traits@KPAU_MAPSPAWN@@U?$less@K@std@@V?$allocator@U?$pair@$$CBKPAU_MAPSPAWN@@@std@@@3@$0A@@std@@@std@@KAAAPAU_Node@?$_Tree_nod@V?$_Tmap_traits@KPAU_MAPSPAWN@@U?$less@K@std@@V?$allocator@U?$pair@$$CBKPAU_MAPSPAWN@@@std@@@3@$0A@@std@@@2@PAU342@@Z 04002c80 f i MQ2MapAPI.obj
 0001:00001c90       ?_Myval@?$_Tree@V?$_Tmap_traits@KPAU_MAPSPAWN@@U?$less@K@std@@V?$allocator@U?$pair@$$CBKPAU_MAPSPAWN@@@std@@@3@$0A@@std@@@std@@KAAAU?$pair@$$CBKPAU_MAPSPAWN@@@2@PAU_Node@?$_Tree_nod@V?$_Tmap_traits@KPAU_MAPSPAWN@@U?$less@K@std@@V?$allocator@U?$pair@$$CBKPAU_MAPSPAWN@@@std@@@3@$0A@@std@@@2@@Z 04002c90 f i MQ2MapAPI.obj
 0001:00001ca0       ?size@?$_Tree@V?$_Tmap_traits@KPAU_MAPSPAWN@@U?$less@K@std@@V?$allocator@U?$pair@$$CBKPAU_MAPSPAWN@@@std@@@3@$0A@@std@@@std@@QBEIXZ 04002ca0 f i MQ2MapAPI.obj
 0001:00001cb0       ?_Kfn@?$_Tmap_traits@KPAU_MAPSPAWN@@U?$less@K@std@@V?$allocator@U?$pair@$$CBKPAU_MAPSPAWN@@@std@@@3@$0A@@std@@SAABKABU?$pair@$$CBKPAU_MAPSPAWN@@@2@@Z 04002cb0 f i MQ2MapAPI.obj
 0001:00001cc0       ??0?$allocator@U?$pair@$$CBKPAU_MAPSPAWN@@@std@@@std@@QAE@ABV01@@Z 04002cc0 f i MQ2MapAPI.obj
 0001:00001cd0       ?deallocate@?$allocator@U_Node@?$_Tree_nod@V?$_Tmap_traits@KPAU_MAPSPAWN@@U?$less@K@std@@V?$allocator@U?$pair@$$CBKPAU_MAPSPAWN@@@std@@@3@$0A@@std@@@std@@@std@@QAEXPAU_Node@?$_Tree_nod@V?$_Tmap_traits@KPAU_MAPSPAWN@@U?$less@K@std@@V?$allocator@U?$pair@$$CBKPAU_MAPSPAWN@@@std@@@3@$0A@@std@@@2@I@Z 04002cd0 f i MQ2MapAPI.obj
 0001:00001ce0       ?_Isnil@?$_Tree@V?$_Tmap_traits@PAU_MAPLABEL@EQUIStructs@@PAU_MAPSPAWN@@U?$less@PAU_MAPLABEL@EQUIStructs@@@std@@V?$allocator@U?$pair@QAU_MAPLABEL@EQUIStructs@@PAU_MAPSPAWN@@@std@@@5@$0A@@std@@@std@@KAAADPAU_Node@?$_Tree_nod@V?$_Tmap_traits@PAU_MAPLABEL@EQUIStructs@@PAU_MAPSPAWN@@U?$less@PAU_MAPLABEL@EQUIStructs@@@std@@V?$allocator@U?$pair@QAU_MAPLABEL@EQUIStructs@@PAU_MAPSPAWN@@@std@@@5@$0A@@std@@@2@@Z 04002ce0 f i MQ2MapAPI.obj
 0001:00001cf0       ?_Left@?$_Tree@V?$_Tmap_traits@PAU_MAPLABEL@EQUIStructs@@PAU_MAPSPAWN@@U?$less@PAU_MAPLABEL@EQUIStructs@@@std@@V?$allocator@U?$pair@QAU_MAPLABEL@EQUIStructs@@PAU_MAPSPAWN@@@std@@@5@$0A@@std@@@std@@KAAAPAU_Node@?$_Tree_nod@V?$_Tmap_traits@PAU_MAPLABEL@EQUIStructs@@PAU_MAPSPAWN@@U?$less@PAU_MAPLABEL@EQUIStructs@@@std@@V?$allocator@U?$pair@QAU_MAPLABEL@EQUIStructs@@PAU_MAPSPAWN@@@std@@@5@$0A@@std@@@2@PAU342@@Z 04002cf0 f i MQ2MapAPI.obj
 0001:00001d00       ?_Parent@?$_Tree@V?$_Tmap_traits@PAU_MAPLABEL@EQUIStructs@@PAU_MAPSPAWN@@U?$less@PAU_MAPLABEL@EQUIStructs@@@std@@V?$allocator@U?$pair@QAU_MAPLABEL@EQUIStructs@@PAU_MAPSPAWN@@@std@@@5@$0A@@std@@@std@@KAAAPAU_Node@?$_Tree_nod@V?$_Tmap_traits@PAU_MAPLABEL@EQUIStructs@@PAU_MAPSPAWN@@U?$less@PAU_MAPLABEL@EQUIStructs@@@std@@V?$allocator@U?$pair@QAU_MAPLABEL@EQUIStructs@@PAU_MAPSPAWN@@@std@@@5@$0A@@std@@@2@PAU342@@Z 04002d00 f i MQ2MapAPI.obj
 0001:00001d10       ?_Right@?$_Tree@V?$_Tmap_traits@PAU_MAPLABEL@EQUIStructs@@PAU_MAPSPAWN@@U?$less@PAU_MAPLABEL@EQUIStructs@@@std@@V?$allocator@U?$pair@QAU_MAPLABEL@EQUIStructs@@PAU_MAPSPAWN@@@std@@@5@$0A@@std@@@std@@KAAAPAU_Node@?$_Tree_nod@V?$_Tmap_traits@PAU_MAPLABEL@EQUIStructs@@PAU_MAPSPAWN@@U?$less@PAU_MAPLABEL@EQUIStructs@@@std@@V?$allocator@U?$pair@QAU_MAPLABEL@EQUIStructs@@PAU_MAPSPAWN@@@std@@@5@$0A@@std@@@2@PAU342@@Z 04002d10 f i MQ2MapAPI.obj
 0001:00001d20       ?_Myval@?$_Tree@V?$_Tmap_traits@PAU_MAPLABEL@EQUIStructs@@PAU_MAPSPAWN@@U?$less@PAU_MAPLABEL@EQUIStructs@@@std@@V?$allocator@U?$pair@QAU_MAPLABEL@EQUIStructs@@PAU_MAPSPAWN@@@std@@@5@$0A@@std@@@std@@KAAAU?$pair@QAU_MAPLABEL@EQUIStructs@@PAU_MAPSPAWN@@@2@PAU_Node@?$_Tree_nod@V?$_Tmap_traits@PAU_MAPLABEL@EQUIStructs@@PAU_MAPSPAWN@@U?$less@PAU_MAPLABEL@EQUIStructs@@@std@@V?$allocator@U?$pair@QAU_MAPLABEL@EQUIStructs@@PAU_MAPSPAWN@@@std@@@5@$0A@@std@@@2@@Z 04002d20 f i MQ2MapAPI.obj
 0001:00001d30       ?size@?$_Tree@V?$_Tmap_traits@PAU_MAPLABEL@EQUIStructs@@PAU_MAPSPAWN@@U?$less@PAU_MAPLABEL@EQUIStructs@@@std@@V?$allocator@U?$pair@QAU_MAPLABEL@EQUIStructs@@PAU_MAPSPAWN@@@std@@@5@$0A@@std@@@std@@QBEIXZ 04002d30 f i MQ2MapAPI.obj
 0001:00001d40       ?_Rmost@?$_Tree@V?$_Tmap_traits@PAU_MAPLABEL@EQUIStructs@@PAU_MAPSPAWN@@U?$less@PAU_MAPLABEL@EQUIStructs@@@std@@V?$allocator@U?$pair@QAU_MAPLABEL@EQUIStructs@@PAU_MAPSPAWN@@@std@@@5@$0A@@std@@@std@@IBEAAPAU_Node@?$_Tree_nod@V?$_Tmap_traits@PAU_MAPLABEL@EQUIStructs@@PAU_MAPSPAWN@@U?$less@PAU_MAPLABEL@EQUIStructs@@@std@@V?$allocator@U?$pair@QAU_MAPLABEL@EQUIStructs@@PAU_MAPSPAWN@@@std@@@5@$0A@@std@@@2@XZ 04002d40 f i MQ2MapAPI.obj
 0001:00001d50       ?_Kfn@?$_Tmap_traits@PAU_MAPLABEL@EQUIStructs@@PAU_MAPSPAWN@@U?$less@PAU_MAPLABEL@EQUIStructs@@@std@@V?$allocator@U?$pair@QAU_MAPLABEL@EQUIStructs@@PAU_MAPSPAWN@@@std@@@5@$0A@@std@@SAABQAU_MAPLABEL@EQUIStructs@@ABU?$pair@QAU_MAPLABEL@EQUIStructs@@PAU_MAPSPAWN@@@2@@Z 04002d50 f i MQ2MapAPI.obj
 0001:00001d60       ??0?$allocator@U?$pair@QAU_MAPLABEL@EQUIStructs@@PAU_MAPSPAWN@@@std@@@std@@QAE@ABV01@@Z 04002d60 f i MQ2MapAPI.obj
 0001:00001d70       ?deallocate@?$allocator@U_Node@?$_Tree_nod@V?$_Tmap_traits@PAU_MAPLABEL@EQUIStructs@@PAU_MAPSPAWN@@U?$less@PAU_MAPLABEL@EQUIStructs@@@std@@V?$allocator@U?$pair@QAU_MAPLABEL@EQUIStructs@@PAU_MAPSPAWN@@@std@@@5@$0A@@std@@@std@@@std@@QAEXPAU_Node@?$_Tree_nod@V?$_Tmap_traits@PAU_MAPLABEL@EQUIStructs@@PAU_MAPSPAWN@@U?$less@PAU_MAPLABEL@EQUIStructs@@@std@@V?$allocator@U?$pair@QAU_MAPLABEL@EQUIStructs@@PAU_MAPSPAWN@@@std@@@5@$0A@@std@@@2@I@Z 04002d70 f i MQ2MapAPI.obj
 0001:00001d80       ??Dconst_iterator@?$_Tree@V?$_Tmap_traits@KPAU_MAPSPAWN@@U?$less@K@std@@V?$allocator@U?$pair@$$CBKPAU_MAPSPAWN@@@std@@@3@$0A@@std@@@std@@QBEABU?$pair@$$CBKPAU_MAPSPAWN@@@2@XZ 04002d80 f i MQ2MapAPI.obj
 0001:00001db0       ??Dconst_iterator@?$_Tree@V?$_Tmap_traits@PAU_MAPLABEL@EQUIStructs@@PAU_MAPSPAWN@@U?$less@PAU_MAPLABEL@EQUIStructs@@@std@@V?$allocator@U?$pair@QAU_MAPLABEL@EQUIStructs@@PAU_MAPSPAWN@@@std@@@5@$0A@@std@@@std@@QBEABU?$pair@QAU_MAPLABEL@EQUIStructs@@PAU_MAPSPAWN@@@2@XZ 04002db0 f i MQ2MapAPI.obj
 0001:00001de0       ??0?$_Iterator_with_base@Ubidirectional_iterator_tag@std@@U?$pair@$$CBKPAU_MAPSPAWN@@@2@HPBU32@ABU32@V_Iterator_base_aux@2@@std@@QAE@XZ 04002de0 f i MQ2MapAPI.obj
 0001:00001df0       ??0?$_Iterator_with_base@Ubidirectional_iterator_tag@std@@U?$pair@QAU_MAPLABEL@EQUIStructs@@PAU_MAPSPAWN@@@2@HPBU32@ABU32@V_Iterator_base_aux@2@@std@@QAE@XZ 04002df0 f i MQ2MapAPI.obj
 0001:00001e00       ?_Inside@?$basic_string@DU?$char_traits@D@std@@V?$allocator@D@2@@std@@IAE_NPBD@Z 04002e00 f i MQ2MapAPI.obj
 0001:00001e40       ?_Color@?$_Tree@V?$_Tmap_traits@KPAU_MAPSPAWN@@U?$less@K@std@@V?$allocator@U?$pair@$$CBKPAU_MAPSPAWN@@@std@@@3@$0A@@std@@@std@@KAAADPAU_Node@?$_Tree_nod@V?$_Tmap_traits@KPAU_MAPSPAWN@@U?$less@K@std@@V?$allocator@U?$pair@$$CBKPAU_MAPSPAWN@@@std@@@3@$0A@@std@@@2@@Z 04002e40 f i MQ2MapAPI.obj
 0001:00001e50       ?_Color@?$_Tree@V?$_Tmap_traits@PAU_MAPLABEL@EQUIStructs@@PAU_MAPSPAWN@@U?$less@PAU_MAPLABEL@EQUIStructs@@@std@@V?$allocator@U?$pair@QAU_MAPLABEL@EQUIStructs@@PAU_MAPSPAWN@@@std@@@5@$0A@@std@@@std@@KAAADPAU_Node@?$_Tree_nod@V?$_Tmap_traits@PAU_MAPLABEL@EQUIStructs@@PAU_MAPSPAWN@@U?$less@PAU_MAPLABEL@EQUIStructs@@@std@@V?$allocator@U?$pair@QAU_MAPLABEL@EQUIStructs@@PAU_MAPSPAWN@@@std@@@5@$0A@@std@@@2@@Z 04002e50 f i MQ2MapAPI.obj
 0001:00001e60       ?_Lmost@?$_Tree@V?$_Tmap_traits@PAU_MAPLABEL@EQUIStructs@@PAU_MAPSPAWN@@U?$less@PAU_MAPLABEL@EQUIStructs@@@std@@V?$allocator@U?$pair@QAU_MAPLABEL@EQUIStructs@@PAU_MAPSPAWN@@@std@@@5@$0A@@std@@@std@@IBEAAPAU_Node@?$_Tree_nod@V?$_Tmap_traits@PAU_MAPLABEL@EQUIStructs@@PAU_MAPSPAWN@@U?$less@PAU_MAPLABEL@EQUIStructs@@@std@@V?$allocator@U?$pair@QAU_MAPLABEL@EQUIStructs@@PAU_MAPSPAWN@@@std@@@5@$0A@@std@@@2@XZ 04002e60 f i MQ2MapAPI.obj
 0001:00001e70       ?_Root@?$_Tree@V?$_Tmap_traits@PAU_MAPLABEL@EQUIStructs@@PAU_MAPSPAWN@@U?$less@PAU_MAPLABEL@EQUIStructs@@@std@@V?$allocator@U?$pair@QAU_MAPLABEL@EQUIStructs@@PAU_MAPSPAWN@@@std@@@5@$0A@@std@@@std@@IBEAAPAU_Node@?$_Tree_nod@V?$_Tmap_traits@PAU_MAPLABEL@EQUIStructs@@PAU_MAPSPAWN@@U?$less@PAU_MAPLABEL@EQUIStructs@@@std@@V?$allocator@U?$pair@QAU_MAPLABEL@EQUIStructs@@PAU_MAPSPAWN@@@std@@@5@$0A@@std@@@2@XZ 04002e70 f i MQ2MapAPI.obj
 0001:00001e80       ?_Rrotate@?$_Tree@V?$_Tmap_traits@PAU_MAPLABEL@EQUIStructs@@PAU_MAPSPAWN@@U?$less@PAU_MAPLABEL@EQUIStructs@@@std@@V?$allocator@U?$pair@QAU_MAPLABEL@EQUIStructs@@PAU_MAPSPAWN@@@std@@@5@$0A@@std@@@std@@IAEXPAU_Node@?$_Tree_nod@V?$_Tmap_traits@PAU_MAPLABEL@EQUIStructs@@PAU_MAPSPAWN@@U?$less@PAU_MAPLABEL@EQUIStructs@@@std@@V?$allocator@U?$pair@QAU_MAPLABEL@EQUIStructs@@PAU_MAPSPAWN@@@std@@@5@$0A@@std@@@2@@Z 04002e80 f i MQ2MapAPI.obj
 0001:00001ee0       ??9const_iterator@?$_Tree@V?$_Tmap_traits@KPAU_MAPSPAWN@@U?$less@K@std@@V?$allocator@U?$pair@$$CBKPAU_MAPSPAWN@@@std@@@3@$0A@@std@@@std@@QBE_NABV012@@Z 04002ee0 f i MQ2MapAPI.obj
 0001:00001f10       ??9const_iterator@?$_Tree@V?$_Tmap_traits@PAU_MAPLABEL@EQUIStructs@@PAU_MAPSPAWN@@U?$less@PAU_MAPLABEL@EQUIStructs@@@std@@V?$allocator@U?$pair@QAU_MAPLABEL@EQUIStructs@@PAU_MAPSPAWN@@@std@@@5@$0A@@std@@@std@@QBE_NABV012@@Z 04002f10 f i MQ2MapAPI.obj
 0001:00001f40       ??0?$pair@Viterator@?$_Tree@V?$_Tmap_traits@KPAU_MAPSPAWN@@U?$less@K@std@@V?$allocator@U?$pair@$$CBKPAU_MAPSPAWN@@@std@@@3@$0A@@std@@@std@@_N@std@@QAE@ABViterator@?$_Tree@V?$_Tmap_traits@KPAU_MAPSPAWN@@U?$less@K@std@@V?$allocator@U?$pair@$$CBKPAU_MAPSPAWN@@@std@@@3@$0A@@std@@@1@AB_N@Z 04002f40 f i MQ2MapAPI.obj
 0001:00001f60       ??0?$pair@Viterator@?$_Tree@V?$_Tmap_traits@PAU_MAPLABEL@EQUIStructs@@PAU_MAPSPAWN@@U?$less@PAU_MAPLABEL@EQUIStructs@@@std@@V?$allocator@U?$pair@QAU_MAPLABEL@EQUIStructs@@PAU_MAPSPAWN@@@std@@@5@$0A@@std@@@std@@_N@std@@QAE@ABViterator@?$_Tree@V?$_Tmap_traits@PAU_MAPLABEL@EQUIStructs@@PAU_MAPSPAWN@@U?$less@PAU_MAPLABEL@EQUIStructs@@@std@@V?$allocator@U?$pair@QAU_MAPLABEL@EQUIStructs@@PAU_MAPSPAWN@@@std@@@5@$0A@@std@@@1@AB_N@Z 04002f60 f i MQ2MapAPI.obj
 0001:00001f80       ?max_size@?$allocator@D@std@@QBEIXZ 04002f80 f i MQ2MapAPI.obj
 0001:00001f90       ?_Max@?$_Tree@V?$_Tmap_traits@KPAU_MAPSPAWN@@U?$less@K@std@@V?$allocator@U?$pair@$$CBKPAU_MAPSPAWN@@@std@@@3@$0A@@std@@@std@@KAPAU_Node@?$_Tree_nod@V?$_Tmap_traits@KPAU_MAPSPAWN@@U?$less@K@std@@V?$allocator@U?$pair@$$CBKPAU_MAPSPAWN@@@std@@@3@$0A@@std@@@2@PAU342@@Z 04002f90 f i MQ2MapAPI.obj
 0001:00001fb0       ?_Min@?$_Tree@V?$_Tmap_traits@KPAU_MAPSPAWN@@U?$less@K@std@@V?$allocator@U?$pair@$$CBKPAU_MAPSPAWN@@@std@@@3@$0A@@std@@@std@@KAPAU_Node@?$_Tree_nod@V?$_Tmap_traits@KPAU_MAPSPAWN@@U?$less@K@std@@V?$allocator@U?$pair@$$CBKPAU_MAPSPAWN@@@std@@@3@$0A@@std@@@2@PAU342@@Z 04002fb0 f i MQ2MapAPI.obj
 0001:00001fd0       ?max_size@?$allocator@U?$pair@$$CBKPAU_MAPSPAWN@@@std@@@std@@QBEIXZ 04002fd0 f i MQ2MapAPI.obj
 0001:00001fe0       ?_Max@?$_Tree@V?$_Tmap_traits@PAU_MAPLABEL@EQUIStructs@@PAU_MAPSPAWN@@U?$less@PAU_MAPLABEL@EQUIStructs@@@std@@V?$allocator@U?$pair@QAU_MAPLABEL@EQUIStructs@@PAU_MAPSPAWN@@@std@@@5@$0A@@std@@@std@@KAPAU_Node@?$_Tree_nod@V?$_Tmap_traits@PAU_MAPLABEL@EQUIStructs@@PAU_MAPSPAWN@@U?$less@PAU_MAPLABEL@EQUIStructs@@@std@@V?$allocator@U?$pair@QAU_MAPLABEL@EQUIStructs@@PAU_MAPSPAWN@@@std@@@5@$0A@@std@@@2@PAU342@@Z 04002fe0 f i MQ2MapAPI.obj
 0001:00002000       ?_Min@?$_Tree@V?$_Tmap_traits@PAU_MAPLABEL@EQUIStructs@@PAU_MAPSPAWN@@U?$less@PAU_MAPLABEL@EQUIStructs@@@std@@V?$allocator@U?$pair@QAU_MAPLABEL@EQUIStructs@@PAU_MAPSPAWN@@@std@@@5@$0A@@std@@@std@@KAPAU_Node@?$_Tree_nod@V?$_Tmap_traits@PAU_MAPLABEL@EQUIStructs@@PAU_MAPSPAWN@@U?$less@PAU_MAPLABEL@EQUIStructs@@@std@@V?$allocator@U?$pair@QAU_MAPLABEL@EQUIStructs@@PAU_MAPSPAWN@@@std@@@5@$0A@@std@@@2@PAU342@@Z 04003000 f i MQ2MapAPI.obj
 0001:00002020       ?max_size@?$allocator@U?$pair@QAU_MAPLABEL@EQUIStructs@@PAU_MAPSPAWN@@@std@@@std@@QBEIXZ 04003020 f i MQ2MapAPI.obj
 0001:00002030       ??0_Node@?$_Tree_nod@V?$_Tmap_traits@KPAU_MAPSPAWN@@U?$less@K@std@@V?$allocator@U?$pair@$$CBKPAU_MAPSPAWN@@@std@@@3@$0A@@std@@@std@@QAE@PAU012@00ABU?$pair@$$CBKPAU_MAPSPAWN@@@2@D@Z 04003030 f i MQ2MapAPI.obj
 0001:00002070       ??0_Node@?$_Tree_nod@V?$_Tmap_traits@PAU_MAPLABEL@EQUIStructs@@PAU_MAPSPAWN@@U?$less@PAU_MAPLABEL@EQUIStructs@@@std@@V?$allocator@U?$pair@QAU_MAPLABEL@EQUIStructs@@PAU_MAPSPAWN@@@std@@@5@$0A@@std@@@std@@QAE@PAU012@00ABU?$pair@QAU_MAPLABEL@EQUIStructs@@PAU_MAPSPAWN@@@2@D@Z 04003070 f i MQ2MapAPI.obj
 0001:000020b0       ??$swap@D@std@@YAXAAD0@Z   040030b0 f i MQ2MapAPI.obj
 0001:000020d0       ??$_Destroy@U_Node@?$_Tree_nod@V?$_Tmap_traits@KPAU_MAPSPAWN@@U?$less@K@std@@V?$allocator@U?$pair@$$CBKPAU_MAPSPAWN@@@std@@@3@$0A@@std@@@std@@@std@@YAXPAU_Node@?$_Tree_nod@V?$_Tmap_traits@KPAU_MAPSPAWN@@U?$less@K@std@@V?$allocator@U?$pair@$$CBKPAU_MAPSPAWN@@@std@@@3@$0A@@std@@@0@@Z 040030d0 f i MQ2MapAPI.obj
 0001:000020e0       ??$_Destroy@PAU_Node@?$_Tree_nod@V?$_Tmap_traits@KPAU_MAPSPAWN@@U?$less@K@std@@V?$allocator@U?$pair@$$CBKPAU_MAPSPAWN@@@std@@@3@$0A@@std@@@std@@@std@@YAXPAPAU_Node@?$_Tree_nod@V?$_Tmap_traits@KPAU_MAPSPAWN@@U?$less@K@std@@V?$allocator@U?$pair@$$CBKPAU_MAPSPAWN@@@std@@@3@$0A@@std@@@0@@Z 040030e0 f i MQ2MapAPI.obj
 0001:000020f0       ??$_Destroy@PAU_Node@?$_Tree_nod@V?$_Tmap_traits@PAU_MAPLABEL@EQUIStructs@@PAU_MAPSPAWN@@U?$less@PAU_MAPLABEL@EQUIStructs@@@std@@V?$allocator@U?$pair@QAU_MAPLABEL@EQUIStructs@@PAU_MAPSPAWN@@@std@@@5@$0A@@std@@@std@@@std@@YAXPAPAU_Node@?$_Tree_nod@V?$_Tmap_traits@PAU_MAPLABEL@EQUIStructs@@PAU_MAPSPAWN@@U?$less@PAU_MAPLABEL@EQUIStructs@@@std@@V?$allocator@U?$pair@QAU_MAPLABEL@EQUIStructs@@PAU_MAPSPAWN@@@std@@@5@$0A@@std@@@0@@Z 040030f0 f i MQ2MapAPI.obj
 0001:00002100       ??$?0U?$pair@$$CBKPAU_MAPSPAWN@@@std@@@?$allocator@PAU_Node@?$_Tree_nod@V?$_Tmap_traits@KPAU_MAPSPAWN@@U?$less@K@std@@V?$allocator@U?$pair@$$CBKPAU_MAPSPAWN@@@std@@@3@$0A@@std@@@std@@@std@@QAE@ABV?$allocator@U?$pair@$$CBKPAU_MAPSPAWN@@@std@@@1@@Z 04003100 f i MQ2MapAPI.obj
 0001:00002110       ??$?0U?$pair@QAU_MAPLABEL@EQUIStructs@@PAU_MAPSPAWN@@@std@@@?$allocator@PAU_Node@?$_Tree_nod@V?$_Tmap_traits@PAU_MAPLABEL@EQUIStructs@@PAU_MAPSPAWN@@U?$less@PAU_MAPLABEL@EQUIStructs@@@std@@V?$allocator@U?$pair@QAU_MAPLABEL@EQUIStructs@@PAU_MAPSPAWN@@@std@@@5@$0A@@std@@@std@@@std@@QAE@ABV?$allocator@U?$pair@QAU_MAPLABEL@EQUIStructs@@PAU_MAPSPAWN@@@std@@@1@@Z 04003110 f i MQ2MapAPI.obj
 0001:00002120       ??$_Allocate@D@std@@YAPADIPAD@Z 04003120 f i MQ2MapAPI.obj
 0001:00002180       ??$?0U?$pair@$$CBKPAU_MAPSPAWN@@@std@@@?$allocator@U_Node@?$_Tree_nod@V?$_Tmap_traits@KPAU_MAPSPAWN@@U?$less@K@std@@V?$allocator@U?$pair@$$CBKPAU_MAPSPAWN@@@std@@@3@$0A@@std@@@std@@@std@@QAE@ABV?$allocator@U?$pair@$$CBKPAU_MAPSPAWN@@@std@@@1@@Z 04003180 f i MQ2MapAPI.obj
 0001:00002190       ??$_Allocate@U_Node@?$_Tree_nod@V?$_Tmap_traits@KPAU_MAPSPAWN@@U?$less@K@std@@V?$allocator@U?$pair@$$CBKPAU_MAPSPAWN@@@std@@@3@$0A@@std@@@std@@@std@@YAPAU_Node@?$_Tree_nod@V?$_Tmap_traits@KPAU_MAPSPAWN@@U?$less@K@std@@V?$allocator@U?$pair@$$CBKPAU_MAPSPAWN@@@std@@@3@$0A@@std@@@0@IPAU120@@Z 04003190 f i MQ2MapAPI.obj
 0001:000021f0       ??$_Construct@PAU_Node@?$_Tree_nod@V?$_Tmap_traits@KPAU_MAPSPAWN@@U?$less@K@std@@V?$allocator@U?$pair@$$CBKPAU_MAPSPAWN@@@std@@@3@$0A@@std@@@std@@PAU123@@std@@YAXPAPAU_Node@?$_Tree_nod@V?$_Tmap_traits@KPAU_MAPSPAWN@@U?$less@K@std@@V?$allocator@U?$pair@$$CBKPAU_MAPSPAWN@@@std@@@3@$0A@@std@@@0@ABQAU120@@Z 040031f0 f i MQ2MapAPI.obj
 0001:00002210       ??$?0U?$pair@QAU_MAPLABEL@EQUIStructs@@PAU_MAPSPAWN@@@std@@@?$allocator@U_Node@?$_Tree_nod@V?$_Tmap_traits@PAU_MAPLABEL@EQUIStructs@@PAU_MAPSPAWN@@U?$less@PAU_MAPLABEL@EQUIStructs@@@std@@V?$allocator@U?$pair@QAU_MAPLABEL@EQUIStructs@@PAU_MAPSPAWN@@@std@@@5@$0A@@std@@@std@@@std@@QAE@ABV?$allocator@U?$pair@QAU_MAPLABEL@EQUIStructs@@PAU_MAPSPAWN@@@std@@@1@@Z 04003210 f i MQ2MapAPI.obj
 0001:00002220       ??$_Allocate@U_Node@?$_Tree_nod@V?$_Tmap_traits@PAU_MAPLABEL@EQUIStructs@@PAU_MAPSPAWN@@U?$less@PAU_MAPLABEL@EQUIStructs@@@std@@V?$allocator@U?$pair@QAU_MAPLABEL@EQUIStructs@@PAU_MAPSPAWN@@@std@@@5@$0A@@std@@@std@@@std@@YAPAU_Node@?$_Tree_nod@V?$_Tmap_traits@PAU_MAPLABEL@EQUIStructs@@PAU_MAPSPAWN@@U?$less@PAU_MAPLABEL@EQUIStructs@@@std@@V?$allocator@U?$pair@QAU_MAPLABEL@EQUIStructs@@PAU_MAPSPAWN@@@std@@@5@$0A@@std@@@0@IPAU120@@Z 04003220 f i MQ2MapAPI.obj
 0001:00002280       ??$_Destroy@U_Node@?$_Tree_nod@V?$_Tmap_traits@PAU_MAPLABEL@EQUIStructs@@PAU_MAPSPAWN@@U?$less@PAU_MAPLABEL@EQUIStructs@@@std@@V?$allocator@U?$pair@QAU_MAPLABEL@EQUIStructs@@PAU_MAPSPAWN@@@std@@@5@$0A@@std@@@std@@@std@@YAXPAU_Node@?$_Tree_nod@V?$_Tmap_traits@PAU_MAPLABEL@EQUIStructs@@PAU_MAPSPAWN@@U?$less@PAU_MAPLABEL@EQUIStructs@@@std@@V?$allocator@U?$pair@QAU_MAPLABEL@EQUIStructs@@PAU_MAPSPAWN@@@std@@@5@$0A@@std@@@0@@Z 04003280 f i MQ2MapAPI.obj
 0001:00002290       ??$_Construct@PAU_Node@?$_Tree_nod@V?$_Tmap_traits@PAU_MAPLABEL@EQUIStructs@@PAU_MAPSPAWN@@U?$less@PAU_MAPLABEL@EQUIStructs@@@std@@V?$allocator@U?$pair@QAU_MAPLABEL@EQUIStructs@@PAU_MAPSPAWN@@@std@@@5@$0A@@std@@@std@@PAU123@@std@@YAXPAPAU_Node@?$_Tree_nod@V?$_Tmap_traits@PAU_MAPLABEL@EQUIStructs@@PAU_MAPSPAWN@@U?$less@PAU_MAPLABEL@EQUIStructs@@@std@@V?$allocator@U?$pair@QAU_MAPLABEL@EQUIStructs@@PAU_MAPSPAWN@@@std@@@5@$0A@@std@@@0@ABQAU120@@Z 04003290 f i MQ2MapAPI.obj
 0001:000022b0       ??$?0U?$pair@$$CBKPAU_MAPSPAWN@@@std@@@?$allocator@V_Aux_cont@std@@@std@@QAE@ABV?$allocator@U?$pair@$$CBKPAU_MAPSPAWN@@@std@@@1@@Z 040032b0 f i MQ2MapAPI.obj
 0001:000022c0       ??$?0U?$pair@QAU_MAPLABEL@EQUIStructs@@PAU_MAPSPAWN@@@std@@@?$allocator@V_Aux_cont@std@@@std@@QAE@ABV?$allocator@U?$pair@QAU_MAPLABEL@EQUIStructs@@PAU_MAPSPAWN@@@std@@@1@@Z 040032c0 f i MQ2MapAPI.obj
 0001:000022d0       ??$_Allocate@V_Aux_cont@std@@@std@@YAPAV_Aux_cont@0@IPAV10@@Z 040032d0 f i MQ2MapAPI.obj
 0001:00002330       ??0bad_alloc@std@@QAE@ABV01@@Z 04003330 f i MQ2MapAPI.obj
 0001:00002350       ??$_Char_traits_cat@U?$char_traits@D@std@@@std@@YA?AU_Secure_char_traits_tag@0@XZ 04003350 f i MQ2MapAPI.obj
 0001:00002360       ??$copy_s@U?$char_traits@D@std@@@_Traits_helper@std@@YAPADPADIPBDIU_Secure_char_traits_tag@1@@Z 04003360 f i MQ2MapAPI.obj
 0001:00002390       ??$move_s@U?$char_traits@D@std@@@_Traits_helper@std@@YAPADPADIPBDIU_Secure_char_traits_tag@1@@Z 04003390 f i MQ2MapAPI.obj
 0001:000023c0       ??0?$_String_val@DV?$allocator@D@std@@@std@@IAE@V?$allocator@D@1@@Z 040033c0 f i MQ2MapAPI.obj
 0001:000023d0       ??0?$_String_val@DV?$allocator@D@std@@@std@@QAE@ABV01@@Z 040033d0 f i MQ2MapAPI.obj
 0001:000023e0       ?_Key@?$_Tree@V?$_Tmap_traits@KPAU_MAPSPAWN@@U?$less@K@std@@V?$allocator@U?$pair@$$CBKPAU_MAPSPAWN@@@std@@@3@$0A@@std@@@std@@KAABKPAU_Node@?$_Tree_nod@V?$_Tmap_traits@KPAU_MAPSPAWN@@U?$less@K@std@@V?$allocator@U?$pair@$$CBKPAU_MAPSPAWN@@@std@@@3@$0A@@std@@@2@@Z 040033e0 f i MQ2MapAPI.obj
 0001:000023f0       ?_Lmost@?$_Tree@V?$_Tmap_traits@KPAU_MAPSPAWN@@U?$less@K@std@@V?$allocator@U?$pair@$$CBKPAU_MAPSPAWN@@@std@@@3@$0A@@std@@@std@@IBEAAPAU_Node@?$_Tree_nod@V?$_Tmap_traits@KPAU_MAPSPAWN@@U?$less@K@std@@V?$allocator@U?$pair@$$CBKPAU_MAPSPAWN@@@std@@@3@$0A@@std@@@2@XZ 040033f0 f i MQ2MapAPI.obj
 0001:00002400       ?_Rmost@?$_Tree@V?$_Tmap_traits@KPAU_MAPSPAWN@@U?$less@K@std@@V?$allocator@U?$pair@$$CBKPAU_MAPSPAWN@@@std@@@3@$0A@@std@@@std@@IBEAAPAU_Node@?$_Tree_nod@V?$_Tmap_traits@KPAU_MAPSPAWN@@U?$less@K@std@@V?$allocator@U?$pair@$$CBKPAU_MAPSPAWN@@@std@@@3@$0A@@std@@@2@XZ 04003400 f i MQ2MapAPI.obj
 0001:00002410       ?_Root@?$_Tree@V?$_Tmap_traits@KPAU_MAPSPAWN@@U?$less@K@std@@V?$allocator@U?$pair@$$CBKPAU_MAPSPAWN@@@std@@@3@$0A@@std@@@std@@IBEAAPAU_Node@?$_Tree_nod@V?$_Tmap_traits@KPAU_MAPSPAWN@@U?$less@K@std@@V?$allocator@U?$pair@$$CBKPAU_MAPSPAWN@@@std@@@3@$0A@@std@@@2@XZ 04003410 f i MQ2MapAPI.obj
 0001:00002420       ??1?$_Container_base_aux_alloc_real@V?$allocator@U?$pair@$$CBKPAU_MAPSPAWN@@@std@@@std@@@std@@IAE@XZ 04003420 f i MQ2MapAPI.obj
 0001:00002430       ?_Key@?$_Tree@V?$_Tmap_traits@PAU_MAPLABEL@EQUIStructs@@PAU_MAPSPAWN@@U?$less@PAU_MAPLABEL@EQUIStructs@@@std@@V?$allocator@U?$pair@QAU_MAPLABEL@EQUIStructs@@PAU_MAPSPAWN@@@std@@@5@$0A@@std@@@std@@KAABQAU_MAPLABEL@EQUIStructs@@PAU_Node@?$_Tree_nod@V?$_Tmap_traits@PAU_MAPLABEL@EQUIStructs@@PAU_MAPSPAWN@@U?$less@PAU_MAPLABEL@EQUIStructs@@@std@@V?$allocator@U?$pair@QAU_MAPLABEL@EQUIStructs@@PAU_MAPSPAWN@@@std@@@5@$0A@@std@@@2@@Z 04003430 f i MQ2MapAPI.obj
 0001:00002440       ??1?$_Container_base_aux_alloc_real@V?$allocator@U?$pair@QAU_MAPLABEL@EQUIStructs@@PAU_MAPSPAWN@@@std@@@std@@@std@@IAE@XZ 04003440 f i MQ2MapAPI.obj
 0001:00002450       ??Diterator@?$_Tree@V?$_Tmap_traits@KPAU_MAPSPAWN@@U?$less@K@std@@V?$allocator@U?$pair@$$CBKPAU_MAPSPAWN@@@std@@@3@$0A@@std@@@std@@QBEAAU?$pair@$$CBKPAU_MAPSPAWN@@@2@XZ 04003450 f i MQ2MapAPI.obj
 0001:00002480       ??Diterator@?$_Tree@V?$_Tmap_traits@PAU_MAPLABEL@EQUIStructs@@PAU_MAPSPAWN@@U?$less@PAU_MAPLABEL@EQUIStructs@@@std@@V?$allocator@U?$pair@QAU_MAPLABEL@EQUIStructs@@PAU_MAPSPAWN@@@std@@@5@$0A@@std@@@std@@QBEAAU?$pair@QAU_MAPLABEL@EQUIStructs@@PAU_MAPSPAWN@@@2@XZ 04003480 f i MQ2MapAPI.obj
 0001:000024b0       ?_Eos@?$basic_string@DU?$char_traits@D@std@@V?$allocator@D@2@@std@@IAEXI@Z 040034b0 f i MQ2MapAPI.obj
 0001:000024d0       ?_Lbound@?$_Tree@V?$_Tmap_traits@KPAU_MAPSPAWN@@U?$less@K@std@@V?$allocator@U?$pair@$$CBKPAU_MAPSPAWN@@@std@@@3@$0A@@std@@@std@@IBEPAU_Node@?$_Tree_nod@V?$_Tmap_traits@KPAU_MAPSPAWN@@U?$less@K@std@@V?$allocator@U?$pair@$$CBKPAU_MAPSPAWN@@@std@@@3@$0A@@std@@@2@ABK@Z 040034d0 f i MQ2MapAPI.obj
 0001:00002500       ?destroy@?$allocator@U_Node@?$_Tree_nod@V?$_Tmap_traits@KPAU_MAPSPAWN@@U?$less@K@std@@V?$allocator@U?$pair@$$CBKPAU_MAPSPAWN@@@std@@@3@$0A@@std@@@std@@@std@@QAEXPAU_Node@?$_Tree_nod@V?$_Tmap_traits@KPAU_MAPSPAWN@@U?$less@K@std@@V?$allocator@U?$pair@$$CBKPAU_MAPSPAWN@@@std@@@3@$0A@@std@@@2@@Z 04003500 f i MQ2MapAPI.obj
 0001:00002510       ?destroy@?$allocator@PAU_Node@?$_Tree_nod@V?$_Tmap_traits@KPAU_MAPSPAWN@@U?$less@K@std@@V?$allocator@U?$pair@$$CBKPAU_MAPSPAWN@@@std@@@3@$0A@@std@@@std@@@std@@QAEXPAPAU_Node@?$_Tree_nod@V?$_Tmap_traits@KPAU_MAPSPAWN@@U?$less@K@std@@V?$allocator@U?$pair@$$CBKPAU_MAPSPAWN@@@std@@@3@$0A@@std@@@2@@Z 04003510 f i MQ2MapAPI.obj
 0001:00002520       ?_Lbound@?$_Tree@V?$_Tmap_traits@PAU_MAPLABEL@EQUIStructs@@PAU_MAPSPAWN@@U?$less@PAU_MAPLABEL@EQUIStructs@@@std@@V?$allocator@U?$pair@QAU_MAPLABEL@EQUIStructs@@PAU_MAPSPAWN@@@std@@@5@$0A@@std@@@std@@IBEPAU_Node@?$_Tree_nod@V?$_Tmap_traits@PAU_MAPLABEL@EQUIStructs@@PAU_MAPSPAWN@@U?$less@PAU_MAPLABEL@EQUIStructs@@@std@@V?$allocator@U?$pair@QAU_MAPLABEL@EQUIStructs@@PAU_MAPSPAWN@@@std@@@5@$0A@@std@@@2@ABQAU_MAPLABEL@EQUIStructs@@@Z 04003520 f i MQ2MapAPI.obj
 0001:00002550       ?destroy@?$allocator@PAU_Node@?$_Tree_nod@V?$_Tmap_traits@PAU_MAPLABEL@EQUIStructs@@PAU_MAPSPAWN@@U?$less@PAU_MAPLABEL@EQUIStructs@@@std@@V?$allocator@U?$pair@QAU_MAPLABEL@EQUIStructs@@PAU_MAPSPAWN@@@std@@@5@$0A@@std@@@std@@@std@@QAEXPAPAU_Node@?$_Tree_nod@V?$_Tmap_traits@PAU_MAPLABEL@EQUIStructs@@PAU_MAPSPAWN@@U?$less@PAU_MAPLABEL@EQUIStructs@@@std@@V?$allocator@U?$pair@QAU_MAPLABEL@EQUIStructs@@PAU_MAPSPAWN@@@std@@@5@$0A@@std@@@2@@Z 04003550 f i MQ2MapAPI.obj
 0001:00002560       ??0?$_Bidit@U?$pair@$$CBKPAU_MAPSPAWN@@@std@@HPBU12@ABU12@@std@@QAE@XZ 04003560 f i MQ2MapAPI.obj
 0001:00002570       ??0?$_Bidit@U?$pair@QAU_MAPLABEL@EQUIStructs@@PAU_MAPSPAWN@@@std@@HPBU12@ABU12@@std@@QAE@XZ 04003570 f i MQ2MapAPI.obj
 0001:00002580       ?max_size@?$basic_string@DU?$char_traits@D@std@@V?$allocator@D@2@@std@@QBEIXZ 04003580 f i MQ2MapAPI.obj
 0001:00002590       ?max_size@?$_Tree@V?$_Tmap_traits@KPAU_MAPSPAWN@@U?$less@K@std@@V?$allocator@U?$pair@$$CBKPAU_MAPSPAWN@@@std@@@3@$0A@@std@@@std@@QBEIXZ 04003590 f i MQ2MapAPI.obj
 0001:000025a0       ?_Lrotate@?$_Tree@V?$_Tmap_traits@KPAU_MAPSPAWN@@U?$less@K@std@@V?$allocator@U?$pair@$$CBKPAU_MAPSPAWN@@@std@@@3@$0A@@std@@@std@@IAEXPAU_Node@?$_Tree_nod@V?$_Tmap_traits@KPAU_MAPSPAWN@@U?$less@K@std@@V?$allocator@U?$pair@$$CBKPAU_MAPSPAWN@@@std@@@3@$0A@@std@@@2@@Z 040035a0 f i MQ2MapAPI.obj
 0001:000025f0       ?_Rrotate@?$_Tree@V?$_Tmap_traits@KPAU_MAPSPAWN@@U?$less@K@std@@V?$allocator@U?$pair@$$CBKPAU_MAPSPAWN@@@std@@@3@$0A@@std@@@std@@IAEXPAU_Node@?$_Tree_nod@V?$_Tmap_traits@KPAU_MAPSPAWN@@U?$less@K@std@@V?$allocator@U?$pair@$$CBKPAU_MAPSPAWN@@@std@@@3@$0A@@std@@@2@@Z 040035f0 f i MQ2MapAPI.obj
 0001:00002650       ?max_size@?$_Tree@V?$_Tmap_traits@PAU_MAPLABEL@EQUIStructs@@PAU_MAPSPAWN@@U?$less@PAU_MAPLABEL@EQUIStructs@@@std@@V?$allocator@U?$pair@QAU_MAPLABEL@EQUIStructs@@PAU_MAPSPAWN@@@std@@@5@$0A@@std@@@std@@QBEIXZ 04003650 f i MQ2MapAPI.obj
 0001:00002660       ?_Lrotate@?$_Tree@V?$_Tmap_traits@PAU_MAPLABEL@EQUIStructs@@PAU_MAPSPAWN@@U?$less@PAU_MAPLABEL@EQUIStructs@@@std@@V?$allocator@U?$pair@QAU_MAPLABEL@EQUIStructs@@PAU_MAPSPAWN@@@std@@@5@$0A@@std@@@std@@IAEXPAU_Node@?$_Tree_nod@V?$_Tmap_traits@PAU_MAPLABEL@EQUIStructs@@PAU_MAPSPAWN@@U?$less@PAU_MAPLABEL@EQUIStructs@@@std@@V?$allocator@U?$pair@QAU_MAPLABEL@EQUIStructs@@PAU_MAPSPAWN@@@std@@@5@$0A@@std@@@2@@Z 04003660 f i MQ2MapAPI.obj
 0001:000026b0       ??0const_iterator@?$_Tree@V?$_Tmap_traits@KPAU_MAPSPAWN@@U?$less@K@std@@V?$allocator@U?$pair@$$CBKPAU_MAPSPAWN@@@std@@@3@$0A@@std@@@std@@QAE@PAU_Node@?$_Tree_nod@V?$_Tmap_traits@KPAU_MAPSPAWN@@U?$less@K@std@@V?$allocator@U?$pair@$$CBKPAU_MAPSPAWN@@@std@@@3@$0A@@std@@@2@PBV12@@Z 040036b0 f i MQ2MapAPI.obj
 0001:000026e0       ?_Dec@const_iterator@?$_Tree@V?$_Tmap_traits@KPAU_MAPSPAWN@@U?$less@K@std@@V?$allocator@U?$pair@$$CBKPAU_MAPSPAWN@@@std@@@3@$0A@@std@@@std@@QAEXXZ 040036e0 f i MQ2MapAPI.obj
 0001:00002770       ?_Inc@const_iterator@?$_Tree@V?$_Tmap_traits@KPAU_MAPSPAWN@@U?$less@K@std@@V?$allocator@U?$pair@$$CBKPAU_MAPSPAWN@@@std@@@3@$0A@@std@@@std@@QAEXXZ 04003770 f i MQ2MapAPI.obj
 0001:000027e0       ??0const_iterator@?$_Tree@V?$_Tmap_traits@PAU_MAPLABEL@EQUIStructs@@PAU_MAPSPAWN@@U?$less@PAU_MAPLABEL@EQUIStructs@@@std@@V?$allocator@U?$pair@QAU_MAPLABEL@EQUIStructs@@PAU_MAPSPAWN@@@std@@@5@$0A@@std@@@std@@QAE@PAU_Node@?$_Tree_nod@V?$_Tmap_traits@PAU_MAPLABEL@EQUIStructs@@PAU_MAPSPAWN@@U?$less@PAU_MAPLABEL@EQUIStructs@@@std@@V?$allocator@U?$pair@QAU_MAPLABEL@EQUIStructs@@PAU_MAPSPAWN@@@std@@@5@$0A@@std@@@2@PBV12@@Z 040037e0 f i MQ2MapAPI.obj
 0001:00002810       ?_Dec@const_iterator@?$_Tree@V?$_Tmap_traits@PAU_MAPLABEL@EQUIStructs@@PAU_MAPSPAWN@@U?$less@PAU_MAPLABEL@EQUIStructs@@@std@@V?$allocator@U?$pair@QAU_MAPLABEL@EQUIStructs@@PAU_MAPSPAWN@@@std@@@5@$0A@@std@@@std@@QAEXXZ 04003810 f i MQ2MapAPI.obj
 0001:000028a0       ?_Inc@const_iterator@?$_Tree@V?$_Tmap_traits@PAU_MAPLABEL@EQUIStructs@@PAU_MAPSPAWN@@U?$less@PAU_MAPLABEL@EQUIStructs@@@std@@V?$allocator@U?$pair@QAU_MAPLABEL@EQUIStructs@@PAU_MAPSPAWN@@@std@@@5@$0A@@std@@@std@@QAEXXZ 040038a0 f i MQ2MapAPI.obj
 0001:00002910       ?allocate@?$allocator@D@std@@QAEPADI@Z 04003910 f i MQ2MapAPI.obj
 0001:00002930       ?allocate@?$allocator@U_Node@?$_Tree_nod@V?$_Tmap_traits@KPAU_MAPSPAWN@@U?$less@K@std@@V?$allocator@U?$pair@$$CBKPAU_MAPSPAWN@@@std@@@3@$0A@@std@@@std@@@std@@QAEPAU_Node@?$_Tree_nod@V?$_Tmap_traits@KPAU_MAPSPAWN@@U?$less@K@std@@V?$allocator@U?$pair@$$CBKPAU_MAPSPAWN@@@std@@@3@$0A@@std@@@2@I@Z 04003930 f i MQ2MapAPI.obj
 0001:00002950       ?construct@?$allocator@PAU_Node@?$_Tree_nod@V?$_Tmap_traits@KPAU_MAPSPAWN@@U?$less@K@std@@V?$allocator@U?$pair@$$CBKPAU_MAPSPAWN@@@std@@@3@$0A@@std@@@std@@@std@@QAEXPAPAU_Node@?$_Tree_nod@V?$_Tmap_traits@KPAU_MAPSPAWN@@U?$less@K@std@@V?$allocator@U?$pair@$$CBKPAU_MAPSPAWN@@@std@@@3@$0A@@std@@@2@ABQAU342@@Z 04003950 f i MQ2MapAPI.obj
 0001:00002970       ?allocate@?$allocator@U_Node@?$_Tree_nod@V?$_Tmap_traits@PAU_MAPLABEL@EQUIStructs@@PAU_MAPSPAWN@@U?$less@PAU_MAPLABEL@EQUIStructs@@@std@@V?$allocator@U?$pair@QAU_MAPLABEL@EQUIStructs@@PAU_MAPSPAWN@@@std@@@5@$0A@@std@@@std@@@std@@QAEPAU_Node@?$_Tree_nod@V?$_Tmap_traits@PAU_MAPLABEL@EQUIStructs@@PAU_MAPSPAWN@@U?$less@PAU_MAPLABEL@EQUIStructs@@@std@@V?$allocator@U?$pair@QAU_MAPLABEL@EQUIStructs@@PAU_MAPSPAWN@@@std@@@5@$0A@@std@@@2@I@Z 04003970 f i MQ2MapAPI.obj
 0001:00002990       ?destroy@?$allocator@U_Node@?$_Tree_nod@V?$_Tmap_traits@PAU_MAPLABEL@EQUIStructs@@PAU_MAPSPAWN@@U?$less@PAU_MAPLABEL@EQUIStructs@@@std@@V?$allocator@U?$pair@QAU_MAPLABEL@EQUIStructs@@PAU_MAPSPAWN@@@std@@@5@$0A@@std@@@std@@@std@@QAEXPAU_Node@?$_Tree_nod@V?$_Tmap_traits@PAU_MAPLABEL@EQUIStructs@@PAU_MAPSPAWN@@U?$less@PAU_MAPLABEL@EQUIStructs@@@std@@V?$allocator@U?$pair@QAU_MAPLABEL@EQUIStructs@@PAU_MAPSPAWN@@@std@@@5@$0A@@std@@@2@@Z 04003990 f i MQ2MapAPI.obj
 0001:000029a0       ?construct@?$allocator@PAU_Node@?$_Tree_nod@V?$_Tmap_traits@PAU_MAPLABEL@EQUIStructs@@PAU_MAPSPAWN@@U?$less@PAU_MAPLABEL@EQUIStructs@@@std@@V?$allocator@U?$pair@QAU_MAPLABEL@EQUIStructs@@PAU_MAPSPAWN@@@std@@@5@$0A@@std@@@std@@@std@@QAEXPAPAU_Node@?$_Tree_nod@V?$_Tmap_traits@PAU_MAPLABEL@EQUIStructs@@PAU_MAPSPAWN@@U?$less@PAU_MAPLABEL@EQUIStructs@@@std@@V?$allocator@U?$pair@QAU_MAPLABEL@EQUIStructs@@PAU_MAPSPAWN@@@std@@@5@$0A@@std@@@2@ABQAU342@@Z 040039a0 f i MQ2MapAPI.obj
 0001:000029c0       ?allocate@?$allocator@V_Aux_cont@std@@@std@@QAEPAV_Aux_cont@2@I@Z 040039c0 f i MQ2MapAPI.obj
 0001:000029e0       ??$copy_s@U?$char_traits@D@std@@@_Traits_helper@std@@YAPADPADIPBDI@Z 040039e0 f i MQ2MapAPI.obj
 0001:00002a10       ??$move_s@U?$char_traits@D@std@@@_Traits_helper@std@@YAPADPADIPBDI@Z 04003a10 f i MQ2MapAPI.obj
 0001:00002a40       ??1?$_Tmap_traits@KPAU_MAPSPAWN@@U?$less@K@std@@V?$allocator@U?$pair@$$CBKPAU_MAPSPAWN@@@std@@@3@$0A@@std@@QAE@XZ 04003a40 f i MQ2MapAPI.obj
 0001:00002a50       ??1?$_Tmap_traits@PAU_MAPLABEL@EQUIStructs@@PAU_MAPSPAWN@@U?$less@PAU_MAPLABEL@EQUIStructs@@@std@@V?$allocator@U?$pair@QAU_MAPLABEL@EQUIStructs@@PAU_MAPSPAWN@@@std@@@5@$0A@@std@@QAE@XZ 04003a50 f i MQ2MapAPI.obj
 0001:00002a60       ?_Tidy@?$basic_string@DU?$char_traits@D@std@@V?$allocator@D@2@@std@@IAEX_NI@Z 04003a60 f i MQ2MapAPI.obj
 0001:00002ab0       ?_Erase@?$_Tree@V?$_Tmap_traits@KPAU_MAPSPAWN@@U?$less@K@std@@V?$allocator@U?$pair@$$CBKPAU_MAPSPAWN@@@std@@@3@$0A@@std@@@std@@IAEXPAU_Node@?$_Tree_nod@V?$_Tmap_traits@KPAU_MAPSPAWN@@U?$less@K@std@@V?$allocator@U?$pair@$$CBKPAU_MAPSPAWN@@@std@@@3@$0A@@std@@@2@@Z 04003ab0 f i MQ2MapAPI.obj
 0001:00002af0       ?erase@?$basic_string@DU?$char_traits@D@std@@V?$allocator@D@2@@std@@QAEAAV12@II@Z 04003af0 f i MQ2MapAPI.obj
 0001:00002b80       ??0iterator@?$_Tree@V?$_Tmap_traits@KPAU_MAPSPAWN@@U?$less@K@std@@V?$allocator@U?$pair@$$CBKPAU_MAPSPAWN@@@std@@@3@$0A@@std@@@std@@QAE@PAU_Node@?$_Tree_nod@V?$_Tmap_traits@KPAU_MAPSPAWN@@U?$less@K@std@@V?$allocator@U?$pair@$$CBKPAU_MAPSPAWN@@@std@@@3@$0A@@std@@@2@PBV12@@Z 04003b80 f i MQ2MapAPI.obj
 0001:00002bb0       ??0const_iterator@?$_Tree@V?$_Tmap_traits@KPAU_MAPSPAWN@@U?$less@K@std@@V?$allocator@U?$pair@$$CBKPAU_MAPSPAWN@@@std@@@3@$0A@@std@@@std@@QAE@XZ 04003bb0 f i MQ2MapAPI.obj
 0001:00002bc0       ??Econst_iterator@?$_Tree@V?$_Tmap_traits@KPAU_MAPSPAWN@@U?$less@K@std@@V?$allocator@U?$pair@$$CBKPAU_MAPSPAWN@@@std@@@3@$0A@@std@@@std@@QAEAAV012@XZ 04003bc0 f i MQ2MapAPI.obj
 0001:00002bd0       ??Fconst_iterator@?$_Tree@V?$_Tmap_traits@KPAU_MAPSPAWN@@U?$less@K@std@@V?$allocator@U?$pair@$$CBKPAU_MAPSPAWN@@@std@@@3@$0A@@std@@@std@@QAEAAV012@XZ 04003bd0 f i MQ2MapAPI.obj
 0001:00002be0       ??0iterator@?$_Tree@V?$_Tmap_traits@PAU_MAPLABEL@EQUIStructs@@PAU_MAPSPAWN@@U?$less@PAU_MAPLABEL@EQUIStructs@@@std@@V?$allocator@U?$pair@QAU_MAPLABEL@EQUIStructs@@PAU_MAPSPAWN@@@std@@@5@$0A@@std@@@std@@QAE@PAU_Node@?$_Tree_nod@V?$_Tmap_traits@PAU_MAPLABEL@EQUIStructs@@PAU_MAPSPAWN@@U?$less@PAU_MAPLABEL@EQUIStructs@@@std@@V?$allocator@U?$pair@QAU_MAPLABEL@EQUIStructs@@PAU_MAPSPAWN@@@std@@@5@$0A@@std@@@2@PBV12@@Z 04003be0 f i MQ2MapAPI.obj
 0001:00002c10       ??0const_iterator@?$_Tree@V?$_Tmap_traits@PAU_MAPLABEL@EQUIStructs@@PAU_MAPSPAWN@@U?$less@PAU_MAPLABEL@EQUIStructs@@@std@@V?$allocator@U?$pair@QAU_MAPLABEL@EQUIStructs@@PAU_MAPSPAWN@@@std@@@5@$0A@@std@@@std@@QAE@XZ 04003c10 f i MQ2MapAPI.obj
 0001:00002c20       ??Econst_iterator@?$_Tree@V?$_Tmap_traits@PAU_MAPLABEL@EQUIStructs@@PAU_MAPSPAWN@@U?$less@PAU_MAPLABEL@EQUIStructs@@@std@@V?$allocator@U?$pair@QAU_MAPLABEL@EQUIStructs@@PAU_MAPSPAWN@@@std@@@5@$0A@@std@@@std@@QAEAAV012@XZ 04003c20 f i MQ2MapAPI.obj
 0001:00002c30       ??Fconst_iterator@?$_Tree@V?$_Tmap_traits@PAU_MAPLABEL@EQUIStructs@@PAU_MAPSPAWN@@U?$less@PAU_MAPLABEL@EQUIStructs@@@std@@V?$allocator@U?$pair@QAU_MAPLABEL@EQUIStructs@@PAU_MAPSPAWN@@@std@@@5@$0A@@std@@@std@@QAEAAV012@XZ 04003c30 f i MQ2MapAPI.obj
 0001:00002c40       ?_Copy@?$basic_string@DU?$char_traits@D@std@@V?$allocator@D@2@@std@@IAEXII@Z 04003c40 f i MQ2MapAPI.obj
 0001:00002d80       ?_Make_iter@?$_Tree@V?$_Tmap_traits@KPAU_MAPSPAWN@@U?$less@K@std@@V?$allocator@U?$pair@$$CBKPAU_MAPSPAWN@@@std@@@3@$0A@@std@@@std@@QBE?AViterator@12@Vconst_iterator@12@@Z 04003d80 f i MQ2MapAPI.obj
 0001:00002db0       ?_Buynode@?$_Tree@V?$_Tmap_traits@KPAU_MAPSPAWN@@U?$less@K@std@@V?$allocator@U?$pair@$$CBKPAU_MAPSPAWN@@@std@@@3@$0A@@std@@@std@@IAEPAU_Node@?$_Tree_nod@V?$_Tmap_traits@KPAU_MAPSPAWN@@U?$less@K@std@@V?$allocator@U?$pair@$$CBKPAU_MAPSPAWN@@@std@@@3@$0A@@std@@@2@XZ 04003db0 f i MQ2MapAPI.obj
 0001:00002df0       ?_Buynode@?$_Tree@V?$_Tmap_traits@KPAU_MAPSPAWN@@U?$less@K@std@@V?$allocator@U?$pair@$$CBKPAU_MAPSPAWN@@@std@@@3@$0A@@std@@@std@@IAEPAU_Node@?$_Tree_nod@V?$_Tmap_traits@KPAU_MAPSPAWN@@U?$less@K@std@@V?$allocator@U?$pair@$$CBKPAU_MAPSPAWN@@@std@@@3@$0A@@std@@@2@PAU342@00ABU?$pair@$$CBKPAU_MAPSPAWN@@@2@D@Z 04003df0 f i MQ2MapAPI.obj
 0001:00002e30       ?_Make_iter@?$_Tree@V?$_Tmap_traits@PAU_MAPLABEL@EQUIStructs@@PAU_MAPSPAWN@@U?$less@PAU_MAPLABEL@EQUIStructs@@@std@@V?$allocator@U?$pair@QAU_MAPLABEL@EQUIStructs@@PAU_MAPSPAWN@@@std@@@5@$0A@@std@@@std@@QBE?AViterator@12@Vconst_iterator@12@@Z 04003e30 f i MQ2MapAPI.obj
 0001:00002e60       ?_Buynode@?$_Tree@V?$_Tmap_traits@PAU_MAPLABEL@EQUIStructs@@PAU_MAPSPAWN@@U?$less@PAU_MAPLABEL@EQUIStructs@@@std@@V?$allocator@U?$pair@QAU_MAPLABEL@EQUIStructs@@PAU_MAPSPAWN@@@std@@@5@$0A@@std@@@std@@IAEPAU_Node@?$_Tree_nod@V?$_Tmap_traits@PAU_MAPLABEL@EQUIStructs@@PAU_MAPSPAWN@@U?$less@PAU_MAPLABEL@EQUIStructs@@@std@@V?$allocator@U?$pair@QAU_MAPLABEL@EQUIStructs@@PAU_MAPSPAWN@@@std@@@5@$0A@@std@@@2@XZ 04003e60 f i MQ2MapAPI.obj
 0001:00002ea0       ?_Buynode@?$_Tree@V?$_Tmap_traits@PAU_MAPLABEL@EQUIStructs@@PAU_MAPSPAWN@@U?$less@PAU_MAPLABEL@EQUIStructs@@@std@@V?$allocator@U?$pair@QAU_MAPLABEL@EQUIStructs@@PAU_MAPSPAWN@@@std@@@5@$0A@@std@@@std@@IAEPAU_Node@?$_Tree_nod@V?$_Tmap_traits@PAU_MAPLABEL@EQUIStructs@@PAU_MAPSPAWN@@U?$less@PAU_MAPLABEL@EQUIStructs@@@std@@V?$allocator@U?$pair@QAU_MAPLABEL@EQUIStructs@@PAU_MAPSPAWN@@@std@@@5@$0A@@std@@@2@PAU342@00ABU?$pair@QAU_MAPLABEL@EQUIStructs@@PAU_MAPSPAWN@@@2@D@Z 04003ea0 f i MQ2MapAPI.obj
 0001:00002ee0       ??Fiterator@?$_Tree@V?$_Tmap_traits@KPAU_MAPSPAWN@@U?$less@K@std@@V?$allocator@U?$pair@$$CBKPAU_MAPSPAWN@@@std@@@3@$0A@@std@@@std@@QAEAAV012@XZ 04003ee0 f i MQ2MapAPI.obj
 0001:00002ef0       ??Econst_iterator@?$_Tree@V?$_Tmap_traits@KPAU_MAPSPAWN@@U?$less@K@std@@V?$allocator@U?$pair@$$CBKPAU_MAPSPAWN@@@std@@@3@$0A@@std@@@std@@QAE?AV012@H@Z 04003ef0 f i MQ2MapAPI.obj
 0001:00002f10       ??Fiterator@?$_Tree@V?$_Tmap_traits@PAU_MAPLABEL@EQUIStructs@@PAU_MAPSPAWN@@U?$less@PAU_MAPLABEL@EQUIStructs@@@std@@V?$allocator@U?$pair@QAU_MAPLABEL@EQUIStructs@@PAU_MAPSPAWN@@@std@@@5@$0A@@std@@@std@@QAEAAV012@XZ 04003f10 f i MQ2MapAPI.obj
 0001:00002f20       ??Econst_iterator@?$_Tree@V?$_Tmap_traits@PAU_MAPLABEL@EQUIStructs@@PAU_MAPSPAWN@@U?$less@PAU_MAPLABEL@EQUIStructs@@@std@@V?$allocator@U?$pair@QAU_MAPLABEL@EQUIStructs@@PAU_MAPSPAWN@@@std@@@5@$0A@@std@@@std@@QAE?AV012@H@Z 04003f20 f i MQ2MapAPI.obj
 0001:00002f40       ?_Erase@?$_Tree@V?$_Tmap_traits@PAU_MAPLABEL@EQUIStructs@@PAU_MAPSPAWN@@U?$less@PAU_MAPLABEL@EQUIStructs@@@std@@V?$allocator@U?$pair@QAU_MAPLABEL@EQUIStructs@@PAU_MAPSPAWN@@@std@@@5@$0A@@std@@@std@@IAEXPAU_Node@?$_Tree_nod@V?$_Tmap_traits@PAU_MAPLABEL@EQUIStructs@@PAU_MAPSPAWN@@U?$less@PAU_MAPLABEL@EQUIStructs@@@std@@V?$allocator@U?$pair@QAU_MAPLABEL@EQUIStructs@@PAU_MAPSPAWN@@@std@@@5@$0A@@std@@@2@@Z 04003f40 f i MQ2MapAPI.obj
 0001:00002f80       ??0?$_Container_base_aux_alloc_real@V?$allocator@U?$pair@$$CBKPAU_MAPSPAWN@@@std@@@std@@@std@@IAE@V?$allocator@U?$pair@$$CBKPAU_MAPSPAWN@@@std@@@1@@Z 04003f80 f i MQ2MapAPI.obj
 0001:00002fb0       ??0?$_Container_base_aux_alloc_real@V?$allocator@U?$pair@QAU_MAPLABEL@EQUIStructs@@PAU_MAPSPAWN@@@std@@@std@@@std@@IAE@V?$allocator@U?$pair@QAU_MAPLABEL@EQUIStructs@@PAU_MAPSPAWN@@@std@@@1@@Z 04003fb0 f i MQ2MapAPI.obj
 0001:00002fe0       ??1?$basic_string@DU?$char_traits@D@std@@V?$allocator@D@2@@std@@QAE@XZ 04003fe0 f i MQ2MapAPI.obj
 0001:00003010       ?clear@?$_Tree@V?$_Tmap_traits@KPAU_MAPSPAWN@@U?$less@K@std@@V?$allocator@U?$pair@$$CBKPAU_MAPSPAWN@@@std@@@3@$0A@@std@@@std@@QAEXXZ 04004010 f i MQ2MapAPI.obj
 0001:00003040       ??1?$_Tree_nod@V?$_Tmap_traits@KPAU_MAPSPAWN@@U?$less@K@std@@V?$allocator@U?$pair@$$CBKPAU_MAPSPAWN@@@std@@@3@$0A@@std@@@std@@QAE@XZ 04004040 f i MQ2MapAPI.obj
 0001:00003050       ??1?$_Tree_nod@V?$_Tmap_traits@PAU_MAPLABEL@EQUIStructs@@PAU_MAPSPAWN@@U?$less@PAU_MAPLABEL@EQUIStructs@@@std@@V?$allocator@U?$pair@QAU_MAPLABEL@EQUIStructs@@PAU_MAPSPAWN@@@std@@@5@$0A@@std@@@std@@QAE@XZ 04004050 f i MQ2MapAPI.obj
 0001:00003060       ?end@?$_Tree@V?$_Tmap_traits@KPAU_MAPSPAWN@@U?$less@K@std@@V?$allocator@U?$pair@$$CBKPAU_MAPSPAWN@@@std@@@3@$0A@@std@@@std@@QAE?AViterator@12@XZ 04004060 f i MQ2MapAPI.obj
 0001:00003080       ?lower_bound@?$_Tree@V?$_Tmap_traits@KPAU_MAPSPAWN@@U?$less@K@std@@V?$allocator@U?$pair@$$CBKPAU_MAPSPAWN@@@std@@@3@$0A@@std@@@std@@QAE?AViterator@12@ABK@Z 04004080 f i MQ2MapAPI.obj
 0001:000030c0       ?end@?$_Tree@V?$_Tmap_traits@PAU_MAPLABEL@EQUIStructs@@PAU_MAPSPAWN@@U?$less@PAU_MAPLABEL@EQUIStructs@@@std@@V?$allocator@U?$pair@QAU_MAPLABEL@EQUIStructs@@PAU_MAPSPAWN@@@std@@@5@$0A@@std@@@std@@QAE?AViterator@12@XZ 040040c0 f i MQ2MapAPI.obj
 0001:000030e0       ?lower_bound@?$_Tree@V?$_Tmap_traits@PAU_MAPLABEL@EQUIStructs@@PAU_MAPSPAWN@@U?$less@PAU_MAPLABEL@EQUIStructs@@@std@@V?$allocator@U?$pair@QAU_MAPLABEL@EQUIStructs@@PAU_MAPSPAWN@@@std@@@5@$0A@@std@@@std@@QAE?AViterator@12@ABQAU_MAPLABEL@EQUIStructs@@@Z 040040e0 f i MQ2MapAPI.obj
 0001:00003120       ?_Grow@?$basic_string@DU?$char_traits@D@std@@V?$allocator@D@2@@std@@IAE_NI_N@Z 04004120 f i MQ2MapAPI.obj
 0001:000031e0       ?begin@?$_Tree@V?$_Tmap_traits@KPAU_MAPSPAWN@@U?$less@K@std@@V?$allocator@U?$pair@$$CBKPAU_MAPSPAWN@@@std@@@3@$0A@@std@@@std@@QAE?AViterator@12@XZ 040041e0 f i MQ2MapAPI.obj
 0001:00003200       ?_Init@?$_Tree@V?$_Tmap_traits@KPAU_MAPSPAWN@@U?$less@K@std@@V?$allocator@U?$pair@$$CBKPAU_MAPSPAWN@@@std@@@3@$0A@@std@@@std@@IAEXXZ 04004200 f i MQ2MapAPI.obj
 0001:00003230       ?begin@?$_Tree@V?$_Tmap_traits@PAU_MAPLABEL@EQUIStructs@@PAU_MAPSPAWN@@U?$less@PAU_MAPLABEL@EQUIStructs@@@std@@V?$allocator@U?$pair@QAU_MAPLABEL@EQUIStructs@@PAU_MAPSPAWN@@@std@@@5@$0A@@std@@@std@@QAE?AViterator@12@XZ 04004230 f i MQ2MapAPI.obj
 0001:00003250       ?_Init@?$_Tree@V?$_Tmap_traits@PAU_MAPLABEL@EQUIStructs@@PAU_MAPSPAWN@@U?$less@PAU_MAPLABEL@EQUIStructs@@@std@@V?$allocator@U?$pair@QAU_MAPLABEL@EQUIStructs@@PAU_MAPSPAWN@@@std@@@5@$0A@@std@@@std@@IAEXXZ 04004250 f i MQ2MapAPI.obj
 0001:00003280       ?clear@?$_Tree@V?$_Tmap_traits@PAU_MAPLABEL@EQUIStructs@@PAU_MAPSPAWN@@U?$less@PAU_MAPLABEL@EQUIStructs@@@std@@V?$allocator@U?$pair@QAU_MAPLABEL@EQUIStructs@@PAU_MAPSPAWN@@@std@@@5@$0A@@std@@@std@@QAEXXZ 04004280 f i MQ2MapAPI.obj
 0001:000032b0       ??0?$_Tmap_traits@KPAU_MAPSPAWN@@U?$less@K@std@@V?$allocator@U?$pair@$$CBKPAU_MAPSPAWN@@@std@@@3@$0A@@std@@QAE@U?$less@K@1@V?$allocator@U?$pair@$$CBKPAU_MAPSPAWN@@@std@@@1@@Z 040042b0 f i MQ2MapAPI.obj
 0001:000032e0       ??0?$_Tmap_traits@PAU_MAPLABEL@EQUIStructs@@PAU_MAPSPAWN@@U?$less@PAU_MAPLABEL@EQUIStructs@@@std@@V?$allocator@U?$pair@QAU_MAPLABEL@EQUIStructs@@PAU_MAPSPAWN@@@std@@@5@$0A@@std@@QAE@U?$less@PAU_MAPLABEL@EQUIStructs@@@1@V?$allocator@U?$pair@QAU_MAPLABEL@EQUIStructs@@PAU_MAPSPAWN@@@std@@@1@@Z 040042e0 f i MQ2MapAPI.obj
 0001:00003310       ??1logic_error@std@@UAE@XZ 04004310 f i MQ2MapAPI.obj
 0001:00003350       ?c_str@?$basic_string@DU?$char_traits@D@std@@V?$allocator@D@2@@std@@QBEPBDXZ 04004350 f i MQ2MapAPI.obj
 0001:00003360       ?what@logic_error@std@@UBEPBDXZ 04004360 f i MQ2MapAPI.obj
 0001:00003370       ??_Elogic_error@std@@UAEPAXI@Z 04004370 f i MQ2MapAPI.obj
 0001:00003370       ??_Glogic_error@std@@UAEPAXI@Z 04004370 f i MQ2MapAPI.obj
 0001:000033c0       ??1?$_Tree_ptr@V?$_Tmap_traits@KPAU_MAPSPAWN@@U?$less@K@std@@V?$allocator@U?$pair@$$CBKPAU_MAPSPAWN@@@std@@@3@$0A@@std@@@std@@QAE@XZ 040043c0 f i MQ2MapAPI.obj
 0001:000033d0       ??1?$_Tree_ptr@V?$_Tmap_traits@PAU_MAPLABEL@EQUIStructs@@PAU_MAPSPAWN@@U?$less@PAU_MAPLABEL@EQUIStructs@@@std@@V?$allocator@U?$pair@QAU_MAPLABEL@EQUIStructs@@PAU_MAPSPAWN@@@std@@@5@$0A@@std@@@std@@QAE@XZ 040043d0 f i MQ2MapAPI.obj
 0001:000033e0       ?assign@?$basic_string@DU?$char_traits@D@std@@V?$allocator@D@2@@std@@QAEAAV12@ABV12@II@Z 040043e0 f i MQ2MapAPI.obj
 0001:000034c0       ?assign@?$basic_string@DU?$char_traits@D@std@@V?$allocator@D@2@@std@@QAEAAV12@PBDI@Z 040044c0 f i MQ2MapAPI.obj
 0001:000035a0       ??0?$_Tree_nod@V?$_Tmap_traits@KPAU_MAPSPAWN@@U?$less@K@std@@V?$allocator@U?$pair@$$CBKPAU_MAPSPAWN@@@std@@@3@$0A@@std@@@std@@IAE@ABU?$less@K@1@V?$allocator@U?$pair@$$CBKPAU_MAPSPAWN@@@std@@@1@@Z 040045a0 f i MQ2MapAPI.obj
 0001:000035d0       ??0?$_Tree_nod@V?$_Tmap_traits@PAU_MAPLABEL@EQUIStructs@@PAU_MAPSPAWN@@U?$less@PAU_MAPLABEL@EQUIStructs@@@std@@V?$allocator@U?$pair@QAU_MAPLABEL@EQUIStructs@@PAU_MAPSPAWN@@@std@@@5@$0A@@std@@@std@@IAE@ABU?$less@PAU_MAPLABEL@EQUIStructs@@@1@V?$allocator@U?$pair@QAU_MAPLABEL@EQUIStructs@@PAU_MAPSPAWN@@@std@@@1@@Z 040045d0 f i MQ2MapAPI.obj
 0001:00003600       ??0?$basic_string@DU?$char_traits@D@std@@V?$allocator@D@2@@std@@QAE@ABV01@@Z 04004600 f i MQ2MapAPI.obj
 0001:00003630       ??1?$_Tree_val@V?$_Tmap_traits@KPAU_MAPSPAWN@@U?$less@K@std@@V?$allocator@U?$pair@$$CBKPAU_MAPSPAWN@@@std@@@3@$0A@@std@@@std@@QAE@XZ 04004630 f i MQ2MapAPI.obj
 0001:00003640       ??1?$_Tree_val@V?$_Tmap_traits@PAU_MAPLABEL@EQUIStructs@@PAU_MAPSPAWN@@U?$less@PAU_MAPLABEL@EQUIStructs@@@std@@V?$allocator@U?$pair@QAU_MAPLABEL@EQUIStructs@@PAU_MAPSPAWN@@@std@@@5@$0A@@std@@@std@@QAE@XZ 04004640 f i MQ2MapAPI.obj
 0001:00003650       ?assign@?$basic_string@DU?$char_traits@D@std@@V?$allocator@D@2@@std@@QAEAAV12@PBD@Z 04004650 f i MQ2MapAPI.obj
 0001:00003680       ??0?$_Tree_ptr@V?$_Tmap_traits@KPAU_MAPSPAWN@@U?$less@K@std@@V?$allocator@U?$pair@$$CBKPAU_MAPSPAWN@@@std@@@3@$0A@@std@@@std@@IAE@ABU?$less@K@1@V?$allocator@U?$pair@$$CBKPAU_MAPSPAWN@@@std@@@1@@Z 04004680 f i MQ2MapAPI.obj
 0001:000036b0       ??0?$_Tree_ptr@V?$_Tmap_traits@PAU_MAPLABEL@EQUIStructs@@PAU_MAPSPAWN@@U?$less@PAU_MAPLABEL@EQUIStructs@@@std@@V?$allocator@U?$pair@QAU_MAPLABEL@EQUIStructs@@PAU_MAPSPAWN@@@std@@@5@$0A@@std@@@std@@IAE@ABU?$less@PAU_MAPLABEL@EQUIStructs@@@1@V?$allocator@U?$pair@QAU_MAPLABEL@EQUIStructs@@PAU_MAPSPAWN@@@std@@@1@@Z 040046b0 f i MQ2MapAPI.obj
 0001:000036e0       ??0logic_error@std@@QAE@ABV?$basic_string@DU?$char_traits@D@std@@V?$allocator@D@2@@1@@Z 040046e0 f i MQ2MapAPI.obj
 0001:00003740       ??0length_error@std@@QAE@ABV?$basic_string@DU?$char_traits@D@std@@V?$allocator@D@2@@1@@Z 04004740 f i MQ2MapAPI.obj
 0001:00003760       ??1length_error@std@@UAE@XZ 04004760 f i MQ2MapAPI.obj
 0001:000037a0       ??_Glength_error@std@@UAEPAXI@Z 040047a0 f i MQ2MapAPI.obj
 0001:000037a0       ??_Elength_error@std@@UAEPAXI@Z 040047a0 f i MQ2MapAPI.obj
 0001:000037f0       ??0out_of_range@std@@QAE@ABV?$basic_string@DU?$char_traits@D@std@@V?$allocator@D@2@@1@@Z 040047f0 f i MQ2MapAPI.obj
 0001:00003810       ??1out_of_range@std@@UAE@XZ 04004810 f i MQ2MapAPI.obj
 0001:00003850       ??_Gout_of_range@std@@UAEPAXI@Z 04004850 f i MQ2MapAPI.obj
 0001:00003850       ??_Eout_of_range@std@@UAEPAXI@Z 04004850 f i MQ2MapAPI.obj
 0001:000038a0       ??0?$basic_string@DU?$char_traits@D@std@@V?$allocator@D@2@@std@@QAE@PBD@Z 040048a0 f i MQ2MapAPI.obj
 0001:000038e0       ?_Insert@?$_Tree@V?$_Tmap_traits@KPAU_MAPSPAWN@@U?$less@K@std@@V?$allocator@U?$pair@$$CBKPAU_MAPSPAWN@@@std@@@3@$0A@@std@@@std@@IAE?AViterator@12@_NPAU_Node@?$_Tree_nod@V?$_Tmap_traits@KPAU_MAPSPAWN@@U?$less@K@std@@V?$allocator@U?$pair@$$CBKPAU_MAPSPAWN@@@std@@@3@$0A@@std@@@2@ABU?$pair@$$CBKPAU_MAPSPAWN@@@2@@Z 040048e0 f i MQ2MapAPI.obj
 0001:00003ad0       ??0logic_error@std@@QAE@ABV01@@Z 04004ad0 f i MQ2MapAPI.obj
 0001:00003b40       ??0?$_Tree_val@V?$_Tmap_traits@KPAU_MAPSPAWN@@U?$less@K@std@@V?$allocator@U?$pair@$$CBKPAU_MAPSPAWN@@@std@@@3@$0A@@std@@@std@@IAE@ABU?$less@K@1@V?$allocator@U?$pair@$$CBKPAU_MAPSPAWN@@@std@@@1@@Z 04004b40 f i MQ2MapAPI.obj
 0001:00003b70       ?_Insert@?$_Tree@V?$_Tmap_traits@PAU_MAPLABEL@EQUIStructs@@PAU_MAPSPAWN@@U?$less@PAU_MAPLABEL@EQUIStructs@@@std@@V?$allocator@U?$pair@QAU_MAPLABEL@EQUIStructs@@PAU_MAPSPAWN@@@std@@@5@$0A@@std@@@std@@IAE?AViterator@12@_NPAU_Node@?$_Tree_nod@V?$_Tmap_traits@PAU_MAPLABEL@EQUIStructs@@PAU_MAPSPAWN@@U?$less@PAU_MAPLABEL@EQUIStructs@@@std@@V?$allocator@U?$pair@QAU_MAPLABEL@EQUIStructs@@PAU_MAPSPAWN@@@std@@@5@$0A@@std@@@2@ABU?$pair@QAU_MAPLABEL@EQUIStructs@@PAU_MAPSPAWN@@@2@@Z 04004b70 f i MQ2MapAPI.obj
 0001:00003d60       ??0?$_Tree_val@V?$_Tmap_traits@PAU_MAPLABEL@EQUIStructs@@PAU_MAPSPAWN@@U?$less@PAU_MAPLABEL@EQUIStructs@@@std@@V?$allocator@U?$pair@QAU_MAPLABEL@EQUIStructs@@PAU_MAPSPAWN@@@std@@@5@$0A@@std@@@std@@IAE@ABU?$less@PAU_MAPLABEL@EQUIStructs@@@1@V?$allocator@U?$pair@QAU_MAPLABEL@EQUIStructs@@PAU_MAPSPAWN@@@std@@@1@@Z 04004d60 f i MQ2MapAPI.obj
 0001:00003d90       ??0length_error@std@@QAE@ABV01@@Z 04004d90 f i MQ2MapAPI.obj
 0001:00003db0       ?erase@?$_Tree@V?$_Tmap_traits@KPAU_MAPSPAWN@@U?$less@K@std@@V?$allocator@U?$pair@$$CBKPAU_MAPSPAWN@@@std@@@3@$0A@@std@@@std@@QAE?AViterator@12@Vconst_iterator@12@@Z 04004db0 f i MQ2MapAPI.obj
 0001:00004070       ?erase@?$_Tree@V?$_Tmap_traits@PAU_MAPLABEL@EQUIStructs@@PAU_MAPSPAWN@@U?$less@PAU_MAPLABEL@EQUIStructs@@@std@@V?$allocator@U?$pair@QAU_MAPLABEL@EQUIStructs@@PAU_MAPSPAWN@@@std@@@5@$0A@@std@@@std@@QAE?AViterator@12@Vconst_iterator@12@@Z 04005070 f i MQ2MapAPI.obj
 0001:00004330       ??0out_of_range@std@@QAE@ABV01@@Z 04005330 f i MQ2MapAPI.obj
 0001:00004350       ??0?$_Tree@V?$_Tmap_traits@KPAU_MAPSPAWN@@U?$less@K@std@@V?$allocator@U?$pair@$$CBKPAU_MAPSPAWN@@@std@@@3@$0A@@std@@@std@@QAE@ABU?$less@K@1@ABV?$allocator@U?$pair@$$CBKPAU_MAPSPAWN@@@std@@@1@@Z 04005350 f i MQ2MapAPI.obj
 0001:000043d0       ??0?$_Tree@V?$_Tmap_traits@PAU_MAPLABEL@EQUIStructs@@PAU_MAPSPAWN@@U?$less@PAU_MAPLABEL@EQUIStructs@@@std@@V?$allocator@U?$pair@QAU_MAPLABEL@EQUIStructs@@PAU_MAPSPAWN@@@std@@@5@$0A@@std@@@std@@QAE@ABU?$less@PAU_MAPLABEL@EQUIStructs@@@1@ABV?$allocator@U?$pair@QAU_MAPLABEL@EQUIStructs@@PAU_MAPSPAWN@@@std@@@1@@Z 040053d0 f i MQ2MapAPI.obj
 0001:00004450       ?insert@?$_Tree@V?$_Tmap_traits@KPAU_MAPSPAWN@@U?$less@K@std@@V?$allocator@U?$pair@$$CBKPAU_MAPSPAWN@@@std@@@3@$0A@@std@@@std@@QAE?AU?$pair@Viterator@?$_Tree@V?$_Tmap_traits@KPAU_MAPSPAWN@@U?$less@K@std@@V?$allocator@U?$pair@$$CBKPAU_MAPSPAWN@@@std@@@3@$0A@@std@@@std@@_N@2@ABU?$pair@$$CBKPAU_MAPSPAWN@@@2@@Z 04005450 f i MQ2MapAPI.obj
 0001:00004540       ?erase@?$_Tree@V?$_Tmap_traits@KPAU_MAPSPAWN@@U?$less@K@std@@V?$allocator@U?$pair@$$CBKPAU_MAPSPAWN@@@std@@@3@$0A@@std@@@std@@QAE?AViterator@12@Vconst_iterator@12@0@Z 04005540 f i MQ2MapAPI.obj
 0001:00004620       ?insert@?$_Tree@V?$_Tmap_traits@PAU_MAPLABEL@EQUIStructs@@PAU_MAPSPAWN@@U?$less@PAU_MAPLABEL@EQUIStructs@@@std@@V?$allocator@U?$pair@QAU_MAPLABEL@EQUIStructs@@PAU_MAPSPAWN@@@std@@@5@$0A@@std@@@std@@QAE?AU?$pair@Viterator@?$_Tree@V?$_Tmap_traits@PAU_MAPLABEL@EQUIStructs@@PAU_MAPSPAWN@@U?$less@PAU_MAPLABEL@EQUIStructs@@@std@@V?$allocator@U?$pair@QAU_MAPLABEL@EQUIStructs@@PAU_MAPSPAWN@@@std@@@5@$0A@@std@@@std@@_N@2@ABU?$pair@QAU_MAPLABEL@EQUIStructs@@PAU_MAPSPAWN@@@2@@Z 04005620 f i MQ2MapAPI.obj
 0001:00004710       ?erase@?$_Tree@V?$_Tmap_traits@PAU_MAPLABEL@EQUIStructs@@PAU_MAPSPAWN@@U?$less@PAU_MAPLABEL@EQUIStructs@@@std@@V?$allocator@U?$pair@QAU_MAPLABEL@EQUIStructs@@PAU_MAPSPAWN@@@std@@@5@$0A@@std@@@std@@QAE?AViterator@12@Vconst_iterator@12@0@Z 04005710 f i MQ2MapAPI.obj
 0001:000047f0       ?insert@?$_Tree@V?$_Tmap_traits@KPAU_MAPSPAWN@@U?$less@K@std@@V?$allocator@U?$pair@$$CBKPAU_MAPSPAWN@@@std@@@3@$0A@@std@@@std@@QAE?AViterator@12@Vconst_iterator@12@ABU?$pair@$$CBKPAU_MAPSPAWN@@@2@@Z 040057f0 f i MQ2MapAPI.obj
 0001:000049c0       ?_Tidy@?$_Tree@V?$_Tmap_traits@KPAU_MAPSPAWN@@U?$less@K@std@@V?$allocator@U?$pair@$$CBKPAU_MAPSPAWN@@@std@@@3@$0A@@std@@@std@@IAEXXZ 040059c0 f i MQ2MapAPI.obj
 0001:00004a00       ?insert@?$_Tree@V?$_Tmap_traits@PAU_MAPLABEL@EQUIStructs@@PAU_MAPSPAWN@@U?$less@PAU_MAPLABEL@EQUIStructs@@@std@@V?$allocator@U?$pair@QAU_MAPLABEL@EQUIStructs@@PAU_MAPSPAWN@@@std@@@5@$0A@@std@@@std@@QAE?AViterator@12@Vconst_iterator@12@ABU?$pair@QAU_MAPLABEL@EQUIStructs@@PAU_MAPSPAWN@@@2@@Z 04005a00 f i MQ2MapAPI.obj
 0001:00004bd0       ?_Tidy@?$_Tree@V?$_Tmap_traits@PAU_MAPLABEL@EQUIStructs@@PAU_MAPSPAWN@@U?$less@PAU_MAPLABEL@EQUIStructs@@@std@@V?$allocator@U?$pair@QAU_MAPLABEL@EQUIStructs@@PAU_MAPSPAWN@@@std@@@5@$0A@@std@@@std@@IAEXXZ 04005bd0 f i MQ2MapAPI.obj
 0001:00004c10       ??A?$map@KPAU_MAPSPAWN@@U?$less@K@std@@V?$allocator@U?$pair@$$CBKPAU_MAPSPAWN@@@std@@@3@@std@@QAEAAPAU_MAPSPAWN@@ABK@Z 04005c10 f i MQ2MapAPI.obj
 0001:00004cc0       ??1?$_Tree@V?$_Tmap_traits@KPAU_MAPSPAWN@@U?$less@K@std@@V?$allocator@U?$pair@$$CBKPAU_MAPSPAWN@@@std@@@3@$0A@@std@@@std@@QAE@XZ 04005cc0 f i MQ2MapAPI.obj
 0001:00004d30       ??A?$map@PAU_MAPLABEL@EQUIStructs@@PAU_MAPSPAWN@@U?$less@PAU_MAPLABEL@EQUIStructs@@@std@@V?$allocator@U?$pair@QAU_MAPLABEL@EQUIStructs@@PAU_MAPSPAWN@@@std@@@5@@std@@QAEAAPAU_MAPSPAWN@@ABQAU_MAPLABEL@EQUIStructs@@@Z 04005d30 f i MQ2MapAPI.obj
 0001:00004de0       ??1?$_Tree@V?$_Tmap_traits@PAU_MAPLABEL@EQUIStructs@@PAU_MAPSPAWN@@U?$less@PAU_MAPLABEL@EQUIStructs@@@std@@V?$allocator@U?$pair@QAU_MAPLABEL@EQUIStructs@@PAU_MAPSPAWN@@@std@@@5@$0A@@std@@@std@@QAE@XZ 04005de0 f i MQ2MapAPI.obj
 0001:00004e50       ??1?$map@KPAU_MAPSPAWN@@U?$less@K@std@@V?$allocator@U?$pair@$$CBKPAU_MAPSPAWN@@@std@@@3@@std@@QAE@XZ 04005e50 f i MQ2MapAPI.obj
 0001:00004e60       ??1?$map@PAU_MAPLABEL@EQUIStructs@@PAU_MAPSPAWN@@U?$less@PAU_MAPLABEL@EQUIStructs@@@std@@V?$allocator@U?$pair@QAU_MAPLABEL@EQUIStructs@@PAU_MAPSPAWN@@@std@@@5@@std@@QAE@XZ 04005e60 f i MQ2MapAPI.obj
 0001:00004e70       ?InitLabel@@YAPAU_MAPLABEL@EQUIStructs@@PAU_MAPSPAWN@@@Z 04005e70 f i MQ2MapAPI.obj
 0001:00004ed0       ?DeleteLabel@@YAXPAU_MAPLABEL@EQUIStructs@@@Z 04005ed0 f i MQ2MapAPI.obj
 0001:00004f30       ?RemoveSpawn@@YAXPAU_MAPSPAWN@@@Z 04005f30 f   MQ2MapAPI.obj
 0001:00005010       ?RemoveSpawn@@YA_NPAU_SPAWNINFO@EQData@@@Z 04006010 f   MQ2MapAPI.obj
 0001:00005040       ?RemoveGroundItem@@YAXPAU_GROUNDITEM@EQData@@@Z 04006040 f   MQ2MapAPI.obj
 0001:00005080       ?MapClear@@YAXXZ           04006080 f   MQ2MapAPI.obj
 0001:000053b0       ?MapSelectTarget@@YAXXZ    040063b0 f   MQ2MapAPI.obj
 0001:00005470       ?GenerateLabel@@YAPAU_MAPLABEL@EQUIStructs@@PAU_MAPSPAWN@@K@Z 04006470 f   MQ2MapAPI.obj
 0001:000054e0       ?MapHide@@YAKAAU_SEARCHSPAWN@MQ2Internal@@@Z 040064e0 f   MQ2MapAPI.obj
 0001:00005550       ?dataMapSpawn@@YAHPADAAU_MQ2TypeVar@MQ2Internal@@@Z 04006550 f   MQ2MapAPI.obj
 0001:00005590       ??0?$map@KPAU_MAPSPAWN@@U?$less@K@std@@V?$allocator@U?$pair@$$CBKPAU_MAPSPAWN@@@std@@@3@@std@@QAE@XZ 04006590 f i MQ2MapAPI.obj
 0001:000055b0       ??0?$map@PAU_MAPLABEL@EQUIStructs@@PAU_MAPSPAWN@@U?$less@PAU_MAPLABEL@EQUIStructs@@@std@@V?$allocator@U?$pair@QAU_MAPLABEL@EQUIStructs@@PAU_MAPSPAWN@@@std@@@5@@std@@QAE@XZ 040065b0 f i MQ2MapAPI.obj
 0001:000055d0       ?AddSpawn@@YAPAU_MAPSPAWN@@PAU_SPAWNINFO@EQData@@H@Z 040065d0 f   MQ2MapAPI.obj
 0001:000056a0       ?AddGroundItem@@YAXPAU_GROUNDITEM@EQData@@@Z 040066a0 f   MQ2MapAPI.obj
 0001:00005740       ?MapGenerate@@YAXXZ        04006740 f   MQ2MapAPI.obj
 0001:000057d0       ?MapUpdate@@YAXXZ          040067d0 f   MQ2MapAPI.obj
 0001:00006940       ?MapShow@@YAKAAU_SEARCHSPAWN@MQ2Internal@@@Z 04007940 f   MQ2MapAPI.obj
 0001:00006a60       ?MapFilterSetting@@YAXPAU_SPAWNINFO@EQData@@KPAD@Z 04007a60 f   MQ2MapCommands.obj
 0001:00006de0       ?MapFilters@@YAXPAU_SPAWNINFO@EQData@@PAD@Z 04007de0 f   MQ2MapCommands.obj
 0001:00007230       ?MapHighlightCmd@@YAXPAU_SPAWNINFO@EQData@@PAD@Z 04008230 f   MQ2MapCommands.obj
 0001:00007490       ?MapHideCmd@@YAXPAU_SPAWNINFO@EQData@@PAD@Z 04008490 f   MQ2MapCommands.obj
 0001:000075d0       ?MapShowCmd@@YAXPAU_SPAWNINFO@EQData@@PAD@Z 040085d0 f   MQ2MapCommands.obj
 0001:00007710       ?MapNames@@YAXPAU_SPAWNINFO@EQData@@PAD@Z 04008710 f   MQ2MapCommands.obj
 0001:00007950       ?DescribeCombo@@YAPADK@Z   04008950 f   MQ2MapCommands.obj
 0001:00007a20       ?ParseCombo@@YAKPAD@Z      04008a20 f   MQ2MapCommands.obj
 0001:00007b10       ?MapClickCommand@@YAXPAU_SPAWNINFO@EQData@@PAD@Z 04008b10 f   MQ2MapCommands.obj
 0001:00007da2       _GetPrivateProfileStringA@24 04008da2 f   kernel32:KERNEL32.dll
 0001:00007da8       _GetPrivateProfileIntA@16  04008da8 f   kernel32:KERNEL32.dll
 0001:00007dae       _WritePrivateProfileStringA@16 04008dae f   kernel32:KERNEL32.dll
 0001:00007db4       _DebugSpewAlways           04008db4 f   mq2main:MQ2Main.dll
 0001:00007dba       _RemoveCommand             04008dba f   mq2main:MQ2Main.dll
 0001:00007dc0       _RemoveMQ2Benchmark        04008dc0 f   mq2main:MQ2Main.dll
 0001:00007dc6       _RemoveDetour              04008dc6 f   mq2main:MQ2Main.dll
 0001:00007dcc       _RemoveMQ2Data             04008dcc f   mq2main:MQ2Main.dll
 0001:00007dd2       _AddMQ2Data                04008dd2 f   mq2main:MQ2Main.dll
 0001:00007dd8       _AddDetourf                04008dd8 f   mq2main:MQ2Main.dll
 0001:00007dde       _AddCommand                04008dde f   mq2main:MQ2Main.dll
 0001:00007de4       _AddMQ2Benchmark           04008de4 f   mq2main:MQ2Main.dll
 0001:00007dea       ?GetSpawnByName@EQPlayerManager@EQClasses@@QAEPAVEQPlayer@2@PAD@Z 04008dea f   mq2main:MQ2Main.dll
 0001:00007df0       ?GetClassDesc@CEverQuest@EQClasses@@QAEPADH@Z 04008df0 f   mq2main:MQ2Main.dll
 0001:00007df6       ?IsBodyType@EQPlayer@EQClasses@@QAE_NIHH@Z 04008df6 f   mq2main:MQ2Main.dll
 0001:00007dfc       _SpawnMatchesSearch        04008dfc f   mq2main:MQ2Main.dll
 0001:00007e02       ?GetClassThreeLetterCode@CEverQuest@EQClasses@@QAEPADH@Z 04008e02 f   mq2main:MQ2Main.dll
 0001:00007e08       ?GetRaceDesc@CEverQuest@EQClasses@@QAEPADH@Z 04008e08 f   mq2main:MQ2Main.dll
 0001:00007e0e       _CleanupName               04008e0e f   mq2main:MQ2Main.dll
 0001:00007e14       _ConColor                  04008e14 f   mq2main:MQ2Main.dll
 0001:00007e1a       _HideDoCommand             04008e1a f   mq2main:MQ2Main.dll
 0001:00007e20       ?GetKeyboardFlags@CXWndManager@EQClasses@@QBEIXZ 04008e20 f   mq2main:MQ2Main.dll
 0001:00007e26       _GetFriendlyNameForGroundItem 04008e26 f   mq2main:MQ2Main.dll
 0001:00007e2c       _ExitMQ2Benchmark          04008e2c f   mq2main:MQ2Main.dll
 0001:00007e32       _GetCXStr                  04008e32 f   mq2main:MQ2Main.dll
 0001:00007e38       _EnterMQ2Benchmark         04008e38 f   mq2main:MQ2Main.dll
 0001:00007e3e       _ParseSearchSpawn          04008e3e f   mq2main:MQ2Main.dll
 0001:00007e44       _ClearSearchSpawn          04008e44 f   mq2main:MQ2Main.dll
 0001:00007e4a       _FormatSearchSpawn         04008e4a f   mq2main:MQ2Main.dll
 0001:00007e50       _WriteChatColor            04008e50 f   mq2main:MQ2Main.dll
 0001:00007e56       _SyntaxError               04008e56 f   mq2main:MQ2Main.dll
 0001:00007e5c       _GetNextArg                04008e5c f   mq2main:MQ2Main.dll
 0001:00007e62       _GetArg                    04008e62 f   mq2main:MQ2Main.dll
 0001:00007e68       ??0invalid_argument@std@@QAE@ABV?$basic_string@DU?$char_traits@D@std@@V?$allocator@D@2@@1@@Z 04008e68 f i libcpmt:string.obj
 0001:00007e85       ??1invalid_argument@std@@UAE@XZ 04008e85 f i libcpmt:string.obj
 0001:00007e90       ??_Ginvalid_argument@std@@UAEPAXI@Z 04008e90 f i libcpmt:string.obj
 0001:00007e90       ??_Einvalid_argument@std@@UAEPAXI@Z 04008e90 f i libcpmt:string.obj
 0001:00007eb7       ?_Xlen@_String_base@std@@SAXXZ 04008eb7 f   libcpmt:string.obj
 0001:00007eef       ?_Xran@_String_base@std@@SAXXZ 04008eef f   libcpmt:string.obj
 0001:00007f27       ?_Xinvarg@_String_base@std@@SAXXZ 04008f27 f   libcpmt:string.obj
 0001:00007f5f       ??0invalid_argument@std@@QAE@ABV01@@Z 04008f5f f i libcpmt:string.obj
 0001:00007f7c       _sprintf                   04008f7c f   LIBCMT:sprintf.obj
 0001:00007ff9       __sprintf_l                04008ff9 f   LIBCMT:sprintf.obj
 0001:00008015       _sprintf_s                 04009015 f   LIBCMT:sprintf.obj
 0001:00008033       __sprintf_s_l              04009033 f   LIBCMT:sprintf.obj
 0001:00008052       __snprintf_s               04009052 f   LIBCMT:sprintf.obj
 0001:00008073       __snprintf_s_l             04009073 f   LIBCMT:sprintf.obj
 0001:00008095       __sprintf_p                04009095 f   LIBCMT:sprintf.obj
 0001:000080b3       __sprintf_p_l              040090b3 f   LIBCMT:sprintf.obj
 0001:000080d2       __scprintf                 040090d2 f   LIBCMT:sprintf.obj
 0001:000080e7       __scprintf_p               040090e7 f   LIBCMT:sprintf.obj
 0001:000080fc       __scprintf_l               040090fc f   LIBCMT:sprintf.obj
 0001:00008115       __scprintf_p_l             04009115 f   LIBCMT:sprintf.obj
 0001:0000812e       ??3@YAXPAX@Z               0400912e f   LIBCMT:delete.obj
 0001:00008139       ??0bad_alloc@std@@QAE@XZ   04009139 f i LIBCMT:new.obj
 0001:00008154       ??2@YAPAXI@Z               04009154 f   LIBCMT:new.obj
 0001:000081c0       _memset                    040091c0 f   LIBCMT:memset.obj
 0001:00008240       _strstr                    04009240 f   LIBCMT:strstr.obj
 0001:000082c6       __fpclear                  040092c6 f   LIBCMT:_fpinit_.obj
 0001:000082c7       __cfltcvt_init             040092c7 f   LIBCMT:_fpinit_.obj
 0001:00008327       ___setfflag                04009327 f   LIBCMT:_fpinit_.obj
 0001:0000833c       __fpmath                   0400933c f   LIBCMT:_fpinit_.obj
 0001:00008360       _cos                       04009360 f   LIBCMT:_cos_.obj
 0001:000083a0       __CIcos                    040093a0 f   LIBCMT:_cos_.obj
 0001:000083db       __CIcos_default            040093db f   LIBCMT:_cos_.obj
 0001:000083ef       __cos_default              040093ef     LIBCMT:_cos_.obj
 0001:00008490       _sin                       04009490 f   LIBCMT:_sin_.obj
 0001:000084d0       __CIsin                    040094d0 f   LIBCMT:_sin_.obj
 0001:0000850b       __CIsin_default            0400950b f   LIBCMT:_sin_.obj
 0001:0000851f       __sin_default              0400951f     LIBCMT:_sin_.obj
 0001:000085b9       ??0exception@std@@QAE@XZ   040095b9 f   LIBCMT:stdexcpt.obj
 0001:000085ca       ??0exception@std@@QAE@ABQBD@Z 040095ca f   LIBCMT:stdexcpt.obj
 0001:0000861d       ??0exception@std@@QAE@ABQBDH@Z 0400961d f   LIBCMT:stdexcpt.obj
 0001:0000863a       ??0exception@std@@QAE@ABV01@@Z 0400963a f   LIBCMT:stdexcpt.obj
 0001:00008697       ??4exception@std@@QAEAAV01@ABV01@@Z 04009697 f   LIBCMT:stdexcpt.obj
 0001:000086f2       ??1exception@std@@UAE@XZ   040096f2 f   LIBCMT:stdexcpt.obj
 0001:00008708       ?what@exception@std@@UBEPBDXZ 04009708 f   LIBCMT:stdexcpt.obj
 0001:00008715       ??0bad_cast@std@@QAE@PBD@Z 04009715 f   LIBCMT:stdexcpt.obj
 0001:00008733       ??0bad_cast@std@@QAE@ABV01@@Z 04009733 f   LIBCMT:stdexcpt.obj
 0001:00008750       ??1bad_cast@std@@UAE@XZ    04009750 f   LIBCMT:stdexcpt.obj
 0001:0000875b       ??0bad_typeid@std@@QAE@PBD@Z 0400975b f   LIBCMT:stdexcpt.obj
 0001:00008779       ??0bad_typeid@std@@QAE@ABV01@@Z 04009779 f   LIBCMT:stdexcpt.obj
 0001:00008796       ??1bad_typeid@std@@UAE@XZ  04009796 f   LIBCMT:stdexcpt.obj
 0001:000087a1       ??0__non_rtti_object@std@@QAE@PBD@Z 040097a1 f   LIBCMT:stdexcpt.obj
 0001:000087be       ??0__non_rtti_object@std@@QAE@ABV01@@Z 040097be f   LIBCMT:stdexcpt.obj
 0001:000087db       ??1__non_rtti_object@std@@UAE@XZ 040097db f   LIBCMT:stdexcpt.obj
 0001:000087e6       ??_Gexception@std@@UAEPAXI@Z 040097e6 f i LIBCMT:stdexcpt.obj
 0001:000087e6       ??_Eexception@std@@UAEPAXI@Z 040097e6 f i LIBCMT:stdexcpt.obj
 0001:00008807       ??_Gbad_cast@std@@UAEPAXI@Z 04009807 f i LIBCMT:stdexcpt.obj
 0001:00008807       ??_Ebad_cast@std@@UAEPAXI@Z 04009807 f i LIBCMT:stdexcpt.obj
 0001:0000882e       ??_Gbad_typeid@std@@UAEPAXI@Z 0400982e f i LIBCMT:stdexcpt.obj
 0001:0000882e       ??_Ebad_typeid@std@@UAEPAXI@Z 0400982e f i LIBCMT:stdexcpt.obj
 0001:00008855       ??_G__non_rtti_object@std@@UAEPAXI@Z 04009855 f i LIBCMT:stdexcpt.obj
 0001:00008855       ??_E__non_rtti_object@std@@UAEPAXI@Z 04009855 f i LIBCMT:stdexcpt.obj
 0001:0000887c       ?name@type_info@@QBEPBDPAU__type_info_node@@@Z 0400987c f   LIBCMT:typinfo.obj
 0001:00008890       ??1type_info@@UAE@XZ       04009890 f   LIBCMT:typinfo.obj
 0001:000088a0       ??_Etype_info@@UAEPAXI@Z   040098a0 f i LIBCMT:typinfo.obj
 0001:000088a0       ??_Gtype_info@@UAEPAXI@Z   040098a0 f i LIBCMT:typinfo.obj
 0001:000088c1       ?_name_internal_method@type_info@@QBEPBDPAU__type_info_node@@@Z 040098c1 f   LIBCMT:typinfo.obj
 0001:000088d5       ?_type_info_dtor_internal_method@type_info@@QAEXXZ 040098d5 f   LIBCMT:typinfo.obj
 0001:000088df       ??8type_info@@QBE_NABV0@@Z 040098df f   LIBCMT:typinfo.obj
 0001:000088ff       ??9type_info@@QBE_NABV0@@Z 040098ff f   LIBCMT:typinfo.obj
 0001:00008920       ?before@type_info@@QBEHABV1@@Z 04009920 f   LIBCMT:typinfo.obj
 0001:00008944       ?raw_name@type_info@@QBEPBDXZ 04009944 f   LIBCMT:typinfo.obj
 0001:00008948       ??0type_info@@AAE@ABV0@@Z  04009948 f   LIBCMT:typinfo.obj
 0001:00008953       ??4type_info@@AAEAAV0@ABV0@@Z 04009953 f   LIBCMT:typinfo.obj
 0001:00008958       _memcpy_s                  04009958 f   LIBCMT:memcpy_s.obj
 0001:000089d5       _memmove_s                 040099d5 f   LIBCMT:memmove_s.obj
 0001:00008a32       _V6_HeapAlloc              04009a32 f   LIBCMT:malloc.obj
 0001:00008a81       __heap_alloc               04009a81 f i LIBCMT:malloc.obj
 0001:00008afb       _malloc                    04009afb f   LIBCMT:malloc.obj
 0001:00008c09       __itoa                     04009c09 f   LIBCMT:xtoa.obj
 0001:00008c09       _itoa                      04009c09 f   LIBCMT:xtoa.obj
 0001:00008c33       __ltoa                     04009c33 f   LIBCMT:xtoa.obj
 0001:00008c5a       __ultoa                    04009c5a f   LIBCMT:xtoa.obj
 0001:00008ce3       __i64toa                   04009ce3 f   LIBCMT:xtoa.obj
 0001:00008d16       __ui64toa                  04009d16 f   LIBCMT:xtoa.obj
 0001:00008d33       __initp_misc_invarg        04009d33 f   LIBCMT:invarg.obj
 0001:00008d42       __invoke_watson            04009d42 f   LIBCMT:invarg.obj
 0001:00008e6a       __set_invalid_parameter_handler 04009e6a f   LIBCMT:invarg.obj
 0001:00008e91       __get_invalid_parameter_handler 04009e91 f   LIBCMT:invarg.obj
 0001:00008e9e       ?_invoke_watson@@YAXPBG00II@Z 04009e9e f   LIBCMT:invarg.obj
 0001:00008ea9       __invalid_parameter        04009ea9 f   LIBCMT:invarg.obj
 0001:00008ecf       __invalid_parameter_noinfo 04009ecf f   LIBCMT:invarg.obj
 0001:00008edf       ?_invalid_parameter@@YAXPBG00II@Z 04009edf f   LIBCMT:invarg.obj
 0001:00008eea       __CxxThrowException@8      04009eea f   LIBCMT:throw.obj
 0001:00008f36       ?_JumpToContinuation@@YGXPAXPAUEHRegistrationNode@@@Z 04009f36 f   LIBCMT:_trnsctrl_.obj
 0001:00008f68       ?_CallMemberFunction0@@YGXPAX0@Z 04009f68 f   LIBCMT:_trnsctrl_.obj
 0001:00008f6f       ?_CallMemberFunction1@@YGXPAX00@Z 04009f6f f   LIBCMT:_trnsctrl_.obj
 0001:00008f76       ?_CallMemberFunction2@@YGXPAX00H@Z 04009f76 f   LIBCMT:_trnsctrl_.obj
 0001:00008f7d       ?_UnwindNestedFrames@@YGXPAUEHRegistrationNode@@PAUEHExceptionRecord@@@Z 04009f7d f   LIBCMT:_trnsctrl_.obj
 0001:00008fd1       ___CxxFrameHandler         04009fd1 f   LIBCMT:_trnsctrl_.obj
 0001:00009007       ___CxxFrameHandler3        0400a007 f   LIBCMT:_trnsctrl_.obj
 0001:0000903d       ___CxxFrameHandler2        0400a03d f   LIBCMT:_trnsctrl_.obj
 0001:00009073       ___CxxLongjmpUnwind@4      0400a073 f   LIBCMT:_trnsctrl_.obj
 0001:000090c5       ?_CallSETranslator@@YAHPAUEHExceptionRecord@@PAUEHRegistrationNode@@PAX2PBU_s_FuncInfo@@H1@Z 0400a0c5 f   LIBCMT:_trnsctrl_.obj
 0001:0000923b       ?_GetRangeOfTrysToCheck@@YAPBU_s_TryBlockMapEntry@@PBU_s_FuncInfo@@HHPAI1@Z 0400a23b f   LIBCMT:_trnsctrl_.obj
 0001:000092b0       __CreateFrameInfo          0400a2b0 f   LIBCMT:_trnsctrl_.obj
 0001:000092dc       __IsExceptionObjectToBeDestroyed 0400a2dc f   LIBCMT:_trnsctrl_.obj
 0001:00009303       __FindAndUnlinkFrame       0400a303 f   LIBCMT:_trnsctrl_.obj
 0001:00009355       ?_CallCatchBlock2@@YAPAXPAUEHRegistrationNode@@PBU_s_FuncInfo@@PAXHK@Z 0400a355 f   LIBCMT:_trnsctrl_.obj
 0001:000093b5       _free                      0400a3b5 f   LIBCMT:free.obj
 0001:00009450       _memcpy                    0400a450 f   LIBCMT:memcpy.obj
 0001:0000986f       ___onexitinit              0400a86f f   LIBCMT:onexit.obj
 0001:000098a0       __onexit                   0400a8a0 f   LIBCMT:onexit.obj
 0001:000098dc       _atexit                    0400a8dc f   LIBCMT:onexit.obj
 0001:000098f3       _atol                      0400a8f3 f   LIBCMT:atox.obj
 0001:00009909       __atol_l                   0400a909 f   LIBCMT:atox.obj
 0001:00009922       _atoi                      0400a922 f   LIBCMT:atox.obj
 0001:0000992d       __atoi_l                   0400a92d f   LIBCMT:atox.obj
 0001:00009938       __atoi64                   0400a938 f   LIBCMT:atox.obj
 0001:0000994e       __atoi64_l                 0400a94e f   LIBCMT:atox.obj
 0001:00009970       __alloca_probe             0400a970     LIBCMT:chkstk.obj
 0001:00009970       __chkstk                   0400a970 f   LIBCMT:chkstk.obj
 0001:0000999b       _strtok                    0400a99b f   LIBCMT:strtok.obj
 0001:00009a5c       __CRT_INIT@12              0400aa5c f   LIBCMT:dllcrt0.obj
 0001:00009c87       __DllMainCRTStartup@12     0400ac87 f   LIBCMT:dllcrt0.obj
 0001:00009cb0       _strlen                    0400acb0 f   LIBCMT:strlen.obj
 0001:00009d3b       @__security_check_cookie@4 0400ad3b f   LIBCMT:secchk.obj
 0001:00009d4a       __EH_prolog3               0400ad4a f   LIBCMT:ehprolg3.obj
 0001:00009d7d       __EH_prolog3_catch         0400ad7d f   LIBCMT:ehprolg3.obj
 0001:00009db3       __EH_prolog3_GS            0400adb3 f   LIBCMT:ehprolg3.obj
 0001:00009de9       __EH_prolog3_catch_GS      0400ade9 f   LIBCMT:ehprolg3.obj
 0001:00009e22       __EH_epilog3               0400ae22 f   LIBCMT:ehprolg3.obj
 0001:00009e36       __EH_epilog3_GS            0400ae36 f   LIBCMT:ehprolg3.obj
 0001:00009e45       __EH_epilog3_catch_GS      0400ae45 f   LIBCMT:ehprolg3.obj
 0001:00009e54       __flsbuf                   0400ae54 f   LIBCMT:_flsbuf.obj
 0001:00009fb8       ??0_LocaleUpdate@@QAE@PAUlocaleinfo_struct@@@Z 0400afb8 f i LIBCMT:output.obj
 0001:0000a03f       ??1_LocaleUpdate@@QAE@XZ   0400b03f f i LIBCMT:output.obj
 0001:0000a04d       ?GetLocaleT@_LocaleUpdate@@QAEPAUlocaleinfo_struct@@XZ 0400b04d f i LIBCMT:output.obj
 0001:0000a0f6       _get_int_arg               0400b0f6 f i LIBCMT:output.obj
 0001:0000a108       _get_int64_arg             0400b108 f i LIBCMT:output.obj
 0001:0000a11d       _get_short_arg             0400b11d f i LIBCMT:output.obj
 0001:0000a130       __output_l                 0400b130 f   LIBCMT:output.obj
 0001:0000acc8       __get_errno_from_oserr     0400bcc8 f   LIBCMT:dosmap.obj
 0001:0000ad0a       __errno                    0400bd0a f   LIBCMT:dosmap.obj
 0001:0000ad1d       ___doserrno                0400bd1d f   LIBCMT:dosmap.obj
 0001:0000ad30       __dosmaperr                0400bd30 f   LIBCMT:dosmap.obj
 0001:0000ad53       __set_errno                0400bd53 f   LIBCMT:dosmap.obj
 0001:0000ad74       __get_errno                0400bd74 f   LIBCMT:dosmap.obj
 0001:0000ada3       __set_doserrno             0400bda3 f   LIBCMT:dosmap.obj
 0001:0000adc4       __get_doserrno             0400bdc4 f   LIBCMT:dosmap.obj
 0001:0000adf3       __vsprintf_l               0400bdf3 f   LIBCMT:vsprintf.obj
 0001:0000ae71       _vsprintf                  0400be71 f   LIBCMT:vsprintf.obj
 0001:0000ae8b       __vscprintf_helper         0400be8b f   LIBCMT:vsprintf.obj
 0001:0000aee2       __vscprintf                0400bee2 f   LIBCMT:vsprintf.obj
 0001:0000aefe       __vscprintf_l              0400befe f   LIBCMT:vsprintf.obj
 0001:0000af1b       __vscprintf_p              0400bf1b f   LIBCMT:vsprintf.obj
 0001:0000af37       __vscprintf_p_l            0400bf37 f   LIBCMT:vsprintf.obj
 0001:0000af54       __vsnprintf_helper         0400bf54 f   LIBCMT:vsnprnc.obj
 0001:0000b020       __vsnprintf_c              0400c020 f   LIBCMT:vsnprnc.obj
 0001:0000b049       __vsnprintf_c_l            0400c049 f   LIBCMT:vsnprnc.obj
 0001:0000b073       __vsprintf_s_l             0400c073 f   LIBCMT:vsnprnc.obj
 0001:0000b0fb       _vsprintf_s                0400c0fb f   LIBCMT:vsnprnc.obj
 0001:0000b118       __vsnprintf_s_l            0400c118 f   LIBCMT:vsnprnc.obj
 0001:0000b21f       __vsnprintf_s              0400c21f f   LIBCMT:vsnprnc.obj
 0001:0000b23f       __vsprintf_p               0400c23f f   LIBCMT:vsnprnc.obj
 0001:0000b268       __vsprintf_p_l             0400c268 f   LIBCMT:vsnprnc.obj
 0001:0000b292       __initp_heap_handler       0400c292 f   LIBCMT:handler.obj
 0001:0000b2a1       ?_set_new_handler@@YAP6AHI@ZP6AHI@Z@Z 0400c2a1 f   LIBCMT:handler.obj
 0001:0000b2d7       ?_set_new_handler@@YAP6AHI@ZH@Z 0400c2d7 f   LIBCMT:handler.obj
 0001:0000b2e0       ?_query_new_handler@@YAP6AHI@ZXZ 0400c2e0 f   LIBCMT:handler.obj
 0001:0000b2ed       __callnewh                 0400c2ed f   LIBCMT:handler.obj
 0001:0000b36c       __VEC_memzero              0400c36c f   LIBCMT:p4_memset.obj
 0001:0000b44b       __get_sse2_info            0400c44b f   LIBCMT:cpu_disp.obj
 0001:0000b4ad       ___sse2_available_init     0400c4ad f   LIBCMT:cpu_disp.obj
 0001:0000b4d0       _strchr                    0400c4d0 f   LIBCMT:strchr.obj
 0001:0000b4d6       ___from_strstr_to_strchr   0400c4d6     LIBCMT:strchr.obj
 0001:0000b58e       ?strrchr@@YAPADPADH@Z      0400c58e f i LIBCMT:cvt.obj
 0001:0000b599       __invoke_watson_if_error   0400c599 f i LIBCMT:cvt.obj
 0001:0000b5bd       __forcdecpt_l              0400c5bd f   LIBCMT:cvt.obj
 0001:0000b630       __cropzeros_l              0400c630 f   LIBCMT:cvt.obj
 0001:0000b6b2       __positive                 0400c6b2 f   LIBCMT:cvt.obj
 0001:0000b6ce       __fassign_l                0400c6ce f   LIBCMT:cvt.obj
 0001:0000b710       __fassign                  0400c710 f   LIBCMT:cvt.obj
 0001:0000b749       __forcdecpt                0400c749 f   LIBCMT:cvt.obj
 0001:0000b75c       __cropzeros                0400c75c f   LIBCMT:cvt.obj
 0001:0000b8de       __cftoe_l                  0400c8de f   LIBCMT:cvt.obj
 0001:0000b9ae       __cftoe                    0400c9ae f   LIBCMT:cvt.obj
 0001:0000b9ce       __cftoa_l                  0400c9ce f   LIBCMT:cvt.obj
 0001:0000bd41       __cftoa                    0400cd41 f   LIBCMT:cvt.obj
 0001:0000be58       __cftof_l                  0400ce58 f   LIBCMT:cvt.obj
 0001:0000bf13       __cftof                    0400cf13 f   LIBCMT:cvt.obj
 0001:0000bf30       __cftog_l                  0400cf30 f   LIBCMT:cvt.obj
 0001:0000c02a       __cftog                    0400d02a f   LIBCMT:cvt.obj
 0001:0000c04a       __cfltcvt_l                0400d04a f   LIBCMT:cvt.obj
 0001:0000c0d2       __cfltcvt                  0400d0d2 f   LIBCMT:cvt.obj
 0001:0000c0f5       __initp_misc_cfltcvt_tab   0400d0f5 f   LIBCMT:cmiscdat.obj
 0001:0000c116       __setdefaultprecision      0400d116 f   LIBCMT:fp8.obj
 0001:0000c141       __ms_p5_test_fdiv          0400d141 f   LIBCMT:_testfdiv_.obj
 0001:0000c17f       __ms_p5_mp_test_fdiv       0400d17f f   LIBCMT:_testfdiv_.obj
 0001:0000c1a8       __sse2_mathfcns_init       0400d1a8 f   LIBCMT:_mathfcns_.obj
 0001:0000c1bc       __set_SSE2_enable          0400d1bc f   LIBCMT:_mathfcns_.obj
 0001:0000c1e0       __CIcos_pentium4           0400d1e0 f   LIBCMT:_cos_pentium4_.obj
 0001:0000c1f8       __cos_pentium4             0400d1f8     LIBCMT:_cos_pentium4_.obj
 0001:0000c390       __trandisp1                0400d390 f   LIBCMT:_87disp_.obj
 0001:0000c3f7       __trandisp2                0400d3f7 f   LIBCMT:_87disp_.obj
 0001:0000c483       __rttospopde               0400d483     LIBCMT:_87disp_.obj
 0001:0000c488       __rttospop                 0400d488     LIBCMT:_87disp_.obj
 0001:0000c48a       __rtnospop                 0400d48a     LIBCMT:_87disp_.obj
 0001:0000c48c       __rttosnpop                0400d48c     LIBCMT:_87disp_.obj
 0001:0000c48d       __rtnospopde               0400d48d     LIBCMT:_87disp_.obj
 0001:0000c494       __rtzeropop                0400d494     LIBCMT:_87disp_.obj
 0001:0000c496       __rtzeronpop               0400d496     LIBCMT:_87disp_.obj
 0001:0000c49b       __rtonepop                 0400d49b     LIBCMT:_87disp_.obj
 0001:0000c49d       __rtonenpop                0400d49d     LIBCMT:_87disp_.obj
 0001:0000c4a2       __tosnan1                  0400d4a2     LIBCMT:_87disp_.obj
 0001:0000c4cd       __nosnan2                  0400d4cd     LIBCMT:_87disp_.obj
 0001:0000c4cf       __tosnan2                  0400d4cf     LIBCMT:_87disp_.obj
 0001:0000c4f7       __nan2                     0400d4f7     LIBCMT:_87disp_.obj
 0001:0000c536       __rtindfpop                0400d536     LIBCMT:_87disp_.obj
 0001:0000c538       __rtindfnpop               0400d538     LIBCMT:_87disp_.obj
 0001:0000c549       __rttosnpopde              0400d549     LIBCMT:_87disp_.obj
 0001:0000c553       __rtchsifneg               0400d553     LIBCMT:_87disp_.obj
 0001:0000c560       __twoToTOS                 0400d560 f   LIBCMT:_common_.obj
 0001:0000c575       __load_CW                  0400d575 f   LIBCMT:_common_.obj
 0001:0000c58c       __convertTOStoQNaN         0400d58c f   LIBCMT:_common_.obj
 0001:0000c5a5       __fload_withFB             0400d5a5 f   LIBCMT:_common_.obj
 0001:0000c5e8       __checkTOS_withFB          0400d5e8 f   LIBCMT:_common_.obj
 0001:0000c5fe       __fast_exit                0400d5fe f   LIBCMT:_common_.obj
 0001:0000c60b       __math_exit                0400d60b f   LIBCMT:_common_.obj
 0001:0000c635       __check_overflow_exit      0400d635 f   LIBCMT:_common_.obj
 0001:0000c649       __check_range_exit         0400d649 f   LIBCMT:_common_.obj
 0001:0000c6f0       __startTwoArgErrorHandling 0400d6f0 f   LIBCMT:_genexcep_.obj
 0001:0000c707       __startOneArgErrorHandling 0400d707 f   LIBCMT:_genexcep_.obj
 0001:0000c750       __CIsin_pentium4           0400d750 f   LIBCMT:_sin_pentium4_.obj
 0001:0000c768       __sin_pentium4             0400d768     LIBCMT:_sin_pentium4_.obj
 0001:0000c918       _strcpy_s                  0400d918 f   LIBCMT:strcpy_s.obj
 0001:0000c980       ?_Type_info_dtor@type_info@@CAXPAV1@@Z 0400d980 f   LIBCMT:typname.obj
 0001:0000c9f0       ?_Name_base@type_info@@CAPBDPBV1@PAU__type_info_node@@@Z 0400d9f0 f   LIBCMT:typname.obj
 0001:0000cae5       ?_Type_info_dtor_internal@type_info@@CAXPAV1@@Z 0400dae5 f   LIBCMT:typname.obj
 0001:0000cb55       ___unDNameHelper           0400db55 f   LIBCMT:typname.obj
 0001:0000cb88       ?_Name_base_internal@type_info@@CAPBDPBV1@PAU__type_info_node@@@Z 0400db88 f   LIBCMT:typname.obj
 0001:0000cc97       ___clean_type_info_names_internal 0400dc97 f   LIBCMT:typname.obj
 0001:0000ccf0       _strcmp                    0400dcf0 f   LIBCMT:strcmp.obj
 0001:0000cd80       _memmove                   0400dd80 f   LIBCMT:memmove.obj
 0001:0000d0e5       __mtinitlocks              0400e0e5 f   LIBCMT:mlock.obj
 0001:0000d130       __mtdeletelocks            0400e130 f   LIBCMT:mlock.obj
 0001:0000d187       __unlock                   0400e187 f   LIBCMT:mlock.obj
 0001:0000d19e       __lockerr_exit             0400e19e f   LIBCMT:mlock.obj
 0001:0000d1b6       __mtinitlocknum            0400e1b6 f   LIBCMT:mlock.obj
 0001:0000d279       __lock                     0400e279 f   LIBCMT:mlock.obj
 0001:0000d2ac       __get_sbh_threshold        0400e2ac f   LIBCMT:sbheap.obj
 0001:0000d2cd       __set_amblksiz             0400e2cd f   LIBCMT:sbheap.obj
 0001:0000d318       __get_amblksiz             0400e318 f   LIBCMT:sbheap.obj
 0001:0000d359       ___sbh_heap_init           0400e359 f   LIBCMT:sbheap.obj
 0001:0000d3a7       ___sbh_find_block          0400e3a7 f   LIBCMT:sbheap.obj
 0001:0000d3d7       ___sbh_free_block          0400e3d7 f   LIBCMT:sbheap.obj
 0001:0000d6ed       ___sbh_alloc_new_region    0400e6ed f   LIBCMT:sbheap.obj
 0001:0000d79d       ___sbh_alloc_new_group     0400e79d f   LIBCMT:sbheap.obj
 0001:0000d8a5       ___sbh_resize_block        0400e8a5 f   LIBCMT:sbheap.obj
 0001:0000db86       ___sbh_heapmin             0400eb86 f   LIBCMT:sbheap.obj
 0001:0000dc53       ___sbh_heap_check          0400ec53 f   LIBCMT:sbheap.obj
 0001:0000df37       __set_sbh_threshold        0400ef37 f   LIBCMT:sbheap.obj
 0001:0000dfe6       ___sbh_alloc_block         0400efe6 f   LIBCMT:sbheap.obj
 0001:0000e2cc       __SEH_prolog4              0400f2cc f   LIBCMT:sehprolg4.obj
 0001:0000e311       __SEH_epilog4              0400f311 f   LIBCMT:sehprolg4.obj
 0001:0000e360       __except_handler4          0400f360 f   LIBCMT:chandler4.obj
 0001:0000e4ec       ___heap_select             0400f4ec f   LIBCMT:heapinit.obj
 0001:0000e4f0       __heap_init                0400f4f0 f   LIBCMT:heapinit.obj
 0001:0000e520       __heap_term                0400f520 f   LIBCMT:heapinit.obj
 0001:0000e594       __get_heap_handle          0400f594 f   LIBCMT:heapinit.obj
 0001:0000e59a       __crt_waiting_on_module_handle 0400f59a f   LIBCMT:crt0dat.obj
 0001:0000e5ca       __amsg_exit                0400f5ca f   LIBCMT:crt0dat.obj
 0001:0000e5f3       ___crtCorExitProcess       0400f5f3 f   LIBCMT:crt0dat.obj
 0001:0000e61e       ___crtExitProcess          0400f61e f   LIBCMT:crt0dat.obj
 0001:0000e636       __lockexit                 0400f636 f   LIBCMT:crt0dat.obj
 0001:0000e63f       __unlockexit               0400f63f f   LIBCMT:crt0dat.obj
 0001:0000e665       __initterm_e               0400f665 f   LIBCMT:crt0dat.obj
 0001:0000e689       __get_wpgmptr              0400f689 f   LIBCMT:crt0dat.obj
 0001:0000e6c5       __get_pgmptr               0400f6c5 f   LIBCMT:crt0dat.obj
 0001:0000e701       __cinit                    0400f701 f   LIBCMT:crt0dat.obj
 0001:0000e8b2       _exit                      0400f8b2 f   LIBCMT:crt0dat.obj
 0001:0000e8c8       __exit                     0400f8c8 f   LIBCMT:crt0dat.obj
 0001:0000e8de       __cexit                    0400f8de f   LIBCMT:crt0dat.obj
 0001:0000e8ed       __c_exit                   0400f8ed f   LIBCMT:crt0dat.obj
 0001:0000e8fc       __init_pointers            0400f8fc f   LIBCMT:crt0dat.obj
 0001:0000e94a       __NMSG_WRITE               0400f94a f   LIBCMT:crt0msg.obj
 0001:0000eaf5       __GET_RTERRMSG             0400faf5 f   LIBCMT:crt0msg.obj
 0001:0000eb1b       __FF_MSGBANNER             0400fb1b f   LIBCMT:crt0msg.obj
 0001:0000eb60       __aulldvrm                 0400fb60 f   LIBCMT:ulldvrm.obj
 0001:0000ebf5       __crt_debugger_hook        0400fbf5 f   LIBCMT:dbghook.obj
 0001:0000ebfd       __crt_wait_module_handle   0400fbfd f i LIBCMT:tidtable.obj
 0001:0000ec17       __encode_pointer           0400fc17 f   LIBCMT:tidtable.obj
 0001:0000ec89       __encoded_null             0400fc89 f   LIBCMT:tidtable.obj
 0001:0000ec92       __decode_pointer           0400fc92 f   LIBCMT:tidtable.obj
 0001:0000ed04       ___crtTlsAlloc@4           0400fd04 f   LIBCMT:tidtable.obj
 0001:0000ed0d       ___fls_getvalue@4          0400fd0d f   LIBCMT:tidtable.obj
 0001:0000ed27       ___get_flsindex            0400fd27 f   LIBCMT:tidtable.obj
 0001:0000ed2d       ___set_flsgetvalue         0400fd2d f   LIBCMT:tidtable.obj
 0001:0000ed61       ___fls_setvalue@8          0400fd61 f   LIBCMT:tidtable.obj
 0001:0000ed7e       __mtterm                   0400fd7e f   LIBCMT:tidtable.obj
 0001:0000edbb       __initptd                  0400fdbb f   LIBCMT:tidtable.obj
 0001:0000eea2       __getptd_noexit            0400fea2 f   LIBCMT:tidtable.obj
 0001:0000ef1b       __getptd                   0400ff1b f   LIBCMT:tidtable.obj
 0001:0000ef35       __freefls@4                0400ff35 f   LIBCMT:tidtable.obj
 0001:0000f064       __freeptd                  04010064 f   LIBCMT:tidtable.obj
 0001:0000f0d2       ___threadid                040100d2 f   LIBCMT:tidtable.obj
 0001:0000f0d8       ___threadhandle            040100d8 f   LIBCMT:tidtable.obj
 0001:0000f0de       __mtinit                   040100de f   LIBCMT:tidtable.obj
 0001:0000f26b       ??0bad_exception@std@@QAE@PBD@Z 0401026b f i LIBCMT:frame.obj
 0001:0000f289       ??1bad_exception@std@@UAE@XZ 04010289 f i LIBCMT:frame.obj
 0001:0000f294       ??_Gbad_exception@std@@UAEPAXI@Z 04010294 f i LIBCMT:frame.obj
 0001:0000f294       ??_Ebad_exception@std@@UAEPAXI@Z 04010294 f i LIBCMT:frame.obj
 0001:0000f2bb       ___TypeMatch               040102bb f   LIBCMT:frame.obj
 0001:0000f31a       ___FrameUnwindFilter       0401031a f   LIBCMT:frame.obj
 0001:0000f363       ___FrameUnwindToState      04010363 f   LIBCMT:frame.obj
 0001:0000f489       ___DestructExceptionObject 04010489 f   LIBCMT:frame.obj
 0001:0000f4de       ___AdjustPointer           040104de f   LIBCMT:frame.obj
 0001:0000f507       ?__uncaught_exception@@YA_NXZ 04010507 f   LIBCMT:frame.obj
 0001:0000f51a       ___CxxRegisterExceptionObject 0401051a f   LIBCMT:frame.obj
 0001:0000f5d1       ___CxxDetectRethrow        040105d1 f   LIBCMT:frame.obj
 0001:0000f623       ___CxxUnregisterExceptionObject 04010623 f   LIBCMT:frame.obj
 0001:0000f762       ___CxxQueryExceptionSize   04010762 f   LIBCMT:frame.obj
 0001:0000f766       ___CxxCallUnwindDtor       04010766 f   LIBCMT:frame.obj
 0001:0000f798       ___CxxCallUnwindDelDtor    04010798 f   LIBCMT:frame.obj
 0001:0000f7cb       ___CxxCallUnwindStdDelDtor 040107cb f   LIBCMT:frame.obj
 0001:0000f7fd       ___CxxCallUnwindVecDtor    040107fd f   LIBCMT:frame.obj
 0001:0000f92e       ?_is_exception_typeof@@YAHABVtype_info@@PAU_EXCEPTION_POINTERS@@@Z 0401092e f   LIBCMT:frame.obj
 0001:0000fb50       ___BuildCatchObjectHelper  04010b50 f   LIBCMT:frame.obj
 0001:0000fccf       ___BuildCatchObject        04010ccf f   LIBCMT:frame.obj
 0001:0000fd61       ___CxxExceptionFilter      04010d61 f   LIBCMT:frame.obj
 0001:0001034f       ??0bad_exception@std@@QAE@ABV01@@Z 0401134f f i LIBCMT:frame.obj
 0001:0001036c       ___InternalCxxFrameHandler 0401136c f   LIBCMT:frame.obj
 0001:00010452       ?terminate@@YAXXZ          04011452 f   LIBCMT:hooks.obj
 0001:0001048b       ?unexpected@@YAXXZ         0401148b f   LIBCMT:hooks.obj
 0001:0001049e       ?_inconsistency@@YAXXZ     0401149e f   LIBCMT:hooks.obj
 0001:000104d6       __initp_eh_hooks           040114d6 f   LIBCMT:hooks.obj
 0001:000104f0       __CallSettingFrame@12      040114f0 f   LIBCMT:lowhelpr.obj
 0001:00010517       __NLG_Return               04011517     LIBCMT:lowhelpr.obj
 0001:000105c3       __VEC_memcpy               040115c3 f   LIBCMT:p4_memcpy.obj
 0001:000106a6       _wait_a_bit                040116a6 f i LIBCMT:crtheap.obj
 0001:000106cc       __set_malloc_crt_max_wait  040116cc f   LIBCMT:crtheap.obj
 0001:000106e1       __malloc_crt               040116e1 f   LIBCMT:crtheap.obj
 0001:00010726       __calloc_crt               04011726 f   LIBCMT:crtheap.obj
 0001:00010772       __realloc_crt              04011772 f   LIBCMT:crtheap.obj
 0001:000107c0       __recalloc_crt             040117c0 f   LIBCMT:crtheap.obj
 0001:00010812       __msize                    04011812 f   LIBCMT:msize.obj
 0001:00010ae4       _strtol                    04011ae4 f   LIBCMT:strtol.obj
 0001:00010b0f       __strtol_l                 04011b0f f   LIBCMT:strtol.obj
 0001:00010b2c       _strtoul                   04011b2c f   LIBCMT:strtol.obj
 0001:00010b58       __strtoul_l                04011b58 f   LIBCMT:strtol.obj
 0001:00010e0c       __strtoi64                 04011e0c f   LIBCMT:strtoq.obj
 0001:00010e37       __strtoi64_l               04011e37 f   LIBCMT:strtoq.obj
 0001:00010e54       __strtoui64                04011e54 f   LIBCMT:strtoq.obj
 0001:00010e80       __strtoui64_l              04011e80 f   LIBCMT:strtoq.obj
 0001:00010e9d       __ioinit                   04011e9d f   LIBCMT:ioinit.obj
 0001:000110f1       __ioterm                   040120f1 f   LIBCMT:ioinit.obj
 0001:0001113f       __setenvp                  0401213f f   LIBCMT:stdenvp.obj
 0001:0001121d       __set_pgmptr               0401221d f i LIBCMT:stdargv.obj
 0001:000113c6       __setargv                  040123c6 f   LIBCMT:stdargv.obj
 0001:00011481       ___crtGetEnvironmentStringsA 04012481 f   LIBCMT:a_env.obj
 0001:000115b8       __RTC_Initialize           040125b8 f   LIBCMT:_initsect_.obj
 0001:000115de       __RTC_Terminate            040125de f   LIBCMT:_initsect_.obj
 0001:00011604       __initp_misc_winxfltr      04012604 f   LIBCMT:winxfltr.obj
 0001:0001163a       __XcptFilter               0401263a f   LIBCMT:winxfltr.obj
 0001:0001179a       ___CppXcptFilter           0401279a f   LIBCMT:winxfltr.obj
 0001:000117ba       ___security_init_cookie    040127ba f   LIBCMT:gs_support.obj
 0001:00011850       ___report_gsfailure        04012850 f   LIBCMT:gs_report.obj
 0001:00011956       __lseeki64_nolock          04012956 f   LIBCMT:lseeki64.obj
 0001:000119db       __lseeki64                 040129db f   LIBCMT:lseeki64.obj
 0001:00011af4       __write_nolock             04012af4 f   LIBCMT:write.obj
 0001:00012227       __write                    04013227 f   LIBCMT:write.obj
 0001:00012303       __getbuf                   04013303 f   LIBCMT:_getbuf.obj
 0001:0001234c       __isatty                   0401334c f   LIBCMT:isatty.obj
 0001:000123b0       ___iob_func                040133b0 f   LIBCMT:_file.obj
 0001:000123b6       ___initstdio               040133b6 f   LIBCMT:_file.obj
 0001:00012467       ___endstdio                04013467 f   LIBCMT:_file.obj
 0001:00012487       __lock_file                04013487 f   LIBCMT:_file.obj
 0001:000124c8       __lock_file2               040134c8 f   LIBCMT:_file.obj
 0001:000124fa       __unlock_file              040134fa f   LIBCMT:_file.obj
 0001:00012536       __unlock_file2             04013536 f   LIBCMT:_file.obj
 0001:00012565       __fileno                   04013565 f   LIBCMT:fileno.obj
 0001:000127bd       ___updatetmbcinfo          040137bd f   LIBCMT:mbctype.obj
 0001:000128dd       __setmbcp_nolock           040138dd f   LIBCMT:mbctype.obj
 0001:00012ac2       __getmbcp                  04013ac2 f   LIBCMT:mbctype.obj
 0001:00012b00       __setmbcp                  04013b00 f   LIBCMT:mbctype.obj
 0001:00012c9a       ___initmbctable            04013c9a f   LIBCMT:mbctype.obj
 0001:00012cb8       ____setlc_active_func      04013cb8 f   LIBCMT:setlocal.obj
 0001:00012cbe       ____unguarded_readlc_active_add_func 04013cbe f   LIBCMT:setlocal.obj
 0001:00012cc4       ___freetlocinfo            04013cc4 f   LIBCMT:setlocal.obj
 0001:00012e0d       ___addlocaleref            04013e0d f   LIBCMT:setlocal.obj
 0001:00012e9c       ___removelocaleref         04013e9c f   LIBCMT:setlocal.obj
 0001:00012f99       ___updatetlocinfo          04013f99 f   LIBCMT:setlocal.obj
 0001:0001300f       __configthreadlocale       0401400f f   LIBCMT:setlocal.obj
 0001:000130cc       __free_locale              040140cc f   LIBCMT:setlocal.obj
 0001:0001318e       ___free_locale             0401418e f   LIBCMT:setlocal.obj
 0001:00013199       __get_current_locale       04014199 f   LIBCMT:setlocal.obj
 0001:00013248       ___get_current_locale      04014248 f   LIBCMT:setlocal.obj
 0001:0001324d       ___init_dummy              0401424d f   LIBCMT:setlocal.obj
 0001:00013250       __strcats                  04014250 f   LIBCMT:setlocal.obj
 0001:00013290       ___lc_strtolc              04014290 f   LIBCMT:setlocal.obj
 0001:000133b9       ___lc_lctostr              040143b9 f   LIBCMT:setlocal.obj
 0001:000135a3       __expandlocale             040145a3 f   LIBCMT:setlocal.obj
 0001:00013cf1       __create_locale            04014cf1 f   LIBCMT:setlocal.obj
 0001:00013de6       ___create_locale           04014de6 f   LIBCMT:setlocal.obj
 0001:00013df1       _setlocale                 04014df1 f   LIBCMT:setlocal.obj
 0001:00013f61       _printf                    04014f61 f   LIBCMT:printf.obj
 0001:00014010       __printf_l                 04015010 f   LIBCMT:printf.obj
 0001:00014029       __printf_s_l               04015029 f   LIBCMT:printf.obj
 0001:00014042       _printf_s                  04015042 f   LIBCMT:printf.obj
 0001:0001405a       __printf_p_l               0401505a f   LIBCMT:printf.obj
 0001:00014073       __printf_p                 04015073 f   LIBCMT:printf.obj
 0001:0001408b       __set_printf_count_output  0401508b f   LIBCMT:printf.obj
 0001:000140b5       __get_printf_count_output  040150b5 f   LIBCMT:printf.obj
 0001:000140cb       __wctomb_s_l               040150cb f   LIBCMT:wctomb.obj
 0001:00014237       _wctomb_s                  04015237 f   LIBCMT:wctomb.obj
 0001:00014254       __wctomb_l                 04015254 f   LIBCMT:wctomb.obj
 0001:000142a5       _wctomb                    040152a5 f   LIBCMT:wctomb.obj
 0001:000142d7       __isleadbyte_l             040152d7 f i LIBCMT:_wctype.obj
 0001:0001430f       _isleadbyte                0401530f f i LIBCMT:_wctype.obj
 0001:00014322       __iswalpha_l               04015322 f i LIBCMT:_wctype.obj
 0001:0001433c       _iswalpha                  0401533c f i LIBCMT:_wctype.obj
 0001:00014352       __iswupper_l               04015352 f i LIBCMT:_wctype.obj
 0001:00014369       _iswupper                  04015369 f i LIBCMT:_wctype.obj
 0001:0001437c       __iswlower_l               0401537c f i LIBCMT:_wctype.obj
 0001:00014393       _iswlower                  04015393 f i LIBCMT:_wctype.obj
 0001:000143a6       __iswdigit_l               040153a6 f i LIBCMT:_wctype.obj
 0001:000143bd       _iswdigit                  040153bd f i LIBCMT:_wctype.obj
 0001:000143d0       __iswxdigit_l              040153d0 f i LIBCMT:_wctype.obj
 0001:000143ea       _iswxdigit                 040153ea f i LIBCMT:_wctype.obj
 0001:00014400       __iswspace_l               04015400 f i LIBCMT:_wctype.obj
 0001:00014417       _iswspace                  04015417 f i LIBCMT:_wctype.obj
 0001:0001442a       __iswpunct_l               0401542a f i LIBCMT:_wctype.obj
 0001:00014441       _iswpunct                  04015441 f i LIBCMT:_wctype.obj
 0001:00014454       __iswalnum_l               04015454 f i LIBCMT:_wctype.obj
 0001:0001446e       _iswalnum                  0401546e f i LIBCMT:_wctype.obj
 0001:00014484       __iswprint_l               04015484 f i LIBCMT:_wctype.obj
 0001:0001449e       _iswprint                  0401549e f i LIBCMT:_wctype.obj
 0001:000144b4       __iswgraph_l               040154b4 f i LIBCMT:_wctype.obj
 0001:000144ce       _iswgraph                  040154ce f i LIBCMT:_wctype.obj
 0001:000144e4       __iswcntrl_l               040154e4 f i LIBCMT:_wctype.obj
 0001:000144fb       _iswcntrl                  040154fb f i LIBCMT:_wctype.obj
 0001:0001450e       _iswascii                  0401550e f i LIBCMT:_wctype.obj
 0001:00014522       __iswcsym_l                04015522 f i LIBCMT:_wctype.obj
 0001:0001454c       ___iswcsym                 0401554c f i LIBCMT:_wctype.obj
 0001:00014572       __iswcsymf_l               04015572 f i LIBCMT:_wctype.obj
 0001:0001459c       ___iswcsymf                0401559c f i LIBCMT:_wctype.obj
 0001:000145c2       __validate_param_reuseA    040155c2 f   LIBCMT:outputp.obj
 0001:00014793       _get_crtdouble_arg         04015793 f i LIBCMT:outputp.obj
 0001:000147a8       __output_p_l               040157a8 f   LIBCMT:outputp.obj
 0001:00015b0e       __output_s_l               04016b0e f   LIBCMT:outputs.obj
 0001:000166e0       _strrchr                   040176e0 f   LIBCMT:strrchr.obj
 0001:0001670d       __isalpha_l                0401770d f i LIBCMT:_ctype.obj
 0001:00016763       _isalpha                   04017763 f i LIBCMT:_ctype.obj
 0001:00016793       __isupper_l                04017793 f i LIBCMT:_ctype.obj
 0001:000167e4       _isupper                   040177e4 f i LIBCMT:_ctype.obj
 0001:00016812       __islower_l                04017812 f i LIBCMT:_ctype.obj
 0001:00016863       _islower                   04017863 f i LIBCMT:_ctype.obj
 0001:00016891       __isdigit_l                04017891 f i LIBCMT:_ctype.obj
 0001:000168e2       _isdigit                   040178e2 f i LIBCMT:_ctype.obj
 0001:00016910       __isxdigit_l               04017910 f i LIBCMT:_ctype.obj
 0001:00016966       _isxdigit                  04017966 f i LIBCMT:_ctype.obj
 0001:00016996       __isspace_l                04017996 f i LIBCMT:_ctype.obj
 0001:000169e7       _isspace                   040179e7 f i LIBCMT:_ctype.obj
 0001:00016a15       __ispunct_l                04017a15 f i LIBCMT:_ctype.obj
 0001:00016a66       _ispunct                   04017a66 f i LIBCMT:_ctype.obj
 0001:00016a94       __isalnum_l                04017a94 f i LIBCMT:_ctype.obj
 0001:00016aea       _isalnum                   04017aea f i LIBCMT:_ctype.obj
 0001:00016b1a       __isprint_l                04017b1a f i LIBCMT:_ctype.obj
 0001:00016b70       _isprint                   04017b70 f i LIBCMT:_ctype.obj
 0001:00016ba0       __isgraph_l                04017ba0 f i LIBCMT:_ctype.obj
 0001:00016bf6       _isgraph                   04017bf6 f i LIBCMT:_ctype.obj
 0001:00016c26       __iscntrl_l                04017c26 f i LIBCMT:_ctype.obj
 0001:00016c77       _iscntrl                   04017c77 f i LIBCMT:_ctype.obj
 0001:00016ca5       ___isascii                 04017ca5 f i LIBCMT:_ctype.obj
 0001:00016cb7       ___toascii                 04017cb7 f i LIBCMT:_ctype.obj
 0001:00016cc4       __iscsymf_l                04017cc4 f i LIBCMT:_ctype.obj
 0001:00016ce7       ___iscsymf                 04017ce7 f i LIBCMT:_ctype.obj
 0001:00016d06       __iscsym_l                 04017d06 f i LIBCMT:_ctype.obj
 0001:00016d29       ___iscsym                  04017d29 f i LIBCMT:_ctype.obj
 0001:00016d4a       __tolower                  04017d4a f   LIBCMT:tolower.obj
 0001:00016d57       __tolower_l                04017d57 f   LIBCMT:tolower.obj
 0001:00016e6c       _tolower                   04017e6c f   LIBCMT:tolower.obj
 0001:00016e98       __atodbl_l                 04017e98 f   LIBCMT:atodbl.obj
 0001:00016f40       __atodbl                   04017f40 f   LIBCMT:atodbl.obj
 0001:00016f57       __atoldbl_l                04017f57 f   LIBCMT:atodbl.obj
 0001:00017000       __atoldbl                  04018000 f   LIBCMT:atodbl.obj
 0001:00017017       __atoflt_l                 04018017 f   LIBCMT:atodbl.obj
 0001:000170bf       __atoflt                   040180bf f   LIBCMT:atodbl.obj
 0001:000170d6       __set_output_format        040180d6 f   LIBCMT:outputformat.obj
 0001:00017112       __get_output_format        04018112 f   LIBCMT:outputformat.obj
 0001:00017118       __fptostr                  04018118 f   LIBCMT:_fptostr.obj
 0001:000171d7       ___dtold                   040181d7 f   LIBCMT:_cfout_.obj
 0001:00017294       __fltout2                  04018294 f   LIBCMT:_cfout_.obj
 0001:00017330       __alldvrm                  04018330 f   LIBCMT:lldvrm.obj
 0001:00017410       __aullshr                  04018410 f   LIBCMT:ullshr.obj
 0001:0001742f       __fptrap                   0401842f f   LIBCMT:crt0fp.obj
 0001:00017438       __controlfp_s              04018438 f   LIBCMT:_contrlfp_.obj
 0001:000174a4       __87except                 040184a4 f   LIBCMT:_87except_.obj
 0001:000175e3       ??0Block@HeapManager@@QAE@XZ 040185e3 f i LIBCMT:undname.obj
 0001:000175e9       ?Constructor@HeapManager@@QAEXP6APAXI@ZP6AXPAX@Z@Z 040185e9 f i LIBCMT:undname.obj
 0001:00017608       ?Destructor@HeapManager@@QAEXXZ 04018608 f i LIBCMT:undname.obj
 0001:00017630       ?getNumberOfDimensions@UnDecorator@@CAHXZ 04018630 f   LIBCMT:undname.obj
 0001:00017693       ?getTypeEncoding@UnDecorator@@CAHXZ 04018693 f i LIBCMT:undname.obj
 0001:00017b7f       ?doUnderScore@UnDecorator@@SAHXZ 04018b7f f i LIBCMT:undname.obj
 0001:00017b8a       ?doMSKeywords@UnDecorator@@SAHXZ 04018b8a f i LIBCMT:undname.obj
 0001:00017b97       ?doPtr64@UnDecorator@@SAHXZ 04018b97 f i LIBCMT:undname.obj
 0001:00017ba5       ?doFunctionReturns@UnDecorator@@SAHXZ 04018ba5 f i LIBCMT:undname.obj
 0001:00017bb3       ?doAllocationModel@UnDecorator@@SAHXZ 04018bb3 f i LIBCMT:undname.obj
 0001:00017bc1       ?doAllocationLanguage@UnDecorator@@SAHXZ 04018bc1 f i LIBCMT:undname.obj
 0001:00017bcf       ?doThisTypes@UnDecorator@@SAHXZ 04018bcf f i LIBCMT:undname.obj
 0001:00017be1       ?doAccessSpecifiers@UnDecorator@@SAHXZ 04018be1 f i LIBCMT:undname.obj
 0001:00017bef       ?doThrowTypes@UnDecorator@@SAHXZ 04018bef f i LIBCMT:undname.obj
 0001:00017bfd       ?doMemberTypes@UnDecorator@@SAHXZ 04018bfd f i LIBCMT:undname.obj
 0001:00017c0b       ?doNameOnly@UnDecorator@@SAHXZ 04018c0b f i LIBCMT:undname.obj
 0001:00017c16       ?doTypeOnly@UnDecorator@@SAHXZ 04018c16 f i LIBCMT:undname.obj
 0001:00017c21       ?haveTemplateParameters@UnDecorator@@SAHXZ 04018c21 f i LIBCMT:undname.obj
 0001:00017c2c       ?doEcsu@UnDecorator@@SAHXZ 04018c2c f i LIBCMT:undname.obj
 0001:00017c3a       ?doNoIdentCharCheck@UnDecorator@@SAHXZ 04018c3a f i LIBCMT:undname.obj
 0001:00017c45       ?doEllipsis@UnDecorator@@SAHXZ 04018c45 f i LIBCMT:undname.obj
 0001:00017c53       ?UScore@UnDecorator@@SAPBDW4Tokens@@@Z 04018c53 f   LIBCMT:undname.obj
 0001:00017c71       ?getMemory@HeapManager@@QAEPAXIH@Z 04018c71 f   LIBCMT:undname.obj
 0001:00017cf9       ??0DName@@QAE@XZ           04018cf9 f i LIBCMT:undname.obj
 0001:00017d0a       ??0DName@@QAE@ABV0@@Z      04018d0a f i LIBCMT:undname.obj
 0001:00017d22       ?isValid@DName@@QBEHXZ     04018d22 f i LIBCMT:undname.obj
 0001:00017d2c       ?isEmpty@DName@@QBEHXZ     04018d2c f i LIBCMT:undname.obj
 0001:00017d34       ?status@DName@@QBE?AW4DNameStatus@@XZ 04018d34 f i LIBCMT:undname.obj
 0001:00017d39       ?setPtrRef@DName@@QAEAAV1@XZ 04018d39 f i LIBCMT:undname.obj
 0001:00017d43       ?isPtrRef@DName@@QBEHXZ    04018d43 f i LIBCMT:undname.obj
 0001:00017d4d       ?isUDC@DName@@QBEHXZ       04018d4d f i LIBCMT:undname.obj
 0001:00017d5e       ?setIsUDC@DName@@QAEXXZ    04018d5e f i LIBCMT:undname.obj
 0001:00017d6b       ?isUDTThunk@DName@@QBEHXZ  04018d6b f i LIBCMT:undname.obj
 0001:00017d7c       ?setIsArray@DName@@QAEXXZ  04018d7c f i LIBCMT:undname.obj
 0001:00017d84       ?isArray@DName@@QBEHXZ     04018d84 f i LIBCMT:undname.obj
 0001:00017d8e       ?isNoTE@DName@@QBEHXZ      04018d8e f i LIBCMT:undname.obj
 0001:00017d98       ?setIsNoTE@DName@@QAEXXZ   04018d98 f i LIBCMT:undname.obj
 0001:00017da0       ?isPinPtr@DName@@QBEHXZ    04018da0 f i LIBCMT:undname.obj
 0001:00017daa       ?setIsPinPtr@DName@@QAEXXZ 04018daa f i LIBCMT:undname.obj
 0001:00017db2       ?isComArray@DName@@QBEHXZ  04018db2 f i LIBCMT:undname.obj
 0001:00017dbc       ?setIsComArray@DName@@QAEXXZ 04018dbc f i LIBCMT:undname.obj
 0001:00017dc4       ?isVCallThunk@DName@@QBEHXZ 04018dc4 f i LIBCMT:undname.obj
 0001:00017dce       ?setIsVCallThunk@DName@@QAEXXZ 04018dce f i LIBCMT:undname.obj
 0001:00017dd6       ?length@DName@@QBEHXZ      04018dd6 f i LIBCMT:undname.obj
 0001:00017de3       ?getLastChar@DName@@QBEDXZ 04018de3 f i LIBCMT:undname.obj
 0001:00017df1       ?getString@DName@@QBEPADPAD0@Z 04018df1 f i LIBCMT:undname.obj
 0001:00017e09       ??_5DName@@QAEAAV0@ABV0@@Z 04018e09 f   LIBCMT:undname.obj
 0001:00017e28       ??4DName@@QAEAAV0@ABV0@@Z  04018e28 f   LIBCMT:undname.obj
 0001:00017e40       ?isFull@Replicator@@QBEHXZ 04018e40 f i LIBCMT:undname.obj
 0001:00017e49       ??0Replicator@@QAE@XZ      04018e49 f i LIBCMT:undname.obj
 0001:00017e4f       ??0DNameNode@@IAE@XZ       04018e4f f   LIBCMT:undname.obj
 0001:00017e58       ??0charNode@@QAE@D@Z       04018e58 f   LIBCMT:undname.obj
 0001:00017e6f       ?length@charNode@@UBEHXZ   04018e6f f i LIBCMT:undname.obj
 0001:00017e73       ?getLastChar@charNode@@UBEDXZ 04018e73 f i LIBCMT:undname.obj
 0001:00017e77       ?getString@charNode@@UBEPADPAD0@Z 04018e77 f i LIBCMT:undname.obj
 0001:00017e8e       ??0pDNameNode@@QAE@PAVDName@@@Z 04018e8e f   LIBCMT:undname.obj
 0001:00017eb8       ?length@pDNameNode@@UBEHXZ 04018eb8 f i LIBCMT:undname.obj
 0001:00017ece       ?getLastChar@pDNameNode@@UBEDXZ 04018ece f i LIBCMT:undname.obj
 0001:00017ee5       ?getString@pDNameNode@@UBEPADPAD0@Z 04018ee5 f i LIBCMT:undname.obj
 0001:00017efe       ??0DNameStatusNode@@AAE@W4DNameStatus@@@Z 04018efe f   LIBCMT:undname.obj
 0001:00017f23       ?length@DNameStatusNode@@UBEHXZ 04018f23 f i LIBCMT:undname.obj
 0001:00017f27       ?getLastChar@DNameStatusNode@@UBEDXZ 04018f27 f i LIBCMT:undname.obj
 0001:00017f33       ?make@DNameStatusNode@@SAPAV1@W4DNameStatus@@@Z 04018f33 f i LIBCMT:undname.obj
 0001:00017fb9       ??0pairNode@@QAE@PAVDNameNode@@0@Z 04018fb9 f   LIBCMT:undname.obj
 0001:00017fda       ?length@pairNode@@UBEHXZ   04018fda f i LIBCMT:undname.obj
 0001:00018005       ?getLastChar@pairNode@@UBEDXZ 04019005 f i LIBCMT:undname.obj
 0001:00018021       ?getString@pairNode@@UBEPADPAD0@Z 04019021 f i LIBCMT:undname.obj
 0001:0001809b       ??0UnDecorator@@QAE@PADPBDHP6APADJ@ZK@Z 0401909b f i LIBCMT:undname.obj
 0001:0001810a       ?getDataIndirectType@UnDecorator@@CA?AVDName@@XZ 0401910a f i LIBCMT:undname.obj
 0001:0001813f       ?getThisType@UnDecorator@@CA?AVDName@@XZ 0401913f f i LIBCMT:undname.obj
 0001:00018175       ??2@YAPAXIAAVHeapManager@@H@Z 04019175 f i LIBCMT:undname.obj
 0001:0001818c       ?getStringHelper@@YAPADPAD00H@Z 0401918c f i LIBCMT:undname.obj
 0001:000181c3       ??0DName@@QAE@PAV0@@Z      040191c3 f   LIBCMT:undname.obj
 0001:00018216       ??0DName@@QAE@W4DNameStatus@@@Z 04019216 f   LIBCMT:undname.obj
 0001:0001825b       ?getString@DName@@QBEPADPADH@Z 0401925b f i LIBCMT:undname.obj
 0001:000182b3       ?append@DName@@AAEXPAVDNameNode@@@Z 040192b3 f   LIBCMT:undname.obj
 0001:000182f2       ??4DName@@QAEAAV0@PAV0@@Z  040192f2 f   LIBCMT:undname.obj
 0001:0001833f       ??4DName@@QAEAAV0@W4DNameStatus@@@Z 0401933f f   LIBCMT:undname.obj
 0001:00018376       ??YReplicator@@QAEAAV0@ABVDName@@@Z 04019376 f   LIBCMT:undname.obj
 0001:000183c0       ??AReplicator@@QBE?AVDName@@H@Z 040193c0 f   LIBCMT:undname.obj
 0001:00018400       ??0pcharNode@@QAE@PBDH@Z   04019400 f   LIBCMT:undname.obj
 0001:00018457       ?length@pcharNode@@UBEHXZ  04019457 f i LIBCMT:undname.obj
 0001:0001845b       ?getLastChar@pcharNode@@UBEDXZ 0401945b f i LIBCMT:undname.obj
 0001:0001846d       ?getString@pcharNode@@UBEPADPAD0@Z 0401946d f i LIBCMT:undname.obj
 0001:0001848a       ?getString@DNameStatusNode@@UBEPADPAD0@Z 0401948a f i LIBCMT:undname.obj
 0001:000184b3       ?getReturnType@UnDecorator@@CA?AVDName@@PAV2@@Z 040194b3 f   LIBCMT:undname.obj
 0001:000184e4       ?getStorageConvention@UnDecorator@@CA?AVDName@@XZ 040194e4 f i LIBCMT:undname.obj
 0001:000184f7       ??YDName@@QAEAAV0@W4DNameStatus@@@Z 040194f7 f   LIBCMT:undname.obj
 0001:00018539       ?doPchar@DName@@AAEXPBDH@Z 04019539 f   LIBCMT:undname.obj
 0001:000185b5       ??0DName@@QAE@D@Z          040195b5 f   LIBCMT:undname.obj
 0001:000185e2       ??0DName@@QAE@PBD@Z        040195e2 f   LIBCMT:undname.obj
 0001:0001861b       ??0DName@@QAE@AAPBDD@Z     0401961b f   LIBCMT:undname.obj
 0001:000186da       ??0DName@@QAE@_K@Z         040196da f   LIBCMT:undname.obj
 0001:00018748       ??0DName@@QAE@_J@Z         04019748 f   LIBCMT:undname.obj
 0001:000187e3       ??HDName@@QBE?AV0@W4DNameStatus@@@Z 040197e3 f   LIBCMT:undname.obj
 0001:00018807       ??YDName@@QAEAAV0@ABV0@@Z  04019807 f   LIBCMT:undname.obj
 0001:0001884a       ??YDName@@QAEAAV0@PAV0@@Z  0401984a f   LIBCMT:undname.obj
 0001:000188b1       ??4DName@@QAEAAV0@D@Z      040198b1 f i LIBCMT:undname.obj
 0001:000188de       ??4DName@@QAEAAV0@PBD@Z    040198de f   LIBCMT:undname.obj
 0001:00018913       ?getCallingConvention@UnDecorator@@CA?AVDName@@XZ 04019913 f   LIBCMT:undname.obj
 0001:000189bd       ?getVCallThunkType@UnDecorator@@CA?AVDName@@XZ 040199bd f i LIBCMT:undname.obj
 0001:000189f6       ??HDName@@QBE?AV0@ABV0@@Z  040199f6 f   LIBCMT:undname.obj
 0001:00018a1a       ??HDName@@QBE?AV0@PAV0@@Z  04019a1a f   LIBCMT:undname.obj
 0001:00018a3e       ??YDName@@QAEAAV0@D@Z      04019a3e f   LIBCMT:undname.obj
 0001:00018a90       ??YDName@@QAEAAV0@PBD@Z    04019a90 f   LIBCMT:undname.obj
 0001:00018af4       ?getArgumentList@UnDecorator@@CA?AVDName@@XZ 04019af4 f   LIBCMT:undname.obj
 0001:00018bf6       ?getVdispMapType@UnDecorator@@CA?AVDName@@ABV2@@Z 04019bf6 f i LIBCMT:undname.obj
 0001:00018c4a       ??H@YA?AVDName@@DABV0@@Z   04019c4a f i LIBCMT:undname.obj
 0001:00018c6e       ??H@YA?AVDName@@W4DNameStatus@@ABV0@@Z 04019c6e f i LIBCMT:undname.obj
 0001:00018c92       ??H@YA?AVDName@@PBDABV0@@Z 04019c92 f i LIBCMT:undname.obj
 0001:00018cb6       ??HDName@@QBE?AV0@D@Z      04019cb6 f   LIBCMT:undname.obj
 0001:00018cda       ??HDName@@QBE?AV0@PBD@Z    04019cda f   LIBCMT:undname.obj
 0001:00018cfe       ?getDimension@UnDecorator@@CA?AVDName@@_N@Z 04019cfe f   LIBCMT:undname.obj
 0001:00018e50       ?getEnumType@UnDecorator@@CA?AVDName@@XZ 04019e50 f i LIBCMT:undname.obj
 0001:00018f24       ?getArgumentTypes@UnDecorator@@CA?AVDName@@XZ 04019f24 f   LIBCMT:undname.obj
 0001:00019000       ?getThrowTypes@UnDecorator@@CA?AVDName@@XZ 0401a000 f   LIBCMT:undname.obj
 0001:0001907f       ?getExtendedDataIndirectType@UnDecorator@@CA?AVDName@@AADAA_NH@Z 0401a07f f   LIBCMT:undname.obj
 0001:000191fc       ?getArrayType@UnDecorator@@CA?AVDName@@ABV2@@Z 0401a1fc f i LIBCMT:undname.obj
 0001:00019376       ?getLexicalFrame@UnDecorator@@CA?AVDName@@XZ 0401a376 f i LIBCMT:undname.obj
 0001:000193a9       ?getDisplacement@UnDecorator@@CA?AVDName@@XZ 0401a3a9 f i LIBCMT:undname.obj
 0001:000193bf       ?getCallIndex@UnDecorator@@CA?AVDName@@XZ 0401a3bf f i LIBCMT:undname.obj
 0001:000193d5       ?getGuardNumber@UnDecorator@@CA?AVDName@@XZ 0401a3d5 f i LIBCMT:undname.obj
 0001:000193eb       ?getVfTableType@UnDecorator@@CA?AVDName@@ABV2@@Z 0401a3eb f i LIBCMT:undname.obj
 0001:00019522       ?getStringEncoding@UnDecorator@@CA?AVDName@@PADH@Z 0401a522 f   LIBCMT:undname.obj
 0001:000195c6       ?getSignedDimension@UnDecorator@@CA?AVDName@@XZ 0401a5c6 f   LIBCMT:undname.obj
 0001:00019618       ?getTemplateConstant@UnDecorator@@CA?AVDName@@XZ 0401a618 f   LIBCMT:undname.obj
 0001:000198e5       ?getPtrRefDataType@UnDecorator@@CA?AVDName@@ABV2@H@Z 0401a8e5 f i LIBCMT:undname.obj
 0001:000199c3       ?getVbTableType@UnDecorator@@CA?AVDName@@ABV2@@Z 0401a9c3 f i LIBCMT:undname.obj
 0001:000199da       ?getTemplateArgumentList@UnDecorator@@CA?AVDName@@XZ 0401a9da f   LIBCMT:undname.obj
 0001:00019b9e       ?getOperatorName@UnDecorator@@CA?AVDName@@_NPA_N@Z 0401ab9e f i LIBCMT:undname.obj
 0001:0001a13b       ?getTemplateName@UnDecorator@@CA?AVDName@@_N@Z 0401b13b f   LIBCMT:undname.obj
 0001:0001a282       ?getZName@UnDecorator@@CA?AVDName@@_N0@Z 0401b282 f   LIBCMT:undname.obj
 0001:0001a478       ?getScopedName@UnDecorator@@CA?AVDName@@XZ 0401b478 f   LIBCMT:undname.obj
 0001:0001a549       ?getECSUName@UnDecorator@@CA?AVDName@@XZ 0401b549 f i LIBCMT:undname.obj
 0001:0001a55c       ?getECSUDataType@UnDecorator@@CA?AVDName@@XZ 0401b55c f   LIBCMT:undname.obj
 0001:0001a663       ?getSymbolName@UnDecorator@@CA?AVDName@@XZ 0401b663 f i LIBCMT:undname.obj
 0001:0001a6ad       ?getBasedType@UnDecorator@@CA?AVDName@@XZ 0401b6ad f   LIBCMT:undname.obj
 0001:0001a745       ?composeDeclaration@UnDecorator@@CA?AVDName@@ABV2@@Z 0401b745 f i LIBCMT:undname.obj
 0001:0001b2e0       ?getDecoratedName@UnDecorator@@CA?AVDName@@XZ 0401c2e0 f   LIBCMT:undname.obj
 0001:0001b4f8       ?getScope@UnDecorator@@CA?AVDName@@XZ 0401c4f8 f   LIBCMT:undname.obj
 0001:0001b768       ?getFunctionIndirectType@UnDecorator@@CA?AVDName@@ABV2@@Z 0401c768 f   LIBCMT:undname.obj
 0001:0001babc       ?getDataIndirectType@UnDecorator@@CA?AVDName@@ABV2@D0H@Z 0401cabc f   LIBCMT:undname.obj
 0001:0001bf83       ??BUnDecorator@@QAEPADXZ   0401cf83 f i LIBCMT:undname.obj
 0001:0001c0b4       ?getPtrRefType@UnDecorator@@CA?AVDName@@ABV2@0D@Z 0401d0b4 f   LIBCMT:undname.obj
 0001:0001c1ad       ?getPointerType@UnDecorator@@CA?AVDName@@ABV2@0@Z 0401d1ad f i LIBCMT:undname.obj
 0001:0001c1ca       ?getPointerTypeArray@UnDecorator@@CA?AVDName@@ABV2@0@Z 0401d1ca f i LIBCMT:undname.obj
 0001:0001c1e7       ?getReferenceType@UnDecorator@@CA?AVDName@@ABV2@0@Z 0401d1e7 f i LIBCMT:undname.obj
 0001:0001c204       ___unDName                 0401d204 f   LIBCMT:undname.obj
 0001:0001c29e       ___unDNameEx               0401d29e f   LIBCMT:undname.obj
 0001:0001c338       ?getBasicDataType@UnDecorator@@CA?AVDName@@ABV2@@Z 0401d338 f   LIBCMT:undname.obj
 0001:0001c6ef       ?getPrimaryDataType@UnDecorator@@CA?AVDName@@ABV2@@Z 0401d6ef f   LIBCMT:undname.obj
 0001:0001c827       ?getDataType@UnDecorator@@CA?AVDName@@PAV2@@Z 0401d827 f   LIBCMT:undname.obj
 0001:0001c8e7       ?getExternalDataType@UnDecorator@@CA?AVDName@@ABV2@@Z 0401d8e7 f i LIBCMT:undname.obj
 0001:0001c958       __local_unwind4            0401d958 f   LIBCMT:exsup4.obj
 0001:0001ca2e       __seh_longjmp_unwind4@4    0401da2e f   LIBCMT:exsup4.obj
 0001:0001ca4a       @_EH4_CallFilterFunc@8     0401da4a f   LIBCMT:exsup4.obj
 0001:0001ca61       @_EH4_TransferToHandler@8  0401da61 f   LIBCMT:exsup4.obj
 0001:0001ca7a       @_EH4_GlobalUnwind@4       0401da7a f   LIBCMT:exsup4.obj
 0001:0001ca94       @_EH4_LocalUnwind@16       0401da94 f   LIBCMT:exsup4.obj
 0001:0001caab       __initp_misc_initcrit      0401daab f   LIBCMT:initcrit.obj
 0001:0001caba       ___crtInitCritSecAndSpinCount 0401daba f   LIBCMT:initcrit.obj
 0001:0001cb20       __ValidateImageBase        0401db20 f   LIBCMT:pesect.obj
 0001:0001cb60       __FindPESection            0401db60 f   LIBCMT:pesect.obj
 0001:0001cbb0       __IsNonwritableInCurrentImage 0401dbb0 f   LIBCMT:pesect.obj
 0001:0001cc6d       __initp_misc_winsig        0401dc6d f   LIBCMT:winsig.obj
 0001:0001cd5d       ___get_sigabrt             0401dd5d f   LIBCMT:winsig.obj
 0001:0001cd6a       ___fpecode                 0401dd6a f   LIBCMT:winsig.obj
 0001:0001cd73       ___pxcptinfoptrs           0401dd73 f   LIBCMT:winsig.obj
 0001:0001cd7c       _signal                    0401dd7c f   LIBCMT:winsig.obj
 0001:0001cfb9       _raise                     0401dfb9 f   LIBCMT:winsig.obj
 0001:0001d169       __initp_misc_rand_s        0401e169 f   LIBCMT:rand_s.obj
 0001:0001d178       _rand_s                    0401e178 f   LIBCMT:rand_s.obj
 0001:0001d280       ___getlocaleinfo           0401e280 f   LIBCMT:inithelp.obj
 0001:0001d3ff       __initp_misc_purevirt      0401e3ff f   LIBCMT:inithelp.obj
 0001:0001d40e       ___crtMessageBoxA          0401e40e f   LIBCMT:crtmbox.obj
 0001:0001d577       _strcat_s                  0401e577 f   LIBCMT:strcat_s.obj
 0001:0001d5eb       _strncpy_s                 0401e5eb f   LIBCMT:strncpy_s.obj
 0001:0001d6a0       __set_error_mode           0401e6a0 f   LIBCMT:errmode.obj
 0001:0001d6eb       ___set_app_type            0401e6eb f   LIBCMT:errmode.obj
 0001:0001d6fa       ___get_app_type            0401e6fa f   LIBCMT:errmode.obj
 0001:0001d700       ?_ValidateRead@@YAHPBXI@Z  0401e700 f   LIBCMT:validate.obj
 0001:0001d712       ?_ValidateWrite@@YAHPAXI@Z 0401e712 f   LIBCMT:validate.obj
 0001:0001d724       ?_ValidateExecute@@YAHP6GHXZ@Z 0401e724 f   LIBCMT:validate.obj
 0001:0001d736       _abort                     0401e736 f   LIBCMT:abort.obj
 0001:0001d84d       __set_abort_behavior       0401e84d f   LIBCMT:abort.obj
 0001:0001d870       __global_unwind2           0401e870 f   LIBCMT:exsup.obj
 0001:0001d8d5       __local_unwind2            0401e8d5 f   LIBCMT:exsup.obj
 0001:0001d959       __abnormal_termination     0401e959 f   LIBCMT:exsup.obj
 0001:0001d97c       __NLG_Notify1              0401e97c f   LIBCMT:exsup.obj
 0001:0001d985       __NLG_Notify               0401e985 f   LIBCMT:exsup.obj
 0001:0001d99c       __NLG_Dispatch             0401e99c     LIBCMT:exsup.obj
 0001:0001d99c       __NLG_Dispatch2            0401e99c     LIBCMT:exsup.obj
 0001:0001d9a4       __NLG_Call                 0401e9a4 f   LIBCMT:exsup.obj
 0001:0001d9a6       __NLG_Return2              0401e9a6     LIBCMT:exsup.obj
 0001:0001d9a7       __calloc_impl              0401e9a7 f   LIBCMT:calloc_impl.obj
 0001:0001dac5       _realloc                   0401eac5 f   LIBCMT:realloc.obj
 0001:0001dce0       __recalloc                 0401ece0 f   LIBCMT:recalloc.obj
 0001:0001dd5b       __isctype_l                0401ed5b f   LIBCMT:isctype.obj
 0001:0001de13       __isctype                  0401ee13 f   LIBCMT:isctype.obj
 0001:0001de50       __allmul                   0401ee50 f   LIBCMT:llmul.obj
 0001:0001ded7       __ismbbkalnum_l            0401eed7 f   LIBCMT:ismbbyte.obj
 0001:0001def0       __ismbbkalnum              0401eef0 f   LIBCMT:ismbbyte.obj
 0001:0001df08       __ismbbkprint_l            0401ef08 f   LIBCMT:ismbbyte.obj
 0001:0001df21       __ismbbkprint              0401ef21 f   LIBCMT:ismbbyte.obj
 0001:0001df39       __ismbbkpunct_l            0401ef39 f   LIBCMT:ismbbyte.obj
 0001:0001df52       __ismbbkpunct              0401ef52 f   LIBCMT:ismbbyte.obj
 0001:0001df6a       __ismbbalnum_l             0401ef6a f   LIBCMT:ismbbyte.obj
 0001:0001df86       __ismbbalnum               0401ef86 f   LIBCMT:ismbbyte.obj
 0001:0001dfa1       __ismbbalpha_l             0401efa1 f   LIBCMT:ismbbyte.obj
 0001:0001dfbd       __ismbbalpha               0401efbd f   LIBCMT:ismbbyte.obj
 0001:0001dfd8       __ismbbgraph_l             0401efd8 f   LIBCMT:ismbbyte.obj
 0001:0001dff4       __ismbbgraph               0401eff4 f   LIBCMT:ismbbyte.obj
 0001:0001e00f       __ismbbprint_l             0401f00f f   LIBCMT:ismbbyte.obj
 0001:0001e02b       __ismbbprint               0401f02b f   LIBCMT:ismbbyte.obj
 0001:0001e046       __ismbbpunct_l             0401f046 f   LIBCMT:ismbbyte.obj
 0001:0001e05f       __ismbbpunct               0401f05f f   LIBCMT:ismbbyte.obj
 0001:0001e077       __ismbblead_l              0401f077 f   LIBCMT:ismbbyte.obj
 0001:0001e090       __ismbblead                0401f090 f   LIBCMT:ismbbyte.obj
 0001:0001e0a8       __ismbbtrail_l             0401f0a8 f   LIBCMT:ismbbyte.obj
 0001:0001e0c1       __ismbbtrail               0401f0c1 f   LIBCMT:ismbbyte.obj
 0001:0001e0d9       __ismbbkana_l              0401f0d9 f   LIBCMT:ismbbyte.obj
 0001:0001e12e       __ismbbkana                0401f12e f   LIBCMT:ismbbyte.obj
 0001:0001e141       __set_osfhnd               0401f141 f   LIBCMT:osfinfo.obj
 0001:0001e1c2       __free_osfhnd              0401f1c2 f   LIBCMT:osfinfo.obj
 0001:0001e248       __get_osfhandle            0401f248 f   LIBCMT:osfinfo.obj
 0001:0001e2bf       ___lock_fhandle            0401f2bf f   LIBCMT:osfinfo.obj
 0001:0001e35f       __unlock_fhandle           0401f35f f   LIBCMT:osfinfo.obj
 0001:0001e386       __alloc_osfhnd             0401f386 f   LIBCMT:osfinfo.obj
 0001:0001e520       __open_osfhandle           0401f520 f   LIBCMT:osfinfo.obj
 0001:0001e636       __putwch_nolock            0401f636 f   LIBCMT:putwch.obj
 0001:0001e6fb       __cputws                   0401f6fb f   LIBCMT:putwch.obj
 0001:0001e79a       __putwch                   0401f79a f   LIBCMT:putwch.obj
 0001:0001e7e0       __mbtowc_l                 0401f7e0 f   LIBCMT:mbtowc.obj
 0001:0001e8f7       _mbtowc                    0401f8f7 f   LIBCMT:mbtowc.obj
 0001:0001e911       __fcloseall                0401f911 f   LIBCMT:closeall.obj
 0001:0001e9b0       __flush                    0401f9b0 f   LIBCMT:fflush.obj
 0001:0001ea18       __fflush_nolock            0401fa18 f   LIBCMT:fflush.obj
 0001:0001eb3a       _fflush                    0401fb3a f   LIBCMT:fflush.obj
 0001:0001eb8d       __flushall                 0401fb8d f   LIBCMT:fflush.obj
 0001:0001eb96       __MarkAllocaS              0401fb96 f i LIBCMT:a_map.obj
 0001:0001ebac       __freea                    0401fbac f i LIBCMT:a_map.obj
 0001:0001ef8f       ___crtLCMapStringA         0401ff8f f   LIBCMT:a_map.obj
 0001:0001f18e       ___crtGetStringTypeA       0402018e f   LIBCMT:a_str.obj
 0001:0001f1d0       ___pwctype_func            040201d0 f   LIBCMT:ctype.obj
 0001:0001f1d6       ___pctype_func             040201d6 f   LIBCMT:ctype.obj
 0001:0001f61a       ___free_lc_time            0402061a f   LIBCMT:inittime.obj
 0001:0001f7af       ___init_time               040207af f   LIBCMT:inittime.obj
 0001:0001f85b       ___free_lconv_num          0402085b f   LIBCMT:initnum.obj
 0001:0001f8a0       ___init_numeric            040208a0 f   LIBCMT:initnum.obj
 0001:0001fa9d       ___free_lconv_mon          04020a9d f   LIBCMT:initmon.obj
 0001:0001fb2b       ___init_monetary           04020b2b f   LIBCMT:initmon.obj
 0001:0001fdf1       ___init_ctype              04020df1 f   LIBCMT:initctyp.obj
 0001:00020193       ____mb_cur_max_func        04021193 f   LIBCMT:initctyp.obj
 0001:000201bc       ____mb_cur_max_l_func      040211bc f   LIBCMT:initctyp.obj
 0001:000201d8       ____lc_codepage_func       040211d8 f   LIBCMT:initctyp.obj
 0001:000201fe       ____lc_collate_cp_func     040211fe f   LIBCMT:initctyp.obj
 0001:00020224       ____lc_handle_func         04021224 f   LIBCMT:initctyp.obj
 0001:0002024a       ___init_collate            0402124a f   LIBCMT:initcoll.obj
 0001:0002024d       __Getdays_l                0402124d f   LIBCMT:strftime.obj
 0001:0002034d       __Getdays                  0402134d f   LIBCMT:strftime.obj
 0001:00020356       __Getmonths_l              04021356 f   LIBCMT:strftime.obj
 0001:00020456       __Getmonths                04021456 f   LIBCMT:strftime.obj
 0001:0002045f       __Gettnames_l              0402145f f   LIBCMT:strftime.obj
 0001:000207b6       __Gettnames                040217b6 f   LIBCMT:strftime.obj
 0001:000210d9       __Strftime_l               040220d9 f   LIBCMT:strftime.obj
 0001:0002127d       __strftime_l               0402227d f   LIBCMT:strftime.obj
 0001:0002129d       _strftime                  0402229d f   LIBCMT:strftime.obj
 0001:000212bc       __Strftime                 040222bc f   LIBCMT:strftime.obj
 0001:000212dc       _localeconv                040222dc f   LIBCMT:lconv.obj
 0001:00021310       _strcspn                   04022310 f   LIBCMT:strcspn.obj
 0001:00021951       ___get_qualified_locale    04022951 f   LIBCMT:getqloc.obj
 0001:000230b8       _memcmp                    040240b8 f   LIBCMT:memcmp.obj
 0001:00024738       _strncmp                   04025738 f   LIBCMT:strncmp.obj
 0001:00024800       _strpbrk                   04025800 f   LIBCMT:strpbrk.obj
 0001:00024840       __stbuf                    04025840 f   LIBCMT:_sftbuf.obj
 0001:000248dc       __ftbuf                    040258dc f   LIBCMT:_sftbuf.obj
 0001:00024910       _vprintf_helper            04025910 f   LIBCMT:vprintf.obj
 0001:000249a0       __vprintf_l                040259a0 f   LIBCMT:vprintf.obj
 0001:000249bd       __vprintf_s_l              040259bd f   LIBCMT:vprintf.obj
 0001:000249da       __vprintf_p_l              040259da f   LIBCMT:vprintf.obj
 0001:000249f7       _vprintf                   040259f7 f   LIBCMT:vprintf.obj
 0001:00024a13       _vprintf_s                 04025a13 f   LIBCMT:vprintf.obj
 0001:00024a2f       __vprintf_p                04025a2f f   LIBCMT:vprintf.obj
 0001:00024a4b       __iswctype_l               04025a4b f   LIBCMT:iswctype.obj
 0001:00024ad5       _iswctype                  04025ad5 f   LIBCMT:iswctype.obj
 0001:00024b4b       _is_wctype                 04025b4b f   LIBCMT:iswctype.obj
 0001:00024b56       ___addl                    04025b56 f i LIBCMT:_intrncvt_.obj
 0001:00024b7a       __ZeroTail                 04025b7a f i LIBCMT:_intrncvt_.obj
 0001:00024bc3       __IncMan                   04025bc3 f i LIBCMT:_intrncvt_.obj
 0001:00024c30       __RoundMan                 04025c30 f i LIBCMT:_intrncvt_.obj
 0001:00024d20       __CopyMan                  04025d20 f i LIBCMT:_intrncvt_.obj
 0001:00024d3f       __FillZeroMan              04025d3f f i LIBCMT:_intrncvt_.obj
 0001:00024d50       __IsZeroMan                04025d50 f i LIBCMT:_intrncvt_.obj
 0001:00024d6f       __ShrMan                   04025d6f f i LIBCMT:_intrncvt_.obj
 0001:00024e09       __ld12cvt                  04025e09 f i LIBCMT:_intrncvt_.obj
 0001:00025334       __ld12tod                  04026334 f   LIBCMT:_intrncvt_.obj
 0001:00025878       __ld12tof                  04026878 f   LIBCMT:_intrncvt_.obj
 0001:00025dbc       __ld12told                 04026dbc f   LIBCMT:_intrncvt_.obj
 0001:00025e83       ___shl_12                  04026e83 f i LIBCMT:_strgtold_.obj
 0001:00025eb6       ___shr_12                  04026eb6 f i LIBCMT:_strgtold_.obj
 0001:00025ee8       ___ld12mul                 04026ee8 f i LIBCMT:_strgtold_.obj
 0001:00026163       ___multtenpow12            04027163 f i LIBCMT:_strgtold_.obj
 0001:00026468       ___strgtold12_l            04027468 f   LIBCMT:_strgtold_.obj
 0001:00026b60       ___STRINGTOLD_L            04027b60 f   LIBCMT:_strgtold_.obj
 0001:00026bbb       ___add_12                  04027bbb f i LIBCMT:_x10fout_.obj
 0001:00026c2c       _$I10_OUTPUT               04027c2c f   LIBCMT:_x10fout_.obj
 0001:00027550       __set_controlfp            04028550 f   LIBCMT:_ieee87_.obj
 0001:000278c4       __statusfp                 040288c4 f   LIBCMT:_ieee87_.obj
 0001:00027956       __fpreset                  04028956 f   LIBCMT:_ieee87_.obj
 0001:00027b8f       __statusfp2                04028b8f f   LIBCMT:_ieee87_.obj
 0001:00027be9       __clearfp                  04028be9 f   LIBCMT:_ieee87_.obj
 0001:00027cc2       ___control87_2             04028cc2 f   LIBCMT:_ieee87_.obj
 0001:00027fd6       __control87                04028fd6 f i LIBCMT:_ieee87_.obj
 0001:000282e5       __controlfp                040292e5 f   LIBCMT:_ieee87_.obj
 0001:000285f7       __raise_exc_ex             040295f7 f   LIBCMT:_fpexcept_.obj
 0001:000288d3       __raise_exc                040298d3 f   LIBCMT:_fpexcept_.obj
 0001:000288f6       __raise_excf               040298f6 f   LIBCMT:_fpexcept_.obj
 0001:00028919       __handle_exc               04029919 f   LIBCMT:_fpexcept_.obj
 0001:00028afb       __set_errno_from_matherr   04029afb f   LIBCMT:_fpexcept_.obj
 0001:00028b4e       __errcode                  04029b4e f   LIBCMT:_fpexcept_.obj
 0001:00028b82       __umatherr                 04029b82 f   LIBCMT:_fpexcept_.obj
 0001:00028c22       __handle_qnan1             04029c22 f   LIBCMT:_fpexcept_.obj
 0001:00028c77       __handle_qnan2             04029c77 f   LIBCMT:_fpexcept_.obj
 0001:00028cd8       __except1                  04029cd8 f   LIBCMT:_fpexcept_.obj
 0001:00028da1       __except2                  04029da1 f   LIBCMT:_fpexcept_.obj
 0001:00028e79       __matherr                  04029e79 f   LIBCMT:_matherr_.obj
 0001:00028e7c       __statfp                   04029e7c f   LIBCMT:_fpctrl_.obj
 0001:00028e8c       __clrfp                    04029e8c f   LIBCMT:_fpctrl_.obj
 0001:00028e9d       __ctrlfp                   04029e9d f   LIBCMT:_fpctrl_.obj
 0001:00028ec6       __set_statfp               04029ec6 f   LIBCMT:_fpctrl_.obj
 0001:00028f1e       ___get_fpsr_sse2           04029f1e f   LIBCMT:_fpctrl_.obj
 0001:00028f3c       ___set_fpsr_sse2           04029f3c f   LIBCMT:_fpctrl_.obj
 0001:00028fae       ___fclrf_sse2              04029fae f   LIBCMT:_fpctrl_.obj
 0001:00028fcb       ___statfp_sse2             04029fcb f   LIBCMT:_fpctrl_.obj
 0001:00028fde       ___clrfp_sse2              04029fde f   LIBCMT:_fpctrl_.obj
 0001:00028ff6       ___ctrlfp_sse2             04029ff6 f   LIBCMT:_fpctrl_.obj
 0001:0002902d       ___set_statfp_sse2         0402a02d f   LIBCMT:_fpctrl_.obj
 0001:00029048       __purecall                 0402a048 f   LIBCMT:purevirt.obj
 0001:00029072       __set_purecall_handler     0402a072 f   LIBCMT:purevirt.obj
 0001:00029099       __get_purecall_handler     0402a099 f   LIBCMT:purevirt.obj
 0001:000290bf       ___crtGetLocaleInfoW       0402a0bf f   LIBCMT:w_loc.obj
 0001:00029232       ___crtGetLocaleInfoA       0402a232 f   LIBCMT:a_loc.obj
 0001:0002926f       ___initconin               0402a26f f   LIBCMT:initcon.obj
 0001:0002928e       ___initconout              0402a28e f   LIBCMT:initcon.obj
 0001:000292ad       ___termcon                 0402a2ad f   LIBCMT:initcon.obj
 0001:000292da       _wcslen                    0402a2da f   LIBCMT:wcslen.obj
 0001:000292f4       __fclose_nolock            0402a2f4 f   LIBCMT:fclose.obj
 0001:0002936b       _fclose                    0402a36b f   LIBCMT:fclose.obj
 0001:000293e7       __commit                   0402a3e7 f   LIBCMT:commit.obj
 0001:000294c8       ___ansicp                  0402a4c8 f   LIBCMT:convrtcp.obj
 0001:00029511       ___convertcp               0402a511 f   LIBCMT:convrtcp.obj
 0001:000296d0       __alloca_probe_16          0402a6d0 f   LIBCMT:alloca16.obj
 0001:000296e6       __alloca_probe_8           0402a6e6     LIBCMT:alloca16.obj
 0001:000296fc       __get_daylight             0402a6fc f   LIBCMT:timeset.obj
 0001:00029735       __get_dstbias              0402a735 f   LIBCMT:timeset.obj
 0001:0002976e       __get_timezone             0402a76e f   LIBCMT:timeset.obj
 0001:000297a7       __get_tzname               0402a7a7 f   LIBCMT:timeset.obj
 0001:0002984b       ___daylight                0402a84b f   LIBCMT:timeset.obj
 0001:00029851       ___dstbias                 0402a851 f   LIBCMT:timeset.obj
 0001:00029857       ___timezone                0402a857 f   LIBCMT:timeset.obj
 0001:0002985d       ___tzname                  0402a85d f   LIBCMT:timeset.obj
 0001:00029863       __set_daylight             0402a863 f i LIBCMT:tzset.obj
 0001:00029874       __set_dstbias              0402a874 f i LIBCMT:tzset.obj
 0001:00029885       __set_timezone             0402a885 f i LIBCMT:tzset.obj
 0001:00029fab       ___tzset                   0402afab f   LIBCMT:tzset.obj
 0001:00029ffa       __tzset                    0402affa f   LIBCMT:tzset.obj
 0001:0002a032       __isindst                  0402b032 f   LIBCMT:tzset.obj
 0001:0002a073       ___ascii_stricmp           0402b073 f   LIBCMT:stricmp.obj
 0001:0002a0ac       __stricmp_l                0402b0ac f   LIBCMT:stricmp.obj
 0001:0002a181       __stricmp                  0402b181 f   LIBCMT:stricmp.obj
 0001:0002a181       _stricmp                   0402b181 f   LIBCMT:stricmp.obj
 0001:0002a1d3       __strnicmp_l               0402b1d3 f   LIBCMT:strnicmp.obj
 0001:0002a2c5       _strnicmp                  0402b2c5 f   LIBCMT:strnicmp.obj
 0001:0002a2c5       __strnicmp                 0402b2c5 f   LIBCMT:strnicmp.obj
 0001:0002a400       __itoa_s                   0402b400 f   LIBCMT:xtoas.obj
 0001:0002a42a       __ltoa_s                   0402b42a f   LIBCMT:xtoas.obj
 0001:0002a451       __ultoa_s                  0402b451 f   LIBCMT:xtoas.obj
 0001:0002a563       __i64toa_s                 0402b563 f   LIBCMT:xtoas.obj
 0001:0002a598       __ui64toa_s                0402b598 f   LIBCMT:xtoas.obj
 0001:0002a5da       ___crtGetStringTypeW       0402b5da f   LIBCMT:w_str.obj
 0001:0002a618       ___mtold12                 0402b618 f   LIBCMT:_mantold_.obj
 0001:0002a7e6       __set_exp                  0402b7e6 f   LIBCMT:_util_.obj
 0001:0002a812       __get_exp                  0402b812 f   LIBCMT:_util_.obj
 0001:0002a82a       __add_exp                  0402b82a f   LIBCMT:_util_.obj
 0001:0002a857       __set_bexp                 0402b857 f   LIBCMT:_util_.obj
 0001:0002a87e       __sptype                   0402b87e f   LIBCMT:_util_.obj
 0001:0002a8de       __decomp                   0402b8de f   LIBCMT:_util_.obj
 0001:0002a997       __close_nolock             0402b997 f   LIBCMT:close.obj
 0001:0002aa33       __close                    0402ba33 f   LIBCMT:close.obj
 0001:0002ab00       __freebuf                  0402bb00 f   LIBCMT:_freebuf.obj
 0001:0002ab31       __getenv_helper_nolock     0402bb31 f   LIBCMT:getenv.obj
 0001:0002acf1       _getenv                    0402bcf1 f   LIBCMT:getenv.obj
 0001:0002ad74       _getenv_s                  0402bd74 f   LIBCMT:getenv.obj
 0001:0002ae4c       __dupenv_s                 0402be4c f   LIBCMT:getenv.obj
 0001:0002af40       ___ascii_strnicmp          0402bf40 f   LIBCMT:_strnicm.obj
 0001:0002afa1       __mbsnbicoll_l             0402bfa1 f   LIBCMT:mbsnbico.obj
 0001:0002b08f       __mbsnbicoll               0402c08f f   LIBCMT:mbsnbico.obj
 0001:0002b0a9       ___wtomb_environ           0402c0a9 f   LIBCMT:wtombenv.obj
 0001:0002b140       _calloc                    0402c140 f   LIBCMT:calloc.obj
 0001:0002b180       _strnlen                   0402c180 f   LIBCMT:strlen_s.obj
 0001:0002b52b       ___crtCompareStringA       0402c52b f   LIBCMT:a_cmp.obj
 0001:0002b56d       __strnicoll_l              0402c56d f   LIBCMT:strnicol.obj
 0001:0002b667       __strnicoll                0402c667 f   LIBCMT:strnicol.obj
 0001:0002b73c       ___crtsetenv               0402c73c f   LIBCMT:setenv.obj
 0001:0002b987       __strdup                   0402c987 f   LIBCMT:strdup.obj
 0001:0002b9dc       __mbschr_l                 0402c9dc f   LIBCMT:mbschr.obj
 0001:0002ba98       __mbschr                   0402ca98 f   LIBCMT:mbschr.obj
 0001:0002bab0       _HeapAlloc@12              0402cab0 f   kernel32:KERNEL32.dll
 0001:0002bab6       _TerminateProcess@8        0402cab6 f   kernel32:KERNEL32.dll
 0001:0002babc       _GetCurrentProcess@0       0402cabc f   kernel32:KERNEL32.dll
 0001:0002bac2       _UnhandledExceptionFilter@4 0402cac2 f   kernel32:KERNEL32.dll
 0001:0002bac8       _SetUnhandledExceptionFilter@4 0402cac8 f   kernel32:KERNEL32.dll
 0001:0002bace       _IsDebuggerPresent@0       0402cace f   kernel32:KERNEL32.dll
 0001:0002bad4       _RaiseException@16         0402cad4 f   kernel32:KERNEL32.dll
 0001:0002bada       _RtlUnwind@16              0402cada f   kernel32:KERNEL32.dll
 0001:0002bae0       _GetLastError@0            0402cae0 f   kernel32:KERNEL32.dll
 0001:0002bae6       _HeapFree@12               0402cae6 f   kernel32:KERNEL32.dll
 0001:0002baec       _GetCurrentThreadId@0      0402caec f   kernel32:KERNEL32.dll
 0001:0002baf2       _GetCommandLineA@0         0402caf2 f   kernel32:KERNEL32.dll
 0001:0002baf8       _GetProcAddress@8          0402caf8 f   kernel32:KERNEL32.dll
 0001:0002bafe       _GetModuleHandleA@4        0402cafe f   kernel32:KERNEL32.dll
 0001:0002bb04       _DeleteCriticalSection@4   0402cb04 f   kernel32:KERNEL32.dll
 0001:0002bb0a       _LeaveCriticalSection@4    0402cb0a f   kernel32:KERNEL32.dll
 0001:0002bb10       _FatalAppExitA@8           0402cb10 f   kernel32:KERNEL32.dll
 0001:0002bb16       _EnterCriticalSection@4    0402cb16 f   kernel32:KERNEL32.dll
 0001:0002bb1c       _VirtualFree@12            0402cb1c f   kernel32:KERNEL32.dll
 0001:0002bb22       _VirtualAlloc@16           0402cb22 f   kernel32:KERNEL32.dll
 0001:0002bb28       _HeapReAlloc@16            0402cb28 f   kernel32:KERNEL32.dll
 0001:0002bb2e       _HeapCreate@12             0402cb2e f   kernel32:KERNEL32.dll
 0001:0002bb34       _HeapDestroy@4             0402cb34 f   kernel32:KERNEL32.dll
 0001:0002bb3a       _GetModuleHandleW@4        0402cb3a f   kernel32:KERNEL32.dll
 0001:0002bb40       _Sleep@4                   0402cb40 f   kernel32:KERNEL32.dll
 0001:0002bb46       _ExitProcess@4             0402cb46 f   kernel32:KERNEL32.dll
 0001:0002bb4c       _WriteFile@20              0402cb4c f   kernel32:KERNEL32.dll
 0001:0002bb52       _GetStdHandle@4            0402cb52 f   kernel32:KERNEL32.dll
 0001:0002bb58       _GetModuleFileNameA@12     0402cb58 f   kernel32:KERNEL32.dll
 0001:0002bb5e       _TlsGetValue@4             0402cb5e f   kernel32:KERNEL32.dll
 0001:0002bb64       _TlsAlloc@0                0402cb64 f   kernel32:KERNEL32.dll
 0001:0002bb6a       _TlsSetValue@8             0402cb6a f   kernel32:KERNEL32.dll
 0001:0002bb70       _TlsFree@4                 0402cb70 f   kernel32:KERNEL32.dll
 0001:0002bb76       _InterlockedIncrement@4    0402cb76 f   kernel32:KERNEL32.dll
 0001:0002bb7c       _SetLastError@4            0402cb7c f   kernel32:KERNEL32.dll
 0001:0002bb82       _InterlockedDecrement@4    0402cb82 f   kernel32:KERNEL32.dll
 0001:0002bb88       _GetCurrentThread@0        0402cb88 f   kernel32:KERNEL32.dll
 0001:0002bb8e       _HeapSize@12               0402cb8e f   kernel32:KERNEL32.dll
 0001:0002bb94       _SetHandleCount@4          0402cb94 f   kernel32:KERNEL32.dll
 0001:0002bb9a       _GetFileType@4             0402cb9a f   kernel32:KERNEL32.dll
 0001:0002bba0       _GetStartupInfoA@4         0402cba0 f   kernel32:KERNEL32.dll
 0001:0002bba6       _FreeEnvironmentStringsA@4 0402cba6 f   kernel32:KERNEL32.dll
 0001:0002bbac       _GetEnvironmentStrings@0   0402cbac f   kernel32:KERNEL32.dll
 0001:0002bbb2       _FreeEnvironmentStringsW@4 0402cbb2 f   kernel32:KERNEL32.dll
 0001:0002bbb8       _WideCharToMultiByte@32    0402cbb8 f   kernel32:KERNEL32.dll
 0001:0002bbbe       _GetEnvironmentStringsW@0  0402cbbe f   kernel32:KERNEL32.dll
 0001:0002bbc4       _QueryPerformanceCounter@4 0402cbc4 f   kernel32:KERNEL32.dll
 0001:0002bbca       _GetTickCount@0            0402cbca f   kernel32:KERNEL32.dll
 0001:0002bbd0       _GetCurrentProcessId@0     0402cbd0 f   kernel32:KERNEL32.dll
 0001:0002bbd6       _GetSystemTimeAsFileTime@4 0402cbd6 f   kernel32:KERNEL32.dll
 0001:0002bbdc       _SetFilePointer@16         0402cbdc f   kernel32:KERNEL32.dll
 0001:0002bbe2       _GetConsoleCP@0            0402cbe2 f   kernel32:KERNEL32.dll
 0001:0002bbe8       _GetConsoleMode@8          0402cbe8 f   kernel32:KERNEL32.dll
 0001:0002bbee       _GetCPInfo@8               0402cbee f   kernel32:KERNEL32.dll
 0001:0002bbf4       _GetACP@0                  0402cbf4 f   kernel32:KERNEL32.dll
 0001:0002bbfa       _GetOEMCP@0                0402cbfa f   kernel32:KERNEL32.dll
 0001:0002bc00       _IsValidCodePage@4         0402cc00 f   kernel32:KERNEL32.dll
 0001:0002bc06       _InitializeCriticalSectionAndSpinCount@8 0402cc06 f   kernel32:KERNEL32.dll
 0001:0002bc0c       _SetConsoleCtrlHandler@8   0402cc0c f   kernel32:KERNEL32.dll
 0001:0002bc12       _FreeLibrary@4             0402cc12 f   kernel32:KERNEL32.dll
 0001:0002bc18       _InterlockedExchange@8     0402cc18 f   kernel32:KERNEL32.dll
 0001:0002bc1e       _LoadLibraryA@4            0402cc1e f   kernel32:KERNEL32.dll
 0001:0002bc24       _SetStdHandle@8            0402cc24 f   kernel32:KERNEL32.dll
 0001:0002bc2a       _WriteConsoleA@20          0402cc2a f   kernel32:KERNEL32.dll
 0001:0002bc30       _GetConsoleOutputCP@0      0402cc30 f   kernel32:KERNEL32.dll
 0001:0002bc36       _WriteConsoleW@20          0402cc36 f   kernel32:KERNEL32.dll
 0001:0002bc3c       _MultiByteToWideChar@24    0402cc3c f   kernel32:KERNEL32.dll
 0001:0002bc42       _LCMapStringA@24           0402cc42 f   kernel32:KERNEL32.dll
 0001:0002bc48       _LCMapStringW@24           0402cc48 f   kernel32:KERNEL32.dll
 0001:0002bc4e       _GetStringTypeA@20         0402cc4e f   kernel32:KERNEL32.dll
 0001:0002bc54       _GetStringTypeW@16         0402cc54 f   kernel32:KERNEL32.dll
 0001:0002bc5a       _GetTimeFormatA@24         0402cc5a f   kernel32:KERNEL32.dll
 0001:0002bc60       _GetDateFormatA@24         0402cc60 f   kernel32:KERNEL32.dll
 0001:0002bc66       _GetUserDefaultLCID@0      0402cc66 f   kernel32:KERNEL32.dll
 0001:0002bc6c       _GetLocaleInfoA@16         0402cc6c f   kernel32:KERNEL32.dll
 0001:0002bc72       _EnumSystemLocalesA@8      0402cc72 f   kernel32:KERNEL32.dll
 0001:0002bc78       _IsValidLocale@8           0402cc78 f   kernel32:KERNEL32.dll
 0001:0002bc7e       _GetLocaleInfoW@16         0402cc7e f   kernel32:KERNEL32.dll
 0001:0002bc84       _CreateFileA@28            0402cc84 f   kernel32:KERNEL32.dll
 0001:0002bc8a       _CloseHandle@4             0402cc8a f   kernel32:KERNEL32.dll
 0001:0002bc90       _FlushFileBuffers@4        0402cc90 f   kernel32:KERNEL32.dll
 0001:0002bc96       _GetTimeZoneInformation@4  0402cc96 f   kernel32:KERNEL32.dll
 0001:0002bc9c       _CompareStringA@24         0402cc9c f   kernel32:KERNEL32.dll
 0001:0002bca2       _CompareStringW@24         0402cca2 f   kernel32:KERNEL32.dll
 0001:0002bca8       _SetEnvironmentVariableA@8 0402cca8 f   kernel32:KERNEL32.dll
 0002:00000000       __imp__GetPrivateProfileStringA@24 0402d000     kernel32:KERNEL32.dll
 0002:00000004       __imp__GetPrivateProfileIntA@16 0402d004     kernel32:KERNEL32.dll
 0002:00000008       __imp__WritePrivateProfileStringA@16 0402d008     kernel32:KERNEL32.dll
 0002:0000000c       __imp__CompareStringW@24   0402d00c     kernel32:KERNEL32.dll
 0002:00000010       __imp__CompareStringA@24   0402d010     kernel32:KERNEL32.dll
 0002:00000014       __imp__GetTimeZoneInformation@4 0402d014     kernel32:KERNEL32.dll
 0002:00000018       __imp__FlushFileBuffers@4  0402d018     kernel32:KERNEL32.dll
 0002:0000001c       __imp__CloseHandle@4       0402d01c     kernel32:KERNEL32.dll
 0002:00000020       __imp__CreateFileA@28      0402d020     kernel32:KERNEL32.dll
 0002:00000024       __imp__GetLocaleInfoW@16   0402d024     kernel32:KERNEL32.dll
 0002:00000028       __imp__IsValidLocale@8     0402d028     kernel32:KERNEL32.dll
 0002:0000002c       __imp__EnumSystemLocalesA@8 0402d02c     kernel32:KERNEL32.dll
 0002:00000030       __imp__GetLocaleInfoA@16   0402d030     kernel32:KERNEL32.dll
 0002:00000034       __imp__GetUserDefaultLCID@0 0402d034     kernel32:KERNEL32.dll
 0002:00000038       __imp__GetDateFormatA@24   0402d038     kernel32:KERNEL32.dll
 0002:0000003c       __imp__GetTimeFormatA@24   0402d03c     kernel32:KERNEL32.dll
 0002:00000040       __imp__GetStringTypeW@16   0402d040     kernel32:KERNEL32.dll
 0002:00000044       __imp__GetStringTypeA@20   0402d044     kernel32:KERNEL32.dll
 0002:00000048       __imp__LCMapStringW@24     0402d048     kernel32:KERNEL32.dll
 0002:0000004c       __imp__LCMapStringA@24     0402d04c     kernel32:KERNEL32.dll
 0002:00000050       __imp__MultiByteToWideChar@24 0402d050     kernel32:KERNEL32.dll
 0002:00000054       __imp__WriteConsoleW@20    0402d054     kernel32:KERNEL32.dll
 0002:00000058       __imp__GetConsoleOutputCP@0 0402d058     kernel32:KERNEL32.dll
 0002:0000005c       __imp__WriteConsoleA@20    0402d05c     kernel32:KERNEL32.dll
 0002:00000060       __imp__SetStdHandle@8      0402d060     kernel32:KERNEL32.dll
 0002:00000064       __imp__LoadLibraryA@4      0402d064     kernel32:KERNEL32.dll
 0002:00000068       __imp__InterlockedExchange@8 0402d068     kernel32:KERNEL32.dll
 0002:0000006c       __imp__FreeLibrary@4       0402d06c     kernel32:KERNEL32.dll
 0002:00000070       __imp__SetConsoleCtrlHandler@8 0402d070     kernel32:KERNEL32.dll
 0002:00000074       __imp__InitializeCriticalSectionAndSpinCount@8 0402d074     kernel32:KERNEL32.dll
 0002:00000078       __imp__IsValidCodePage@4   0402d078     kernel32:KERNEL32.dll
 0002:0000007c       __imp__GetOEMCP@0          0402d07c     kernel32:KERNEL32.dll
 0002:00000080       __imp__GetACP@0            0402d080     kernel32:KERNEL32.dll
 0002:00000084       __imp__GetCPInfo@8         0402d084     kernel32:KERNEL32.dll
 0002:00000088       __imp__GetConsoleMode@8    0402d088     kernel32:KERNEL32.dll
 0002:0000008c       __imp__GetConsoleCP@0      0402d08c     kernel32:KERNEL32.dll
 0002:00000090       __imp__SetFilePointer@16   0402d090     kernel32:KERNEL32.dll
 0002:00000094       __imp__GetSystemTimeAsFileTime@4 0402d094     kernel32:KERNEL32.dll
 0002:00000098       __imp__GetCurrentProcessId@0 0402d098     kernel32:KERNEL32.dll
 0002:0000009c       __imp__GetTickCount@0      0402d09c     kernel32:KERNEL32.dll
 0002:000000a0       __imp__QueryPerformanceCounter@4 0402d0a0     kernel32:KERNEL32.dll
 0002:000000a4       __imp__GetEnvironmentStringsW@0 0402d0a4     kernel32:KERNEL32.dll
 0002:000000a8       __imp__WideCharToMultiByte@32 0402d0a8     kernel32:KERNEL32.dll
 0002:000000ac       __imp__FreeEnvironmentStringsW@4 0402d0ac     kernel32:KERNEL32.dll
 0002:000000b0       __imp__GetEnvironmentStrings@0 0402d0b0     kernel32:KERNEL32.dll
 0002:000000b4       __imp__FreeEnvironmentStringsA@4 0402d0b4     kernel32:KERNEL32.dll
 0002:000000b8       __imp__GetStartupInfoA@4   0402d0b8     kernel32:KERNEL32.dll
 0002:000000bc       __imp__GetFileType@4       0402d0bc     kernel32:KERNEL32.dll
 0002:000000c0       __imp__SetHandleCount@4    0402d0c0     kernel32:KERNEL32.dll
 0002:000000c4       __imp__HeapAlloc@12        0402d0c4     kernel32:KERNEL32.dll
 0002:000000c8       __imp__TerminateProcess@8  0402d0c8     kernel32:KERNEL32.dll
 0002:000000cc       __imp__GetCurrentProcess@0 0402d0cc     kernel32:KERNEL32.dll
 0002:000000d0       __imp__UnhandledExceptionFilter@4 0402d0d0     kernel32:KERNEL32.dll
 0002:000000d4       __imp__SetUnhandledExceptionFilter@4 0402d0d4     kernel32:KERNEL32.dll
 0002:000000d8       __imp__IsDebuggerPresent@0 0402d0d8     kernel32:KERNEL32.dll
 0002:000000dc       __imp__RaiseException@16   0402d0dc     kernel32:KERNEL32.dll
 0002:000000e0       __imp__RtlUnwind@16        0402d0e0     kernel32:KERNEL32.dll
 0002:000000e4       __imp__GetLastError@0      0402d0e4     kernel32:KERNEL32.dll
 0002:000000e8       __imp__HeapFree@12         0402d0e8     kernel32:KERNEL32.dll
 0002:000000ec       __imp__GetCurrentThreadId@0 0402d0ec     kernel32:KERNEL32.dll
 0002:000000f0       __imp__GetCommandLineA@0   0402d0f0     kernel32:KERNEL32.dll
 0002:000000f4       __imp__GetProcAddress@8    0402d0f4     kernel32:KERNEL32.dll
 0002:000000f8       __imp__GetModuleHandleA@4  0402d0f8     kernel32:KERNEL32.dll
 0002:000000fc       __imp__DeleteCriticalSection@4 0402d0fc     kernel32:KERNEL32.dll
 0002:00000100       __imp__LeaveCriticalSection@4 0402d100     kernel32:KERNEL32.dll
 0002:00000104       __imp__FatalAppExitA@8     0402d104     kernel32:KERNEL32.dll
 0002:00000108       __imp__EnterCriticalSection@4 0402d108     kernel32:KERNEL32.dll
 0002:0000010c       __imp__VirtualFree@12      0402d10c     kernel32:KERNEL32.dll
 0002:00000110       __imp__VirtualAlloc@16     0402d110     kernel32:KERNEL32.dll
 0002:00000114       __imp__HeapReAlloc@16      0402d114     kernel32:KERNEL32.dll
 0002:00000118       __imp__HeapCreate@12       0402d118     kernel32:KERNEL32.dll
 0002:0000011c       __imp__HeapDestroy@4       0402d11c     kernel32:KERNEL32.dll
 0002:00000120       __imp__GetModuleHandleW@4  0402d120     kernel32:KERNEL32.dll
 0002:00000124       __imp__Sleep@4             0402d124     kernel32:KERNEL32.dll
 0002:00000128       __imp__ExitProcess@4       0402d128     kernel32:KERNEL32.dll
 0002:0000012c       __imp__WriteFile@20        0402d12c     kernel32:KERNEL32.dll
 0002:00000130       __imp__GetStdHandle@4      0402d130     kernel32:KERNEL32.dll
 0002:00000134       __imp__GetModuleFileNameA@12 0402d134     kernel32:KERNEL32.dll
 0002:00000138       __imp__TlsGetValue@4       0402d138     kernel32:KERNEL32.dll
 0002:0000013c       __imp__TlsAlloc@0          0402d13c     kernel32:KERNEL32.dll
 0002:00000140       __imp__TlsSetValue@8       0402d140     kernel32:KERNEL32.dll
 0002:00000144       __imp__TlsFree@4           0402d144     kernel32:KERNEL32.dll
 0002:00000148       __imp__InterlockedIncrement@4 0402d148     kernel32:KERNEL32.dll
 0002:0000014c       __imp__SetLastError@4      0402d14c     kernel32:KERNEL32.dll
 0002:00000150       __imp__InterlockedDecrement@4 0402d150     kernel32:KERNEL32.dll
 0002:00000154       __imp__GetCurrentThread@0  0402d154     kernel32:KERNEL32.dll
 0002:00000158       __imp__HeapSize@12         0402d158     kernel32:KERNEL32.dll
 0002:0000015c       __imp__SetEnvironmentVariableA@8 0402d15c     kernel32:KERNEL32.dll
 0002:00000160       \177KERNEL32_NULL_THUNK_DATA 0402d160     kernel32:KERNEL32.dll
 0002:00000164       __imp__bRunNextCommand     0402d164     mq2main:MQ2Main.dll
 0002:00000168       __imp__GetArg              0402d168     mq2main:MQ2Main.dll
 0002:0000016c       __imp__GetNextArg          0402d16c     mq2main:MQ2Main.dll
 0002:00000170       __imp__SyntaxError         0402d170     mq2main:MQ2Main.dll
 0002:00000174       __imp__WriteChatColor      0402d174     mq2main:MQ2Main.dll
 0002:00000178       __imp__FormatSearchSpawn   0402d178     mq2main:MQ2Main.dll
 0002:0000017c       __imp__ClearSearchSpawn    0402d17c     mq2main:MQ2Main.dll
 0002:00000180       __imp__ParseSearchSpawn    0402d180     mq2main:MQ2Main.dll
 0002:00000184       __imp__EnterMQ2Benchmark   0402d184     mq2main:MQ2Main.dll
 0002:00000188       __imp__GetCXStr            0402d188     mq2main:MQ2Main.dll
 0002:0000018c       __imp__ppLocalPlayer       0402d18c     mq2main:MQ2Main.dll
 0002:00000190       __imp__get_melee_range     0402d190     mq2main:MQ2Main.dll
 0002:00000194       __imp__ExitMQ2Benchmark    0402d194     mq2main:MQ2Main.dll
 0002:00000198       __imp__ppItemList          0402d198     mq2main:MQ2Main.dll
 0002:0000019c       __imp__GetFriendlyNameForGroundItem 0402d19c     mq2main:MQ2Main.dll
 0002:000001a0       __imp__pSpawnType          0402d1a0     mq2main:MQ2Main.dll
 0002:000001a4       __imp__EnviroTarget        0402d1a4     mq2main:MQ2Main.dll
 0002:000001a8       __imp__ppWndMgr            0402d1a8     mq2main:MQ2Main.dll
 0002:000001ac       __imp_?GetKeyboardFlags@CXWndManager@EQClasses@@QBEIXZ 0402d1ac     mq2main:MQ2Main.dll
 0002:000001b0       __imp__HideDoCommand       0402d1b0     mq2main:MQ2Main.dll
 0002:000001b4       __imp__PI                  0402d1b4     mq2main:MQ2Main.dll
 0002:000001b8       __imp__ConColor            0402d1b8     mq2main:MQ2Main.dll
 0002:000001bc       __imp__ppTarget            0402d1bc     mq2main:MQ2Main.dll
 0002:000001c0       __imp__CleanupName         0402d1c0     mq2main:MQ2Main.dll
 0002:000001c4       __imp_?GetRaceDesc@CEverQuest@EQClasses@@QAEPADH@Z 0402d1c4     mq2main:MQ2Main.dll
 0002:000001c8       __imp_?GetClassThreeLetterCode@CEverQuest@EQClasses@@QAEPADH@Z 0402d1c8     mq2main:MQ2Main.dll
 0002:000001cc       __imp__SpawnMatchesSearch  0402d1cc     mq2main:MQ2Main.dll
 0002:000001d0       __imp_?IsBodyType@EQPlayer@EQClasses@@QAE_NIHH@Z 0402d1d0     mq2main:MQ2Main.dll
 0002:000001d4       __imp__ppEverQuest         0402d1d4     mq2main:MQ2Main.dll
 0002:000001d8       __imp_?GetClassDesc@CEverQuest@EQClasses@@QAEPADH@Z 0402d1d8     mq2main:MQ2Main.dll
 0002:000001dc       __imp__ppSpawnManager      0402d1dc     mq2main:MQ2Main.dll
 0002:000001e0       __imp_?GetSpawnByName@EQPlayerManager@EQClasses@@QAEPAVEQPlayer@2@PAD@Z 0402d1e0     mq2main:MQ2Main.dll
 0002:000001e4       __imp__AddMQ2Benchmark     0402d1e4     mq2main:MQ2Main.dll
 0002:000001e8       __imp__AddCommand          0402d1e8     mq2main:MQ2Main.dll
 0002:000001ec       __imp__AddDetourf          0402d1ec     mq2main:MQ2Main.dll
 0002:000001f0       __imp__AddMQ2Data          0402d1f0     mq2main:MQ2Main.dll
 0002:000001f4       __imp__RemoveMQ2Data       0402d1f4     mq2main:MQ2Main.dll
 0002:000001f8       __imp__RemoveDetour        0402d1f8     mq2main:MQ2Main.dll
 0002:000001fc       __imp__RemoveMQ2Benchmark  0402d1fc     mq2main:MQ2Main.dll
 0002:00000200       __imp__RemoveCommand       0402d200     mq2main:MQ2Main.dll
 0002:00000204       __imp__ppCurrentMapLabel   0402d204     mq2main:MQ2Main.dll
 0002:00000208       __imp__ppMapViewWnd        0402d208     mq2main:MQ2Main.dll
 0002:0000020c       __imp__DebugSpewAlways     0402d20c     mq2main:MQ2Main.dll
 0002:00000210       __imp__gszINIPath          0402d210     mq2main:MQ2Main.dll
 0002:00000214       __imp__ppCharData          0402d214     mq2main:MQ2Main.dll
 0002:00000218       \177MQ2Main_NULL_THUNK_DATA 0402d218     mq2main:MQ2Main.dll
 0002:0000021c       ___xc_a                    0402d21c     LIBCMT:crt0init.obj
 0002:0000022c       ___xc_z                    0402d22c     LIBCMT:crt0init.obj
 0002:00000230       ___xi_a                    0402d230     LIBCMT:crt0init.obj
 0002:00000248       ___xi_z                    0402d248     LIBCMT:crt0init.obj
 0002:0000024c       ___xp_a                    0402d24c     LIBCMT:crt0init.obj
 0002:00000258       ___xp_z                    0402d258     LIBCMT:crt0init.obj
 0002:0000025c       ___xt_a                    0402d25c     LIBCMT:crt0init.obj
 0002:00000260       ___xt_z                    0402d260     LIBCMT:crt0init.obj
 0002:0000028c       ??_C@_0BF@LGBFDMPJ@Displays?5mercenaries?$AA@ 0402d28c     MQ2Map.obj
 0002:000002a4       ??_C@_09GBMHKGMF@Mercenary?$AA@ 0402d2a4     MQ2Map.obj
 0002:000002b0       ??_C@_0BE@GHNOPAIP@Displays?5PC?5corpses?$AA@ 0402d2b0     MQ2Map.obj
 0002:000002c4       ??_C@_08OGOHOHJK@PCCorpse?$AA@ 0402d2c4     MQ2Map.obj
 0002:000002d0       ??_C@_0BD@JPNOPEKJ@Displays?5campfires?$AA@ 0402d2d0     MQ2Map.obj
 0002:000002e4       ??_C@_08BMEIENOK@Campfire?$AA@ 0402d2e4     MQ2Map.obj
 0002:000002f0       ??_C@_0BB@MIBIIJJH@Displays?5banners?$AA@ 0402d2f0     MQ2Map.obj
 0002:00000304       ??_C@_06NMEBMDIN@Banner?$AA@ 0402d304     MQ2Map.obj
 0002:0000030c       ??_C@_0BL@DNNBINLO@Displays?5inanimate?5objects?$AA@ 0402d30c     MQ2Map.obj
 0002:00000328       ??_C@_06ELFECKBG@Object?$AA@ 0402d328     MQ2Map.obj
 0002:00000330       ??_C@_0P@MFNKOHEC@Displays?5Auras?$AA@ 0402d330     MQ2Map.obj
 0002:00000340       ??_C@_04CLDMMPGN@Aura?$AA@ 0402d340     MQ2Map.obj
 0002:00000348       ??_C@_0EF@GPMEONDP@Sets?5radius?5of?52nd?5casting?5circl@ 0402d348     MQ2Map.obj
 0002:00000390       ??_C@_0M@DAGGCGAE@SpellRadius?$AA@ 0402d390     MQ2Map.obj
 0002:0000039c       ??_C@_0CL@DEEGFBCE@Allows?5display?5of?5right?9click?5co@ 0402d39c     MQ2Map.obj
 0002:000003c8       ??_C@_04IFEHPILC@Menu?$AA@ 0402d3c8     MQ2Map.obj
 0002:000003d0       ??_C@_0BO@EPGNHJGM@Toggles?5non?9MQ2?5label?5display?$AA@ 0402d3d0     MQ2Map.obj
 0002:000003f0       ??_C@_0N@EJPLGLGB@NormalLabels?$AA@ 0402d3f0     MQ2Map.obj
 0002:00000400       ??_C@_0EB@BBONMFMH@Sets?5radius?5of?5casting?5circle?5to@ 0402d400     MQ2Map.obj
 0002:00000444       ??_C@_0L@PJFPDCC@CastRadius?$AA@ 0402d444     MQ2Map.obj
 0002:00000450       ??_C@_0CF@FPDOKDII@Sets?5custom?5filter?5?$CIomit?5to?5disa@ 0402d450     MQ2Map.obj
 0002:00000478       ??_C@_06IFGIOHDE@Custom?$AA@ 0402d478     MQ2Map.obj
 0002:00000480       ??_C@_0BJ@BANMDFPG@Displays?5heading?5vectors?$AA@ 0402d480     MQ2Map.obj
 0002:0000049c       ??_C@_06BOOCMPNK@Vector?$AA@ 0402d49c     MQ2Map.obj
 0002:000004a4       ??_C@_0CO@MAIDMKHH@Draws?5a?5melee?9range?5circle?5aroun@ 0402d4a4     MQ2Map.obj
 0002:000004d4       ??_C@_0M@KFONMNCJ@TargetMelee?$AA@ 0402d4d4     MQ2Map.obj
 0002:000004e0       ??_C@_0EO@MLIGMAAC@Sets?5radius?5of?5a?5circle?5around?5y@ 0402d4e0     MQ2Map.obj
 0002:00000530       ??_C@_0N@CKICKGKM@TargetRadius?$AA@ 0402d530     MQ2Map.obj
 0002:00000540       ??_C@_0BP@BMADEEOM@Displays?5a?5line?5to?5your?5target?$AA@ 0402d540     MQ2Map.obj
 0002:00000560       ??_C@_0L@KOJCJFJG@TargetLine?$AA@ 0402d560     MQ2Map.obj
 0002:0000056c       ??_C@_0BF@PIOBBEI@Displays?5your?5target?$AA@ 0402d56c     MQ2Map.obj
 0002:00000584       ??_C@_06FGANPIPG@Target?$AA@ 0402d584     MQ2Map.obj
 0002:0000058c       ??_C@_0BG@NLPILMEO@Displays?5ground?5items?$AA@ 0402d58c     MQ2Map.obj
 0002:000005a4       ??_C@_06KBIODPAH@Ground?$AA@ 0402d5a4     MQ2Map.obj
 0002:000005ac       ??_C@_0BH@KOJEDIKP@Displays?5hidden?5timers?$AA@ 0402d5ac     MQ2Map.obj
 0002:000005c4       ??_C@_05NHFJDMOA@Timer?$AA@ 0402d5c4     MQ2Map.obj
 0002:000005cc       ??_C@_0BG@NCEOIMJP@Displays?5hidden?5traps?$AA@ 0402d5cc     MQ2Map.obj
 0002:000005e4       ??_C@_04FDFCNBBP@Trap?$AA@ 0402d5e4     MQ2Map.obj
 0002:000005ec       ??_C@_0BJ@BHNOJIPD@Displays?5hidden?5triggers?$AA@ 0402d5ec     MQ2Map.obj
 0002:00000608       ??_C@_07MBELDEGC@Trigger?$AA@ 0402d608     MQ2Map.obj
 0002:00000610       ??_C@_0BE@LFPPNCBB@Displays?5chestesses?$AA@ 0402d610     MQ2Map.obj
 0002:00000624       ??_C@_05HPKPHHNI@Chest?$AA@ 0402d624     MQ2Map.obj
 0002:0000062c       ??_C@_0BF@EAJHJCPG@Displays?5NPC?5corpses?$AA@ 0402d62c     MQ2Map.obj
 0002:00000644       ??_C@_06EIMCKIDC@Corpse?$AA@ 0402d644     MQ2Map.obj
 0002:0000064c       ??_C@_0O@BJPBBGPG@Displays?5pets?$AA@ 0402d64c     MQ2Map.obj
 0002:0000065c       ??_C@_03BAPJJKHI@Pet?$AA@  0402d65c     MQ2Map.obj
 0002:00000660       ??_C@_0BL@ODCHELIC@Displays?5Untargetable?5NPCs?$AA@ 0402d660     MQ2Map.obj
 0002:0000067c       ??_C@_0N@HEOPGOIB@Untargetable?$AA@ 0402d67c     MQ2Map.obj
 0002:0000068c       ??_C@_0CB@FBKMJLFO@Displays?5NPCs?5in?5consider?5colors@ 0402d68c     MQ2Map.obj
 0002:000006b0       ??_C@_0M@NIMKMBBI@NPCConColor?$AA@ 0402d6b0     MQ2Map.obj
 0002:000006bc       ??_C@_0O@OBDBOLJH@Displays?5NPCs?$AA@ 0402d6bc     MQ2Map.obj
 0002:000006cc       ??_C@_03BCJIDNJL@NPC?$AA@  0402d6cc     MQ2Map.obj
 0002:000006d0       ??_C@_0BA@NJFJHILI@Displays?5mounts?$AA@ 0402d6d0     MQ2Map.obj
 0002:000006e0       ??_C@_05LDGCKNAE@Mount?$AA@ 0402d6e0     MQ2Map.obj
 0002:000006e8       ??_C@_0CL@LMLDJBMG@Displays?5group?5members?5in?5a?5spec@ 0402d6e8     MQ2Map.obj
 0002:00000714       ??_C@_05MBDCODDP@Group?$AA@ 0402d714     MQ2Map.obj
 0002:0000071c       ??_C@_0CA@GEMIMMMC@Displays?5PCs?5in?5consider?5colors?$AA@ 0402d71c     MQ2Map.obj
 0002:0000073c       ??_C@_0L@BBMKNCHF@PCConColor?$AA@ 0402d73c     MQ2Map.obj
 0002:00000748       ??_C@_0N@IHJPKELL@Displays?5PCs?$AA@ 0402d748     MQ2Map.obj
 0002:00000758       ??_C@_02LHFGBEJL@PC?$AA@   0402d758     MQ2Map.obj
 0002:0000075c       ??_C@_0BP@KCMJEHJD@Enables?1disables?5map?5functions?$AA@ 0402d75c     MQ2Map.obj
 0002:0000077c       ??_C@_03HFJGAJFE@All?$AA@  0402d77c     MQ2Map.obj
 0002:00000780       ??_C@_03BMIBANNE@ber?$AA@  0402d780     MQ2Map.obj
 0002:00000784       ??_C@_09MHCCJHFP@Berserker?$AA@ 0402d784     MQ2Map.obj
 0002:00000790       ??_C@_03FCHAHFJA@bst?$AA@  0402d790     MQ2Map.obj
 0002:00000794       ??_C@_09KINPMODP@Beastlord?$AA@ 0402d794     MQ2Map.obj
 0002:000007a0       ??_C@_03NONKPJJM@enc?$AA@  0402d7a0     MQ2Map.obj
 0002:000007a4       ??_C@_09EEJIJECG@Enchanter?$AA@ 0402d7a4     MQ2Map.obj
 0002:000007b0       ??_C@_03HEFOFDEK@mag?$AA@  0402d7b0     MQ2Map.obj
 0002:000007b4       ??_C@_04EPDGEGDL@Mage?$AA@ 0402d7b4     MQ2Map.obj
 0002:000007bc       ??_C@_03LKIFNJBF@wiz?$AA@  0402d7bc     MQ2Map.obj
 0002:000007c0       ??_C@_06MNAGNDLP@Wizard?$AA@ 0402d7c0     MQ2Map.obj
 0002:000007c8       ??_C@_03FIOJBHM@nec?$AA@   0402d7c8     MQ2Map.obj
 0002:000007cc       ??_C@_0M@OEPIPDJH@Necromancer?$AA@ 0402d7cc     MQ2Map.obj
 0002:000007d8       ??_C@_03DBKGKAOD@shm?$AA@  0402d7d8     MQ2Map.obj
 0002:000007dc       ??_C@_06ELHMMIIB@Shaman?$AA@ 0402d7dc     MQ2Map.obj
 0002:000007e4       ??_C@_03HGLKDJIJ@rog?$AA@  0402d7e4     MQ2Map.obj
 0002:000007e8       ??_C@_05PIFIONNP@Rogue?$AA@ 0402d7e8     MQ2Map.obj
 0002:000007f0       ??_C@_03BJHAANPG@brd?$AA@  0402d7f0     MQ2Map.obj
 0002:000007f4       ??_C@_04MOJAIBDA@Bard?$AA@ 0402d7f4     MQ2Map.obj
 0002:000007fc       ??_C@_03NDLHFLHL@mnk?$AA@  0402d7fc     MQ2Map.obj
 0002:00000800       ??_C@_04DOLLCHAJ@Monk?$AA@ 0402d800     MQ2Map.obj
 0002:00000808       ??_C@_03GPMCHBDK@dru?$AA@  0402d808     MQ2Map.obj
 0002:0000080c       ??_C@_05EDJAKLCL@Druid?$AA@ 0402d80c     MQ2Map.obj
 0002:00000814       ??_C@_03OAGEBLKK@shd?$AA@  0402d814     MQ2Map.obj
 0002:00000818       ??_C@_0N@ICIHEJOD@Shadowknight?$AA@ 0402d818     MQ2Map.obj
 0002:00000828       ??_C@_03HHHIFDLO@rng?$AA@  0402d828     MQ2Map.obj
 0002:0000082c       ??_C@_06MGJHBAMJ@Ranger?$AA@ 0402d82c     MQ2Map.obj
 0002:00000834       ??_C@_03DFNJAFMD@pal?$AA@  0402d834     MQ2Map.obj
 0002:00000838       ??_C@_07DBGCNDAP@Paladin?$AA@ 0402d838     MQ2Map.obj
 0002:00000840       ??_C@_03KLOMFBDO@clr?$AA@  0402d840     MQ2Map.obj
 0002:00000844       ??_C@_06PBHENIKF@Cleric?$AA@ 0402d844     MQ2Map.obj
 0002:0000084c       ??_C@_03HMEPACKF@war?$AA@  0402d84c     MQ2Map.obj
 0002:00000850       ??_C@_07DFKLKNJN@Warrior?$AA@ 0402d850     MQ2Map.obj
 0002:00000858       ??_C@_00CNPNBAHC@?$AA@     0402d858     MQ2Map.obj
 0002:0000085c       ??_C@_0P@GHFPNOJB@bad?5allocation?$AA@ 0402d85c     MQ2Map.obj
 0002:0000086c       ?collate@?$_Locbase@H@std@@2HB 0402d86c     MQ2Map.obj
 0002:00000870       ?ctype@?$_Locbase@H@std@@2HB 0402d870     MQ2Map.obj
 0002:00000874       ?monetary@?$_Locbase@H@std@@2HB 0402d874     MQ2Map.obj
 0002:00000878       ?numeric@?$_Locbase@H@std@@2HB 0402d878     MQ2Map.obj
 0002:0000087c       ?time@?$_Locbase@H@std@@2HB 0402d87c     MQ2Map.obj
 0002:00000880       ?messages@?$_Locbase@H@std@@2HB 0402d880     MQ2Map.obj
 0002:00000884       ?all@?$_Locbase@H@std@@2HB 0402d884     MQ2Map.obj
 0002:00000888       ?none@?$_Locbase@H@std@@2HB 0402d888     MQ2Map.obj
 0002:0000088c       ?table_size@?$ctype@D@std@@2IB 0402d88c     MQ2Map.obj
 0002:00000890       ?skipws@?$_Iosb@H@std@@2W4_Fmtflags@12@B 0402d890     MQ2Map.obj
 0002:00000894       ?unitbuf@?$_Iosb@H@std@@2W4_Fmtflags@12@B 0402d894     MQ2Map.obj
 0002:00000898       ?uppercase@?$_Iosb@H@std@@2W4_Fmtflags@12@B 0402d898     MQ2Map.obj
 0002:0000089c       ?showbase@?$_Iosb@H@std@@2W4_Fmtflags@12@B 0402d89c     MQ2Map.obj
 0002:000008a0       ?showpoint@?$_Iosb@H@std@@2W4_Fmtflags@12@B 0402d8a0     MQ2Map.obj
 0002:000008a4       ?showpos@?$_Iosb@H@std@@2W4_Fmtflags@12@B 0402d8a4     MQ2Map.obj
 0002:000008a8       ?left@?$_Iosb@H@std@@2W4_Fmtflags@12@B 0402d8a8     MQ2Map.obj
 0002:000008ac       ?right@?$_Iosb@H@std@@2W4_Fmtflags@12@B 0402d8ac     MQ2Map.obj
 0002:000008b0       ?internal@?$_Iosb@H@std@@2W4_Fmtflags@12@B 0402d8b0     MQ2Map.obj
 0002:000008b4       ?dec@?$_Iosb@H@std@@2W4_Fmtflags@12@B 0402d8b4     MQ2Map.obj
 0002:000008b8       ?oct@?$_Iosb@H@std@@2W4_Fmtflags@12@B 0402d8b8     MQ2Map.obj
 0002:000008bc       ?hex@?$_Iosb@H@std@@2W4_Fmtflags@12@B 0402d8bc     MQ2Map.obj
 0002:000008c0       ?scientific@?$_Iosb@H@std@@2W4_Fmtflags@12@B 0402d8c0     MQ2Map.obj
 0002:000008c4       ?fixed@?$_Iosb@H@std@@2W4_Fmtflags@12@B 0402d8c4     MQ2Map.obj
 0002:000008c8       ?hexfloat@?$_Iosb@H@std@@2W4_Fmtflags@12@B 0402d8c8     MQ2Map.obj
 0002:000008cc       ?boolalpha@?$_Iosb@H@std@@2W4_Fmtflags@12@B 0402d8cc     MQ2Map.obj
 0002:000008d0       ?_Stdio@?$_Iosb@H@std@@2W4_Fmtflags@12@B 0402d8d0     MQ2Map.obj
 0002:000008d4       ?adjustfield@?$_Iosb@H@std@@2W4_Fmtflags@12@B 0402d8d4     MQ2Map.obj
 0002:000008d8       ?basefield@?$_Iosb@H@std@@2W4_Fmtflags@12@B 0402d8d8     MQ2Map.obj
 0002:000008dc       ?floatfield@?$_Iosb@H@std@@2W4_Fmtflags@12@B 0402d8dc     MQ2Map.obj
 0002:000008e0       ?goodbit@?$_Iosb@H@std@@2W4_Iostate@12@B 0402d8e0     MQ2Map.obj
 0002:000008e4       ?eofbit@?$_Iosb@H@std@@2W4_Iostate@12@B 0402d8e4     MQ2Map.obj
 0002:000008e8       ?failbit@?$_Iosb@H@std@@2W4_Iostate@12@B 0402d8e8     MQ2Map.obj
 0002:000008ec       ?badbit@?$_Iosb@H@std@@2W4_Iostate@12@B 0402d8ec     MQ2Map.obj
 0002:000008f0       ?_Hardfail@?$_Iosb@H@std@@2W4_Iostate@12@B 0402d8f0     MQ2Map.obj
 0002:000008f4       ?in@?$_Iosb@H@std@@2W4_Openmode@12@B 0402d8f4     MQ2Map.obj
 0002:000008f8       ?out@?$_Iosb@H@std@@2W4_Openmode@12@B 0402d8f8     MQ2Map.obj
 0002:000008fc       ?ate@?$_Iosb@H@std@@2W4_Openmode@12@B 0402d8fc     MQ2Map.obj
 0002:00000900       ?app@?$_Iosb@H@std@@2W4_Openmode@12@B 0402d900     MQ2Map.obj
 0002:00000904       ?trunc@?$_Iosb@H@std@@2W4_Openmode@12@B 0402d904     MQ2Map.obj
 0002:00000908       ?_Nocreate@?$_Iosb@H@std@@2W4_Openmode@12@B 0402d908     MQ2Map.obj
 0002:0000090c       ?_Noreplace@?$_Iosb@H@std@@2W4_Openmode@12@B 0402d90c     MQ2Map.obj
 0002:00000910       ?binary@?$_Iosb@H@std@@2W4_Openmode@12@B 0402d910     MQ2Map.obj
 0002:00000914       ?beg@?$_Iosb@H@std@@2W4_Seekdir@12@B 0402d914     MQ2Map.obj
 0002:00000918       ?cur@?$_Iosb@H@std@@2W4_Seekdir@12@B 0402d918     MQ2Map.obj
 0002:0000091c       ?end@?$_Iosb@H@std@@2W4_Seekdir@12@B 0402d91c     MQ2Map.obj
 0002:00000920       ??_C@_0BD@GHJBOHNK@?$CFs?5Module?5Unloaded?$AA@ 0402d920     MQ2Map.obj
 0002:00000934       ??_C@_09KADMDAPI@?$CFs?2?$CFs?4ini?$AA@ 0402d934     MQ2Map.obj
 0002:00000940       ??_C@_0BB@OIFMLBEG@?$CFs?5Module?5Loaded?$AA@ 0402d940     MQ2Map.obj
 0002:00000954       ??_C@_06FECIFMIN@MQ2Map?$AA@ 0402d954     MQ2Map.obj
 0002:0000095c       ??_C@_09KHDCEBAN@?1mapclick?$AA@ 0402d95c     MQ2Map.obj
 0002:00000968       ??_C@_09OKMIOFNO@?1mapnames?$AA@ 0402d968     MQ2Map.obj
 0002:00000974       ??_C@_0L@JBOJNOJE@?1highlight?$AA@ 0402d974     MQ2Map.obj
 0002:00000980       ??_C@_0L@GOFKCGMA@?1mapfilter?$AA@ 0402d980     MQ2Map.obj
 0002:0000098c       ??_C@_08EKKGHPAG@?1mapshow?$AA@ 0402d98c     MQ2Map.obj
 0002:00000998       ??_C@_08JBILCBMC@?1maphide?$AA@ 0402d998     MQ2Map.obj
 0002:000009a4       ??_C@_08JMJAENAD@MapSpawn?$AA@ 0402d9a4     MQ2Map.obj
 0002:000009b0       ??_C@_0BF@ONJPBIIM@Shutting?5down?5MQ2Map?$AA@ 0402d9b0     MQ2Map.obj
 0002:000009c8       ??_C@_0BM@FAMMOPNE@MQ2Map?3?3OnAddSpawn?$CI?$CFs?$CJ?5?$DN?5?$CFd?$AA@ 0402d9c8     MQ2Map.obj
 0002:000009e4       ??_C@_0BP@IAOIEKNC@MQ2Map?3?3OnRemoveSpawn?$CI?$CFs?$CJ?5?$DN?5?$CFd?$AA@ 0402d9e4     MQ2Map.obj
 0002:00000a04       ??_C@_0BM@MGEJOHDN@MQ2Map?3?3OnAddGroundItem?$CI?$CFd?$CJ?$AA@ 0402da04     MQ2Map.obj
 0002:00000a20       ??_C@_0BP@BGGNECDL@MQ2Map?3?3OnRemoveGroundItem?$CI?$CFd?$CJ?$AA@ 0402da20     MQ2Map.obj
 0002:00000a40       ??_C@_0M@BDGMFCOP@Right?5Click?$AA@ 0402da40     MQ2Map.obj
 0002:00000a4c       ??_C@_0L@NLPJGGFE@KeyCombo?$CFd?$AA@ 0402da4c     MQ2Map.obj
 0002:00000a58       ??_C@_0P@GPKOGBF@Naming?5Schemes?$AA@ 0402da58     MQ2Map.obj
 0002:00000a68       ??_C@_06EFAGIKOH@Normal?$AA@ 0402da68     MQ2Map.obj
 0002:00000a70       ??_C@_02FAMCMAGN@?$CFN?$AA@ 0402da70     MQ2Map.obj
 0002:00000a74       ??_C@_0M@BCCDBLAF@Map?5Filters?$AA@ 0402da74     MQ2Map.obj
 0002:00000a80       ??_C@_08OAPJKFBO@?$CFs?9Color?$AA@ 0402da80     MQ2Map.obj
 0002:00000a8c       ??_C@_0M@KLFNDJML@Map?5Refresh?$AA@ 0402da8c     MQ2Map.obj
 0002:00000a98       ??_C@_0BE@CHFPEIAH@Initializing?5MQ2Map?$AA@ 0402da98     MQ2Map.obj
 0002:00000ab0       ??_7bad_alloc@std@@6B@     0402dab0     MQ2MapAPI.obj
 0002:00000ab8       ??_C@_0N@HNJJIAEL@DoN?5Merchant?$AA@ 0402dab8     MQ2MapAPI.obj
 0002:00000ac8       ??_C@_0BC@MKJKIPEE@Mercenary?5Liaison?$AA@ 0402dac8     MQ2MapAPI.obj
 0002:00000adc       ??_C@_0BF@KHOIGALG@Fellowship?5Registrar?$AA@ 0402dadc     MQ2MapAPI.obj
 0002:00000af4       ??_C@_0N@BNCLDFOJ@Guild?5Banker?$AA@ 0402daf4     MQ2MapAPI.obj
 0002:00000b04       ??_C@_0BF@KMGKBJKG@Guild?5Tribute?5Master?$AA@ 0402db04     MQ2MapAPI.obj
 0002:00000b1c       ??_C@_0P@BKNMCCED@Tribute?5Master?$AA@ 0402db1c     MQ2MapAPI.obj
 0002:00000b2c       ??_C@_0BE@LNFKOHCE@Destructible?5Object?$AA@ 0402db2c     MQ2MapAPI.obj
 0002:00000b40       ??_C@_0O@MIBKNJNC@LDoN?5Merchant?$AA@ 0402db40     MQ2MapAPI.obj
 0002:00000b50       ??_C@_0P@HPHJOKMH@LDoN?5Recruiter?$AA@ 0402db50     MQ2MapAPI.obj
 0002:00000b60       ??_C@_0BB@MFFACEBI@Earthen_Strength?$AA@ 0402db60     MQ2MapAPI.obj
 0002:00000b74       ??_C@_0BA@LBPDCFNI@Guardian_Circle?$AA@ 0402db74     MQ2MapAPI.obj
 0002:00000b84       ??_C@_09LFLEJE@Circle_of?$AA@ 0402db84     MQ2MapAPI.obj
 0002:00000b90       ??_C@_04HNCMLNCP@Rune?$AA@ 0402db90     MQ2MapAPI.obj
 0002:00000b98       ??_C@_06ONLJKEMD@Poison?$AA@ 0402db98     MQ2MapAPI.obj
 0002:00000ba0       ??_C@_04FCLJPKDI@Idol?$AA@ 0402dba0     MQ2MapAPI.obj
 0002:00000ba8       ??_C@_07JAMANMOD@s_Mount?$AA@ 0402dba8     MQ2MapAPI.obj
 0002:00000bb0       ??_C@_04GGBPDDBN@?$CF?41f?$AA@ 0402dbb0     MQ2MapAPI.obj
 0002:00000bb8       __real@3f70000000000000    0402dbb8     MQ2MapAPI.obj
 0002:00000bc0       __real@4010000000000000    0402dbc0     MQ2MapAPI.obj
 0002:00000bc8       __real@00000000            0402dbc8     MQ2MapAPI.obj
 0002:00000bd0       ??_7logic_error@std@@6B@   0402dbd0     MQ2MapAPI.obj
 0002:00000bdc       ??_7length_error@std@@6B@  0402dbdc     MQ2MapAPI.obj
 0002:00000be8       ??_7out_of_range@std@@6B@  0402dbe8     MQ2MapAPI.obj
 0002:00000bf0       ??_C@_0BE@JONHPENG@map?1set?$DMT?$DO?5too?5long?$AA@ 0402dbf0     MQ2MapAPI.obj
 0002:00000c04       ??_C@_0BM@PAPJHAGI@invalid?5map?1set?$DMT?$DO?5iterator?$AA@ 0402dc04     MQ2MapAPI.obj
 0002:00000c20       __real@4066800000000000    0402dc20     MQ2MapAPI.obj
 0002:00000c28       __real@4f800000            0402dc28     MQ2MapAPI.obj
 0002:00000c2c       ??_C@_0BF@OGJCGGHK@?$CFs?5is?5now?5set?5to?3?5?$CFd?$AA@ 0402dc2c     MQ2MapCommands.obj
 0002:00000c44       ??_C@_0BG@NEIOAFGM@?$CFs?5is?5now?5set?5to?3?5Off?$AA@ 0402dc44     MQ2MapCommands.obj
 0002:00000c5c       ??_C@_0BF@ODBBOCOM@?$CFs?5is?5now?5set?5to?3?5?$CFs?$AA@ 0402dc5c     MQ2MapCommands.obj
 0002:00000c74       ??_C@_0BF@GMOPNIDJ@?$CFs?5?$CIColor?3?5?$CFd?5?$CFd?5?$CFd?$CJ?$AA@ 0402dc74     MQ2MapCommands.obj
 0002:00000c8c       ??_C@_06GBEGMGE@?$CFs?3?5?$CFd?$AA@ 0402dc8c     MQ2MapCommands.obj
 0002:00000c94       ??_C@_07COGBLOAF@?$CFs?3?5Off?$AA@ 0402dc94     MQ2MapCommands.obj
 0002:00000c9c       ??_C@_06DJHOIPC@?$CFs?3?5?$CFs?$AA@ 0402dc9c     MQ2MapCommands.obj
 0002:00000ca4       ??_C@_0DN@NNFLBIBB@?8?$CFs?8?5requires?5?8?$CFs?8?5option?4?5?5Plea@ 0402dca4     MQ2MapCommands.obj
 0002:00000ce4       ??_C@_04FKMICODN@show?$AA@ 0402dce4     MQ2MapCommands.obj
 0002:00000cec       ??_C@_04IBOFHAPJ@hide?$AA@ 0402dcec     MQ2MapCommands.obj
 0002:00000cf4       ??_C@_0CA@CNMOPKAN@Usage?3?5?1mapfilter?5?$FLoption?$HMhelp?$FN?$AA@ 0402dcf4     MQ2MapCommands.obj
 0002:00000d14       ??_C@_0CD@MAKIFGIC@Option?5?8?$CFs?8?5color?5set?5to?3?5?$CFd?5?$CFd?5@ 0402dd14     MQ2MapCommands.obj
 0002:00000d38       ??_C@_0CD@LMKAPICB@Option?5?8?$CFs?8?5does?5not?5have?5a?5colo@ 0402dd38     MQ2MapCommands.obj
 0002:00000d5c       ??_C@_05PEENBMOG@color?$AA@ 0402dd5c     MQ2MapCommands.obj
 0002:00000d68       ??_C@_0FC@BNPOELGJ@?8option?8?5color?5?$FLr?5g?5b?$FN?3?5Set?5disp@ 0402dd68     MQ2MapCommands.obj
 0002:00000dbc       ??_C@_08JCELHCLN@?$CFs?$CFs?3?5?$CFs?$AA@ 0402ddbc     MQ2MapCommands.obj
 0002:00000dc8       ??_C@_02IGFKBHGM@?5?$CD?$AA@ 0402ddc8     MQ2MapCommands.obj
 0002:00000dcc       ??_C@_0BH@NPCFMKGL@Map?5filtering?5options?3?$AA@ 0402ddcc     MQ2MapCommands.obj
 0002:00000de4       ??_C@_04PCJFHION@help?$AA@ 0402dde4     MQ2MapCommands.obj
 0002:00000dec       ??_C@_0BI@IBGPDPHJ@?9?9?9?9?9?9?9?9?9?9?9?9?9?9?9?9?9?9?9?9?9?9?9?$AA@ 0402ddec     MQ2MapCommands.obj
 0002:00000e04       ??_C@_0BI@FELDENKP@Map?5filtering?5settings?3?$AA@ 0402de04     MQ2MapCommands.obj
 0002:00000e1c       ??_C@_0DE@LKCLHOJH@Usage?3?5?1highlight?5?$FLreset?$HMspawnfi@ 0402de1c     MQ2MapCommands.obj
 0002:00000e50       ??_C@_0BN@FIOMIDKE@?$CFd?5mapped?5spawns?5highlighted?$AA@ 0402de50     MQ2MapCommands.obj
 0002:00000e70       ??_C@_0BD@JGOLFOOM@Highlighting?5reset?$AA@ 0402de70     MQ2MapCommands.obj
 0002:00000e84       ??_C@_05CFMALAOA@reset?$AA@ 0402de84     MQ2MapCommands.obj
 0002:00000e8c       ??_C@_0BK@KACKMPFG@Highlight?5color?3?5?$CFd?5?$CFd?5?$CFd?$AA@ 0402de8c     MQ2MapCommands.obj
 0002:00000ea8       ??_C@_0CE@IKCKHOBM@Usage?3?5?1maphide?5?$FLspawnfilter?$HMres@ 0402dea8     MQ2MapCommands.obj
 0002:00000ecc       ??_C@_0BI@FKLAMMMF@?$CFd?5mapped?5spawns?5hidden?$AA@ 0402decc     MQ2MapCommands.obj
 0002:00000ee4       ??_C@_0BH@KDGAJMEH@Map?5spawns?5regenerated?$AA@ 0402dee4     MQ2MapCommands.obj
 0002:00000efc       ??_C@_0CE@LLAFOAGL@Usage?3?5?1mapshow?5?$FLspawnfilter?$HMres@ 0402defc     MQ2MapCommands.obj
 0002:00000f20       ??_C@_0CC@HGOIGDJN@?$CFd?5previously?5hidden?5spawns?5show@ 0402df20     MQ2MapCommands.obj
 0002:00000f44       ??_C@_0CP@DKDPPANE@Usage?3?5?1mapnames?5?$DMtarget?$HMnormal?$DO@ 0402df44     MQ2MapCommands.obj
 0002:00000f74       ??_C@_06IKLLLDHL@normal?$AA@ 0402df74     MQ2MapCommands.obj
 0002:00000f7c       ??_C@_06JJLAMBGK@target?$AA@ 0402df7c     MQ2MapCommands.obj
 0002:00000f84       ??_C@_0BJ@MGDDGOPL@Target?5naming?5string?3?5?$CFs?$AA@ 0402df84     MQ2MapCommands.obj
 0002:00000fa0       ??_C@_0BJ@LIIOAEDN@Normal?5naming?5string?3?5?$CFs?$AA@ 0402dfa0     MQ2MapCommands.obj
 0002:00000fbc       ??_C@_07DJMIGIHO@Invalid?$AA@ 0402dfbc     MQ2MapCommands.obj
 0002:00000fc4       ??_C@_04DDMLKFJN@ralt?$AA@ 0402dfc4     MQ2MapCommands.obj
 0002:00000fcc       ??_C@_04OMBLIMHO@lalt?$AA@ 0402dfcc     MQ2MapCommands.obj
 0002:00000fd4       ??_C@_04JNCPKKCB@ctrl?$AA@ 0402dfd4     MQ2MapCommands.obj
 0002:00000fdc       ??_C@_05CLOOKOFG@shift?$AA@ 0402dfdc     MQ2MapCommands.obj
 0002:00000fe4       ??_C@_03FHLPDODD@alt?$AA@  0402dfe4     MQ2MapCommands.obj
 0002:00000fe8       ??_C@_01MIFGBAGJ@?$CL?$AA@ 0402dfe8     MQ2MapCommands.obj
 0002:00000fec       ??_C@_0L@JMJOFPBM@?$CFs?5cleared?$AA@ 0402dfec     MQ2MapCommands.obj
 0002:00000ff8       ??_C@_05MEHLAELG@clear?$AA@ 0402dff8     MQ2MapCommands.obj
 0002:00001000       ??_C@_0BD@CLNNJADA@Invalid?5combo?5?8?$CFs?8?$AA@ 0402e000     MQ2MapCommands.obj
 0002:00001014       ??_C@_0CA@GLJMCGBA@?$CFd?5special?5right?9click?5commands?$AA@ 0402e014     MQ2MapCommands.obj
 0002:00001034       ??_C@_04DONFEANM@list?$AA@ 0402e034     MQ2MapCommands.obj
 0002:0000103c       ??_C@_0DJ@HJHNMKAI@Usage?3?5?1mapclick?5?$DMlist?$HM?$DMkey?$FL?$CLkey@ 0402e03c     MQ2MapCommands.obj
 0002:0000107c       ??_7invalid_argument@std@@6B@ 0402e07c     libcpmt:string.obj
 0002:00001084       ??_C@_0BA@JFNIOLAK@string?5too?5long?$AA@ 0402e084     libcpmt:string.obj
 0002:00001094       ??_C@_0BI@CFPLBAOH@invalid?5string?5position?$AA@ 0402e094     libcpmt:string.obj
 0002:000010ac       ??_C@_0BI@ILCMCLF@invalid?5string?5argument?$AA@ 0402e0ac     libcpmt:string.obj
 0002:000010c4       __FPinit                   0402e0c4     LIBCMT:_fpinit_.obj
 0002:000010c8       __FPmtinit                 0402e0c8     LIBCMT:_fpinit_.obj
 0002:000010cc       __FPmtterm                 0402e0cc     LIBCMT:_fpinit_.obj
 0002:000010d4       ??_7exception@std@@6B@     0402e0d4     LIBCMT:stdexcpt.obj
 0002:000010dc       ??_C@_0BC@EOODALEL@Unknown?5exception?$AA@ 0402e0dc     LIBCMT:stdexcpt.obj
 0002:000010f4       ??_7bad_cast@std@@6B@      0402e0f4     LIBCMT:stdexcpt.obj
 0002:00001100       ??_7bad_typeid@std@@6B@    0402e100     LIBCMT:stdexcpt.obj
 0002:0000110c       ??_7__non_rtti_object@std@@6B@ 0402e10c     LIBCMT:stdexcpt.obj
 0002:00001118       ??_7type_info@@6B@         0402e118     LIBCMT:typinfo.obj
 0002:0000111c       ?ProcessDetach@NativeDll@<CrtImplementationDetails>@@0IB 0402e11c     LIBCMT:invarg.obj
 0002:00001120       ?ProcessAttach@NativeDll@<CrtImplementationDetails>@@0IB 0402e120     LIBCMT:invarg.obj
 0002:00001124       ?ThreadAttach@NativeDll@<CrtImplementationDetails>@@0IB 0402e124     LIBCMT:invarg.obj
 0002:00001128       ?ThreadDetach@NativeDll@<CrtImplementationDetails>@@0IB 0402e128     LIBCMT:invarg.obj
 0002:0000112c       ?ProcessVerifier@NativeDll@<CrtImplementationDetails>@@0IB 0402e12c     LIBCMT:invarg.obj
 0002:00001150       __pRawDllMain              0402e150     LIBCMT:dllcrt0.obj
 0002:00001150       __pDefaultRawDllMain       0402e150     LIBCMT:dllcrt0.obj
 0002:00001154       ??_C@_1O@CEDCILHN@?$AA?$CI?$AAn?$AAu?$AAl?$AAl?$AA?$CJ?$AA?$AA@ 0402e154     LIBCMT:output.obj
 0002:00001164       ??_C@_06OJHGLDPL@?$CInull?$CJ?$AA@ 0402e164     LIBCMT:output.obj
 0002:00001170       ___lookuptable             0402e170     LIBCMT:output.obj
 0002:000011d0       __real@0000000000000000    0402e1d0     LIBCMT:cvt.obj
 0002:000011d8       ??_C@_05KLBDPFGC@e?$CL000?$AA@ 0402e1d8     LIBCMT:cvt.obj
 0002:000011e0       __real@3ff0000000000000    0402e1e0     LIBCMT:_testfdiv_.obj
 0002:000011e8       __real@4150017ec0000000    0402e1e8     LIBCMT:_testfdiv_.obj
 0002:000011f0       __real@4147ffff80000000    0402e1f0     LIBCMT:_testfdiv_.obj
 0002:000011f8       ??_C@_0BK@NHEOCAHP@IsProcessorFeaturePresent?$AA@ 0402e1f8     LIBCMT:_testfdiv_.obj
 0002:00001214       ??_C@_08CPNIBGIE@KERNEL32?$AA@ 0402e214     LIBCMT:_testfdiv_.obj
 0002:00001ad8       __DEFAULT_CW_in_mem        0402ead8     LIBCMT:_common_.obj
 0002:00001ada       __pi_by_2_to_61            0402eada     LIBCMT:_common_.obj
 0002:000023c0       ??_C@_0P@MIGLKIOC@CorExitProcess?$AA@ 0402f3c0     LIBCMT:crt0dat.obj
 0002:000023d0       ??_C@_1BI@BGOHAHKC@?$AAm?$AAs?$AAc?$AAo?$AAr?$AAe?$AAe?$AA?4?$AAd?$AAl?$AAl?$AA?$AA@ 0402f3d0     LIBCMT:crt0dat.obj
 0002:000023e8       ??_C@_0P@GGKDKEEG@runtime?5error?5?$AA@ 0402f3e8     LIBCMT:crt0msg.obj
 0002:000023f8       ??_C@_02PCIJFNDE@?$AN?6?$AA@ 0402f3f8     LIBCMT:crt0msg.obj
 0002:000023fc       ??_C@_0O@MJNIPGOH@TLOSS?5error?$AN?6?$AA@ 0402f3fc     LIBCMT:crt0msg.obj
 0002:0000240c       ??_C@_0N@BONNPDHF@SING?5error?$AN?6?$AA@ 0402f40c     LIBCMT:crt0msg.obj
 0002:0000241c       ??_C@_0P@MBDAJNE@DOMAIN?5error?$AN?6?$AA@ 0402f41c     LIBCMT:crt0msg.obj
 0002:00002430       ??_C@_0JL@DFDOOABL@R6034?$AN?6An?5application?5has?5made?5a@ 0402f430     LIBCMT:crt0msg.obj
 0002:000024d0       ??_C@_0PH@EPAFIJ@R6033?$AN?6?9?5Attempt?5to?5use?5MSIL?5cod@ 0402f4d0     LIBCMT:crt0msg.obj
 0002:000025c8       ??_C@_0DD@BKEEABMM@R6032?$AN?6?9?5not?5enough?5space?5for?5lo@ 0402f5c8     LIBCMT:crt0msg.obj
 0002:00002600       ??_C@_0GD@OFKILIED@R6031?$AN?6?9?5Attempt?5to?5initialize?5t@ 0402f600     LIBCMT:crt0msg.obj
 0002:00002664       ??_C@_0BP@LPMHJOKI@R6030?$AN?6?9?5CRT?5not?5initialized?$AN?6?$AA@ 0402f664     LIBCMT:crt0msg.obj
 0002:00002684       ??_C@_0CF@KJDAIALP@R6028?$AN?6?9?5unable?5to?5initialize?5he@ 0402f684     LIBCMT:crt0msg.obj
 0002:000026ac       ??_C@_0DF@GAKBPDFP@R6027?$AN?6?9?5not?5enough?5space?5for?5lo@ 0402f6ac     LIBCMT:crt0msg.obj
 0002:000026e4       ??_C@_0DF@IBLNNAIG@R6026?$AN?6?9?5not?5enough?5space?5for?5st@ 0402f6e4     LIBCMT:crt0msg.obj
 0002:0000271c       ??_C@_0CG@IOHKGFNJ@R6025?$AN?6?9?5pure?5virtual?5function?5c@ 0402f71c     LIBCMT:crt0msg.obj
 0002:00002744       ??_C@_0DF@JIJJFJDC@R6024?$AN?6?9?5not?5enough?5space?5for?5_o@ 0402f744     LIBCMT:crt0msg.obj
 0002:0000277c       ??_C@_0CJ@EGEJHFME@R6019?$AN?6?9?5unable?5to?5open?5console?5@ 0402f77c     LIBCMT:crt0msg.obj
 0002:000027a8       ??_C@_0CB@GNHNIELH@R6018?$AN?6?9?5unexpected?5heap?5error?$AN?6@ 0402f7a8     LIBCMT:crt0msg.obj
 0002:000027cc       ??_C@_0CN@FOLDKNG@R6017?$AN?6?9?5unexpected?5multithread?5@ 0402f7cc     LIBCMT:crt0msg.obj
 0002:000027fc       ??_C@_0CM@FAHFJNHO@R6016?$AN?6?9?5not?5enough?5space?5for?5th@ 0402f7fc     LIBCMT:crt0msg.obj
 0002:00002828       ??_C@_0JG@LBKMGKLD@?$AN?6This?5application?5has?5requested@ 0402f828     LIBCMT:crt0msg.obj
 0002:000028c0       ??_C@_0CM@FLCNIPKK@R6009?$AN?6?9?5not?5enough?5space?5for?5en@ 0402f8c0     LIBCMT:crt0msg.obj
 0002:000028ec       ??_C@_0CK@KMMJOAPP@R6008?$AN?6?9?5not?5enough?5space?5for?5ar@ 0402f8ec     LIBCMT:crt0msg.obj
 0002:00002918       ??_C@_0CN@LEKKICBM@R6002?$AN?6?9?5floating?5point?5support?5@ 0402f918     LIBCMT:crt0msg.obj
 0002:00002948       ??_C@_0CF@GOGNBNAK@Microsoft?5Visual?5C?$CL?$CL?5Runtime?5Lib@ 0402f948     LIBCMT:crt0msg.obj
 0002:00002970       ??_C@_02PHMGELLB@?6?6?$AA@ 0402f970     LIBCMT:crt0msg.obj
 0002:00002974       ??_C@_03KHICJKCI@?4?4?4?$AA@ 0402f974     LIBCMT:crt0msg.obj
 0002:00002978       ??_C@_0BH@DNAGHKFM@?$DMprogram?5name?5unknown?$DO?$AA@ 0402f978     LIBCMT:crt0msg.obj
 0002:00002990       ??_C@_0BK@OFGJDLJJ@Runtime?5Error?$CB?6?6Program?3?5?$AA@ 0402f990     LIBCMT:crt0msg.obj
 0002:000029ac       ??_C@_0O@NLDKAIKN@EncodePointer?$AA@ 0402f9ac     LIBCMT:tidtable.obj
 0002:000029bc       ??_C@_1BK@DBDEIDLH@?$AAK?$AAE?$AAR?$AAN?$AAE?$AAL?$AA3?$AA2?$AA?4?$AAD?$AAL?$AAL?$AA?$AA@ 0402f9bc     LIBCMT:tidtable.obj
 0002:000029d8       ??_C@_0O@KBPMFGHI@DecodePointer?$AA@ 0402f9d8     LIBCMT:tidtable.obj
 0002:000029e8       ??_C@_07PEJMOBNF@FlsFree?$AA@ 0402f9e8     LIBCMT:tidtable.obj
 0002:000029f0       ??_C@_0M@JCPCPOEF@FlsSetValue?$AA@ 0402f9f0     LIBCMT:tidtable.obj
 0002:000029fc       ??_C@_0M@GDNOONDI@FlsGetValue?$AA@ 0402f9fc     LIBCMT:tidtable.obj
 0002:00002a08       ??_C@_08KNHFBNJ@FlsAlloc?$AA@ 0402fa08     LIBCMT:tidtable.obj
 0002:00002a14       __pDestructExceptionObject 0402fa14     LIBCMT:frame.obj
 0002:00002a1c       ??_7bad_exception@std@@6B@ 0402fa1c     LIBCMT:frame.obj
 0002:00002a24       ??_C@_0O@DPKOEFFH@bad?5exception?$AA@ 0402fa24     LIBCMT:frame.obj
 0002:00002a38       __XcptActTab               0402fa38     LIBCMT:winxfltr.obj
 0002:00002ab8       ??_C@_07LCBHPJJN@LC_TIME?$AA@ 0402fab8     LIBCMT:setlocal.obj
 0002:00002ac0       ??_C@_0L@DLHIECNL@LC_NUMERIC?$AA@ 0402fac0     LIBCMT:setlocal.obj
 0002:00002acc       ??_C@_0M@MIENIKLA@LC_MONETARY?$AA@ 0402facc     LIBCMT:setlocal.obj
 0002:00002ad8       ??_C@_08EADHIDAD@LC_CTYPE?$AA@ 0402fad8     LIBCMT:setlocal.obj
 0002:00002ae4       ??_C@_0L@KFJHEKIK@LC_COLLATE?$AA@ 0402fae4     LIBCMT:setlocal.obj
 0002:00002af0       ??_C@_06NEFDFEKB@LC_ALL?$AA@ 0402faf0     LIBCMT:setlocal.obj
 0002:00002af8       ___lc_category             0402faf8     LIBCMT:setlocal.obj
 0002:00002bc0       ??_C@_03EGDHDPFD@_?4?0?$AA@ 0402fbc0     LIBCMT:setlocal.obj
 0002:00002bc4       ??_C@_01LFCBOECM@?4?$AA@   0402fbc4     LIBCMT:setlocal.obj
 0002:00002bc8       ??_C@_01IDAFKMJL@_?$AA@    0402fbc8     LIBCMT:setlocal.obj
 0002:00002bcc       ??_C@_01ICJEACDI@?$DL?$AA@ 0402fbcc     LIBCMT:setlocal.obj
 0002:00002bd0       ??_C@_01NEMOKFLO@?$DN?$AA@ 0402fbd0     LIBCMT:setlocal.obj
 0002:00002bd4       ??_C@_01GFHCPBMG@C?$AA@    0402fbd4     LIBCMT:setlocal.obj
 0002:00002bd8       ??_C@_02BALPLPBG@?$DN?$DL?$AA@ 0402fbd8     LIBCMT:setlocal.obj
 0002:00002be0       ___lookuptable_s           0402fbe0     LIBCMT:outputs.obj
 0002:00002c3c       ??_C@_0BK@CFCOFLF@?5Complete?5Object?5Locator?8?$AA@ 0402fc3c     LIBCMT:undname.obj
 0002:00002c58       ??_C@_0BN@MECKDCOJ@?5Class?5Hierarchy?5Descriptor?8?$AA@ 0402fc58     LIBCMT:undname.obj
 0002:00002c78       ??_C@_0BD@LGICGFMM@?5Base?5Class?5Array?8?$AA@ 0402fc78     LIBCMT:undname.obj
 0002:00002c8c       ??_C@_0BM@LDKODKLH@?5Base?5Class?5Descriptor?5at?5?$CI?$AA@ 0402fc8c     LIBCMT:undname.obj
 0002:00002ca8       ??_C@_0BC@DAFEJGAK@?5Type?5Descriptor?8?$AA@ 0402fca8     LIBCMT:undname.obj
 0002:00002cbc       ??_C@_0BM@PMGGMLDN@?$GAlocal?5static?5thread?5guard?8?$AA@ 0402fcbc     LIBCMT:undname.obj
 0002:00002cd8       ??_C@_0CL@FGIJHLCE@?$GAmanaged?5vector?5copy?5constructor@ 0402fcd8     LIBCMT:undname.obj
 0002:00002d04       ??_C@_0CJ@GJELGAMM@?$GAvector?5vbase?5copy?5constructor?5i@ 0402fd04     LIBCMT:undname.obj
 0002:00002d30       ??_C@_0CD@CGAJBKEJ@?$GAvector?5copy?5constructor?5iterato@ 0402fd30     LIBCMT:undname.obj
 0002:00002d54       ??_C@_0CB@PDBIFEP@?$GAdynamic?5atexit?5destructor?5for?5?8@ 0402fd54     LIBCMT:undname.obj
 0002:00002d78       ??_C@_0BL@CLIPGLGB@?$GAdynamic?5initializer?5for?5?8?$AA@ 0402fd78     LIBCMT:undname.obj
 0002:00002d94       ??_C@_0CM@FCBBDIGB@?$GAeh?5vector?5vbase?5copy?5constructo@ 0402fd94     LIBCMT:undname.obj
 0002:00002dc0       ??_C@_0CG@HLDDJMAG@?$GAeh?5vector?5copy?5constructor?5iter@ 0402fdc0     LIBCMT:undname.obj
 0002:00002de8       ??_C@_0CF@IMGKMJNO@?$GAmanaged?5vector?5destructor?5itera@ 0402fde8     LIBCMT:undname.obj
 0002:00002e10       ??_C@_0CG@CFDHKGGD@?$GAmanaged?5vector?5constructor?5iter@ 0402fe10     LIBCMT:undname.obj
 0002:00002e38       ??_C@_0BN@CKNJLHMB@?$GAplacement?5delete?$FL?$FN?5closure?8?$AA@ 0402fe38     LIBCMT:undname.obj
 0002:00002e58       ??_C@_0BL@CNOONJFP@?$GAplacement?5delete?5closure?8?$AA@ 0402fe58     LIBCMT:undname.obj
 0002:00002e74       ??_C@_0P@HJKNJFNN@?$GAomni?5callsig?8?$AA@ 0402fe74     LIBCMT:undname.obj
 0002:00002e84       ??_C@_09LBNFPBCA@?5delete?$FL?$FN?$AA@ 0402fe84     LIBCMT:undname.obj
 0002:00002e90       ??_C@_06FHBGPFGH@?5new?$FL?$FN?$AA@ 0402fe90     LIBCMT:undname.obj
 0002:00002e98       ??_C@_0CE@IIHCMGGL@?$GAlocal?5vftable?5constructor?5closu@ 0402fe98     LIBCMT:undname.obj
 0002:00002ebc       ??_C@_0BA@KKLDJDLB@?$GAlocal?5vftable?8?$AA@ 0402febc     LIBCMT:undname.obj
 0002:00002ecc       ??_C@_05KHLCHHI@?$GARTTI?$AA@ 0402fecc     LIBCMT:undname.obj
 0002:00002ed4       ??_C@_03KLGMFNMG@?$GAEH?$AA@ 0402fed4     LIBCMT:undname.obj
 0002:00002ed8       ??_C@_0BA@KBCDOMBN@?$GAudt?5returning?8?$AA@ 0402fed8     LIBCMT:undname.obj
 0002:00002ee8       ??_C@_0BL@LLKPOHJI@?$GAcopy?5constructor?5closure?8?$AA@ 0402fee8     LIBCMT:undname.obj
 0002:00002f04       ??_C@_0CH@OOJPLCPH@?$GAeh?5vector?5vbase?5constructor?5ite@ 0402ff04     LIBCMT:undname.obj
 0002:00002f2c       ??_C@_0CA@GCEOPDGL@?$GAeh?5vector?5destructor?5iterator?8?$AA@ 0402ff2c     LIBCMT:undname.obj
 0002:00002f4c       ??_C@_0CB@JONCMFFK@?$GAeh?5vector?5constructor?5iterator?8@ 0402ff4c     LIBCMT:undname.obj
 0002:00002f70       ??_C@_0BL@NILFHHPC@?$GAvirtual?5displacement?5map?8?$AA@ 0402ff70     LIBCMT:undname.obj
 0002:00002f8c       ??_C@_0CE@IKBNEHA@?$GAvector?5vbase?5constructor?5iterat@ 0402ff8c     LIBCMT:undname.obj
 0002:00002fb0       ??_C@_0BN@LFPFMEDL@?$GAvector?5destructor?5iterator?8?$AA@ 0402ffb0     LIBCMT:undname.obj
 0002:00002fd0       ??_C@_0BO@PFGOCPJJ@?$GAvector?5constructor?5iterator?8?$AA@ 0402ffd0     LIBCMT:undname.obj
 0002:00002ff0       ??_C@_0BN@IMDCHIKM@?$GAscalar?5deleting?5destructor?8?$AA@ 0402fff0     LIBCMT:undname.obj
 0002:00003010       ??_C@_0BO@OBMKPJIG@?$GAdefault?5constructor?5closure?8?$AA@ 04030010     LIBCMT:undname.obj
 0002:00003030       ??_C@_0BN@DEGPLNFK@?$GAvector?5deleting?5destructor?8?$AA@ 04030030     LIBCMT:undname.obj
 0002:00003050       ??_C@_0BD@JDLKDPAB@?$GAvbase?5destructor?8?$AA@ 04030050     LIBCMT:undname.obj
 0002:00003064       ??_C@_08OBABFOLI@?$GAstring?8?$AA@ 04030064     LIBCMT:undname.obj
 0002:00003070       ??_C@_0BF@KDPPACIK@?$GAlocal?5static?5guard?8?$AA@ 04030070     LIBCMT:undname.obj
 0002:00003088       ??_C@_08LLFFHHDJ@?$GAtypeof?8?$AA@ 04030088     LIBCMT:undname.obj
 0002:00003094       ??_C@_07FEEIOKP@?$GAvcall?8?$AA@ 04030094     LIBCMT:undname.obj
 0002:0000309c       ??_C@_09BLBHBJP@?$GAvbtable?8?$AA@ 0403009c     LIBCMT:undname.obj
 0002:000030a8       ??_C@_09IFPLHPGF@?$GAvftable?8?$AA@ 040300a8     LIBCMT:undname.obj
 0002:000030b4       ??_C@_02MHEGNOJ@?$FO?$DN?$AA@ 040300b4     LIBCMT:undname.obj
 0002:000030b8       ??_C@_02DHLNPPGH@?$HM?$DN?$AA@ 040300b8     LIBCMT:undname.obj
 0002:000030bc       ??_C@_02FGJGFEAB@?$CG?$DN?$AA@ 040300bc     LIBCMT:undname.obj
 0002:000030c0       ??_C@_03CDNPDDLA@?$DM?$DM?$DN?$AA@ 040300c0     LIBCMT:undname.obj
 0002:000030c4       ??_C@_03IKFCCPFF@?$DO?$DO?$DN?$AA@ 040300c4     LIBCMT:undname.obj
 0002:000030c8       ??_C@_02FENAOKFI@?$CF?$DN?$AA@ 040300c8     LIBCMT:undname.obj
 0002:000030cc       ??_C@_02FJEHGPIO@?1?$DN?$AA@ 040300cc     LIBCMT:undname.obj
 0002:000030d0       ??_C@_02FKMDLLOA@?9?$DN?$AA@ 040300d0     LIBCMT:undname.obj
 0002:000030d4       ??_C@_02FOEOMHFC@?$CL?$DN?$AA@ 040300d4     LIBCMT:undname.obj
 0002:000030d8       ??_C@_02FPIMKNGF@?$CK?$DN?$AA@ 040300d8     LIBCMT:undname.obj
 0002:000030dc       ??_C@_02NONPIBCD@?$HM?$HM?$AA@ 040300dc     LIBCMT:undname.obj
 0002:000030e0       ??_C@_02PPKAJPJL@?$CG?$CG?$AA@ 040300e0     LIBCMT:undname.obj
 0002:000030e4       ??_C@_01DNKMNLPK@?$HM?$AA@ 040300e4     LIBCMT:undname.obj
 0002:000030e8       ??_C@_01JKBOJNNK@?$FO?$AA@ 040300e8     LIBCMT:undname.obj
 0002:000030ec       ??_C@_01PJKLJHI@?$HO?$AA@  040300ec     LIBCMT:undname.obj
 0002:000030f0       ??_C@_02HCKGKOFO@?$CI?$CJ?$AA@ 040300f0     LIBCMT:undname.obj
 0002:000030f4       ??_C@_01IHBHIGKO@?0?$AA@   040300f4     LIBCMT:undname.obj
 0002:000030f8       ??_C@_02EEKDKGMJ@?$DO?$DN?$AA@ 040300f8     LIBCMT:undname.obj
 0002:000030fc       ??_C@_01PPODPGHN@?$DO?$AA@ 040300fc     LIBCMT:undname.obj
 0002:00003100       ??_C@_02EHCHHCKH@?$DM?$DN?$AA@ 04030100     LIBCMT:undname.obj
 0002:00003104       ??_C@_01MNNFJEPP@?$DM?$AA@ 04030104     LIBCMT:undname.obj
 0002:00003108       ??_C@_01FGNFDNOH@?$CF?$AA@ 04030108     LIBCMT:undname.obj
 0002:0000310c       ??_C@_01KMDKNFGN@?1?$AA@   0403010c     LIBCMT:undname.obj
 0002:00003110       ??_C@_03MNHNFDLC@?9?$DO?$CK?$AA@ 04030110     LIBCMT:undname.obj
 0002:00003114       ??_C@_01HNPIGOCE@?$CG?$AA@ 04030114     LIBCMT:undname.obj
 0002:00003118       ??_C@_01JOAMLHOP@?9?$AA@   04030118     LIBCMT:undname.obj
 0002:0000311c       ??_C@_02BAABKJLB@?9?9?$AA@ 0403011c     LIBCMT:undname.obj
 0002:00003120       ??_C@_02ECNGHCIF@?$CL?$CL?$AA@ 04030120     LIBCMT:undname.obj
 0002:00003124       ??_C@_01NBENCBCI@?$CK?$AA@ 04030124     LIBCMT:undname.obj
 0002:00003128       ??_C@_02HBOOOICD@?9?$DO?$AA@ 04030128     LIBCMT:undname.obj
 0002:0000312c       ??_C@_08LHJFAFGD@operator?$AA@ 0403012c     LIBCMT:undname.obj
 0002:00003138       ??_C@_02GPECMEKF@?$FL?$FN?$AA@ 04030138     LIBCMT:undname.obj
 0002:0000313c       ??_C@_02FDNJECIE@?$CB?$DN?$AA@ 0403013c     LIBCMT:undname.obj
 0002:00003140       ??_C@_02EGOFBIJA@?$DN?$DN?$AA@ 04030140     LIBCMT:undname.obj
 0002:00003144       ??_C@_01DCLJPIOD@?$CB?$AA@ 04030144     LIBCMT:undname.obj
 0002:00003148       ??_C@_02FODMEDOG@?$DM?$DM?$AA@ 04030148     LIBCMT:undname.obj
 0002:0000314c       ??_C@_02GPIOPFAK@?$DO?$DO?$AA@ 0403014c     LIBCMT:undname.obj
 0002:00003150       ??_C@_07FPCDHGMM@?5delete?$AA@ 04030150     LIBCMT:undname.obj
 0002:00003158       ??_C@_04NIHEBCM@?5new?$AA@ 04030158     LIBCMT:undname.obj
 0002:00003160       ??_C@_0M@GFIIJFMG@__unaligned?$AA@ 04030160     LIBCMT:undname.obj
 0002:0000316c       ??_C@_0L@PILCLIHE@__restrict?$AA@ 0403016c     LIBCMT:undname.obj
 0002:00003178       ??_C@_07JOMMBBKO@__ptr64?$AA@ 04030178     LIBCMT:undname.obj
 0002:00003180       ??_C@_09HIJEGCPM@__clrcall?$AA@ 04030180     LIBCMT:undname.obj
 0002:0000318c       ??_C@_0L@JMKHOMEK@__fastcall?$AA@ 0403018c     LIBCMT:undname.obj
 0002:00003198       ??_C@_0L@NPHFGOKO@__thiscall?$AA@ 04030198     LIBCMT:undname.obj
 0002:000031a4       ??_C@_09IFJBGAPI@__stdcall?$AA@ 040301a4     LIBCMT:undname.obj
 0002:000031b0       ??_C@_08GHMPAG@__pascal?$AA@ 040301b0     LIBCMT:undname.obj
 0002:000031bc       ??_C@_07KOLFKCDI@__cdecl?$AA@ 040301bc     LIBCMT:undname.obj
 0002:000031c4       ??_C@_08EHJDFFNH@__based?$CI?$AA@ 040301c4     LIBCMT:undname.obj
 0002:00003350       ??_7DNameNode@@6B@         04030350     LIBCMT:undname.obj
 0002:0000335c       ??_7charNode@@6B@          0403035c     LIBCMT:undname.obj
 0002:00003368       ??_7pDNameNode@@6B@        04030368     LIBCMT:undname.obj
 0002:00003374       ??_7DNameStatusNode@@6B@   04030374     LIBCMT:undname.obj
 0002:00003380       ??_7pairNode@@6B@          04030380     LIBCMT:undname.obj
 0002:0000338c       ??_7pcharNode@@6B@         0403038c     LIBCMT:undname.obj
 0002:00003398       ??_C@_04OKOHEJBO@?5?$DP?$DP?5?$AA@ 04030398     LIBCMT:undname.obj
 0002:000033a0       ??_C@_06EEGAIFAK@?$HLflat?$HN?$AA@ 040303a0     LIBCMT:undname.obj
 0002:000033a8       ??_C@_05JIBOFOHK@?$HLfor?5?$AA@ 040303a8     LIBCMT:undname.obj
 0002:000033b0       ??_C@_0BN@IBLMMFAP@?$GAnon?9type?9template?9parameter?$AA@ 040303b0     LIBCMT:undname.obj
 0002:000033d0       ??_C@_09EBBEKKIH@unsigned?5?$AA@ 040303d0     LIBCMT:undname.obj
 0002:000033dc       ??_C@_05CJIMAING@long?5?$AA@ 040303dc     LIBCMT:undname.obj
 0002:000033e4       ??_C@_04LAHKHJMA@int?5?$AA@ 040303e4     LIBCMT:undname.obj
 0002:000033ec       ??_C@_06EHJMALKF@short?5?$AA@ 040303ec     LIBCMT:undname.obj
 0002:000033f4       ??_C@_05CIHEBHNO@char?5?$AA@ 040303f4     LIBCMT:undname.obj
 0002:000033fc       ??_C@_04GKJNKENE@void?$AA@ 040303fc     LIBCMT:undname.obj
 0002:00003404       ??_C@_0L@EGPHHEKN@?$DMellipsis?$DO?$AA@ 04030404     LIBCMT:undname.obj
 0002:00003410       ??_C@_0M@ELJOJFFH@?0?$DMellipsis?$DO?$AA@ 04030410     LIBCMT:undname.obj
 0002:0000341c       ??_C@_04EENFHACM@?0?4?4?4?$AA@ 0403041c     LIBCMT:undname.obj
 0002:00003424       ??_C@_07HDJPLPEK@?5throw?$CI?$AA@ 04030424     LIBCMT:undname.obj
 0002:0000342c       ??_C@_02GOGNNPBN@?$CJ?$FL?$AA@ 0403042c     LIBCMT:undname.obj
 0002:00003430       ??_C@_02MDINNEEG@s?5?$AA@  04030430     LIBCMT:undname.obj
 0002:00003434       ??_C@_0BE@EODMJLIF@?$GAtemplate?9parameter?$AA@ 04030434     LIBCMT:undname.obj
 0002:00003448       ??_C@_01GEODFPGF@?8?$AA@   04030448     LIBCMT:undname.obj
 0002:0000344c       ??_C@_04HIBGFPH@NULL?$AA@  0403044c     LIBCMT:undname.obj
 0002:00003454       ??_C@_0O@GKABPPIF@cli?3?3pin_ptr?$DM?$AA@ 04030454     LIBCMT:undname.obj
 0002:00003464       ??_C@_0M@EALIELKG@cli?3?3array?$DM?$AA@ 04030464     LIBCMT:undname.obj
 0002:00003470       ??_C@_05BEFAKPML@void?5?$AA@ 04030470     LIBCMT:undname.obj
 0002:00003478       ??_C@_02OHHJMEON@?8?8?$AA@ 04030478     LIBCMT:undname.obj
 0002:0000347c       ??_C@_0BG@JNJLAMPM@?$GAanonymous?5namespace?8?$AA@ 0403047c     LIBCMT:undname.obj
 0002:00003494       ??_C@_01NLNLIGKH@?$GA?$AA@ 04030494     LIBCMT:undname.obj
 0002:00003498       ??_C@_0O@KHGCOMHP@generic?9type?9?$AA@ 04030498     LIBCMT:undname.obj
 0002:000034a8       ??_C@_0BE@JAEOCHPE@template?9parameter?9?$AA@ 040304a8     LIBCMT:undname.obj
 0002:000034bc       ??_C@_02MOLJINC@?3?3?$AA@  040304bc     LIBCMT:undname.obj
 0002:000034c0       ??_C@_0P@GCIFDJCJ@?$GAunknown?5ecsu?8?$AA@ 040304c0     LIBCMT:undname.obj
 0002:000034d0       ??_C@_06MOJHIBMG@union?5?$AA@ 040304d0     LIBCMT:undname.obj
 0002:000034d8       ??_C@_07DIBCDNGL@struct?5?$AA@ 040304d8     LIBCMT:undname.obj
 0002:000034e0       ??_C@_06LJBABKPM@class?5?$AA@ 040304e0     LIBCMT:undname.obj
 0002:000034e8       ??_C@_05LJGMCFOG@enum?5?$AA@ 040304e8     LIBCMT:undname.obj
 0002:000034f0       ??_C@_08KOFANOFK@coclass?5?$AA@ 040304f0     LIBCMT:undname.obj
 0002:000034fc       ??_C@_0N@DLIEFKNA@cointerface?5?$AA@ 040304fc     LIBCMT:undname.obj
 0002:0000350c       ??_C@_02KCKGHPCA@?$CJ?5?$AA@ 0403050c     LIBCMT:undname.obj
 0002:00003510       ??_C@_0M@DHNBOJMP@extern?5?$CCC?$CC?5?$AA@ 04030510     LIBCMT:undname.obj
 0002:0000351c       ??_C@_08KJLFOPNE@?$FLthunk?$FN?3?$AA@ 0403051c     LIBCMT:undname.obj
 0002:00003528       ??_C@_08GPDDCMKI@public?3?5?$AA@ 04030528     LIBCMT:undname.obj
 0002:00003534       ??_C@_0M@GAIFPFIP@protected?3?5?$AA@ 04030534     LIBCMT:undname.obj
 0002:00003540       ??_C@_09LAPHOOG@private?3?5?$AA@ 04030540     LIBCMT:undname.obj
 0002:0000354c       ??_C@_08NIEOINHE@virtual?5?$AA@ 0403054c     LIBCMT:undname.obj
 0002:00003558       ??_C@_07PGOEDBHP@static?5?$AA@ 04030558     LIBCMT:undname.obj
 0002:00003560       ??_C@_0DA@HGFJFBBE@?$GAtemplate?5static?5data?5member?5des@ 04030560     LIBCMT:undname.obj
 0002:00003590       ??_C@_0DB@ILEFOCIJ@?$GAtemplate?5static?5data?5member?5con@ 04030590     LIBCMT:undname.obj
 0002:000035c4       ??_C@_0CB@KJDOOODE@?$GAlocal?5static?5destructor?5helper?8@ 040305c4     LIBCMT:undname.obj
 0002:000035e8       ??_C@_0L@HNGCOGAE@?$GAadjustor?$HL?$AA@ 040305e8     LIBCMT:undname.obj
 0002:000035f4       ??_C@_0L@GHPFDFH@?$GAvtordisp?$HL?$AA@ 040305f4     LIBCMT:undname.obj
 0002:00003600       ??_C@_0N@CBHHHENL@?$GAvtordispex?$HL?$AA@ 04030600     LIBCMT:undname.obj
 0002:00003610       ??_C@_01CLKCMJKC@?5?$AA@   04030610     LIBCMT:undname.obj
 0002:00003614       ??_C@_02IGFCGPIL@?$HN?8?$AA@ 04030614     LIBCMT:undname.obj
 0002:00003618       ??_C@_03OPGICMGF@?$HN?8?5?$AA@ 04030618     LIBCMT:undname.obj
 0002:0000361c       ??_C@_06LIJLOJAG@const?5?$AA@ 0403061c     LIBCMT:undname.obj
 0002:00003624       ??_C@_09GAIEOBLP@volatile?5?$AA@ 04030624     LIBCMT:undname.obj
 0002:00003630       ??_C@_04HEJADOOB@CV?3?5?$AA@ 04030630     LIBCMT:undname.obj
 0002:00003638       ??_C@_08PABEKFH@volatile?$AA@ 04030638     LIBCMT:undname.obj
 0002:00003644       ??_C@_09EFNPDFFP@?5volatile?$AA@ 04030644     LIBCMT:undname.obj
 0002:00003650       ??_C@_05BNCCCJPP@const?$AA@ 04030650     LIBCMT:undname.obj
 0002:00003658       ??_C@_07EDHNAJHC@signed?5?$AA@ 04030658     LIBCMT:undname.obj
 0002:00003660       ??_C@_06BNJCAIGJ@double?$AA@ 04030660     LIBCMT:undname.obj
 0002:00003668       ??_C@_07NFANNNEC@UNKNOWN?$AA@ 04030668     LIBCMT:undname.obj
 0002:00003670       ??_C@_08GAHOLHEO@__int128?$AA@ 04030670     LIBCMT:undname.obj
 0002:0000367c       ??_C@_04DDKJGDCM@bool?$AA@ 0403067c     LIBCMT:undname.obj
 0002:00003684       ??_C@_07CLGGIAMF@wchar_t?$AA@ 04030684     LIBCMT:undname.obj
 0002:0000368c       ??_C@_07LFCOJCAC@__int64?$AA@ 0403068c     LIBCMT:undname.obj
 0002:00003694       ??_C@_07ICFHOGAF@__int16?$AA@ 04030694     LIBCMT:undname.obj
 0002:0000369c       ??_C@_07OFLPPHGP@__int32?$AA@ 0403069c     LIBCMT:undname.obj
 0002:000036a4       ??_C@_06EBGKOKIG@__int8?$AA@ 040306a4     LIBCMT:undname.obj
 0002:000036ac       ??_C@_06GCICPBLB@__w64?5?$AA@ 040306ac     LIBCMT:undname.obj
 0002:000036b4       ??_C@_05KNFBNCOH@float?$AA@ 040306b4     LIBCMT:undname.obj
 0002:000036bc       ??_C@_04GOKPGOLB@long?$AA@ 040306bc     LIBCMT:undname.obj
 0002:000036c4       ??_C@_03JBIPMCLC@int?$AA@  040306c4     LIBCMT:undname.obj
 0002:000036c8       ??_C@_05BFKKPKCG@short?$AA@ 040306c8     LIBCMT:undname.obj
 0002:000036d0       ??_C@_04ENMBGAPA@char?$AA@ 040306d0     LIBCMT:undname.obj
 0002:000036d8       ??_C@_0BC@JEAENNKH@SystemFunction036?$AA@ 040306d8     LIBCMT:rand_s.obj
 0002:000036ec       ??_C@_0N@JJPEKNFO@ADVAPI32?4DLL?$AA@ 040306ec     LIBCMT:rand_s.obj
 0002:000036fc       ??_C@_0BI@DFKBFLJE@GetProcessWindowStation?$AA@ 040306fc     LIBCMT:crtmbox.obj
 0002:00003714       ??_C@_0BK@CIDNPOGP@GetUserObjectInformationA?$AA@ 04030714     LIBCMT:crtmbox.obj
 0002:00003730       ??_C@_0BD@HHGDFDBJ@GetLastActivePopup?$AA@ 04030730     LIBCMT:crtmbox.obj
 0002:00003744       ??_C@_0BA@HNOPNCHB@GetActiveWindow?$AA@ 04030744     LIBCMT:crtmbox.obj
 0002:00003754       ??_C@_0M@CHKKJDAI@MessageBoxA?$AA@ 04030754     LIBCMT:crtmbox.obj
 0002:00003760       ??_C@_0L@NDEGIDAG@USER32?4DLL?$AA@ 04030760     LIBCMT:crtmbox.obj
 0002:0000376c       ??_C@_13NOLLCAOD@?$AA?$AA?$AA?$AA@ 0403076c     LIBCMT:a_map.obj
 0002:00003770       ___newctype                04030770     LIBCMT:ctype.obj
 0002:00003a70       __wctype                   04030a70     LIBCMT:ctype.obj
 0002:00003c78       ___newclmap                04030c78     LIBCMT:ctype.obj
 0002:00003df8       ___newcumap                04030df8     LIBCMT:ctype.obj
 0002:00003f78       ??_C@_08JCCMCCIL@HH?3mm?3ss?$AA@ 04030f78     LIBCMT:strftime.obj
 0002:00003f84       ??_C@_0BE@CKGJFCPC@dddd?0?5MMMM?5dd?0?5yyyy?$AA@ 04030f84     LIBCMT:strftime.obj
 0002:00003f98       ??_C@_08BPBNCDIB@MM?1dd?1yy?$AA@ 04030f98     LIBCMT:strftime.obj
 0002:00003fa4       ??_C@_02CJNFDJBF@PM?$AA@   04030fa4     LIBCMT:strftime.obj
 0002:00003fa8       ??_C@_02DEDBPAFC@AM?$AA@   04030fa8     LIBCMT:strftime.obj
 0002:00003fac       ??_C@_08EDHMEBNP@December?$AA@ 04030fac     LIBCMT:strftime.obj
 0002:00003fb8       ??_C@_08HCHEGEOA@November?$AA@ 04030fb8     LIBCMT:strftime.obj
 0002:00003fc4       ??_C@_07JJNFCEND@October?$AA@ 04030fc4     LIBCMT:strftime.obj
 0002:00003fcc       ??_C@_09BHHEALKD@September?$AA@ 04030fcc     LIBCMT:strftime.obj
 0002:00003fd8       ??_C@_06LBBHFDDG@August?$AA@ 04030fd8     LIBCMT:strftime.obj
 0002:00003fe0       ??_C@_04MIEPOIFP@July?$AA@ 04030fe0     LIBCMT:strftime.obj
 0002:00003fe8       ??_C@_04CNLMGBGM@June?$AA@ 04030fe8     LIBCMT:strftime.obj
 0002:00003ff0       ??_C@_05DMJDNLEJ@April?$AA@ 04030ff0     LIBCMT:strftime.obj
 0002:00003ff8       ??_C@_05HPCKOFNC@March?$AA@ 04030ff8     LIBCMT:strftime.obj
 0002:00004000       ??_C@_08GNJGEPFN@February?$AA@ 04031000     LIBCMT:strftime.obj
 0002:0000400c       ??_C@_07CGJPFGJA@January?$AA@ 0403100c     LIBCMT:strftime.obj
 0002:00004014       ??_C@_03MKABNOCG@Dec?$AA@  04031014     LIBCMT:strftime.obj
 0002:00004018       ??_C@_03JPJOFNIA@Nov?$AA@  04031018     LIBCMT:strftime.obj
 0002:0000401c       ??_C@_03BMAOKBAD@Oct?$AA@  0403101c     LIBCMT:strftime.obj
 0002:00004020       ??_C@_03GGCAPAJC@Sep?$AA@  04031020     LIBCMT:strftime.obj
 0002:00004024       ??_C@_03IFJFEIGA@Aug?$AA@  04031024     LIBCMT:strftime.obj
 0002:00004028       ??_C@_03LBGABGKK@Jul?$AA@  04031028     LIBCMT:strftime.obj
 0002:0000402c       ??_C@_03IDFGHECI@Jun?$AA@  0403102c     LIBCMT:strftime.obj
 0002:00004030       ??_C@_03CNMDKL@May?$AA@    04031030     LIBCMT:strftime.obj
 0002:00004034       ??_C@_03LEOLGMJP@Apr?$AA@  04031034     LIBCMT:strftime.obj
 0002:00004038       ??_C@_03ODNJBKGA@Mar?$AA@  04031038     LIBCMT:strftime.obj
 0002:0000403c       ??_C@_03HJBDCHOM@Feb?$AA@  0403103c     LIBCMT:strftime.obj
 0002:00004040       ??_C@_03JIHJHPIE@Jan?$AA@  04031040     LIBCMT:strftime.obj
 0002:00004044       ??_C@_08INBOOONO@Saturday?$AA@ 04031044     LIBCMT:strftime.obj
 0002:00004050       ??_C@_06JECMNKMI@Friday?$AA@ 04031050     LIBCMT:strftime.obj
 0002:00004058       ??_C@_08HACCIKIA@Thursday?$AA@ 04031058     LIBCMT:strftime.obj
 0002:00004064       ??_C@_09DLIGFAKA@Wednesday?$AA@ 04031064     LIBCMT:strftime.obj
 0002:00004070       ??_C@_07BAAGCFCM@Tuesday?$AA@ 04031070     LIBCMT:strftime.obj
 0002:00004078       ??_C@_06JLEDEDGH@Monday?$AA@ 04031078     LIBCMT:strftime.obj
 0002:00004080       ??_C@_06OOPIFAJ@Sunday?$AA@ 04031080     LIBCMT:strftime.obj
 0002:00004088       ??_C@_03FEFJNEK@Sat?$AA@   04031088     LIBCMT:strftime.obj
 0002:0000408c       ??_C@_03IDIOELNC@Fri?$AA@  0403108c     LIBCMT:strftime.obj
 0002:00004090       ??_C@_03IOFIKPDN@Thu?$AA@  04031090     LIBCMT:strftime.obj
 0002:00004094       ??_C@_03MHOMLAJA@Wed?$AA@  04031094     LIBCMT:strftime.obj
 0002:00004098       ??_C@_03NAGEINEP@Tue?$AA@  04031098     LIBCMT:strftime.obj
 0002:0000409c       ??_C@_03PDAGKDH@Mon?$AA@   0403109c     LIBCMT:strftime.obj
 0002:000040a0       ??_C@_03KOEHGMDN@Sun?$AA@  040310a0     LIBCMT:strftime.obj
 0002:000040a4       ??_C@_03EBAPMIKO@a?1p?$AA@ 040310a4     LIBCMT:strftime.obj
 0002:000040a8       ??_C@_05JAMEPDIN@am?1pm?$AA@ 040310a8     LIBCMT:strftime.obj
 0002:000040b0       ??_C@_0O@FMJNFNKE@united?9states?$AA@ 040310b0     LIBCMT:getqloc.obj
 0002:000040c0       ??_C@_0P@NDHFFKCA@united?9kingdom?$AA@ 040310c0     LIBCMT:getqloc.obj
 0002:000040d0       ??_C@_0BC@HHDADLGF@trinidad?5?$CG?5tobago?$AA@ 040310d0     LIBCMT:getqloc.obj
 0002:000040e4       ??_C@_0M@IOAEBDAC@south?9korea?$AA@ 040310e4     LIBCMT:getqloc.obj
 0002:000040f0       ??_C@_0N@FIELFKIJ@south?9africa?$AA@ 040310f0     LIBCMT:getqloc.obj
 0002:00004100       ??_C@_0M@OPNDHCMC@south?5korea?$AA@ 04031100     LIBCMT:getqloc.obj
 0002:0000410c       ??_C@_0N@MDEOEPFI@south?5africa?$AA@ 0403110c     LIBCMT:getqloc.obj
 0002:0000411c       ??_C@_06FKAPCJLB@slovak?$AA@ 0403111c     LIBCMT:getqloc.obj
 0002:00004124       ??_C@_0M@EFJANOAL@puerto?9rico?$AA@ 04031124     LIBCMT:getqloc.obj
 0002:00004130       ??_C@_08PGOJKDAI@pr?9china?$AA@ 04031130     LIBCMT:getqloc.obj
 0002:0000413c       ??_C@_08JHDOMCMI@pr?5china?$AA@ 0403113c     LIBCMT:getqloc.obj
 0002:00004148       ??_C@_02JHCHFBLL@nz?$AA@   04031148     LIBCMT:getqloc.obj
 0002:0000414c       ??_C@_0M@LINHDHKP@new?9zealand?$AA@ 0403114c     LIBCMT:getqloc.obj
 0002:00004158       ??_C@_09IIIPPBDB@hong?9kong?$AA@ 04031158     LIBCMT:getqloc.obj
 0002:00004164       ??_C@_07HJLCKBG@holland?$AA@ 04031164     LIBCMT:getqloc.obj
 0002:0000416c       ??_C@_0O@LEHGMHAG@great?5britain?$AA@ 0403116c     LIBCMT:getqloc.obj
 0002:0000417c       ??_C@_07FACOMELA@england?$AA@ 0403117c     LIBCMT:getqloc.obj
 0002:00004184       ??_C@_05JIHCEICB@czech?$AA@ 04031184     LIBCMT:getqloc.obj
 0002:0000418c       ??_C@_05BBJOBLGB@china?$AA@ 0403118c     LIBCMT:getqloc.obj
 0002:00004194       ??_C@_07GPKPHICP@britain?$AA@ 04031194     LIBCMT:getqloc.obj
 0002:0000419c       ??_C@_07MHIPBHMG@america?$AA@ 0403119c     LIBCMT:getqloc.obj
 0002:000041a4       ??_C@_03KIALPMKC@usa?$AA@  040311a4     LIBCMT:getqloc.obj
 0002:000041a8       ??_C@_02FGJGKGGD@us?$AA@   040311a8     LIBCMT:getqloc.obj
 0002:000041ac       ??_C@_02NEINDODK@uk?$AA@   040311ac     LIBCMT:getqloc.obj
 0002:000041b0       ??_C@_05JMPCFJFJ@swiss?$AA@ 040311b0     LIBCMT:getqloc.obj
 0002:000041b8       ??_C@_0BA@HLOCPIOD@swedish?9finland?$AA@ 040311b8     LIBCMT:getqloc.obj
 0002:000041c8       ??_C@_0BC@PKCNIABK@spanish?9venezuela?$AA@ 040311c8     LIBCMT:getqloc.obj
 0002:000041dc       ??_C@_0BA@GBHHMIJI@spanish?9uruguay?$AA@ 040311dc     LIBCMT:getqloc.obj
 0002:000041ec       ??_C@_0BE@BHDOHPMC@spanish?9puerto?5rico?$AA@ 040311ec     LIBCMT:getqloc.obj
 0002:00004200       ??_C@_0N@KMOIDGGN@spanish?9peru?$AA@ 04031200     LIBCMT:getqloc.obj
 0002:00004210       ??_C@_0BB@HMHLPGPH@spanish?9paraguay?$AA@ 04031210     LIBCMT:getqloc.obj
 0002:00004224       ??_C@_0P@MCPKNGFD@spanish?9panama?$AA@ 04031224     LIBCMT:getqloc.obj
 0002:00004234       ??_C@_0BC@IHOHGAIL@spanish?9nicaragua?$AA@ 04031234     LIBCMT:getqloc.obj
 0002:00004248       ??_C@_0P@KLMJDNFJ@spanish?9modern?$AA@ 04031248     LIBCMT:getqloc.obj
 0002:00004258       ??_C@_0BA@BPAPGBCM@spanish?9mexican?$AA@ 04031258     LIBCMT:getqloc.obj
 0002:00004268       ??_C@_0BB@PDECHHHE@spanish?9honduras?$AA@ 04031268     LIBCMT:getqloc.obj
 0002:0000427c       ??_C@_0BC@KLHKFGDB@spanish?9guatemala?$AA@ 0403127c     LIBCMT:getqloc.obj
 0002:00004290       ??_C@_0BE@MFOOKJAI@spanish?9el?5salvador?$AA@ 04031290     LIBCMT:getqloc.obj
 0002:000042a4       ??_C@_0BA@FCOKFPFC@spanish?9ecuador?$AA@ 040312a4     LIBCMT:getqloc.obj
 0002:000042b4       ??_C@_0BL@PLMGIMOO@spanish?9dominican?5republic?$AA@ 040312b4     LIBCMT:getqloc.obj
 0002:000042d0       ??_C@_0BD@HLGDNMHB@spanish?9costa?5rica?$AA@ 040312d0     LIBCMT:getqloc.obj
 0002:000042e4       ??_C@_0BB@PKCBKCPE@spanish?9colombia?$AA@ 040312e4     LIBCMT:getqloc.obj
 0002:000042f8       ??_C@_0O@MCBIJGNE@spanish?9chile?$AA@ 040312f8     LIBCMT:getqloc.obj
 0002:00004308       ??_C@_0BA@BEFEIGJJ@spanish?9bolivia?$AA@ 04031308     LIBCMT:getqloc.obj
 0002:00004318       ??_C@_0BC@EMECMPD@spanish?9argentina?$AA@ 04031318     LIBCMT:getqloc.obj
 0002:0000432c       ??_C@_0BF@EALFLENP@portuguese?9brazilian?$AA@ 0403132c     LIBCMT:getqloc.obj
 0002:00004344       ??_C@_0BC@HBLEBLNN@norwegian?9nynorsk?$AA@ 04031344     LIBCMT:getqloc.obj
 0002:00004358       ??_C@_0BB@HMACDDCK@norwegian?9bokmal?$AA@ 04031358     LIBCMT:getqloc.obj
 0002:0000436c       ??_C@_09BAFFPPHE@norwegian?$AA@ 0403136c     LIBCMT:getqloc.obj
 0002:00004378       ??_C@_0O@EAJFJDFG@italian?9swiss?$AA@ 04031378     LIBCMT:getqloc.obj
 0002:00004388       ??_C@_0O@CNOMPGD@irish?9english?$AA@ 04031388     LIBCMT:getqloc.obj
 0002:00004398       ??_C@_0N@EDHBGCKG@german?9swiss?$AA@ 04031398     LIBCMT:getqloc.obj
 0002:000043a8       ??_C@_0BC@JACMHNBP@german?9luxembourg?$AA@ 040313a8     LIBCMT:getqloc.obj
 0002:000043bc       ??_C@_0BE@HBGMGFEG@german?9lichtenstein?$AA@ 040313bc     LIBCMT:getqloc.obj
 0002:000043d0       ??_C@_0BA@HKKBIBKL@german?9austrian?$AA@ 040313d0     LIBCMT:getqloc.obj
 0002:000043e0       ??_C@_0N@GCAEPEBK@french?9swiss?$AA@ 040313e0     LIBCMT:getqloc.obj
 0002:000043f0       ??_C@_0BC@DJFJJCK@french?9luxembourg?$AA@ 040313f0     LIBCMT:getqloc.obj
 0002:00004404       ??_C@_0BA@NNCEDFIC@french?9canadian?$AA@ 04031404     LIBCMT:getqloc.obj
 0002:00004414       ??_C@_0P@CMPOCLM@french?9belgian?$AA@ 04031414     LIBCMT:getqloc.obj
 0002:00004424       ??_C@_0M@GHHDJOK@english?9usa?$AA@ 04031424     LIBCMT:getqloc.obj
 0002:00004430       ??_C@_0L@PLDJKEIL@english?9us?$AA@ 04031430     LIBCMT:getqloc.obj
 0002:0000443c       ??_C@_0L@HJCCDMNC@english?9uk?$AA@ 0403143c     LIBCMT:getqloc.obj
 0002:00004448       ??_C@_0BK@CKLIAGJB@english?9trinidad?5y?5tobago?$AA@ 04031448     LIBCMT:getqloc.obj
 0002:00004464       ??_C@_0BF@JMJMGNNF@english?9south?5africa?$AA@ 04031464     LIBCMT:getqloc.obj
 0002:0000447c       ??_C@_0L@DKIIFDFD@english?9nz?$AA@ 0403147c     LIBCMT:getqloc.obj
 0002:00004488       ??_C@_0BA@ONHGJCLH@english?9jamaica?$AA@ 04031488     LIBCMT:getqloc.obj
 0002:00004498       ??_C@_0M@HJBGHOPO@english?9ire?$AA@ 04031498     LIBCMT:getqloc.obj
 0002:000044a4       ??_C@_0BC@LFEKMIFB@english?9caribbean?$AA@ 040314a4     LIBCMT:getqloc.obj
 0002:000044b8       ??_C@_0M@OLDPFKHI@english?9can?$AA@ 040314b8     LIBCMT:getqloc.obj
 0002:000044c4       ??_C@_0P@OMDEHBMP@english?9belize?$AA@ 040314c4     LIBCMT:getqloc.obj
 0002:000044d4       ??_C@_0M@KFHFPFED@english?9aus?$AA@ 040314d4     LIBCMT:getqloc.obj
 0002:000044e0       ??_C@_0BB@MNMBKDFE@english?9american?$AA@ 040314e0     LIBCMT:getqloc.obj
 0002:000044f4       ??_C@_0O@KIDLNNBA@dutch?9belgian?$AA@ 040314f4     LIBCMT:getqloc.obj
 0002:00004504       ??_C@_0BE@JBKABBMH@chinese?9traditional?$AA@ 04031504     LIBCMT:getqloc.obj
 0002:00004518       ??_C@_0BC@MJJMPKCG@chinese?9singapore?$AA@ 04031518     LIBCMT:getqloc.obj
 0002:0000452c       ??_C@_0BD@FDKADDCP@chinese?9simplified?$AA@ 0403152c     LIBCMT:getqloc.obj
 0002:00004540       ??_C@_0BB@DBEFDDME@chinese?9hongkong?$AA@ 04031540     LIBCMT:getqloc.obj
 0002:00004554       ??_C@_07DHNMFMCI@chinese?$AA@ 04031554     LIBCMT:getqloc.obj
 0002:0000455c       ??_C@_03FNDDCHI@chi?$AA@   0403155c     LIBCMT:getqloc.obj
 0002:00004560       ??_C@_03BMMIADDJ@chh?$AA@  04031560     LIBCMT:getqloc.obj
 0002:00004564       ??_C@_08OAIPJDGI@canadian?$AA@ 04031564     LIBCMT:getqloc.obj
 0002:00004570       ??_C@_07HBPMNPNJ@belgian?$AA@ 04031570     LIBCMT:getqloc.obj
 0002:00004578       ??_C@_0L@OEKOPBEL@australian?$AA@ 04031578     LIBCMT:getqloc.obj
 0002:00004584       ??_C@_0BB@MEIMBEDG@american?9english?$AA@ 04031584     LIBCMT:getqloc.obj
 0002:00004598       ??_C@_0BB@DFMDPDGB@american?5english?$AA@ 04031598     LIBCMT:getqloc.obj
 0002:000045ac       ??_C@_08IJLOKOLL@american?$AA@ 040315ac     LIBCMT:getqloc.obj
 0002:000045b8       ___rg_language             040315b8     LIBCMT:getqloc.obj
 0002:000047c0       ___rg_country              040317c0     LIBCMT:getqloc.obj
 0002:00004878       ___rglangidNotDefault      04031878     LIBCMT:getqloc.obj
 0002:0000488c       ??_C@_01GBGANLPD@0?$AA@    0403188c     LIBCMT:getqloc.obj
 0002:00004890       ??_C@_03NFKLAGEF@OCP?$AA@  04031890     LIBCMT:getqloc.obj
 0002:00004894       ??_C@_03DFHEHBHG@ACP?$AA@  04031894     LIBCMT:getqloc.obj
 0002:00004898       ??_C@_0BC@NFIEMBLL@Norwegian?9Nynorsk?$AA@ 04031898     LIBCMT:getqloc.obj
 0002:000048ac       ??_C@_06IMKFLFPG@1?$CDQNAN?$AA@ 040318ac     LIBCMT:_x10fout_.obj
 0002:000048b4       ??_C@_05DNEBIAHO@1?$CDINF?$AA@ 040318b4     LIBCMT:_x10fout_.obj
 0002:000048bc       ??_C@_05PHHOCPM@1?$CDIND?$AA@ 040318bc     LIBCMT:_x10fout_.obj
 0002:000048c4       ??_C@_06PGGFOGJG@1?$CDSNAN?$AA@ 040318c4     LIBCMT:_x10fout_.obj
 0002:000048cc       ??_C@_0L@KDOEJCKC@_nextafter?$AA@ 040318cc     LIBCMT:_fpexcept_.obj
 0002:000048d8       ??_C@_05JGDBENOH@_logb?$AA@ 040318d8     LIBCMT:_fpexcept_.obj
 0002:000048e0       ??_C@_03ONILCKOB@_yn?$AA@  040318e0     LIBCMT:_fpexcept_.obj
 0002:000048e4       ??_C@_03NAKIGLHK@_y1?$AA@  040318e4     LIBCMT:_fpexcept_.obj
 0002:000048e8       ??_C@_03MJLDFKDL@_y0?$AA@  040318e8     LIBCMT:_fpexcept_.obj
 0002:000048ec       ??_C@_05GKKHEGJL@frexp?$AA@ 040318ec     LIBCMT:_fpexcept_.obj
 0002:000048f4       ??_C@_04KEPJIHGP@fmod?$AA@ 040318f4     LIBCMT:_fpexcept_.obj
 0002:000048fc       ??_C@_06MEIMCGCF@_hypot?$AA@ 040318fc     LIBCMT:_fpexcept_.obj
 0002:00004904       ??_C@_05KBKMEMPO@_cabs?$AA@ 04031904     LIBCMT:_fpexcept_.obj
 0002:0000490c       ??_C@_05CEJMAHNP@ldexp?$AA@ 0403190c     LIBCMT:_fpexcept_.obj
 0002:00004914       ??_C@_04EHEDPDJG@modf?$AA@ 04031914     LIBCMT:_fpexcept_.obj
 0002:0000491c       ??_C@_04ODHECPBC@fabs?$AA@ 0403191c     LIBCMT:_fpexcept_.obj
 0002:00004924       ??_C@_05PBJFFIGL@floor?$AA@ 04031924     LIBCMT:_fpexcept_.obj
 0002:0000492c       ??_C@_04GFPJNGEK@ceil?$AA@ 0403192c     LIBCMT:_fpexcept_.obj
 0002:00004934       ??_C@_03IIINPABG@tan?$AA@  04031934     LIBCMT:_fpexcept_.obj
 0002:00004938       ??_C@_03LALBNOCG@cos?$AA@  04031938     LIBCMT:_fpexcept_.obj
 0002:0000493c       ??_C@_03BLEJJJBH@sin?$AA@  0403193c     LIBCMT:_fpexcept_.obj
 0002:00004940       ??_C@_04EIAKFFMI@sqrt?$AA@ 04031940     LIBCMT:_fpexcept_.obj
 0002:00004948       ??_C@_05KNGEOGJB@atan2?$AA@ 04031948     LIBCMT:_fpexcept_.obj
 0002:00004950       ??_C@_04MLLJIGOK@atan?$AA@ 04031950     LIBCMT:_fpexcept_.obj
 0002:00004958       ??_C@_04PDIFKINK@acos?$AA@ 04031958     LIBCMT:_fpexcept_.obj
 0002:00004960       ??_C@_04FIHNOPOL@asin?$AA@ 04031960     LIBCMT:_fpexcept_.obj
 0002:00004968       ??_C@_04FJHINJAO@tanh?$AA@ 04031968     LIBCMT:_fpexcept_.obj
 0002:00004970       ??_C@_04HPJJNFIM@cosh?$AA@ 04031970     LIBCMT:_fpexcept_.obj
 0002:00004978       ??_C@_04COOMCNPB@sinh?$AA@ 04031978     LIBCMT:_fpexcept_.obj
 0002:00004980       ??_C@_05HGHHAHAP@log10?$AA@ 04031980     LIBCMT:_fpexcept_.obj
 0002:00004988       ??_C@_03MGHMBJCF@log?$AA@  04031988     LIBCMT:_fpexcept_.obj
 0002:0000498c       ??_C@_03JGHBODFD@pow?$AA@  0403198c     LIBCMT:_fpexcept_.obj
 0002:00004990       ??_C@_03KHJOGHMM@exp?$AA@  04031990     LIBCMT:_fpexcept_.obj
 0002:00004994       ??_C@_06GDENEHCP@CONIN$?$AA@ 04031994     LIBCMT:initcon.obj
 0002:0000499c       ??_C@_07GPDNMNG@CONOUT$?$AA@ 0403199c     LIBCMT:initcon.obj
 0002:000049a4       ___dnames                  040319a4     LIBCMT:timeset.obj
 0002:000049bc       ___mnames                  040319bc     LIBCMT:timeset.obj
 0002:000049e4       ??_C@_02CLFPBFFP@TZ?$AA@   040319e4     LIBCMT:tzset.obj
 0002:000049e8       __load_config_used         040319e8     LIBCMT:loadcfg.obj
 0002:00004a98       ??_R4bad_alloc@std@@6B@    04031a98     MQ2MapAPI.obj
 0002:00004aac       ??_R3bad_alloc@std@@8      04031aac     MQ2MapAPI.obj
 0002:00004abc       ??_R2bad_alloc@std@@8      04031abc     MQ2MapAPI.obj
 0002:00004ac8       ??_R1A@?0A@EA@bad_alloc@std@@8 04031ac8     MQ2MapAPI.obj
 0002:00004ae4       ??_R1A@?0A@EA@exception@std@@8 04031ae4     MQ2MapAPI.obj
 0002:00004b00       ??_R3exception@std@@8      04031b00     MQ2MapAPI.obj
 0002:00004b10       ??_R2exception@std@@8      04031b10     MQ2MapAPI.obj
 0002:00004b18       ??_R4logic_error@std@@6B@  04031b18     MQ2MapAPI.obj
 0002:00004b2c       ??_R3logic_error@std@@8    04031b2c     MQ2MapAPI.obj
 0002:00004b3c       ??_R2logic_error@std@@8    04031b3c     MQ2MapAPI.obj
 0002:00004b48       ??_R1A@?0A@EA@logic_error@std@@8 04031b48     MQ2MapAPI.obj
 0002:00004b64       ??_R4length_error@std@@6B@ 04031b64     MQ2MapAPI.obj
 0002:00004b78       ??_R3length_error@std@@8   04031b78     MQ2MapAPI.obj
 0002:00004b88       ??_R2length_error@std@@8   04031b88     MQ2MapAPI.obj
 0002:00004b98       ??_R1A@?0A@EA@length_error@std@@8 04031b98     MQ2MapAPI.obj
 0002:00004bb4       ??_R4out_of_range@std@@6B@ 04031bb4     MQ2MapAPI.obj
 0002:00004bc8       ??_R3out_of_range@std@@8   04031bc8     MQ2MapAPI.obj
 0002:00004bd8       ??_R2out_of_range@std@@8   04031bd8     MQ2MapAPI.obj
 0002:00004be8       ??_R1A@?0A@EA@out_of_range@std@@8 04031be8     MQ2MapAPI.obj
 0002:00004c04       ??_R4invalid_argument@std@@6B@ 04031c04     libcpmt:string.obj
 0002:00004c18       ??_R3invalid_argument@std@@8 04031c18     libcpmt:string.obj
 0002:00004c28       ??_R2invalid_argument@std@@8 04031c28     libcpmt:string.obj
 0002:00004c38       ??_R1A@?0A@EA@invalid_argument@std@@8 04031c38     libcpmt:string.obj
 0002:00004c54       ??_R4exception@std@@6B@    04031c54     LIBCMT:stdexcpt.obj
 0002:00004c68       ??_R4bad_cast@std@@6B@     04031c68     LIBCMT:stdexcpt.obj
 0002:00004c7c       ??_R3bad_cast@std@@8       04031c7c     LIBCMT:stdexcpt.obj
 0002:00004c8c       ??_R2bad_cast@std@@8       04031c8c     LIBCMT:stdexcpt.obj
 0002:00004c98       ??_R1A@?0A@EA@bad_cast@std@@8 04031c98     LIBCMT:stdexcpt.obj
 0002:00004cb4       ??_R4bad_typeid@std@@6B@   04031cb4     LIBCMT:stdexcpt.obj
 0002:00004cc8       ??_R3bad_typeid@std@@8     04031cc8     LIBCMT:stdexcpt.obj
 0002:00004cd8       ??_R2bad_typeid@std@@8     04031cd8     LIBCMT:stdexcpt.obj
 0002:00004ce4       ??_R1A@?0A@EA@bad_typeid@std@@8 04031ce4     LIBCMT:stdexcpt.obj
 0002:00004d00       ??_R4__non_rtti_object@std@@6B@ 04031d00     LIBCMT:stdexcpt.obj
 0002:00004d14       ??_R3__non_rtti_object@std@@8 04031d14     LIBCMT:stdexcpt.obj
 0002:00004d24       ??_R2__non_rtti_object@std@@8 04031d24     LIBCMT:stdexcpt.obj
 0002:00004d34       ??_R1A@?0A@EA@__non_rtti_object@std@@8 04031d34     LIBCMT:stdexcpt.obj
 0002:00004d50       ??_R4type_info@@6B@        04031d50     LIBCMT:typinfo.obj
 0002:00004d64       ??_R3type_info@@8          04031d64     LIBCMT:typinfo.obj
 0002:00004d74       ??_R2type_info@@8          04031d74     LIBCMT:typinfo.obj
 0002:00004d7c       ??_R1A@?0A@EA@type_info@@8 04031d7c     LIBCMT:typinfo.obj
 0002:00004d98       ??_R4bad_exception@std@@6B@ 04031d98     LIBCMT:frame.obj
 0002:00004dac       ??_R3bad_exception@std@@8  04031dac     LIBCMT:frame.obj
 0002:00004dbc       ??_R2bad_exception@std@@8  04031dbc     LIBCMT:frame.obj
 0002:00004dc8       ??_R1A@?0A@EA@bad_exception@std@@8 04031dc8     LIBCMT:frame.obj
 0002:00004df0       ___safe_se_handler_table   04031df0     <linker-defined>
 0002:00004e40       ___rtc_iaa                 04031e40     LIBCMT:_initsect_.obj
 0002:00004e44       ___rtc_izz                 04031e44     LIBCMT:_initsect_.obj
 0002:00004e48       ___rtc_taa                 04031e48     LIBCMT:_initsect_.obj
 0002:00004e4c       ___rtc_tzz                 04031e4c     LIBCMT:_initsect_.obj
 0002:00004e50       __TI2?AVbad_alloc@std@@    04031e50     MQ2MapAPI.obj
 0002:00004e60       __CTA2?AVbad_alloc@std@@   04031e60     MQ2MapAPI.obj
 0002:00004e6c       __CT??_R0?AVbad_alloc@std@@@8??0bad_alloc@std@@QAE@ABV01@@Z12 04031e6c     MQ2MapAPI.obj
 0002:00004e88       __CT??_R0?AVexception@std@@@8??0exception@std@@QAE@ABV01@@Z12 04031e88     MQ2MapAPI.obj
 0002:00004f5c       __TI3?AVlength_error@std@@ 04031f5c     MQ2MapAPI.obj
 0002:00004f98       __CTA3?AVlength_error@std@@ 04031f98     MQ2MapAPI.obj
 0002:00004fa8       __CT??_R0?AVlength_error@std@@@8??0length_error@std@@QAE@ABV01@@Z40 04031fa8     MQ2MapAPI.obj
 0002:00004fc4       __CT??_R0?AVlogic_error@std@@@8??0logic_error@std@@QAE@ABV01@@Z40 04031fc4     MQ2MapAPI.obj
 0002:00005038       __TI3?AVout_of_range@std@@ 04032038     MQ2MapAPI.obj
 0002:00005074       __CTA3?AVout_of_range@std@@ 04032074     MQ2MapAPI.obj
 0002:00005084       __CT??_R0?AVout_of_range@std@@@8??0out_of_range@std@@QAE@ABV01@@Z40 04032084     MQ2MapAPI.obj
 0002:000051d4       __TI3?AVinvalid_argument@std@@ 040321d4     libcpmt:string.obj
 0002:00005210       __CTA3?AVinvalid_argument@std@@ 04032210     libcpmt:string.obj
 0002:00005220       __CT??_R0?AVinvalid_argument@std@@@8??0invalid_argument@std@@QAE@ABV01@@Z40 04032220     libcpmt:string.obj
 0002:00005594       __TI2?AVbad_exception@std@@ 04032594     LIBCMT:frame.obj
 0002:000055a4       __CTA2?AVbad_exception@std@@ 040325a4     LIBCMT:frame.obj
 0002:000055b0       __CT??_R0?AVbad_exception@std@@@8??0bad_exception@std@@QAE@ABV01@@Z12 040325b0     LIBCMT:frame.obj
 0002:00005b44       __IMPORT_DESCRIPTOR_KERNEL32 04032b44     kernel32:KERNEL32.dll
 0002:00005b58       __IMPORT_DESCRIPTOR_MQ2Main 04032b58     mq2main:MQ2Main.dll
 0002:00005b6c       __NULL_IMPORT_DESCRIPTOR   04032b6c     kernel32:KERNEL32.dll
 0003:00000004       ?HighlightColor@@3KA       04034004     MQ2Map.obj
 0003:00000118       ?MapSpecialClickString@@3PAY0IAA@DA 04034118     MQ2Map.obj
 0003:00008118       ?MapNameString@@3PADA      0403c118     MQ2Map.obj
 0003:00008918       ?MapTargetNameString@@3PADA 0403c918     MQ2Map.obj
 0003:00009118       ?MapFilterOptions@@3PAU_MAPFILTER@@A 0403d118     MQ2Map.obj
 0003:00009598       ?Update@@3_NA              0403d598     MQ2Map.obj
 0003:000096b8       ??_R0?AVbad_alloc@std@@@8  0403d6b8     MQ2MapAPI.obj
 0003:000096d4       ??_R0?AVexception@std@@@8  0403d6d4     MQ2MapAPI.obj
 0003:000096f0       ??_R0?AVlogic_error@std@@@8 0403d6f0     MQ2MapAPI.obj
 0003:00009710       ??_R0?AVlength_error@std@@@8 0403d710     MQ2MapAPI.obj
 0003:00009730       ??_R0?AVout_of_range@std@@@8 0403d730     MQ2MapAPI.obj
 0003:0000986c       ??_R0?AVinvalid_argument@std@@@8 0403d86c     libcpmt:string.obj
 0003:000098a0       __fltused                  0403d8a0     LIBCMT:_fpinit_.obj
 0003:000098a4       __ldused                   0403d8a4     LIBCMT:_fpinit_.obj
 0003:000098cc       ??_R0?AVbad_cast@std@@@8   0403d8cc     LIBCMT:stdexcpt.obj
 0003:000098e8       ??_R0?AVbad_typeid@std@@@8 0403d8e8     LIBCMT:stdexcpt.obj
 0003:00009908       ??_R0?AV__non_rtti_object@std@@@8 0403d908     LIBCMT:stdexcpt.obj
 0003:00009930       ??_R0?AVtype_info@@@8      0403d930     LIBCMT:typinfo.obj
 0003:00009950       ___nullstring              0403d950     LIBCMT:output.obj
 0003:00009954       ___wnullstring             0403d954     LIBCMT:output.obj
 0003:00009ad0       __cfltcvt_tab              0403dad0     LIBCMT:cmiscdat.obj
 0003:00009b00       __indefinite               0403db00     LIBCMT:_87disp_.obj
 0003:00009b0a       __piby2                    0403db0a     LIBCMT:_87disp_.obj
 0003:00009c60       __amblksiz                 0403dc60     LIBCMT:heapinit.obj
 0003:00009c64       __aexit_rtn                0403dc64     LIBCMT:crt0dat.obj
 0003:00009d20       ___security_cookie         0403dd20     LIBCMT:gs_cookie.obj
 0003:00009d24       ___security_cookie_complement 0403dd24     LIBCMT:gs_cookie.obj
 0003:00009d28       ___flsindex                0403dd28     LIBCMT:tidtable.obj
 0003:00009d2c       ___getvalueindex           0403dd2c     LIBCMT:tidtable.obj
 0003:00009d34       ??_R0?AVbad_exception@std@@@8 0403dd34     LIBCMT:frame.obj
 0003:00009d60       ___badioinfo               0403dd60     LIBCMT:ioinit.obj
 0003:00009da0       __First_FPE_Indx           0403dda0     LIBCMT:winxfltr.obj
 0003:00009da4       __Num_FPE                  0403dda4     LIBCMT:winxfltr.obj
 0003:00009da8       __XcptActTabSize           0403dda8     LIBCMT:winxfltr.obj
 0003:00009dac       __XcptActTabCount          0403ddac     LIBCMT:winxfltr.obj
 0003:00009db0       __iob                      0403ddb0     LIBCMT:_file.obj
 0003:0000a030       ___initialmbcinfo          0403e030     LIBCMT:mbctype.obj
 0003:0000a250       __mbctype                  0403e250     LIBCMT:mbctype.obj
 0003:0000a358       __mbcasemap                0403e358     LIBCMT:mbctype.obj
 0003:0000a458       ___ptmbcinfo               0403e458     LIBCMT:mbctype.obj
 0003:0000a554       ___globallocalestatus      0403e554     LIBCMT:glstatus.obj
 0003:0000a558       ___clocalestr              0403e558     LIBCMT:nlsdata2.obj
 0003:0000a560       ___initiallocinfo          0403e560     LIBCMT:nlsdata2.obj
 0003:0000a638       ___ptlocinfo               0403e638     LIBCMT:nlsdata2.obj
 0003:0000a63c       ___lc_clike                0403e63c     LIBCMT:nlsdata2.obj
 0003:0000a640       ___initiallocalestructinfo 0403e640     LIBCMT:nlsdata2.obj
 0003:0000a650       ___abort_behavior          0403e650     LIBCMT:abort.obj
 0003:0000a654       __NLG_Destination          0403e654     LIBCMT:exsup.obj
 0003:0000a674       __pctype                   0403e674     LIBCMT:ctype.obj
 0003:0000a678       __pwctype                  0403e678     LIBCMT:ctype.obj
 0003:0000a680       ___lc_time_c               0403e680     LIBCMT:strftime.obj
 0003:0000a738       ___lc_time_curr            0403e738     LIBCMT:strftime.obj
 0003:0000a73c       ___lconv_static_decimal    0403e73c     LIBCMT:lconv.obj
 0003:0000a740       ___lconv_c                 0403e740     LIBCMT:lconv.obj
 0003:0000a770       ___lconv                   0403e770     LIBCMT:lconv.obj
 0003:0000a774       ___mb_cur_max              0403e774     LIBCMT:nlsdata1.obj
 0003:0000a778       ___decimal_point           0403e778     LIBCMT:nlsdata1.obj
 0003:0000a77c       ___decimal_point_length    0403e77c     LIBCMT:nlsdata1.obj
 0003:0000a898       __matherr_flag             0403e898     LIBCMT:_matherr_.obj
 0003:0000a8b8       __coninpfh                 0403e8b8     LIBCMT:initcon.obj
 0003:0000a8bc       __confh                    0403e8bc     LIBCMT:initcon.obj
 0003:0000a8c0       __timezone                 0403e8c0     LIBCMT:timeset.obj
 0003:0000a8c4       __daylight                 0403e8c4     LIBCMT:timeset.obj
 0003:0000a8c8       __dstbias                  0403e8c8     LIBCMT:timeset.obj
 0003:0000a950       __tzname                   0403e950     LIBCMT:timeset.obj
 0003:0000a970       __pow10pos                 0403e970     LIBCMT:_constpow_.obj
 0003:0000aad0       __pow10neg                 0403ead0     LIBCMT:_constpow_.obj
 0003:0000ac30       __d_inf                    0403ec30     LIBCMT:_util_.obj
 0003:0000ac38       __d_ind                    0403ec38     LIBCMT:_util_.obj
 0003:0000ac40       __d_max                    0403ec40     LIBCMT:_util_.obj
 0003:0000ac48       __d_min                    0403ec48     LIBCMT:_util_.obj
 0003:0000ac50       __d_mzero                  0403ec50     LIBCMT:_util_.obj
 0003:0000ac58       __lpdays                   0403ec58     LIBCMT:days.obj
 0003:0000ac8c       __days                     0403ec8c     LIBCMT:days.obj
 0003:0000acc0       ?INIFileName@@3PADA        0403ecc0     MQ2Map.obj
 0003:0000adc4       ?bmMapRefresh@@3KA         0403edc4     MQ2Map.obj
 0003:0000adc8       ?MapFilterCustom@@3U_SEARCHSPAWN@MQ2Internal@@A 0403edc8     MQ2Map.obj
 0003:0000d680       ?CMyMapViewWnd__OldvfTable@@3PAU_CSIDLWNDVFTABLE@EQUIStructs@@A 04041680     MQ2Map.obj
 0003:0000d684       ?CMyMapViewWnd__OldDestructor@@3KA 04041684     MQ2Map.obj
 0003:0000d688       ?CMyMapViewWnd__OldHandleRButtonDown@@3KA 04041688     MQ2Map.obj
 0003:0000d68c       ?CMyMapViewWnd__OldPostDraw@@3KA 0404168c     MQ2Map.obj
 0003:0000d690       ?pTargetMelee@@3PAPAU_MAPLINE@EQUIStructs@@A 04041690     MQ2MapAPI.obj
 0003:0000d728       ?pSpellRadius@@3PAPAU_MAPLINE@EQUIStructs@@A 04041728     MQ2MapAPI.obj
 0003:0000d7c0       ?pTargetRadius@@3PAPAU_MAPLINE@EQUIStructs@@A 040417c0     MQ2MapAPI.obj
 0003:0000d858       ?pCastRadius@@3PAPAU_MAPLINE@EQUIStructs@@A 04041858     MQ2MapAPI.obj
 0003:0000d8ec       ?pActiveSpawns@@3PAU_MAPSPAWN@@A 040418ec     MQ2MapAPI.obj
 0003:0000d8f0       ?pLabelList@@3PAU_MAPLABEL@EQUIStructs@@A 040418f0     MQ2MapAPI.obj
 0003:0000d8f4       ?pLabelListTail@@3PAU_MAPLABEL@EQUIStructs@@A 040418f4     MQ2MapAPI.obj
 0003:0000d8f8       ?pLineList@@3PAU_MAPLINE@EQUIStructs@@A 040418f8     MQ2MapAPI.obj
 0003:0000d8fc       ?pLineListTail@@3PAU_MAPLINE@EQUIStructs@@A 040418fc     MQ2MapAPI.obj
 0003:0000d900       ?Update@@3HA               04041900     MQ2MapAPI.obj
 0003:0000d904       ?pLastTarget@@3PAU_MAPSPAWN@@A 04041904     MQ2MapAPI.obj
 0003:0000d908       ?pTargetLine@@3PAU_MAPLINE@EQUIStructs@@A 04041908     MQ2MapAPI.obj
 0003:0000d90c       ?pActualLineList@@3PAU_MAPLABEL@EQUIStructs@@A 0404190c     MQ2MapAPI.obj
 0003:0000d910       ?GroundItemMap@@3V?$map@KPAU_MAPSPAWN@@U?$less@K@std@@V?$allocator@U?$pair@$$CBKPAU_MAPSPAWN@@@std@@@3@@std@@A 04041910     MQ2MapAPI.obj
 0003:0000d930       ?SpawnMap@@3V?$map@KPAU_MAPSPAWN@@U?$less@K@std@@V?$allocator@U?$pair@$$CBKPAU_MAPSPAWN@@@std@@@3@@std@@A 04041930     MQ2MapAPI.obj
 0003:0000d950       ?LabelMap@@3V?$map@PAU_MAPLABEL@EQUIStructs@@PAU_MAPSPAWN@@U?$less@PAU_MAPLABEL@EQUIStructs@@@std@@V?$allocator@U?$pair@QAU_MAPLABEL@EQUIStructs@@PAU_MAPSPAWN@@@std@@@5@@std@@A 04041950     MQ2MapAPI.obj
 0003:0000da80       ___fastflag                04041a80     LIBCMT:_fpinit_.obj
 0003:0000da84       __adjust_fdiv              04041a84     LIBCMT:_fpinit_.obj
 0003:0000da88       ___pInvalidArgHandler      04041a88     LIBCMT:invarg.obj
 0003:0000da90       __aenvptr                  04041a90     LIBCMT:dllcrt0.obj
 0003:0000da94       __wenvptr                  04041a94     LIBCMT:dllcrt0.obj
 0003:0000da98       ___error_mode              04041a98     LIBCMT:dllcrt0.obj
 0003:0000da9c       ___app_type                04041a9c     LIBCMT:dllcrt0.obj
 0003:0000daa0       ?_pnhHeap@@3P6AHI@ZA       04041aa0     LIBCMT:handler.obj
 0003:0000dc00       ___sbh_pHeaderDefer        04041c00     LIBCMT:sbheap.obj
 0003:0000dc04       __crtheap                  04041c04     LIBCMT:heapinit.obj
 0003:0000dc08       __umaskval                 04041c08     LIBCMT:crt0dat.obj
 0003:0000dc0c       ___argc                    04041c0c     LIBCMT:crt0dat.obj
 0003:0000dc10       ___argv                    04041c10     LIBCMT:crt0dat.obj
 0003:0000dc14       ___wargv                   04041c14     LIBCMT:crt0dat.obj
 0003:0000dc18       __environ                  04041c18     LIBCMT:crt0dat.obj
 0003:0000dc1c       ___initenv                 04041c1c     LIBCMT:crt0dat.obj
 0003:0000dc20       __wenviron                 04041c20     LIBCMT:crt0dat.obj
 0003:0000dc24       ___winitenv                04041c24     LIBCMT:crt0dat.obj
 0003:0000dc28       __pgmptr                   04041c28     LIBCMT:crt0dat.obj
 0003:0000dc2c       __wpgmptr                  04041c2c     LIBCMT:crt0dat.obj
 0003:0000dc30       __exitflag                 04041c30     LIBCMT:crt0dat.obj
 0003:0000dc34       __C_Termination_Done       04041c34     LIBCMT:crt0dat.obj
 0003:0000dc38       __C_Exit_Done              04041c38     LIBCMT:crt0dat.obj
 0003:0000df54       __newmode                  04041f54     LIBCMT:_newmode.obj
 0003:0000df58       _gpFlsAlloc                04041f58     LIBCMT:tidtable.obj
 0003:0000df5c       _gpFlsGetValue             04041f5c     LIBCMT:tidtable.obj
 0003:0000df60       _gpFlsSetValue             04041f60     LIBCMT:tidtable.obj
 0003:0000df64       _gpFlsFree                 04041f64     LIBCMT:tidtable.obj
 0003:0000df68       ?__pInconsistency@@3P6AXXZA 04041f68     LIBCMT:hooks.obj
 0003:0000df6c       __maxwait                  04041f6c     LIBCMT:crtheap.obj
 0003:0000e3a4       __cflush                   040423a4     LIBCMT:_file.obj
 0003:0000e3ac       ___mbulinfo                040423ac     LIBCMT:mbctype.obj
 0003:0000e3b8       ___mbcodepage              040423b8     LIBCMT:mbctype.obj
 0003:0000e3bc       ___ismbcodepage            040423bc     LIBCMT:mbctype.obj
 0003:0000e3c0       ___mblcid                  040423c0     LIBCMT:mbctype.obj
 0003:0000e3c4       ___locale_changed          040423c4     LIBCMT:setlocal.obj
 0003:0000e3c8       ___lc_handle               040423c8     LIBCMT:nlsdata2.obj
 0003:0000e3e0       ___lc_codepage             040423e0     LIBCMT:nlsdata2.obj
 0003:0000e3e4       ___lc_collate_cp           040423e4     LIBCMT:nlsdata2.obj
 0003:0000e3ec       __outputformat             040423ec     LIBCMT:outputformat.obj
 0003:0000e404       ?pArgList@UnDecorator@@0PAVReplicator@@A 04042404     LIBCMT:undname.obj
 0003:0000e408       ?pZNameList@UnDecorator@@0PAVReplicator@@A 04042408     LIBCMT:undname.obj
 0003:0000e40c       ?pTemplateArgList@UnDecorator@@0PAVReplicator@@A 0404240c     LIBCMT:undname.obj
 0003:0000e410       ?gName@UnDecorator@@0PBDB  04042410     LIBCMT:undname.obj
 0003:0000e414       ?name@UnDecorator@@0PBDB   04042414     LIBCMT:undname.obj
 0003:0000e418       ?outputString@UnDecorator@@0PADA 04042418     LIBCMT:undname.obj
 0003:0000e41c       ?maxStringLength@UnDecorator@@0HA 0404241c     LIBCMT:undname.obj
 0003:0000e420       ?disableFlags@UnDecorator@@0KA 04042420     LIBCMT:undname.obj
 0003:0000e424       ?m_pGetParameter@UnDecorator@@0P6APADJ@ZA 04042424     LIBCMT:undname.obj
 0003:0000e428       ?fExplicitTemplateParams@UnDecorator@@0_NA 04042428     LIBCMT:undname.obj
 0003:0000e429       ?fGetTemplateArgumentList@UnDecorator@@0_NA 04042429     LIBCMT:undname.obj
 0003:0000e42c       ?nodes@?1??make@DNameStatusNode@@SAPAV2@W4DNameStatus@@@Z@4PAV2@A 0404242c     LIBCMT:undname.obj
 0003:0000e45c       ??_B?1??make@DNameStatusNode@@SAPAV1@W4DNameStatus@@@Z@51 0404245c     LIBCMT:undname.obj
 0003:0000e484       ___pPurecall               04042484     LIBCMT:inithelp.obj
 0003:0000e4a4       ___lconv_static_null       040424a4     LIBCMT:lconv.obj
 0003:0000e4a8       __stdbuf                   040424a8     LIBCMT:_sftbuf.obj
 0003:0000e574       ___setlc_active            04042574     <common>
 0003:0000e578       ___unguarded_readlc_active 04042578     <common>
 0003:0000e57c       ___piob                    0404257c     <common>
 0003:0000e580       __bufin                    04042580     <common>
 0003:0000f580       __nstream                  04043580     <common>
 0003:0000f584       __nhandle                  04043584     <common>
 0003:0000f5a0       ___pioinfo                 040435a0     <common>
 0003:0000f6a0       __debugger_hook_dummy      040436a0     <common>
 0003:0000f6a4       ___env_initialized         040436a4     <common>
 0003:0000f6a8       ___onexitend               040436a8     <common>
 0003:0000f6ac       ___onexitbegin             040436ac     <common>
 0003:0000f6b0       ___mbctype_initialized     040436b0     <common>
 0003:0000f6b4       ___dyn_tls_init_callback   040436b4     <common>
 0003:0000f6b8       ___active_heap             040436b8     <common>
 0003:0000f6bc       ___sbh_initialized         040436bc     <common>
 0003:0000f6c0       ___sbh_cntHeaderList       040436c0     <common>
 0003:0000f6c4       ___sbh_pHeaderList         040436c4     <common>
 0003:0000f6c8       ___sbh_threshold           040436c8     <common>
 0003:0000f6cc       ___sbh_pHeaderScan         040436cc     <common>
 0003:0000f6d0       ___sbh_sizeHeaderList      040436d0     <common>
 0003:0000f6d4       ___sbh_indGroupDefer       040436d4     <common>
 0003:0000f6d8       ___use_sse2_mathfcns       040436d8     <common>
 0003:0000f6dc       ___sse2_available          040436dc     <common>
 0003:0000f6e0       __acmdln                   040436e0     <common>

 entry point at        0001:00009c87

 Static symbols

 0001:fffff000       __ehhandler$?_Copy@?$basic_string@DU?$char_traits@D@std@@V?$allocator@D@2@@std@@IAEXII@Z 04000000 f   libcpmt:string.obj
 0001:fffff000       __unwindfunclet$??0logic_error@std@@QAE@ABV?$basic_string@DU?$char_traits@D@std@@V?$allocator@D@2@@1@@Z$0 04000000 f   libcpmt:string.obj
 0001:fffff000       __unwindfunclet$??0logic_error@std@@QAE@ABV01@@Z$0 04000000 f   libcpmt:string.obj
 0001:fffff008       __ehhandler$??0logic_error@std@@QAE@ABV?$basic_string@DU?$char_traits@D@std@@V?$allocator@D@2@@1@@Z 04000008 f   libcpmt:string.obj
 0001:fffff008       __ehhandler$??0logic_error@std@@QAE@ABV01@@Z 04000008 f   libcpmt:string.obj
 0001:fffff059       __catch$?_Copy@?$basic_string@DU?$char_traits@D@std@@V?$allocator@D@2@@std@@IAEXII@Z$0 04000059 f   libcpmt:string.obj
 0001:fffff0ca       __catch$?_Copy@?$basic_string@DU?$char_traits@D@std@@V?$allocator@D@2@@std@@IAEXII@Z$1 040000ca f   libcpmt:string.obj
 0001:00000000       ?GetCharInfo@@YAPAU_CHARINFO@EQData@@XZ 04001000 f   MQ2Map.obj
 0001:00000010       ?IsOptionEnabled@@YAHK@Z   04001010 f   MQ2Map.obj
 0001:00000880       ?GetCharInfo@@YAPAU_CHARINFO@EQData@@XZ 04001880 f   MQ2MapAPI.obj
 0001:00000890       ?GetSpawnByName@@YAPAVEQPlayer@EQClasses@@PAD@Z 04001890 f   MQ2MapAPI.obj
 0001:000008b0       ?GetClassDesc@@YAPADK@Z    040018b0 f   MQ2MapAPI.obj
 0001:00000950       ?GetBodyType@@YAKPAU_SPAWNINFO@EQData@@@Z 04001950 f   MQ2MapAPI.obj
 0001:000009d0       ?GetSpawnType@@YA?AW4eSpawnType@MQ2Internal@@PAU_SPAWNINFO@EQData@@@Z 040019d0 f   MQ2MapAPI.obj
 0001:00000c40       ?ConColorToARGB@@YAKK@Z    04001c40 f   MQ2MapAPI.obj
 0001:00000cb0       ?IsOptionEnabled@@YAHK@Z   04001cb0 f   MQ2MapAPI.obj
 0001:00002cb3       __catch$?_Copy@?$basic_string@DU?$char_traits@D@std@@V?$allocator@D@2@@std@@IAEXII@Z$0 04003cb3 f i MQ2MapAPI.obj
 0001:00002d43       __catch$?_Copy@?$basic_string@DU?$char_traits@D@std@@V?$allocator@D@2@@std@@IAEXII@Z$1 04003d43 f i MQ2MapAPI.obj
 0001:000069d0       ?GetCharInfo@@YAPAU_CHARINFO@EQData@@XZ 040079d0 f   MQ2MapCommands.obj
 0001:000069e0       ?IsOptionEnabled@@YAHK@Z   040079e0 f   MQ2MapCommands.obj
 0001:00006a20       ?RequirementsMet@@YAHK@Z   04007a20 f   MQ2MapCommands.obj
 0001:00008bc5       _xtoa@16                   04009bc5 f   LIBCMT:xtoa.obj
 0001:00008c74       @x64toa@20                 04009c74 f   LIBCMT:xtoa.obj
 0001:00009092       ?CatchGuardHandler@@YA?AW4_EXCEPTION_DISPOSITION@@PAUEHExceptionRecord@@PAUCatchGuardRN@@PAX2@Z 0400a092 f   LIBCMT:_trnsctrl_.obj
 0001:0000919c       ?TranslatorGuardHandler@@YA?AW4_EXCEPTION_DISPOSITION@@PAUEHExceptionRecord@@PAUTranslatorGuardRN@@PAX2@Z 0400a19c f   LIBCMT:_trnsctrl_.obj
 0001:000097b5       __onexit_nolock            0400a7b5 f   LIBCMT:onexit.obj
 0001:00009b91       ___DllMainCRTStartup       0400ab91 f   LIBCMT:dllcrt0.obj
 0001:0000a050       _write_char                0400b050 f   LIBCMT:output.obj
 0001:0000a083       _write_multi_char          0400b083 f   LIBCMT:output.obj
 0001:0000a0a9       _write_string              0400b0a9 f   LIBCMT:output.obj
 0001:0000b315       _fastzero_I                0400c315 f   LIBCMT:p4_memset.obj
 0001:0000b3fb       _has_osfxsr_set            0400c3fb f   LIBCMT:cpu_disp.obj
 0001:0000b72a       __shift                    0400c72a f   LIBCMT:cvt.obj
 0001:0000b76f       __cftoe2_l                 0400c76f f   LIBCMT:cvt.obj
 0001:0000bd61       __cftof2_l                 0400cd61 f   LIBCMT:cvt.obj
 0001:0000e330       _ValidateLocalCookies      0400f330 f   LIBCMT:chandler4.obj
 0001:0000e648       __initterm                 0400f648 f   LIBCMT:crt0dat.obj
 0001:0000e786       _doexit                    0400f786 f   LIBCMT:crt0dat.obj
 0001:0000f444       ?ExFilterRethrow@@YAHPAU_EXCEPTION_POINTERS@@@Z 04010444 f   LIBCMT:frame.obj
 0001:0000f838       ?IsInExceptionSpec@@YAEPAUEHExceptionRecord@@PBU_s_ESTypeList@@@Z 04010838 f   LIBCMT:frame.obj
 0001:0000f8b3       ?CallUnexpected@@YAXPBU_s_ESTypeList@@@Z 040108b3 f   LIBCMT:frame.obj
 0001:0000f8e4       __catch$?CallUnexpected@@YAXPBU_s_ESTypeList@@@Z$0 040108e4 f   LIBCMT:frame.obj
 0001:0000f8fc       ?Is_bad_exception_allowed@@YAEPBU_s_ESTypeList@@@Z 040108fc f   LIBCMT:frame.obj
 0001:0000f9b4       ?CallCatchBlock@@YAPAXPAUEHExceptionRecord@@PAUEHRegistrationNode@@PAU_CONTEXT@@PBU_s_FuncInfo@@PAXHK@Z 040109b4 f   LIBCMT:frame.obj
 0001:0000fea6       ?CatchIt@@YAXPAUEHExceptionRecord@@PAUEHRegistrationNode@@PAU_CONTEXT@@PAXPBU_s_FuncInfo@@PBU_s_HandlerType@@PBU_s_CatchableType@@PBU_s_TryBlockMapEntry@@H1E@Z 04010ea6 f   LIBCMT:frame.obj
 0001:0000ff14       ?FindHandlerForForeignException@@YAXPAUEHExceptionRecord@@PAUEHRegistrationNode@@PAU_CONTEXT@@PAXPBU_s_FuncInfo@@HH1@Z 04010f14 f   LIBCMT:frame.obj
 0001:00010008       ?FindHandler@@YAXPAUEHExceptionRecord@@PAUEHRegistrationNode@@PAU_CONTEXT@@PAXPBU_s_FuncInfo@@EH1@Z 04011008 f   LIBCMT:frame.obj
 0001:0001053c       _fastcopy_I                0401153c f   LIBCMT:p4_memcpy.obj
 0001:000108b5       ?strtoxl@@YAKPAUlocaleinfo_struct@@PBDPAPBDHH@Z 040118b5 f   LIBCMT:strtol.obj
 0001:00010b75       ?strtoxq@@YA_KPAUlocaleinfo_struct@@PBDPAPBDHH@Z 04011b75 f   LIBCMT:strtoq.obj
 0001:0001122c       _parse_cmdline             0401222c f   LIBCMT:stdargv.obj
 0001:00011605       _xcptlookup                04012605 f   LIBCMT:winxfltr.obj
 0001:00012597       ?CPtoLCID@@YAHH@Z          04013597 f   LIBCMT:mbctype.obj
 0001:000125c6       ?setSBCS@@YAXPAUthreadmbcinfostruct@@@Z 040135c6 f   LIBCMT:mbctype.obj
 0001:0001262a       ?setSBUpLow@@YAXPAUthreadmbcinfostruct@@@Z 0401362a f   LIBCMT:mbctype.obj
 0001:00012861       ?getSystemCP@@YAHH@Z       04013861 f   LIBCMT:mbctype.obj
 0001:00012f35       __copytlocinfo_nolock      04013f35 f   LIBCMT:setlocal.obj
 0001:00012f5b       __updatetlocinfoEx_nolock  04013f5b f   LIBCMT:setlocal.obj
 0001:00013079       _sync_legacy_variables_lk  04014079 f   LIBCMT:setlocal.obj
 0001:00013426       __setlocale_get_all        04014426 f   LIBCMT:setlocal.obj
 0001:000137d4       __setlocale_set_cat        040147d4 f   LIBCMT:setlocal.obj
 0001:00013ad6       __setlocale_nolock         04014ad6 f   LIBCMT:setlocal.obj
 0001:000146ed       _write_char                040156ed f   LIBCMT:outputp.obj
 0001:00014720       _write_multi_char          04015720 f   LIBCMT:outputp.obj
 0001:00014746       _write_string              04015746 f   LIBCMT:outputp.obj
 0001:00015a68       _write_char                04016a68 f   LIBCMT:outputs.obj
 0001:00015a9b       _write_multi_char          04016a9b f   LIBCMT:outputs.obj
 0001:00015ac1       _write_string              04016ac1 f   LIBCMT:outputs.obj
 0001:0001804d       ?und_strlen@@YAIPBD@Z      0401904d f   LIBCMT:undname.obj
 0001:0001805b       ?und_memcpy@@YAXPADPBDI@Z  0401905b f   LIBCMT:undname.obj
 0001:00018071       ?und_strncmp@@YAIPBD0I@Z   04019071 f   LIBCMT:undname.obj
 0001:0001c9e8       __unwind_handler4          0401d9e8 f   LIBCMT:exsup4.obj
 0001:0001cc8b       _ctrlevent_capture@4       0401dc8b f   LIBCMT:winsig.obj
 0001:0001cd26       _siglookup                 0401dd26 f   LIBCMT:winsig.obj
 0001:0001d890       __unwind_handler           0401e890 f   LIBCMT:exsup.obj
 0001:0001de84       ?x_ismbbtype_l@@YAHPAUlocaleinfo_struct@@IHH@Z 0401ee84 f   LIBCMT:ismbbyte.obj
 0001:0001ea60       _flsall                    0401fa60 f   LIBCMT:fflush.obj
 0001:0001ebcc       ?strncnt@@YAHPBDH@Z        0401fbcc f   LIBCMT:a_map.obj
 0001:0001ebea       ?__crtLCMapStringA_stat@@YAHPAUlocaleinfo_struct@@KKPBDHPADHHH@Z 0401fbea f   LIBCMT:a_map.obj
 0001:0001efd4       ?__crtGetStringTypeA_stat@@YAHPAUlocaleinfo_struct@@KPBDHPAGHHH@Z 0401ffd4 f   LIBCMT:a_str.obj
 0001:0001f1ff       __get_lc_time              040201ff f   LIBCMT:inittime.obj
 0001:0001f828       _fix_grouping              04020828 f   LIBCMT:initnum.obj
 0001:0001fa6a       _fix_grouping              04020a6a f   LIBCMT:initmon.obj
 0001:000207bf       ?_store_str@@YAXPADPAPADPAI@Z 040217bf f   LIBCMT:strftime.obj
 0001:000207df       ?_store_number@@YAXHPAPADPAI@Z 040217df f   LIBCMT:strftime.obj
 0001:00020815       ?_store_num@@YAXHHPAPADPAII@Z 04021815 f   LIBCMT:strftime.obj
 0001:00020890       ?_expandtime@@YAHPAUlocaleinfo_struct@@DPBUtm@@PAPADPAIPAU__lc_time_data@@I@Z 04021890 f   LIBCMT:strftime.obj
 0001:00020c78       ?_store_winword@@YAHPAUlocaleinfo_struct@@HPBUtm@@PAPADPAIPAU__lc_time_data@@@Z 04021c78 f   LIBCMT:strftime.obj
 0001:00021356       _TranslateName             04022356 f   LIBCMT:getqloc.obj
 0001:000213b8       _GetLcidFromDefault        040223b8 f   LIBCMT:getqloc.obj
 0001:000213cc       _ProcessCodePage           040223cc f   LIBCMT:getqloc.obj
 0001:00021470       _TestDefaultCountry        04022470 f   LIBCMT:getqloc.obj
 0001:00021494       _LcidFromHexString         04022494 f   LIBCMT:getqloc.obj
 0001:000214c8       _GetPrimaryLen             040224c8 f   LIBCMT:getqloc.obj
 0001:000214e3       _CountryEnumProc@4         040224e3 f   LIBCMT:getqloc.obj
 0001:0002157b       _TestDefaultLanguage       0402257b f   LIBCMT:getqloc.obj
 0001:000215ef       _LangCountryEnumProc@4     040225ef f   LIBCMT:getqloc.obj
 0001:000217c1       _LanguageEnumProc@4        040227c1 f   LIBCMT:getqloc.obj
 0001:00021882       _GetLcidFromCountry        04022882 f   LIBCMT:getqloc.obj
 0001:000218ae       _GetLcidFromLangCountry    040228ae f   LIBCMT:getqloc.obj
 0001:00021915       _GetLcidFromLanguage       04022915 f   LIBCMT:getqloc.obj
 0001:00021b42       _cmpResult                 04022b42 f   LIBCMT:memcmp.obj
 0001:00021b54       _cmpBYTE                   04022b54 f   LIBCMT:memcmp.obj
 0001:00021b6c       _cmpWORD                   04022b6c f   LIBCMT:memcmp.obj
 0001:00021bac       _cmpDWORD                  04022bac f   LIBCMT:memcmp.obj
 0001:00021c24       _unaligned_memcmp          04022c24 f   LIBCMT:memcmp.obj
 0001:000275c5       __abstract_cw              040285c5 f   LIBCMT:_ieee87_.obj
 0001:00027664       __hw_cw                    04028664 f   LIBCMT:_ieee87_.obj
 0001:000276f2       __abstract_sw              040286f2 f   LIBCMT:_ieee87_.obj
 0001:00027735       ___abstract_cw_sse2        04028735 f   LIBCMT:_ieee87_.obj
 0001:000277d5       ___hw_cw_sse2              040287d5 f   LIBCMT:_ieee87_.obj
 0001:00027875       ___abstract_sw_sse2        04028875 f   LIBCMT:_ieee87_.obj
 0001:000278b8       ___fpreset_sse2            040288b8 f   LIBCMT:_ieee87_.obj
 0001:0002798e       ___statusfp_sse2           0402898e f   LIBCMT:_ieee87_.obj
 0001:000279c9       ___clearfp_sse2            040289c9 f   LIBCMT:_ieee87_.obj
 0001:00027a19       ___control87_sse2          04028a19 f   LIBCMT:_ieee87_.obj
 0001:00028b28       __get_fname                04029b28 f   LIBCMT:_fpexcept_.obj
 0001:000290a6       ?__crtGetLocaleInfoW_stat@@YAHPAUlocaleinfo_struct@@KKPA_WHH@Z 0402a0a6 f   LIBCMT:w_loc.obj
 0001:000290f3       ?__crtGetLocaleInfoA_stat@@YAHPAUlocaleinfo_struct@@KKPADHH@Z 0402a0f3 f   LIBCMT:a_loc.obj
 0001:00029896       __tzset_nolock             0402a896 f   LIBCMT:tzset.obj
 0001:00029bdc       _cvtdate                   0402abdc f   LIBCMT:tzset.obj
 0001:00029dd3       __isindst_nolock           0402add3 f   LIBCMT:tzset.obj
 0001:0002a323       _xtoa_s@20                 0402b323 f   LIBCMT:xtoas.obj
 0001:0002a46b       @x64toa_s@24               0402b46b f   LIBCMT:xtoas.obj
 0001:0002a5b7       ?__crtGetStringTypeW_stat@@YAHPAUlocaleinfo_struct@@KPB_WHPAGHH@Z 0402b5b7 f   LIBCMT:w_str.obj
 0001:0002abb8       __getenv_s_helper          0402bbb8 f   LIBCMT:getenv.obj
 0001:0002ac4d       __dupenv_s_helper          0402bc4d f   LIBCMT:getenv.obj
 0001:0002b19d       ?strncnt@@YAHPBDH@Z        0402c19d f   LIBCMT:a_cmp.obj
 0001:0002b1bb       ?__crtCompareStringA_stat@@YAHPAUlocaleinfo_struct@@KKPBDH1HH@Z 0402c1bb f   LIBCMT:a_cmp.obj
 0001:0002b690       _findenv                   0402c690 f   LIBCMT:setenv.obj
 0001:0002b6e2       _copy_environ              0402c6e2 f   LIBCMT:setenv.obj
 0001:0002bcb0       __ehhandler$?_Copy@?$basic_string@DU?$char_traits@D@std@@V?$allocator@D@2@@std@@IAEXII@Z 0402ccb0 f   MQ2MapAPI.obj
 0001:0002bcc0       __unwindfunclet$??0logic_error@std@@QAE@ABV?$basic_string@DU?$char_traits@D@std@@V?$allocator@D@2@@1@@Z$0 0402ccc0 f   MQ2MapAPI.obj
 0001:0002bcc8       __ehhandler$??0logic_error@std@@QAE@ABV?$basic_string@DU?$char_traits@D@std@@V?$allocator@D@2@@1@@Z 0402ccc8 f   MQ2MapAPI.obj
 0001:0002bce0       __unwindfunclet$?_Insert@?$_Tree@V?$_Tmap_traits@KPAU_MAPSPAWN@@U?$less@K@std@@V?$allocator@U?$pair@$$CBKPAU_MAPSPAWN@@@std@@@3@$0A@@std@@@std@@IAE?AViterator@12@_NPAU_Node@?$_Tree_nod@V?$_Tmap_traits@KPAU_MAPSPAWN@@U?$less@K@std@@V?$allocator@U?$pair@$$CBKPAU_MAPSPAWN@@@std@@@3@$0A@@std@@@2@ABU?$pair@$$CBKPAU_MAPSPAWN@@@2@@Z$0 0402cce0 f   MQ2MapAPI.obj
 0001:0002bce8       __ehhandler$?_Insert@?$_Tree@V?$_Tmap_traits@KPAU_MAPSPAWN@@U?$less@K@std@@V?$allocator@U?$pair@$$CBKPAU_MAPSPAWN@@@std@@@3@$0A@@std@@@std@@IAE?AViterator@12@_NPAU_Node@?$_Tree_nod@V?$_Tmap_traits@KPAU_MAPSPAWN@@U?$less@K@std@@V?$allocator@U?$pair@$$CBKPAU_MAPSPAWN@@@std@@@3@$0A@@std@@@2@ABU?$pair@$$CBKPAU_MAPSPAWN@@@2@@Z 0402cce8 f   MQ2MapAPI.obj
 0001:0002bd00       __unwindfunclet$??0logic_error@std@@QAE@ABV01@@Z$0 0402cd00 f   MQ2MapAPI.obj
 0001:0002bd08       __ehhandler$??0logic_error@std@@QAE@ABV01@@Z 0402cd08 f   MQ2MapAPI.obj
 0001:0002bd20       __unwindfunclet$?_Insert@?$_Tree@V?$_Tmap_traits@PAU_MAPLABEL@EQUIStructs@@PAU_MAPSPAWN@@U?$less@PAU_MAPLABEL@EQUIStructs@@@std@@V?$allocator@U?$pair@QAU_MAPLABEL@EQUIStructs@@PAU_MAPSPAWN@@@std@@@5@$0A@@std@@@std@@IAE?AViterator@12@_NPAU_Node@?$_Tree_nod@V?$_Tmap_traits@PAU_MAPLABEL@EQUIStructs@@PAU_MAPSPAWN@@U?$less@PAU_MAPLABEL@EQUIStructs@@@std@@V?$allocator@U?$pair@QAU_MAPLABEL@EQUIStructs@@PAU_MAPSPAWN@@@std@@@5@$0A@@std@@@2@ABU?$pair@QAU_MAPLABEL@EQUIStructs@@PAU_MAPSPAWN@@@2@@Z$0 0402cd20 f   MQ2MapAPI.obj
 0001:0002bd28       __ehhandler$?_Insert@?$_Tree@V?$_Tmap_traits@PAU_MAPLABEL@EQUIStructs@@PAU_MAPSPAWN@@U?$less@PAU_MAPLABEL@EQUIStructs@@@std@@V?$allocator@U?$pair@QAU_MAPLABEL@EQUIStructs@@PAU_MAPSPAWN@@@std@@@5@$0A@@std@@@std@@IAE?AViterator@12@_NPAU_Node@?$_Tree_nod@V?$_Tmap_traits@PAU_MAPLABEL@EQUIStructs@@PAU_MAPSPAWN@@U?$less@PAU_MAPLABEL@EQUIStructs@@@std@@V?$allocator@U?$pair@QAU_MAPLABEL@EQUIStructs@@PAU_MAPSPAWN@@@std@@@5@$0A@@std@@@2@ABU?$pair@QAU_MAPLABEL@EQUIStructs@@PAU_MAPSPAWN@@@2@@Z 0402cd28 f   MQ2MapAPI.obj
 0001:0002bd40       __unwindfunclet$?erase@?$_Tree@V?$_Tmap_traits@KPAU_MAPSPAWN@@U?$less@K@std@@V?$allocator@U?$pair@$$CBKPAU_MAPSPAWN@@@std@@@3@$0A@@std@@@std@@QAE?AViterator@12@Vconst_iterator@12@@Z$0 0402cd40 f   MQ2MapAPI.obj
 0001:0002bd48       __ehhandler$?erase@?$_Tree@V?$_Tmap_traits@KPAU_MAPSPAWN@@U?$less@K@std@@V?$allocator@U?$pair@$$CBKPAU_MAPSPAWN@@@std@@@3@$0A@@std@@@std@@QAE?AViterator@12@Vconst_iterator@12@@Z 0402cd48 f   MQ2MapAPI.obj
 0001:0002bd60       __unwindfunclet$?erase@?$_Tree@V?$_Tmap_traits@PAU_MAPLABEL@EQUIStructs@@PAU_MAPSPAWN@@U?$less@PAU_MAPLABEL@EQUIStructs@@@std@@V?$allocator@U?$pair@QAU_MAPLABEL@EQUIStructs@@PAU_MAPSPAWN@@@std@@@5@$0A@@std@@@std@@QAE?AViterator@12@Vconst_iterator@12@@Z$0 0402cd60 f   MQ2MapAPI.obj
 0001:0002bd68       __ehhandler$?erase@?$_Tree@V?$_Tmap_traits@PAU_MAPLABEL@EQUIStructs@@PAU_MAPSPAWN@@U?$less@PAU_MAPLABEL@EQUIStructs@@@std@@V?$allocator@U?$pair@QAU_MAPLABEL@EQUIStructs@@PAU_MAPSPAWN@@@std@@@5@$0A@@std@@@std@@QAE?AViterator@12@Vconst_iterator@12@@Z 0402cd68 f   MQ2MapAPI.obj
 0001:0002bd80       __unwindfunclet$??0?$_Tree@V?$_Tmap_traits@KPAU_MAPSPAWN@@U?$less@K@std@@V?$allocator@U?$pair@$$CBKPAU_MAPSPAWN@@@std@@@3@$0A@@std@@@std@@QAE@ABU?$less@K@1@ABV?$allocator@U?$pair@$$CBKPAU_MAPSPAWN@@@std@@@1@@Z$0 0402cd80 f   MQ2MapAPI.obj
 0001:0002bd88       __ehhandler$??0?$_Tree@V?$_Tmap_traits@KPAU_MAPSPAWN@@U?$less@K@std@@V?$allocator@U?$pair@$$CBKPAU_MAPSPAWN@@@std@@@3@$0A@@std@@@std@@QAE@ABU?$less@K@1@ABV?$allocator@U?$pair@$$CBKPAU_MAPSPAWN@@@std@@@1@@Z 0402cd88 f   MQ2MapAPI.obj
 0001:0002bda0       __unwindfunclet$??0?$_Tree@V?$_Tmap_traits@PAU_MAPLABEL@EQUIStructs@@PAU_MAPSPAWN@@U?$less@PAU_MAPLABEL@EQUIStructs@@@std@@V?$allocator@U?$pair@QAU_MAPLABEL@EQUIStructs@@PAU_MAPSPAWN@@@std@@@5@$0A@@std@@@std@@QAE@ABU?$less@PAU_MAPLABEL@EQUIStructs@@@1@ABV?$allocator@U?$pair@QAU_MAPLABEL@EQUIStructs@@PAU_MAPSPAWN@@@std@@@1@@Z$0 0402cda0 f   MQ2MapAPI.obj
 0001:0002bda8       __ehhandler$??0?$_Tree@V?$_Tmap_traits@PAU_MAPLABEL@EQUIStructs@@PAU_MAPSPAWN@@U?$less@PAU_MAPLABEL@EQUIStructs@@@std@@V?$allocator@U?$pair@QAU_MAPLABEL@EQUIStructs@@PAU_MAPSPAWN@@@std@@@5@$0A@@std@@@std@@QAE@ABU?$less@PAU_MAPLABEL@EQUIStructs@@@1@ABV?$allocator@U?$pair@QAU_MAPLABEL@EQUIStructs@@PAU_MAPSPAWN@@@std@@@1@@Z 0402cda8 f   MQ2MapAPI.obj
 0001:0002bdc0       __unwindfunclet$??1?$_Tree@V?$_Tmap_traits@KPAU_MAPSPAWN@@U?$less@K@std@@V?$allocator@U?$pair@$$CBKPAU_MAPSPAWN@@@std@@@3@$0A@@std@@@std@@QAE@XZ$0 0402cdc0 f   MQ2MapAPI.obj
 0001:0002bdc8       __ehhandler$??1?$_Tree@V?$_Tmap_traits@KPAU_MAPSPAWN@@U?$less@K@std@@V?$allocator@U?$pair@$$CBKPAU_MAPSPAWN@@@std@@@3@$0A@@std@@@std@@QAE@XZ 0402cdc8 f   MQ2MapAPI.obj
 0001:0002bde0       __unwindfunclet$??1?$_Tree@V?$_Tmap_traits@PAU_MAPLABEL@EQUIStructs@@PAU_MAPSPAWN@@U?$less@PAU_MAPLABEL@EQUIStructs@@@std@@V?$allocator@U?$pair@QAU_MAPLABEL@EQUIStructs@@PAU_MAPSPAWN@@@std@@@5@$0A@@std@@@std@@QAE@XZ$0 0402cde0 f   MQ2MapAPI.obj
 0001:0002bde8       __ehhandler$??1?$_Tree@V?$_Tmap_traits@PAU_MAPLABEL@EQUIStructs@@PAU_MAPSPAWN@@U?$less@PAU_MAPLABEL@EQUIStructs@@@std@@V?$allocator@U?$pair@QAU_MAPLABEL@EQUIStructs@@PAU_MAPSPAWN@@@std@@@5@$0A@@std@@@std@@QAE@XZ 0402cde8 f   MQ2MapAPI.obj
 0001:0002bdf2       __unwindfunclet$?_Xlen@_String_base@std@@SAXXZ$0 0402cdf2 f   libcpmt:string.obj
 0001:0002bdfa       __ehhandler$?_Xlen@_String_base@std@@SAXXZ 0402cdfa f   libcpmt:string.obj
 0001:0002be15       __unwindfunclet$?_Xran@_String_base@std@@SAXXZ$0 0402ce15 f   libcpmt:string.obj
 0001:0002be1d       __ehhandler$?_Xran@_String_base@std@@SAXXZ 0402ce1d f   libcpmt:string.obj
 0001:0002be38       __unwindfunclet$?_Xinvarg@_String_base@std@@SAXXZ$0 0402ce38 f   libcpmt:string.obj
 0001:0002be40       __ehhandler$?_Xinvarg@_String_base@std@@SAXXZ 0402ce40 f   libcpmt:string.obj
 0001:0002be5b       __ehhandler$?CallUnexpected@@YAXPBU_s_ESTypeList@@@Z 0402ce5b f   LIBCMT:frame.obj
 0001:0002be80       ??__ESpawnMap@@YAXXZ       0402ce80 f   MQ2MapAPI.obj
 0001:0002beb0       ??__EGroundItemMap@@YAXXZ  0402ceb0 f   MQ2MapAPI.obj
 0001:0002bee0       ??__ELabelMap@@YAXXZ       0402cee0 f   MQ2MapAPI.obj
 0001:0002bf10       ??__FGroundItemMap@@YAXXZ  0402cf10 f   MQ2MapAPI.obj
 0001:0002bf20       ??__FSpawnMap@@YAXXZ       0402cf20 f   MQ2MapAPI.obj
 0001:0002bf30       ??__FLabelMap@@YAXXZ       0402cf30 f   MQ2MapAPI.obj
 0001:0002bf3a       ??__Fnomem@?5???2@YAPAXI@Z@YAXXZ 0402cf3a f   LIBCMT:new.obj

 Exports

  ordinal    name

        1    _InitializePlugin
               exported name: InitializePlugin
        2    _OnAddGroundItem
               exported name: OnAddGroundItem
        3    _OnAddSpawn
               exported name: OnAddSpawn
        4    _OnRemoveGroundItem
               exported name: OnRemoveGroundItem
        5    _OnRemoveSpawn
               exported name: OnRemoveSpawn
        6    _SetGameState
               exported name: SetGameState
        7    _ShutdownPlugin
               exported name: ShutdownPlugin
